
Calculator.elf:     file format elf32-littlearm

Sections:
Idx Name          Size      VMA       LMA       File off  Algn
  0 .isr_vector   0000010c  08000000  08000000  00010000  2**0
                  CONTENTS, ALLOC, LOAD, READONLY, DATA
  1 .text         0000ae8c  08000110  08000110  00010110  2**3
                  CONTENTS, ALLOC, LOAD, READONLY, CODE
  2 .rodata       00000634  0800afa0  0800afa0  0001afa0  2**3
                  CONTENTS, ALLOC, LOAD, READONLY, DATA
  3 .ARM.extab    00000108  0800b5d4  0800b5d4  0001b5d4  2**2
                  CONTENTS, ALLOC, LOAD, READONLY, DATA
  4 .ARM          00000368  0800b6dc  0800b6dc  0001b6dc  2**2
                  CONTENTS, ALLOC, LOAD, READONLY, DATA
  5 .preinit_array 00000000  0800ba44  0800ba44  00020350  2**0
                  CONTENTS, ALLOC, LOAD, DATA
  6 .init_array   00000004  0800ba44  0800ba44  0001ba44  2**2
                  CONTENTS, ALLOC, LOAD, DATA
  7 .fini_array   00000004  0800ba48  0800ba48  0001ba48  2**2
                  CONTENTS, ALLOC, LOAD, DATA
  8 .data         00000350  20000000  0800ba4c  00020000  2**2
                  CONTENTS, ALLOC, LOAD, DATA
  9 .bss          00001268  20000350  0800bd9c  00020350  2**2
                  ALLOC
 10 ._user_heap_stack 00000600  200015b8  0800bd9c  000215b8  2**0
                  ALLOC
 11 .ARM.attributes 00000029  00000000  00000000  00020350  2**0
                  CONTENTS, READONLY
 12 .debug_info   00034f50  00000000  00000000  00020379  2**0
                  CONTENTS, READONLY, DEBUGGING, OCTETS
 13 .debug_abbrev 00005b18  00000000  00000000  000552c9  2**0
                  CONTENTS, READONLY, DEBUGGING, OCTETS
 14 .debug_aranges 00001368  00000000  00000000  0005ade8  2**3
                  CONTENTS, READONLY, DEBUGGING, OCTETS
 15 .debug_ranges 00001b28  00000000  00000000  0005c150  2**3
                  CONTENTS, READONLY, DEBUGGING, OCTETS
 16 .debug_macro  0001f824  00000000  00000000  0005dc78  2**0
                  CONTENTS, READONLY, DEBUGGING, OCTETS
 17 .debug_line   0001a76c  00000000  00000000  0007d49c  2**0
                  CONTENTS, READONLY, DEBUGGING, OCTETS
 18 .debug_str    0009c8c2  00000000  00000000  00097c08  2**0
                  CONTENTS, READONLY, DEBUGGING, OCTETS
 19 .comment      00000050  00000000  00000000  001344ca  2**0
                  CONTENTS, READONLY
 20 .debug_frame  00006c98  00000000  00000000  0013451c  2**2
                  CONTENTS, READONLY, DEBUGGING, OCTETS
 21 .debug_loc    00008cb1  00000000  00000000  0013b1b4  2**0
                  CONTENTS, READONLY, DEBUGGING, OCTETS

Disassembly of section .text:

08000110 <__do_global_dtors_aux>:
 8000110:	b510      	push	{r4, lr}
 8000112:	4c05      	ldr	r4, [pc, #20]	; (8000128 <__do_global_dtors_aux+0x18>)
 8000114:	7823      	ldrb	r3, [r4, #0]
 8000116:	b933      	cbnz	r3, 8000126 <__do_global_dtors_aux+0x16>
 8000118:	4b04      	ldr	r3, [pc, #16]	; (800012c <__do_global_dtors_aux+0x1c>)
 800011a:	b113      	cbz	r3, 8000122 <__do_global_dtors_aux+0x12>
 800011c:	4804      	ldr	r0, [pc, #16]	; (8000130 <__do_global_dtors_aux+0x20>)
 800011e:	f3af 8000 	nop.w
 8000122:	2301      	movs	r3, #1
 8000124:	7023      	strb	r3, [r4, #0]
 8000126:	bd10      	pop	{r4, pc}
 8000128:	20000350 	.word	0x20000350
 800012c:	00000000 	.word	0x00000000
 8000130:	0800af84 	.word	0x0800af84

08000134 <frame_dummy>:
 8000134:	b508      	push	{r3, lr}
 8000136:	4b03      	ldr	r3, [pc, #12]	; (8000144 <frame_dummy+0x10>)
 8000138:	b11b      	cbz	r3, 8000142 <frame_dummy+0xe>
 800013a:	4903      	ldr	r1, [pc, #12]	; (8000148 <frame_dummy+0x14>)
 800013c:	4803      	ldr	r0, [pc, #12]	; (800014c <frame_dummy+0x18>)
 800013e:	f3af 8000 	nop.w
 8000142:	bd08      	pop	{r3, pc}
 8000144:	00000000 	.word	0x00000000
 8000148:	20000354 	.word	0x20000354
 800014c:	0800af84 	.word	0x0800af84

08000150 <strlen>:
 8000150:	4603      	mov	r3, r0
 8000152:	f813 2b01 	ldrb.w	r2, [r3], #1
 8000156:	2a00      	cmp	r2, #0
 8000158:	d1fb      	bne.n	8000152 <strlen+0x2>
 800015a:	1a18      	subs	r0, r3, r0
 800015c:	3801      	subs	r0, #1
 800015e:	4770      	bx	lr

08000160 <__aeabi_drsub>:
 8000160:	f081 4100 	eor.w	r1, r1, #2147483648	; 0x80000000
 8000164:	e002      	b.n	800016c <__adddf3>
 8000166:	bf00      	nop

08000168 <__aeabi_dsub>:
 8000168:	f083 4300 	eor.w	r3, r3, #2147483648	; 0x80000000

0800016c <__adddf3>:
 800016c:	b530      	push	{r4, r5, lr}
 800016e:	ea4f 0441 	mov.w	r4, r1, lsl #1
 8000172:	ea4f 0543 	mov.w	r5, r3, lsl #1
 8000176:	ea94 0f05 	teq	r4, r5
 800017a:	bf08      	it	eq
 800017c:	ea90 0f02 	teqeq	r0, r2
 8000180:	bf1f      	itttt	ne
 8000182:	ea54 0c00 	orrsne.w	ip, r4, r0
 8000186:	ea55 0c02 	orrsne.w	ip, r5, r2
 800018a:	ea7f 5c64 	mvnsne.w	ip, r4, asr #21
 800018e:	ea7f 5c65 	mvnsne.w	ip, r5, asr #21
 8000192:	f000 80e2 	beq.w	800035a <__adddf3+0x1ee>
 8000196:	ea4f 5454 	mov.w	r4, r4, lsr #21
 800019a:	ebd4 5555 	rsbs	r5, r4, r5, lsr #21
 800019e:	bfb8      	it	lt
 80001a0:	426d      	neglt	r5, r5
 80001a2:	dd0c      	ble.n	80001be <__adddf3+0x52>
 80001a4:	442c      	add	r4, r5
 80001a6:	ea80 0202 	eor.w	r2, r0, r2
 80001aa:	ea81 0303 	eor.w	r3, r1, r3
 80001ae:	ea82 0000 	eor.w	r0, r2, r0
 80001b2:	ea83 0101 	eor.w	r1, r3, r1
 80001b6:	ea80 0202 	eor.w	r2, r0, r2
 80001ba:	ea81 0303 	eor.w	r3, r1, r3
 80001be:	2d36      	cmp	r5, #54	; 0x36
 80001c0:	bf88      	it	hi
 80001c2:	bd30      	pophi	{r4, r5, pc}
 80001c4:	f011 4f00 	tst.w	r1, #2147483648	; 0x80000000
 80001c8:	ea4f 3101 	mov.w	r1, r1, lsl #12
 80001cc:	f44f 1c80 	mov.w	ip, #1048576	; 0x100000
 80001d0:	ea4c 3111 	orr.w	r1, ip, r1, lsr #12
 80001d4:	d002      	beq.n	80001dc <__adddf3+0x70>
 80001d6:	4240      	negs	r0, r0
 80001d8:	eb61 0141 	sbc.w	r1, r1, r1, lsl #1
 80001dc:	f013 4f00 	tst.w	r3, #2147483648	; 0x80000000
 80001e0:	ea4f 3303 	mov.w	r3, r3, lsl #12
 80001e4:	ea4c 3313 	orr.w	r3, ip, r3, lsr #12
 80001e8:	d002      	beq.n	80001f0 <__adddf3+0x84>
 80001ea:	4252      	negs	r2, r2
 80001ec:	eb63 0343 	sbc.w	r3, r3, r3, lsl #1
 80001f0:	ea94 0f05 	teq	r4, r5
 80001f4:	f000 80a7 	beq.w	8000346 <__adddf3+0x1da>
 80001f8:	f1a4 0401 	sub.w	r4, r4, #1
 80001fc:	f1d5 0e20 	rsbs	lr, r5, #32
 8000200:	db0d      	blt.n	800021e <__adddf3+0xb2>
 8000202:	fa02 fc0e 	lsl.w	ip, r2, lr
 8000206:	fa22 f205 	lsr.w	r2, r2, r5
 800020a:	1880      	adds	r0, r0, r2
 800020c:	f141 0100 	adc.w	r1, r1, #0
 8000210:	fa03 f20e 	lsl.w	r2, r3, lr
 8000214:	1880      	adds	r0, r0, r2
 8000216:	fa43 f305 	asr.w	r3, r3, r5
 800021a:	4159      	adcs	r1, r3
 800021c:	e00e      	b.n	800023c <__adddf3+0xd0>
 800021e:	f1a5 0520 	sub.w	r5, r5, #32
 8000222:	f10e 0e20 	add.w	lr, lr, #32
 8000226:	2a01      	cmp	r2, #1
 8000228:	fa03 fc0e 	lsl.w	ip, r3, lr
 800022c:	bf28      	it	cs
 800022e:	f04c 0c02 	orrcs.w	ip, ip, #2
 8000232:	fa43 f305 	asr.w	r3, r3, r5
 8000236:	18c0      	adds	r0, r0, r3
 8000238:	eb51 71e3 	adcs.w	r1, r1, r3, asr #31
 800023c:	f001 4500 	and.w	r5, r1, #2147483648	; 0x80000000
 8000240:	d507      	bpl.n	8000252 <__adddf3+0xe6>
 8000242:	f04f 0e00 	mov.w	lr, #0
 8000246:	f1dc 0c00 	rsbs	ip, ip, #0
 800024a:	eb7e 0000 	sbcs.w	r0, lr, r0
 800024e:	eb6e 0101 	sbc.w	r1, lr, r1
 8000252:	f5b1 1f80 	cmp.w	r1, #1048576	; 0x100000
 8000256:	d31b      	bcc.n	8000290 <__adddf3+0x124>
 8000258:	f5b1 1f00 	cmp.w	r1, #2097152	; 0x200000
 800025c:	d30c      	bcc.n	8000278 <__adddf3+0x10c>
 800025e:	0849      	lsrs	r1, r1, #1
 8000260:	ea5f 0030 	movs.w	r0, r0, rrx
 8000264:	ea4f 0c3c 	mov.w	ip, ip, rrx
 8000268:	f104 0401 	add.w	r4, r4, #1
 800026c:	ea4f 5244 	mov.w	r2, r4, lsl #21
 8000270:	f512 0f80 	cmn.w	r2, #4194304	; 0x400000
 8000274:	f080 809a 	bcs.w	80003ac <__adddf3+0x240>
 8000278:	f1bc 4f00 	cmp.w	ip, #2147483648	; 0x80000000
 800027c:	bf08      	it	eq
 800027e:	ea5f 0c50 	movseq.w	ip, r0, lsr #1
 8000282:	f150 0000 	adcs.w	r0, r0, #0
 8000286:	eb41 5104 	adc.w	r1, r1, r4, lsl #20
 800028a:	ea41 0105 	orr.w	r1, r1, r5
 800028e:	bd30      	pop	{r4, r5, pc}
 8000290:	ea5f 0c4c 	movs.w	ip, ip, lsl #1
 8000294:	4140      	adcs	r0, r0
 8000296:	eb41 0101 	adc.w	r1, r1, r1
 800029a:	3c01      	subs	r4, #1
 800029c:	bf28      	it	cs
 800029e:	f5b1 1f80 	cmpcs.w	r1, #1048576	; 0x100000
 80002a2:	d2e9      	bcs.n	8000278 <__adddf3+0x10c>
 80002a4:	f091 0f00 	teq	r1, #0
 80002a8:	bf04      	itt	eq
 80002aa:	4601      	moveq	r1, r0
 80002ac:	2000      	moveq	r0, #0
 80002ae:	fab1 f381 	clz	r3, r1
 80002b2:	bf08      	it	eq
 80002b4:	3320      	addeq	r3, #32
 80002b6:	f1a3 030b 	sub.w	r3, r3, #11
 80002ba:	f1b3 0220 	subs.w	r2, r3, #32
 80002be:	da0c      	bge.n	80002da <__adddf3+0x16e>
 80002c0:	320c      	adds	r2, #12
 80002c2:	dd08      	ble.n	80002d6 <__adddf3+0x16a>
 80002c4:	f102 0c14 	add.w	ip, r2, #20
 80002c8:	f1c2 020c 	rsb	r2, r2, #12
 80002cc:	fa01 f00c 	lsl.w	r0, r1, ip
 80002d0:	fa21 f102 	lsr.w	r1, r1, r2
 80002d4:	e00c      	b.n	80002f0 <__adddf3+0x184>
 80002d6:	f102 0214 	add.w	r2, r2, #20
 80002da:	bfd8      	it	le
 80002dc:	f1c2 0c20 	rsble	ip, r2, #32
 80002e0:	fa01 f102 	lsl.w	r1, r1, r2
 80002e4:	fa20 fc0c 	lsr.w	ip, r0, ip
 80002e8:	bfdc      	itt	le
 80002ea:	ea41 010c 	orrle.w	r1, r1, ip
 80002ee:	4090      	lslle	r0, r2
 80002f0:	1ae4      	subs	r4, r4, r3
 80002f2:	bfa2      	ittt	ge
 80002f4:	eb01 5104 	addge.w	r1, r1, r4, lsl #20
 80002f8:	4329      	orrge	r1, r5
 80002fa:	bd30      	popge	{r4, r5, pc}
 80002fc:	ea6f 0404 	mvn.w	r4, r4
 8000300:	3c1f      	subs	r4, #31
 8000302:	da1c      	bge.n	800033e <__adddf3+0x1d2>
 8000304:	340c      	adds	r4, #12
 8000306:	dc0e      	bgt.n	8000326 <__adddf3+0x1ba>
 8000308:	f104 0414 	add.w	r4, r4, #20
 800030c:	f1c4 0220 	rsb	r2, r4, #32
 8000310:	fa20 f004 	lsr.w	r0, r0, r4
 8000314:	fa01 f302 	lsl.w	r3, r1, r2
 8000318:	ea40 0003 	orr.w	r0, r0, r3
 800031c:	fa21 f304 	lsr.w	r3, r1, r4
 8000320:	ea45 0103 	orr.w	r1, r5, r3
 8000324:	bd30      	pop	{r4, r5, pc}
 8000326:	f1c4 040c 	rsb	r4, r4, #12
 800032a:	f1c4 0220 	rsb	r2, r4, #32
 800032e:	fa20 f002 	lsr.w	r0, r0, r2
 8000332:	fa01 f304 	lsl.w	r3, r1, r4
 8000336:	ea40 0003 	orr.w	r0, r0, r3
 800033a:	4629      	mov	r1, r5
 800033c:	bd30      	pop	{r4, r5, pc}
 800033e:	fa21 f004 	lsr.w	r0, r1, r4
 8000342:	4629      	mov	r1, r5
 8000344:	bd30      	pop	{r4, r5, pc}
 8000346:	f094 0f00 	teq	r4, #0
 800034a:	f483 1380 	eor.w	r3, r3, #1048576	; 0x100000
 800034e:	bf06      	itte	eq
 8000350:	f481 1180 	eoreq.w	r1, r1, #1048576	; 0x100000
 8000354:	3401      	addeq	r4, #1
 8000356:	3d01      	subne	r5, #1
 8000358:	e74e      	b.n	80001f8 <__adddf3+0x8c>
 800035a:	ea7f 5c64 	mvns.w	ip, r4, asr #21
 800035e:	bf18      	it	ne
 8000360:	ea7f 5c65 	mvnsne.w	ip, r5, asr #21
 8000364:	d029      	beq.n	80003ba <__adddf3+0x24e>
 8000366:	ea94 0f05 	teq	r4, r5
 800036a:	bf08      	it	eq
 800036c:	ea90 0f02 	teqeq	r0, r2
 8000370:	d005      	beq.n	800037e <__adddf3+0x212>
 8000372:	ea54 0c00 	orrs.w	ip, r4, r0
 8000376:	bf04      	itt	eq
 8000378:	4619      	moveq	r1, r3
 800037a:	4610      	moveq	r0, r2
 800037c:	bd30      	pop	{r4, r5, pc}
 800037e:	ea91 0f03 	teq	r1, r3
 8000382:	bf1e      	ittt	ne
 8000384:	2100      	movne	r1, #0
 8000386:	2000      	movne	r0, #0
 8000388:	bd30      	popne	{r4, r5, pc}
 800038a:	ea5f 5c54 	movs.w	ip, r4, lsr #21
 800038e:	d105      	bne.n	800039c <__adddf3+0x230>
 8000390:	0040      	lsls	r0, r0, #1
 8000392:	4149      	adcs	r1, r1
 8000394:	bf28      	it	cs
 8000396:	f041 4100 	orrcs.w	r1, r1, #2147483648	; 0x80000000
 800039a:	bd30      	pop	{r4, r5, pc}
 800039c:	f514 0480 	adds.w	r4, r4, #4194304	; 0x400000
 80003a0:	bf3c      	itt	cc
 80003a2:	f501 1180 	addcc.w	r1, r1, #1048576	; 0x100000
 80003a6:	bd30      	popcc	{r4, r5, pc}
 80003a8:	f001 4500 	and.w	r5, r1, #2147483648	; 0x80000000
 80003ac:	f045 41fe 	orr.w	r1, r5, #2130706432	; 0x7f000000
 80003b0:	f441 0170 	orr.w	r1, r1, #15728640	; 0xf00000
 80003b4:	f04f 0000 	mov.w	r0, #0
 80003b8:	bd30      	pop	{r4, r5, pc}
 80003ba:	ea7f 5c64 	mvns.w	ip, r4, asr #21
 80003be:	bf1a      	itte	ne
 80003c0:	4619      	movne	r1, r3
 80003c2:	4610      	movne	r0, r2
 80003c4:	ea7f 5c65 	mvnseq.w	ip, r5, asr #21
 80003c8:	bf1c      	itt	ne
 80003ca:	460b      	movne	r3, r1
 80003cc:	4602      	movne	r2, r0
 80003ce:	ea50 3401 	orrs.w	r4, r0, r1, lsl #12
 80003d2:	bf06      	itte	eq
 80003d4:	ea52 3503 	orrseq.w	r5, r2, r3, lsl #12
 80003d8:	ea91 0f03 	teqeq	r1, r3
 80003dc:	f441 2100 	orrne.w	r1, r1, #524288	; 0x80000
 80003e0:	bd30      	pop	{r4, r5, pc}
 80003e2:	bf00      	nop

080003e4 <__aeabi_ui2d>:
 80003e4:	f090 0f00 	teq	r0, #0
 80003e8:	bf04      	itt	eq
 80003ea:	2100      	moveq	r1, #0
 80003ec:	4770      	bxeq	lr
 80003ee:	b530      	push	{r4, r5, lr}
 80003f0:	f44f 6480 	mov.w	r4, #1024	; 0x400
 80003f4:	f104 0432 	add.w	r4, r4, #50	; 0x32
 80003f8:	f04f 0500 	mov.w	r5, #0
 80003fc:	f04f 0100 	mov.w	r1, #0
 8000400:	e750      	b.n	80002a4 <__adddf3+0x138>
 8000402:	bf00      	nop

08000404 <__aeabi_i2d>:
 8000404:	f090 0f00 	teq	r0, #0
 8000408:	bf04      	itt	eq
 800040a:	2100      	moveq	r1, #0
 800040c:	4770      	bxeq	lr
 800040e:	b530      	push	{r4, r5, lr}
 8000410:	f44f 6480 	mov.w	r4, #1024	; 0x400
 8000414:	f104 0432 	add.w	r4, r4, #50	; 0x32
 8000418:	f010 4500 	ands.w	r5, r0, #2147483648	; 0x80000000
 800041c:	bf48      	it	mi
 800041e:	4240      	negmi	r0, r0
 8000420:	f04f 0100 	mov.w	r1, #0
 8000424:	e73e      	b.n	80002a4 <__adddf3+0x138>
 8000426:	bf00      	nop

08000428 <__aeabi_f2d>:
 8000428:	0042      	lsls	r2, r0, #1
 800042a:	ea4f 01e2 	mov.w	r1, r2, asr #3
 800042e:	ea4f 0131 	mov.w	r1, r1, rrx
 8000432:	ea4f 7002 	mov.w	r0, r2, lsl #28
 8000436:	bf1f      	itttt	ne
 8000438:	f012 437f 	andsne.w	r3, r2, #4278190080	; 0xff000000
 800043c:	f093 4f7f 	teqne	r3, #4278190080	; 0xff000000
 8000440:	f081 5160 	eorne.w	r1, r1, #939524096	; 0x38000000
 8000444:	4770      	bxne	lr
 8000446:	f032 427f 	bics.w	r2, r2, #4278190080	; 0xff000000
 800044a:	bf08      	it	eq
 800044c:	4770      	bxeq	lr
 800044e:	f093 4f7f 	teq	r3, #4278190080	; 0xff000000
 8000452:	bf04      	itt	eq
 8000454:	f441 2100 	orreq.w	r1, r1, #524288	; 0x80000
 8000458:	4770      	bxeq	lr
 800045a:	b530      	push	{r4, r5, lr}
 800045c:	f44f 7460 	mov.w	r4, #896	; 0x380
 8000460:	f001 4500 	and.w	r5, r1, #2147483648	; 0x80000000
 8000464:	f021 4100 	bic.w	r1, r1, #2147483648	; 0x80000000
 8000468:	e71c      	b.n	80002a4 <__adddf3+0x138>
 800046a:	bf00      	nop

0800046c <__aeabi_ul2d>:
 800046c:	ea50 0201 	orrs.w	r2, r0, r1
 8000470:	bf08      	it	eq
 8000472:	4770      	bxeq	lr
 8000474:	b530      	push	{r4, r5, lr}
 8000476:	f04f 0500 	mov.w	r5, #0
 800047a:	e00a      	b.n	8000492 <__aeabi_l2d+0x16>

0800047c <__aeabi_l2d>:
 800047c:	ea50 0201 	orrs.w	r2, r0, r1
 8000480:	bf08      	it	eq
 8000482:	4770      	bxeq	lr
 8000484:	b530      	push	{r4, r5, lr}
 8000486:	f011 4500 	ands.w	r5, r1, #2147483648	; 0x80000000
 800048a:	d502      	bpl.n	8000492 <__aeabi_l2d+0x16>
 800048c:	4240      	negs	r0, r0
 800048e:	eb61 0141 	sbc.w	r1, r1, r1, lsl #1
 8000492:	f44f 6480 	mov.w	r4, #1024	; 0x400
 8000496:	f104 0432 	add.w	r4, r4, #50	; 0x32
 800049a:	ea5f 5c91 	movs.w	ip, r1, lsr #22
 800049e:	f43f aed8 	beq.w	8000252 <__adddf3+0xe6>
 80004a2:	f04f 0203 	mov.w	r2, #3
 80004a6:	ea5f 0cdc 	movs.w	ip, ip, lsr #3
 80004aa:	bf18      	it	ne
 80004ac:	3203      	addne	r2, #3
 80004ae:	ea5f 0cdc 	movs.w	ip, ip, lsr #3
 80004b2:	bf18      	it	ne
 80004b4:	3203      	addne	r2, #3
 80004b6:	eb02 02dc 	add.w	r2, r2, ip, lsr #3
 80004ba:	f1c2 0320 	rsb	r3, r2, #32
 80004be:	fa00 fc03 	lsl.w	ip, r0, r3
 80004c2:	fa20 f002 	lsr.w	r0, r0, r2
 80004c6:	fa01 fe03 	lsl.w	lr, r1, r3
 80004ca:	ea40 000e 	orr.w	r0, r0, lr
 80004ce:	fa21 f102 	lsr.w	r1, r1, r2
 80004d2:	4414      	add	r4, r2
 80004d4:	e6bd      	b.n	8000252 <__adddf3+0xe6>
 80004d6:	bf00      	nop

080004d8 <__aeabi_dmul>:
 80004d8:	b570      	push	{r4, r5, r6, lr}
 80004da:	f04f 0cff 	mov.w	ip, #255	; 0xff
 80004de:	f44c 6ce0 	orr.w	ip, ip, #1792	; 0x700
 80004e2:	ea1c 5411 	ands.w	r4, ip, r1, lsr #20
 80004e6:	bf1d      	ittte	ne
 80004e8:	ea1c 5513 	andsne.w	r5, ip, r3, lsr #20
 80004ec:	ea94 0f0c 	teqne	r4, ip
 80004f0:	ea95 0f0c 	teqne	r5, ip
 80004f4:	f000 f8de 	bleq	80006b4 <__aeabi_dmul+0x1dc>
 80004f8:	442c      	add	r4, r5
 80004fa:	ea81 0603 	eor.w	r6, r1, r3
 80004fe:	ea21 514c 	bic.w	r1, r1, ip, lsl #21
 8000502:	ea23 534c 	bic.w	r3, r3, ip, lsl #21
 8000506:	ea50 3501 	orrs.w	r5, r0, r1, lsl #12
 800050a:	bf18      	it	ne
 800050c:	ea52 3503 	orrsne.w	r5, r2, r3, lsl #12
 8000510:	f441 1180 	orr.w	r1, r1, #1048576	; 0x100000
 8000514:	f443 1380 	orr.w	r3, r3, #1048576	; 0x100000
 8000518:	d038      	beq.n	800058c <__aeabi_dmul+0xb4>
 800051a:	fba0 ce02 	umull	ip, lr, r0, r2
 800051e:	f04f 0500 	mov.w	r5, #0
 8000522:	fbe1 e502 	umlal	lr, r5, r1, r2
 8000526:	f006 4200 	and.w	r2, r6, #2147483648	; 0x80000000
 800052a:	fbe0 e503 	umlal	lr, r5, r0, r3
 800052e:	f04f 0600 	mov.w	r6, #0
 8000532:	fbe1 5603 	umlal	r5, r6, r1, r3
 8000536:	f09c 0f00 	teq	ip, #0
 800053a:	bf18      	it	ne
 800053c:	f04e 0e01 	orrne.w	lr, lr, #1
 8000540:	f1a4 04ff 	sub.w	r4, r4, #255	; 0xff
 8000544:	f5b6 7f00 	cmp.w	r6, #512	; 0x200
 8000548:	f564 7440 	sbc.w	r4, r4, #768	; 0x300
 800054c:	d204      	bcs.n	8000558 <__aeabi_dmul+0x80>
 800054e:	ea5f 0e4e 	movs.w	lr, lr, lsl #1
 8000552:	416d      	adcs	r5, r5
 8000554:	eb46 0606 	adc.w	r6, r6, r6
 8000558:	ea42 21c6 	orr.w	r1, r2, r6, lsl #11
 800055c:	ea41 5155 	orr.w	r1, r1, r5, lsr #21
 8000560:	ea4f 20c5 	mov.w	r0, r5, lsl #11
 8000564:	ea40 505e 	orr.w	r0, r0, lr, lsr #21
 8000568:	ea4f 2ece 	mov.w	lr, lr, lsl #11
 800056c:	f1b4 0cfd 	subs.w	ip, r4, #253	; 0xfd
 8000570:	bf88      	it	hi
 8000572:	f5bc 6fe0 	cmphi.w	ip, #1792	; 0x700
 8000576:	d81e      	bhi.n	80005b6 <__aeabi_dmul+0xde>
 8000578:	f1be 4f00 	cmp.w	lr, #2147483648	; 0x80000000
 800057c:	bf08      	it	eq
 800057e:	ea5f 0e50 	movseq.w	lr, r0, lsr #1
 8000582:	f150 0000 	adcs.w	r0, r0, #0
 8000586:	eb41 5104 	adc.w	r1, r1, r4, lsl #20
 800058a:	bd70      	pop	{r4, r5, r6, pc}
 800058c:	f006 4600 	and.w	r6, r6, #2147483648	; 0x80000000
 8000590:	ea46 0101 	orr.w	r1, r6, r1
 8000594:	ea40 0002 	orr.w	r0, r0, r2
 8000598:	ea81 0103 	eor.w	r1, r1, r3
 800059c:	ebb4 045c 	subs.w	r4, r4, ip, lsr #1
 80005a0:	bfc2      	ittt	gt
 80005a2:	ebd4 050c 	rsbsgt	r5, r4, ip
 80005a6:	ea41 5104 	orrgt.w	r1, r1, r4, lsl #20
 80005aa:	bd70      	popgt	{r4, r5, r6, pc}
 80005ac:	f441 1180 	orr.w	r1, r1, #1048576	; 0x100000
 80005b0:	f04f 0e00 	mov.w	lr, #0
 80005b4:	3c01      	subs	r4, #1
 80005b6:	f300 80ab 	bgt.w	8000710 <__aeabi_dmul+0x238>
 80005ba:	f114 0f36 	cmn.w	r4, #54	; 0x36
 80005be:	bfde      	ittt	le
 80005c0:	2000      	movle	r0, #0
 80005c2:	f001 4100 	andle.w	r1, r1, #2147483648	; 0x80000000
 80005c6:	bd70      	pople	{r4, r5, r6, pc}
 80005c8:	f1c4 0400 	rsb	r4, r4, #0
 80005cc:	3c20      	subs	r4, #32
 80005ce:	da35      	bge.n	800063c <__aeabi_dmul+0x164>
 80005d0:	340c      	adds	r4, #12
 80005d2:	dc1b      	bgt.n	800060c <__aeabi_dmul+0x134>
 80005d4:	f104 0414 	add.w	r4, r4, #20
 80005d8:	f1c4 0520 	rsb	r5, r4, #32
 80005dc:	fa00 f305 	lsl.w	r3, r0, r5
 80005e0:	fa20 f004 	lsr.w	r0, r0, r4
 80005e4:	fa01 f205 	lsl.w	r2, r1, r5
 80005e8:	ea40 0002 	orr.w	r0, r0, r2
 80005ec:	f001 4200 	and.w	r2, r1, #2147483648	; 0x80000000
 80005f0:	f021 4100 	bic.w	r1, r1, #2147483648	; 0x80000000
 80005f4:	eb10 70d3 	adds.w	r0, r0, r3, lsr #31
 80005f8:	fa21 f604 	lsr.w	r6, r1, r4
 80005fc:	eb42 0106 	adc.w	r1, r2, r6
 8000600:	ea5e 0e43 	orrs.w	lr, lr, r3, lsl #1
 8000604:	bf08      	it	eq
 8000606:	ea20 70d3 	biceq.w	r0, r0, r3, lsr #31
 800060a:	bd70      	pop	{r4, r5, r6, pc}
 800060c:	f1c4 040c 	rsb	r4, r4, #12
 8000610:	f1c4 0520 	rsb	r5, r4, #32
 8000614:	fa00 f304 	lsl.w	r3, r0, r4
 8000618:	fa20 f005 	lsr.w	r0, r0, r5
 800061c:	fa01 f204 	lsl.w	r2, r1, r4
 8000620:	ea40 0002 	orr.w	r0, r0, r2
 8000624:	f001 4100 	and.w	r1, r1, #2147483648	; 0x80000000
 8000628:	eb10 70d3 	adds.w	r0, r0, r3, lsr #31
 800062c:	f141 0100 	adc.w	r1, r1, #0
 8000630:	ea5e 0e43 	orrs.w	lr, lr, r3, lsl #1
 8000634:	bf08      	it	eq
 8000636:	ea20 70d3 	biceq.w	r0, r0, r3, lsr #31
 800063a:	bd70      	pop	{r4, r5, r6, pc}
 800063c:	f1c4 0520 	rsb	r5, r4, #32
 8000640:	fa00 f205 	lsl.w	r2, r0, r5
 8000644:	ea4e 0e02 	orr.w	lr, lr, r2
 8000648:	fa20 f304 	lsr.w	r3, r0, r4
 800064c:	fa01 f205 	lsl.w	r2, r1, r5
 8000650:	ea43 0302 	orr.w	r3, r3, r2
 8000654:	fa21 f004 	lsr.w	r0, r1, r4
 8000658:	f001 4100 	and.w	r1, r1, #2147483648	; 0x80000000
 800065c:	fa21 f204 	lsr.w	r2, r1, r4
 8000660:	ea20 0002 	bic.w	r0, r0, r2
 8000664:	eb00 70d3 	add.w	r0, r0, r3, lsr #31
 8000668:	ea5e 0e43 	orrs.w	lr, lr, r3, lsl #1
 800066c:	bf08      	it	eq
 800066e:	ea20 70d3 	biceq.w	r0, r0, r3, lsr #31
 8000672:	bd70      	pop	{r4, r5, r6, pc}
 8000674:	f094 0f00 	teq	r4, #0
 8000678:	d10f      	bne.n	800069a <__aeabi_dmul+0x1c2>
 800067a:	f001 4600 	and.w	r6, r1, #2147483648	; 0x80000000
 800067e:	0040      	lsls	r0, r0, #1
 8000680:	eb41 0101 	adc.w	r1, r1, r1
 8000684:	f411 1f80 	tst.w	r1, #1048576	; 0x100000
 8000688:	bf08      	it	eq
 800068a:	3c01      	subeq	r4, #1
 800068c:	d0f7      	beq.n	800067e <__aeabi_dmul+0x1a6>
 800068e:	ea41 0106 	orr.w	r1, r1, r6
 8000692:	f095 0f00 	teq	r5, #0
 8000696:	bf18      	it	ne
 8000698:	4770      	bxne	lr
 800069a:	f003 4600 	and.w	r6, r3, #2147483648	; 0x80000000
 800069e:	0052      	lsls	r2, r2, #1
 80006a0:	eb43 0303 	adc.w	r3, r3, r3
 80006a4:	f413 1f80 	tst.w	r3, #1048576	; 0x100000
 80006a8:	bf08      	it	eq
 80006aa:	3d01      	subeq	r5, #1
 80006ac:	d0f7      	beq.n	800069e <__aeabi_dmul+0x1c6>
 80006ae:	ea43 0306 	orr.w	r3, r3, r6
 80006b2:	4770      	bx	lr
 80006b4:	ea94 0f0c 	teq	r4, ip
 80006b8:	ea0c 5513 	and.w	r5, ip, r3, lsr #20
 80006bc:	bf18      	it	ne
 80006be:	ea95 0f0c 	teqne	r5, ip
 80006c2:	d00c      	beq.n	80006de <__aeabi_dmul+0x206>
 80006c4:	ea50 0641 	orrs.w	r6, r0, r1, lsl #1
 80006c8:	bf18      	it	ne
 80006ca:	ea52 0643 	orrsne.w	r6, r2, r3, lsl #1
 80006ce:	d1d1      	bne.n	8000674 <__aeabi_dmul+0x19c>
 80006d0:	ea81 0103 	eor.w	r1, r1, r3
 80006d4:	f001 4100 	and.w	r1, r1, #2147483648	; 0x80000000
 80006d8:	f04f 0000 	mov.w	r0, #0
 80006dc:	bd70      	pop	{r4, r5, r6, pc}
 80006de:	ea50 0641 	orrs.w	r6, r0, r1, lsl #1
 80006e2:	bf06      	itte	eq
 80006e4:	4610      	moveq	r0, r2
 80006e6:	4619      	moveq	r1, r3
 80006e8:	ea52 0643 	orrsne.w	r6, r2, r3, lsl #1
 80006ec:	d019      	beq.n	8000722 <__aeabi_dmul+0x24a>
 80006ee:	ea94 0f0c 	teq	r4, ip
 80006f2:	d102      	bne.n	80006fa <__aeabi_dmul+0x222>
 80006f4:	ea50 3601 	orrs.w	r6, r0, r1, lsl #12
 80006f8:	d113      	bne.n	8000722 <__aeabi_dmul+0x24a>
 80006fa:	ea95 0f0c 	teq	r5, ip
 80006fe:	d105      	bne.n	800070c <__aeabi_dmul+0x234>
 8000700:	ea52 3603 	orrs.w	r6, r2, r3, lsl #12
 8000704:	bf1c      	itt	ne
 8000706:	4610      	movne	r0, r2
 8000708:	4619      	movne	r1, r3
 800070a:	d10a      	bne.n	8000722 <__aeabi_dmul+0x24a>
 800070c:	ea81 0103 	eor.w	r1, r1, r3
 8000710:	f001 4100 	and.w	r1, r1, #2147483648	; 0x80000000
 8000714:	f041 41fe 	orr.w	r1, r1, #2130706432	; 0x7f000000
 8000718:	f441 0170 	orr.w	r1, r1, #15728640	; 0xf00000
 800071c:	f04f 0000 	mov.w	r0, #0
 8000720:	bd70      	pop	{r4, r5, r6, pc}
 8000722:	f041 41fe 	orr.w	r1, r1, #2130706432	; 0x7f000000
 8000726:	f441 0178 	orr.w	r1, r1, #16252928	; 0xf80000
 800072a:	bd70      	pop	{r4, r5, r6, pc}

0800072c <__aeabi_ddiv>:
 800072c:	b570      	push	{r4, r5, r6, lr}
 800072e:	f04f 0cff 	mov.w	ip, #255	; 0xff
 8000732:	f44c 6ce0 	orr.w	ip, ip, #1792	; 0x700
 8000736:	ea1c 5411 	ands.w	r4, ip, r1, lsr #20
 800073a:	bf1d      	ittte	ne
 800073c:	ea1c 5513 	andsne.w	r5, ip, r3, lsr #20
 8000740:	ea94 0f0c 	teqne	r4, ip
 8000744:	ea95 0f0c 	teqne	r5, ip
 8000748:	f000 f8a7 	bleq	800089a <__aeabi_ddiv+0x16e>
 800074c:	eba4 0405 	sub.w	r4, r4, r5
 8000750:	ea81 0e03 	eor.w	lr, r1, r3
 8000754:	ea52 3503 	orrs.w	r5, r2, r3, lsl #12
 8000758:	ea4f 3101 	mov.w	r1, r1, lsl #12
 800075c:	f000 8088 	beq.w	8000870 <__aeabi_ddiv+0x144>
 8000760:	ea4f 3303 	mov.w	r3, r3, lsl #12
 8000764:	f04f 5580 	mov.w	r5, #268435456	; 0x10000000
 8000768:	ea45 1313 	orr.w	r3, r5, r3, lsr #4
 800076c:	ea43 6312 	orr.w	r3, r3, r2, lsr #24
 8000770:	ea4f 2202 	mov.w	r2, r2, lsl #8
 8000774:	ea45 1511 	orr.w	r5, r5, r1, lsr #4
 8000778:	ea45 6510 	orr.w	r5, r5, r0, lsr #24
 800077c:	ea4f 2600 	mov.w	r6, r0, lsl #8
 8000780:	f00e 4100 	and.w	r1, lr, #2147483648	; 0x80000000
 8000784:	429d      	cmp	r5, r3
 8000786:	bf08      	it	eq
 8000788:	4296      	cmpeq	r6, r2
 800078a:	f144 04fd 	adc.w	r4, r4, #253	; 0xfd
 800078e:	f504 7440 	add.w	r4, r4, #768	; 0x300
 8000792:	d202      	bcs.n	800079a <__aeabi_ddiv+0x6e>
 8000794:	085b      	lsrs	r3, r3, #1
 8000796:	ea4f 0232 	mov.w	r2, r2, rrx
 800079a:	1ab6      	subs	r6, r6, r2
 800079c:	eb65 0503 	sbc.w	r5, r5, r3
 80007a0:	085b      	lsrs	r3, r3, #1
 80007a2:	ea4f 0232 	mov.w	r2, r2, rrx
 80007a6:	f44f 1080 	mov.w	r0, #1048576	; 0x100000
 80007aa:	f44f 2c00 	mov.w	ip, #524288	; 0x80000
 80007ae:	ebb6 0e02 	subs.w	lr, r6, r2
 80007b2:	eb75 0e03 	sbcs.w	lr, r5, r3
 80007b6:	bf22      	ittt	cs
 80007b8:	1ab6      	subcs	r6, r6, r2
 80007ba:	4675      	movcs	r5, lr
 80007bc:	ea40 000c 	orrcs.w	r0, r0, ip
 80007c0:	085b      	lsrs	r3, r3, #1
 80007c2:	ea4f 0232 	mov.w	r2, r2, rrx
 80007c6:	ebb6 0e02 	subs.w	lr, r6, r2
 80007ca:	eb75 0e03 	sbcs.w	lr, r5, r3
 80007ce:	bf22      	ittt	cs
 80007d0:	1ab6      	subcs	r6, r6, r2
 80007d2:	4675      	movcs	r5, lr
 80007d4:	ea40 005c 	orrcs.w	r0, r0, ip, lsr #1
 80007d8:	085b      	lsrs	r3, r3, #1
 80007da:	ea4f 0232 	mov.w	r2, r2, rrx
 80007de:	ebb6 0e02 	subs.w	lr, r6, r2
 80007e2:	eb75 0e03 	sbcs.w	lr, r5, r3
 80007e6:	bf22      	ittt	cs
 80007e8:	1ab6      	subcs	r6, r6, r2
 80007ea:	4675      	movcs	r5, lr
 80007ec:	ea40 009c 	orrcs.w	r0, r0, ip, lsr #2
 80007f0:	085b      	lsrs	r3, r3, #1
 80007f2:	ea4f 0232 	mov.w	r2, r2, rrx
 80007f6:	ebb6 0e02 	subs.w	lr, r6, r2
 80007fa:	eb75 0e03 	sbcs.w	lr, r5, r3
 80007fe:	bf22      	ittt	cs
 8000800:	1ab6      	subcs	r6, r6, r2
 8000802:	4675      	movcs	r5, lr
 8000804:	ea40 00dc 	orrcs.w	r0, r0, ip, lsr #3
 8000808:	ea55 0e06 	orrs.w	lr, r5, r6
 800080c:	d018      	beq.n	8000840 <__aeabi_ddiv+0x114>
 800080e:	ea4f 1505 	mov.w	r5, r5, lsl #4
 8000812:	ea45 7516 	orr.w	r5, r5, r6, lsr #28
 8000816:	ea4f 1606 	mov.w	r6, r6, lsl #4
 800081a:	ea4f 03c3 	mov.w	r3, r3, lsl #3
 800081e:	ea43 7352 	orr.w	r3, r3, r2, lsr #29
 8000822:	ea4f 02c2 	mov.w	r2, r2, lsl #3
 8000826:	ea5f 1c1c 	movs.w	ip, ip, lsr #4
 800082a:	d1c0      	bne.n	80007ae <__aeabi_ddiv+0x82>
 800082c:	f411 1f80 	tst.w	r1, #1048576	; 0x100000
 8000830:	d10b      	bne.n	800084a <__aeabi_ddiv+0x11e>
 8000832:	ea41 0100 	orr.w	r1, r1, r0
 8000836:	f04f 0000 	mov.w	r0, #0
 800083a:	f04f 4c00 	mov.w	ip, #2147483648	; 0x80000000
 800083e:	e7b6      	b.n	80007ae <__aeabi_ddiv+0x82>
 8000840:	f411 1f80 	tst.w	r1, #1048576	; 0x100000
 8000844:	bf04      	itt	eq
 8000846:	4301      	orreq	r1, r0
 8000848:	2000      	moveq	r0, #0
 800084a:	f1b4 0cfd 	subs.w	ip, r4, #253	; 0xfd
 800084e:	bf88      	it	hi
 8000850:	f5bc 6fe0 	cmphi.w	ip, #1792	; 0x700
 8000854:	f63f aeaf 	bhi.w	80005b6 <__aeabi_dmul+0xde>
 8000858:	ebb5 0c03 	subs.w	ip, r5, r3
 800085c:	bf04      	itt	eq
 800085e:	ebb6 0c02 	subseq.w	ip, r6, r2
 8000862:	ea5f 0c50 	movseq.w	ip, r0, lsr #1
 8000866:	f150 0000 	adcs.w	r0, r0, #0
 800086a:	eb41 5104 	adc.w	r1, r1, r4, lsl #20
 800086e:	bd70      	pop	{r4, r5, r6, pc}
 8000870:	f00e 4e00 	and.w	lr, lr, #2147483648	; 0x80000000
 8000874:	ea4e 3111 	orr.w	r1, lr, r1, lsr #12
 8000878:	eb14 045c 	adds.w	r4, r4, ip, lsr #1
 800087c:	bfc2      	ittt	gt
 800087e:	ebd4 050c 	rsbsgt	r5, r4, ip
 8000882:	ea41 5104 	orrgt.w	r1, r1, r4, lsl #20
 8000886:	bd70      	popgt	{r4, r5, r6, pc}
 8000888:	f441 1180 	orr.w	r1, r1, #1048576	; 0x100000
 800088c:	f04f 0e00 	mov.w	lr, #0
 8000890:	3c01      	subs	r4, #1
 8000892:	e690      	b.n	80005b6 <__aeabi_dmul+0xde>
 8000894:	ea45 0e06 	orr.w	lr, r5, r6
 8000898:	e68d      	b.n	80005b6 <__aeabi_dmul+0xde>
 800089a:	ea0c 5513 	and.w	r5, ip, r3, lsr #20
 800089e:	ea94 0f0c 	teq	r4, ip
 80008a2:	bf08      	it	eq
 80008a4:	ea95 0f0c 	teqeq	r5, ip
 80008a8:	f43f af3b 	beq.w	8000722 <__aeabi_dmul+0x24a>
 80008ac:	ea94 0f0c 	teq	r4, ip
 80008b0:	d10a      	bne.n	80008c8 <__aeabi_ddiv+0x19c>
 80008b2:	ea50 3401 	orrs.w	r4, r0, r1, lsl #12
 80008b6:	f47f af34 	bne.w	8000722 <__aeabi_dmul+0x24a>
 80008ba:	ea95 0f0c 	teq	r5, ip
 80008be:	f47f af25 	bne.w	800070c <__aeabi_dmul+0x234>
 80008c2:	4610      	mov	r0, r2
 80008c4:	4619      	mov	r1, r3
 80008c6:	e72c      	b.n	8000722 <__aeabi_dmul+0x24a>
 80008c8:	ea95 0f0c 	teq	r5, ip
 80008cc:	d106      	bne.n	80008dc <__aeabi_ddiv+0x1b0>
 80008ce:	ea52 3503 	orrs.w	r5, r2, r3, lsl #12
 80008d2:	f43f aefd 	beq.w	80006d0 <__aeabi_dmul+0x1f8>
 80008d6:	4610      	mov	r0, r2
 80008d8:	4619      	mov	r1, r3
 80008da:	e722      	b.n	8000722 <__aeabi_dmul+0x24a>
 80008dc:	ea50 0641 	orrs.w	r6, r0, r1, lsl #1
 80008e0:	bf18      	it	ne
 80008e2:	ea52 0643 	orrsne.w	r6, r2, r3, lsl #1
 80008e6:	f47f aec5 	bne.w	8000674 <__aeabi_dmul+0x19c>
 80008ea:	ea50 0441 	orrs.w	r4, r0, r1, lsl #1
 80008ee:	f47f af0d 	bne.w	800070c <__aeabi_dmul+0x234>
 80008f2:	ea52 0543 	orrs.w	r5, r2, r3, lsl #1
 80008f6:	f47f aeeb 	bne.w	80006d0 <__aeabi_dmul+0x1f8>
 80008fa:	e712      	b.n	8000722 <__aeabi_dmul+0x24a>

080008fc <__gedf2>:
 80008fc:	f04f 3cff 	mov.w	ip, #4294967295
 8000900:	e006      	b.n	8000910 <__cmpdf2+0x4>
 8000902:	bf00      	nop

08000904 <__ledf2>:
 8000904:	f04f 0c01 	mov.w	ip, #1
 8000908:	e002      	b.n	8000910 <__cmpdf2+0x4>
 800090a:	bf00      	nop

0800090c <__cmpdf2>:
 800090c:	f04f 0c01 	mov.w	ip, #1
 8000910:	f84d cd04 	str.w	ip, [sp, #-4]!
 8000914:	ea4f 0c41 	mov.w	ip, r1, lsl #1
 8000918:	ea7f 5c6c 	mvns.w	ip, ip, asr #21
 800091c:	ea4f 0c43 	mov.w	ip, r3, lsl #1
 8000920:	bf18      	it	ne
 8000922:	ea7f 5c6c 	mvnsne.w	ip, ip, asr #21
 8000926:	d01b      	beq.n	8000960 <__cmpdf2+0x54>
 8000928:	b001      	add	sp, #4
 800092a:	ea50 0c41 	orrs.w	ip, r0, r1, lsl #1
 800092e:	bf0c      	ite	eq
 8000930:	ea52 0c43 	orrseq.w	ip, r2, r3, lsl #1
 8000934:	ea91 0f03 	teqne	r1, r3
 8000938:	bf02      	ittt	eq
 800093a:	ea90 0f02 	teqeq	r0, r2
 800093e:	2000      	moveq	r0, #0
 8000940:	4770      	bxeq	lr
 8000942:	f110 0f00 	cmn.w	r0, #0
 8000946:	ea91 0f03 	teq	r1, r3
 800094a:	bf58      	it	pl
 800094c:	4299      	cmppl	r1, r3
 800094e:	bf08      	it	eq
 8000950:	4290      	cmpeq	r0, r2
 8000952:	bf2c      	ite	cs
 8000954:	17d8      	asrcs	r0, r3, #31
 8000956:	ea6f 70e3 	mvncc.w	r0, r3, asr #31
 800095a:	f040 0001 	orr.w	r0, r0, #1
 800095e:	4770      	bx	lr
 8000960:	ea4f 0c41 	mov.w	ip, r1, lsl #1
 8000964:	ea7f 5c6c 	mvns.w	ip, ip, asr #21
 8000968:	d102      	bne.n	8000970 <__cmpdf2+0x64>
 800096a:	ea50 3c01 	orrs.w	ip, r0, r1, lsl #12
 800096e:	d107      	bne.n	8000980 <__cmpdf2+0x74>
 8000970:	ea4f 0c43 	mov.w	ip, r3, lsl #1
 8000974:	ea7f 5c6c 	mvns.w	ip, ip, asr #21
 8000978:	d1d6      	bne.n	8000928 <__cmpdf2+0x1c>
 800097a:	ea52 3c03 	orrs.w	ip, r2, r3, lsl #12
 800097e:	d0d3      	beq.n	8000928 <__cmpdf2+0x1c>
 8000980:	f85d 0b04 	ldr.w	r0, [sp], #4
 8000984:	4770      	bx	lr
 8000986:	bf00      	nop

08000988 <__aeabi_cdrcmple>:
 8000988:	4684      	mov	ip, r0
 800098a:	4610      	mov	r0, r2
 800098c:	4662      	mov	r2, ip
 800098e:	468c      	mov	ip, r1
 8000990:	4619      	mov	r1, r3
 8000992:	4663      	mov	r3, ip
 8000994:	e000      	b.n	8000998 <__aeabi_cdcmpeq>
 8000996:	bf00      	nop

08000998 <__aeabi_cdcmpeq>:
 8000998:	b501      	push	{r0, lr}
 800099a:	f7ff ffb7 	bl	800090c <__cmpdf2>
 800099e:	2800      	cmp	r0, #0
 80009a0:	bf48      	it	mi
 80009a2:	f110 0f00 	cmnmi.w	r0, #0
 80009a6:	bd01      	pop	{r0, pc}

080009a8 <__aeabi_dcmpeq>:
 80009a8:	f84d ed08 	str.w	lr, [sp, #-8]!
 80009ac:	f7ff fff4 	bl	8000998 <__aeabi_cdcmpeq>
 80009b0:	bf0c      	ite	eq
 80009b2:	2001      	moveq	r0, #1
 80009b4:	2000      	movne	r0, #0
 80009b6:	f85d fb08 	ldr.w	pc, [sp], #8
 80009ba:	bf00      	nop

080009bc <__aeabi_dcmplt>:
 80009bc:	f84d ed08 	str.w	lr, [sp, #-8]!
 80009c0:	f7ff ffea 	bl	8000998 <__aeabi_cdcmpeq>
 80009c4:	bf34      	ite	cc
 80009c6:	2001      	movcc	r0, #1
 80009c8:	2000      	movcs	r0, #0
 80009ca:	f85d fb08 	ldr.w	pc, [sp], #8
 80009ce:	bf00      	nop

080009d0 <__aeabi_dcmple>:
 80009d0:	f84d ed08 	str.w	lr, [sp, #-8]!
 80009d4:	f7ff ffe0 	bl	8000998 <__aeabi_cdcmpeq>
 80009d8:	bf94      	ite	ls
 80009da:	2001      	movls	r0, #1
 80009dc:	2000      	movhi	r0, #0
 80009de:	f85d fb08 	ldr.w	pc, [sp], #8
 80009e2:	bf00      	nop

080009e4 <__aeabi_dcmpge>:
 80009e4:	f84d ed08 	str.w	lr, [sp, #-8]!
 80009e8:	f7ff ffce 	bl	8000988 <__aeabi_cdrcmple>
 80009ec:	bf94      	ite	ls
 80009ee:	2001      	movls	r0, #1
 80009f0:	2000      	movhi	r0, #0
 80009f2:	f85d fb08 	ldr.w	pc, [sp], #8
 80009f6:	bf00      	nop

080009f8 <__aeabi_dcmpgt>:
 80009f8:	f84d ed08 	str.w	lr, [sp, #-8]!
 80009fc:	f7ff ffc4 	bl	8000988 <__aeabi_cdrcmple>
 8000a00:	bf34      	ite	cc
 8000a02:	2001      	movcc	r0, #1
 8000a04:	2000      	movcs	r0, #0
 8000a06:	f85d fb08 	ldr.w	pc, [sp], #8
 8000a0a:	bf00      	nop

08000a0c <__aeabi_d2uiz>:
 8000a0c:	004a      	lsls	r2, r1, #1
 8000a0e:	d211      	bcs.n	8000a34 <__aeabi_d2uiz+0x28>
 8000a10:	f512 1200 	adds.w	r2, r2, #2097152	; 0x200000
 8000a14:	d211      	bcs.n	8000a3a <__aeabi_d2uiz+0x2e>
 8000a16:	d50d      	bpl.n	8000a34 <__aeabi_d2uiz+0x28>
 8000a18:	f46f 7378 	mvn.w	r3, #992	; 0x3e0
 8000a1c:	ebb3 5262 	subs.w	r2, r3, r2, asr #21
 8000a20:	d40e      	bmi.n	8000a40 <__aeabi_d2uiz+0x34>
 8000a22:	ea4f 23c1 	mov.w	r3, r1, lsl #11
 8000a26:	f043 4300 	orr.w	r3, r3, #2147483648	; 0x80000000
 8000a2a:	ea43 5350 	orr.w	r3, r3, r0, lsr #21
 8000a2e:	fa23 f002 	lsr.w	r0, r3, r2
 8000a32:	4770      	bx	lr
 8000a34:	f04f 0000 	mov.w	r0, #0
 8000a38:	4770      	bx	lr
 8000a3a:	ea50 3001 	orrs.w	r0, r0, r1, lsl #12
 8000a3e:	d102      	bne.n	8000a46 <__aeabi_d2uiz+0x3a>
 8000a40:	f04f 30ff 	mov.w	r0, #4294967295
 8000a44:	4770      	bx	lr
 8000a46:	f04f 0000 	mov.w	r0, #0
 8000a4a:	4770      	bx	lr

08000a4c <__aeabi_d2lz>:
 8000a4c:	b538      	push	{r3, r4, r5, lr}
 8000a4e:	4605      	mov	r5, r0
 8000a50:	460c      	mov	r4, r1
 8000a52:	2200      	movs	r2, #0
 8000a54:	2300      	movs	r3, #0
 8000a56:	4628      	mov	r0, r5
 8000a58:	4621      	mov	r1, r4
 8000a5a:	f7ff ffaf 	bl	80009bc <__aeabi_dcmplt>
 8000a5e:	b928      	cbnz	r0, 8000a6c <__aeabi_d2lz+0x20>
 8000a60:	4628      	mov	r0, r5
 8000a62:	4621      	mov	r1, r4
 8000a64:	e8bd 4038 	ldmia.w	sp!, {r3, r4, r5, lr}
 8000a68:	f000 b80a 	b.w	8000a80 <__aeabi_d2ulz>
 8000a6c:	4628      	mov	r0, r5
 8000a6e:	f104 4100 	add.w	r1, r4, #2147483648	; 0x80000000
 8000a72:	f000 f805 	bl	8000a80 <__aeabi_d2ulz>
 8000a76:	4240      	negs	r0, r0
 8000a78:	eb61 0141 	sbc.w	r1, r1, r1, lsl #1
 8000a7c:	bd38      	pop	{r3, r4, r5, pc}
 8000a7e:	bf00      	nop

08000a80 <__aeabi_d2ulz>:
 8000a80:	b5d0      	push	{r4, r6, r7, lr}
 8000a82:	2200      	movs	r2, #0
 8000a84:	4b0b      	ldr	r3, [pc, #44]	; (8000ab4 <__aeabi_d2ulz+0x34>)
 8000a86:	4606      	mov	r6, r0
 8000a88:	460f      	mov	r7, r1
 8000a8a:	f7ff fd25 	bl	80004d8 <__aeabi_dmul>
 8000a8e:	f7ff ffbd 	bl	8000a0c <__aeabi_d2uiz>
 8000a92:	4604      	mov	r4, r0
 8000a94:	f7ff fca6 	bl	80003e4 <__aeabi_ui2d>
 8000a98:	2200      	movs	r2, #0
 8000a9a:	4b07      	ldr	r3, [pc, #28]	; (8000ab8 <__aeabi_d2ulz+0x38>)
 8000a9c:	f7ff fd1c 	bl	80004d8 <__aeabi_dmul>
 8000aa0:	4602      	mov	r2, r0
 8000aa2:	460b      	mov	r3, r1
 8000aa4:	4630      	mov	r0, r6
 8000aa6:	4639      	mov	r1, r7
 8000aa8:	f7ff fb5e 	bl	8000168 <__aeabi_dsub>
 8000aac:	f7ff ffae 	bl	8000a0c <__aeabi_d2uiz>
 8000ab0:	4621      	mov	r1, r4
 8000ab2:	bdd0      	pop	{r4, r6, r7, pc}
 8000ab4:	3df00000 	.word	0x3df00000
 8000ab8:	41f00000 	.word	0x41f00000

08000abc <selfrel_offset31>:
 8000abc:	6803      	ldr	r3, [r0, #0]
 8000abe:	005a      	lsls	r2, r3, #1
 8000ac0:	bf4c      	ite	mi
 8000ac2:	f043 4300 	orrmi.w	r3, r3, #2147483648	; 0x80000000
 8000ac6:	f023 4300 	bicpl.w	r3, r3, #2147483648	; 0x80000000
 8000aca:	4418      	add	r0, r3
 8000acc:	4770      	bx	lr
 8000ace:	bf00      	nop

08000ad0 <search_EIT_table>:
 8000ad0:	e92d 43f8 	stmdb	sp!, {r3, r4, r5, r6, r7, r8, r9, lr}
 8000ad4:	b339      	cbz	r1, 8000b26 <search_EIT_table+0x56>
 8000ad6:	1e4f      	subs	r7, r1, #1
 8000ad8:	4604      	mov	r4, r0
 8000ada:	4615      	mov	r5, r2
 8000adc:	463e      	mov	r6, r7
 8000ade:	f04f 0800 	mov.w	r8, #0
 8000ae2:	eb08 0106 	add.w	r1, r8, r6
 8000ae6:	eb01 71d1 	add.w	r1, r1, r1, lsr #31
 8000aea:	1049      	asrs	r1, r1, #1
 8000aec:	eb04 09c1 	add.w	r9, r4, r1, lsl #3
 8000af0:	4648      	mov	r0, r9
 8000af2:	f7ff ffe3 	bl	8000abc <selfrel_offset31>
 8000af6:	4603      	mov	r3, r0
 8000af8:	00c8      	lsls	r0, r1, #3
 8000afa:	3008      	adds	r0, #8
 8000afc:	428f      	cmp	r7, r1
 8000afe:	4420      	add	r0, r4
 8000b00:	d00b      	beq.n	8000b1a <search_EIT_table+0x4a>
 8000b02:	42ab      	cmp	r3, r5
 8000b04:	d80b      	bhi.n	8000b1e <search_EIT_table+0x4e>
 8000b06:	f7ff ffd9 	bl	8000abc <selfrel_offset31>
 8000b0a:	3801      	subs	r0, #1
 8000b0c:	42a8      	cmp	r0, r5
 8000b0e:	f101 0801 	add.w	r8, r1, #1
 8000b12:	d3e6      	bcc.n	8000ae2 <search_EIT_table+0x12>
 8000b14:	4648      	mov	r0, r9
 8000b16:	e8bd 83f8 	ldmia.w	sp!, {r3, r4, r5, r6, r7, r8, r9, pc}
 8000b1a:	42ab      	cmp	r3, r5
 8000b1c:	d9fa      	bls.n	8000b14 <search_EIT_table+0x44>
 8000b1e:	4588      	cmp	r8, r1
 8000b20:	d001      	beq.n	8000b26 <search_EIT_table+0x56>
 8000b22:	1e4e      	subs	r6, r1, #1
 8000b24:	e7dd      	b.n	8000ae2 <search_EIT_table+0x12>
 8000b26:	f04f 0900 	mov.w	r9, #0
 8000b2a:	4648      	mov	r0, r9
 8000b2c:	e8bd 83f8 	ldmia.w	sp!, {r3, r4, r5, r6, r7, r8, r9, pc}

08000b30 <__gnu_unwind_get_pr_addr>:
 8000b30:	2801      	cmp	r0, #1
 8000b32:	d007      	beq.n	8000b44 <__gnu_unwind_get_pr_addr+0x14>
 8000b34:	2802      	cmp	r0, #2
 8000b36:	d007      	beq.n	8000b48 <__gnu_unwind_get_pr_addr+0x18>
 8000b38:	4b04      	ldr	r3, [pc, #16]	; (8000b4c <__gnu_unwind_get_pr_addr+0x1c>)
 8000b3a:	2800      	cmp	r0, #0
 8000b3c:	bf0c      	ite	eq
 8000b3e:	4618      	moveq	r0, r3
 8000b40:	2000      	movne	r0, #0
 8000b42:	4770      	bx	lr
 8000b44:	4802      	ldr	r0, [pc, #8]	; (8000b50 <__gnu_unwind_get_pr_addr+0x20>)
 8000b46:	4770      	bx	lr
 8000b48:	4802      	ldr	r0, [pc, #8]	; (8000b54 <__gnu_unwind_get_pr_addr+0x24>)
 8000b4a:	4770      	bx	lr
 8000b4c:	08001221 	.word	0x08001221
 8000b50:	08001225 	.word	0x08001225
 8000b54:	08001229 	.word	0x08001229

08000b58 <get_eit_entry>:
 8000b58:	b530      	push	{r4, r5, lr}
 8000b5a:	4b24      	ldr	r3, [pc, #144]	; (8000bec <get_eit_entry+0x94>)
 8000b5c:	4604      	mov	r4, r0
 8000b5e:	b083      	sub	sp, #12
 8000b60:	1e8d      	subs	r5, r1, #2
 8000b62:	b33b      	cbz	r3, 8000bb4 <get_eit_entry+0x5c>
 8000b64:	4628      	mov	r0, r5
 8000b66:	a901      	add	r1, sp, #4
 8000b68:	f3af 8000 	nop.w
 8000b6c:	b1e8      	cbz	r0, 8000baa <get_eit_entry+0x52>
 8000b6e:	9901      	ldr	r1, [sp, #4]
 8000b70:	462a      	mov	r2, r5
 8000b72:	f7ff ffad 	bl	8000ad0 <search_EIT_table>
 8000b76:	4601      	mov	r1, r0
 8000b78:	b1b8      	cbz	r0, 8000baa <get_eit_entry+0x52>
 8000b7a:	f7ff ff9f 	bl	8000abc <selfrel_offset31>
 8000b7e:	684b      	ldr	r3, [r1, #4]
 8000b80:	64a0      	str	r0, [r4, #72]	; 0x48
 8000b82:	2b01      	cmp	r3, #1
 8000b84:	d02e      	beq.n	8000be4 <get_eit_entry+0x8c>
 8000b86:	2b00      	cmp	r3, #0
 8000b88:	db27      	blt.n	8000bda <get_eit_entry+0x82>
 8000b8a:	1d08      	adds	r0, r1, #4
 8000b8c:	f7ff ff96 	bl	8000abc <selfrel_offset31>
 8000b90:	2300      	movs	r3, #0
 8000b92:	e9c4 0313 	strd	r0, r3, [r4, #76]	; 0x4c
 8000b96:	6803      	ldr	r3, [r0, #0]
 8000b98:	2b00      	cmp	r3, #0
 8000b9a:	db12      	blt.n	8000bc2 <get_eit_entry+0x6a>
 8000b9c:	f7ff ff8e 	bl	8000abc <selfrel_offset31>
 8000ba0:	4603      	mov	r3, r0
 8000ba2:	2000      	movs	r0, #0
 8000ba4:	6123      	str	r3, [r4, #16]
 8000ba6:	b003      	add	sp, #12
 8000ba8:	bd30      	pop	{r4, r5, pc}
 8000baa:	2300      	movs	r3, #0
 8000bac:	2009      	movs	r0, #9
 8000bae:	6123      	str	r3, [r4, #16]
 8000bb0:	b003      	add	sp, #12
 8000bb2:	bd30      	pop	{r4, r5, pc}
 8000bb4:	4b0e      	ldr	r3, [pc, #56]	; (8000bf0 <get_eit_entry+0x98>)
 8000bb6:	490f      	ldr	r1, [pc, #60]	; (8000bf4 <get_eit_entry+0x9c>)
 8000bb8:	4618      	mov	r0, r3
 8000bba:	1ac9      	subs	r1, r1, r3
 8000bbc:	10c9      	asrs	r1, r1, #3
 8000bbe:	9101      	str	r1, [sp, #4]
 8000bc0:	e7d6      	b.n	8000b70 <get_eit_entry+0x18>
 8000bc2:	f3c3 6003 	ubfx	r0, r3, #24, #4
 8000bc6:	f7ff ffb3 	bl	8000b30 <__gnu_unwind_get_pr_addr>
 8000bca:	2800      	cmp	r0, #0
 8000bcc:	4603      	mov	r3, r0
 8000bce:	bf14      	ite	ne
 8000bd0:	2000      	movne	r0, #0
 8000bd2:	2009      	moveq	r0, #9
 8000bd4:	6123      	str	r3, [r4, #16]
 8000bd6:	b003      	add	sp, #12
 8000bd8:	bd30      	pop	{r4, r5, pc}
 8000bda:	2301      	movs	r3, #1
 8000bdc:	1d08      	adds	r0, r1, #4
 8000bde:	e9c4 0313 	strd	r0, r3, [r4, #76]	; 0x4c
 8000be2:	e7d8      	b.n	8000b96 <get_eit_entry+0x3e>
 8000be4:	2300      	movs	r3, #0
 8000be6:	2005      	movs	r0, #5
 8000be8:	6123      	str	r3, [r4, #16]
 8000bea:	e7dc      	b.n	8000ba6 <get_eit_entry+0x4e>
 8000bec:	00000000 	.word	0x00000000
 8000bf0:	0800b6dc 	.word	0x0800b6dc
 8000bf4:	0800ba44 	.word	0x0800ba44

08000bf8 <restore_non_core_regs>:
 8000bf8:	6803      	ldr	r3, [r0, #0]
 8000bfa:	b510      	push	{r4, lr}
 8000bfc:	07da      	lsls	r2, r3, #31
 8000bfe:	4604      	mov	r4, r0
 8000c00:	d406      	bmi.n	8000c10 <restore_non_core_regs+0x18>
 8000c02:	079b      	lsls	r3, r3, #30
 8000c04:	f100 0048 	add.w	r0, r0, #72	; 0x48
 8000c08:	d509      	bpl.n	8000c1e <restore_non_core_regs+0x26>
 8000c0a:	f000 fc5d 	bl	80014c8 <__gnu_Unwind_Restore_VFP_D>
 8000c0e:	6823      	ldr	r3, [r4, #0]
 8000c10:	0759      	lsls	r1, r3, #29
 8000c12:	d509      	bpl.n	8000c28 <restore_non_core_regs+0x30>
 8000c14:	071a      	lsls	r2, r3, #28
 8000c16:	d50e      	bpl.n	8000c36 <restore_non_core_regs+0x3e>
 8000c18:	06db      	lsls	r3, r3, #27
 8000c1a:	d513      	bpl.n	8000c44 <restore_non_core_regs+0x4c>
 8000c1c:	bd10      	pop	{r4, pc}
 8000c1e:	f000 fc4b 	bl	80014b8 <__gnu_Unwind_Restore_VFP>
 8000c22:	6823      	ldr	r3, [r4, #0]
 8000c24:	0759      	lsls	r1, r3, #29
 8000c26:	d4f5      	bmi.n	8000c14 <restore_non_core_regs+0x1c>
 8000c28:	f104 00d0 	add.w	r0, r4, #208	; 0xd0
 8000c2c:	f000 fc54 	bl	80014d8 <__gnu_Unwind_Restore_VFP_D_16_to_31>
 8000c30:	6823      	ldr	r3, [r4, #0]
 8000c32:	071a      	lsls	r2, r3, #28
 8000c34:	d4f0      	bmi.n	8000c18 <restore_non_core_regs+0x20>
 8000c36:	f504 70a8 	add.w	r0, r4, #336	; 0x150
 8000c3a:	f000 fc55 	bl	80014e8 <__gnu_Unwind_Restore_WMMXD>
 8000c3e:	6823      	ldr	r3, [r4, #0]
 8000c40:	06db      	lsls	r3, r3, #27
 8000c42:	d4eb      	bmi.n	8000c1c <restore_non_core_regs+0x24>
 8000c44:	f504 70e8 	add.w	r0, r4, #464	; 0x1d0
 8000c48:	e8bd 4010 	ldmia.w	sp!, {r4, lr}
 8000c4c:	f000 bc90 	b.w	8001570 <__gnu_Unwind_Restore_WMMXC>

08000c50 <__gnu_unwind_24bit.constprop.0>:
 8000c50:	2009      	movs	r0, #9
 8000c52:	4770      	bx	lr

08000c54 <_Unwind_decode_typeinfo_ptr.constprop.0>:
 8000c54:	4603      	mov	r3, r0
 8000c56:	6800      	ldr	r0, [r0, #0]
 8000c58:	b100      	cbz	r0, 8000c5c <_Unwind_decode_typeinfo_ptr.constprop.0+0x8>
 8000c5a:	4418      	add	r0, r3
 8000c5c:	4770      	bx	lr
 8000c5e:	bf00      	nop

08000c60 <_Unwind_DebugHook>:
 8000c60:	4770      	bx	lr
 8000c62:	bf00      	nop

08000c64 <unwind_phase2>:
 8000c64:	b570      	push	{r4, r5, r6, lr}
 8000c66:	4604      	mov	r4, r0
 8000c68:	460e      	mov	r6, r1
 8000c6a:	4620      	mov	r0, r4
 8000c6c:	6c31      	ldr	r1, [r6, #64]	; 0x40
 8000c6e:	f7ff ff73 	bl	8000b58 <get_eit_entry>
 8000c72:	4605      	mov	r5, r0
 8000c74:	b998      	cbnz	r0, 8000c9e <unwind_phase2+0x3a>
 8000c76:	f8d6 c040 	ldr.w	ip, [r6, #64]	; 0x40
 8000c7a:	4632      	mov	r2, r6
 8000c7c:	4621      	mov	r1, r4
 8000c7e:	2001      	movs	r0, #1
 8000c80:	6923      	ldr	r3, [r4, #16]
 8000c82:	f8c4 c014 	str.w	ip, [r4, #20]
 8000c86:	4798      	blx	r3
 8000c88:	2808      	cmp	r0, #8
 8000c8a:	d0ee      	beq.n	8000c6a <unwind_phase2+0x6>
 8000c8c:	2807      	cmp	r0, #7
 8000c8e:	d106      	bne.n	8000c9e <unwind_phase2+0x3a>
 8000c90:	4628      	mov	r0, r5
 8000c92:	6c31      	ldr	r1, [r6, #64]	; 0x40
 8000c94:	f7ff ffe4 	bl	8000c60 <_Unwind_DebugHook>
 8000c98:	1d30      	adds	r0, r6, #4
 8000c9a:	f000 fc01 	bl	80014a0 <__restore_core_regs>
 8000c9e:	f007 f8c1 	bl	8007e24 <abort>
 8000ca2:	bf00      	nop

08000ca4 <unwind_phase2_forced>:
 8000ca4:	e92d 47f0 	stmdb	sp!, {r4, r5, r6, r7, r8, r9, sl, lr}
 8000ca8:	f04f 0a00 	mov.w	sl, #0
 8000cac:	f5ad 7d72 	sub.w	sp, sp, #968	; 0x3c8
 8000cb0:	f10d 0e0c 	add.w	lr, sp, #12
 8000cb4:	f101 0c04 	add.w	ip, r1, #4
 8000cb8:	68c7      	ldr	r7, [r0, #12]
 8000cba:	f8d0 8018 	ldr.w	r8, [r0, #24]
 8000cbe:	4606      	mov	r6, r0
 8000cc0:	4614      	mov	r4, r2
 8000cc2:	e8bc 000f 	ldmia.w	ip!, {r0, r1, r2, r3}
 8000cc6:	e8ae 000f 	stmia.w	lr!, {r0, r1, r2, r3}
 8000cca:	e8bc 000f 	ldmia.w	ip!, {r0, r1, r2, r3}
 8000cce:	e8ae 000f 	stmia.w	lr!, {r0, r1, r2, r3}
 8000cd2:	e8bc 000f 	ldmia.w	ip!, {r0, r1, r2, r3}
 8000cd6:	e8ae 000f 	stmia.w	lr!, {r0, r1, r2, r3}
 8000cda:	e89c 000f 	ldmia.w	ip, {r0, r1, r2, r3}
 8000cde:	ad02      	add	r5, sp, #8
 8000ce0:	e88e 000f 	stmia.w	lr, {r0, r1, r2, r3}
 8000ce4:	f8c5 a000 	str.w	sl, [r5]
 8000ce8:	e021      	b.n	8000d2e <unwind_phase2_forced+0x8a>
 8000cea:	6c2b      	ldr	r3, [r5, #64]	; 0x40
 8000cec:	f44f 72f0 	mov.w	r2, #480	; 0x1e0
 8000cf0:	4629      	mov	r1, r5
 8000cf2:	6173      	str	r3, [r6, #20]
 8000cf4:	a87a      	add	r0, sp, #488	; 0x1e8
 8000cf6:	f007 f8e5 	bl	8007ec4 <memcpy>
 8000cfa:	4631      	mov	r1, r6
 8000cfc:	4650      	mov	r0, sl
 8000cfe:	6933      	ldr	r3, [r6, #16]
 8000d00:	aa7a      	add	r2, sp, #488	; 0x1e8
 8000d02:	4798      	blx	r3
 8000d04:	9c88      	ldr	r4, [sp, #544]	; 0x220
 8000d06:	4682      	mov	sl, r0
 8000d08:	646c      	str	r4, [r5, #68]	; 0x44
 8000d0a:	4633      	mov	r3, r6
 8000d0c:	4632      	mov	r2, r6
 8000d0e:	4649      	mov	r1, r9
 8000d10:	2001      	movs	r0, #1
 8000d12:	e9cd 5800 	strd	r5, r8, [sp]
 8000d16:	47b8      	blx	r7
 8000d18:	4604      	mov	r4, r0
 8000d1a:	b9f0      	cbnz	r0, 8000d5a <unwind_phase2_forced+0xb6>
 8000d1c:	f44f 72f0 	mov.w	r2, #480	; 0x1e0
 8000d20:	4628      	mov	r0, r5
 8000d22:	a97a      	add	r1, sp, #488	; 0x1e8
 8000d24:	f007 f8ce 	bl	8007ec4 <memcpy>
 8000d28:	f1ba 0f08 	cmp.w	sl, #8
 8000d2c:	d11b      	bne.n	8000d66 <unwind_phase2_forced+0xc2>
 8000d2e:	4630      	mov	r0, r6
 8000d30:	6c29      	ldr	r1, [r5, #64]	; 0x40
 8000d32:	f7ff ff11 	bl	8000b58 <get_eit_entry>
 8000d36:	f104 0909 	add.w	r9, r4, #9
 8000d3a:	fa5f fa89 	uxtb.w	sl, r9
 8000d3e:	4604      	mov	r4, r0
 8000d40:	2800      	cmp	r0, #0
 8000d42:	d0d2      	beq.n	8000cea <unwind_phase2_forced+0x46>
 8000d44:	6ba9      	ldr	r1, [r5, #56]	; 0x38
 8000d46:	4633      	mov	r3, r6
 8000d48:	6469      	str	r1, [r5, #68]	; 0x44
 8000d4a:	4632      	mov	r2, r6
 8000d4c:	2001      	movs	r0, #1
 8000d4e:	e9cd 5800 	strd	r5, r8, [sp]
 8000d52:	f04a 0110 	orr.w	r1, sl, #16
 8000d56:	47b8      	blx	r7
 8000d58:	b100      	cbz	r0, 8000d5c <unwind_phase2_forced+0xb8>
 8000d5a:	2409      	movs	r4, #9
 8000d5c:	4620      	mov	r0, r4
 8000d5e:	f50d 7d72 	add.w	sp, sp, #968	; 0x3c8
 8000d62:	e8bd 87f0 	ldmia.w	sp!, {r4, r5, r6, r7, r8, r9, sl, pc}
 8000d66:	f1ba 0f07 	cmp.w	sl, #7
 8000d6a:	d1f6      	bne.n	8000d5a <unwind_phase2_forced+0xb6>
 8000d6c:	4620      	mov	r0, r4
 8000d6e:	6c29      	ldr	r1, [r5, #64]	; 0x40
 8000d70:	f7ff ff76 	bl	8000c60 <_Unwind_DebugHook>
 8000d74:	a803      	add	r0, sp, #12
 8000d76:	f000 fb93 	bl	80014a0 <__restore_core_regs>
 8000d7a:	bf00      	nop

08000d7c <_Unwind_GetCFA>:
 8000d7c:	6c40      	ldr	r0, [r0, #68]	; 0x44
 8000d7e:	4770      	bx	lr

08000d80 <__gnu_Unwind_RaiseException>:
 8000d80:	b5f0      	push	{r4, r5, r6, r7, lr}
 8000d82:	f04f 37ff 	mov.w	r7, #4294967295
 8000d86:	6bcb      	ldr	r3, [r1, #60]	; 0x3c
 8000d88:	b0f9      	sub	sp, #484	; 0x1e4
 8000d8a:	640b      	str	r3, [r1, #64]	; 0x40
 8000d8c:	ac01      	add	r4, sp, #4
 8000d8e:	f101 0c04 	add.w	ip, r1, #4
 8000d92:	460e      	mov	r6, r1
 8000d94:	4605      	mov	r5, r0
 8000d96:	e8bc 000f 	ldmia.w	ip!, {r0, r1, r2, r3}
 8000d9a:	c40f      	stmia	r4!, {r0, r1, r2, r3}
 8000d9c:	e8bc 000f 	ldmia.w	ip!, {r0, r1, r2, r3}
 8000da0:	c40f      	stmia	r4!, {r0, r1, r2, r3}
 8000da2:	e8bc 000f 	ldmia.w	ip!, {r0, r1, r2, r3}
 8000da6:	c40f      	stmia	r4!, {r0, r1, r2, r3}
 8000da8:	e89c 000f 	ldmia.w	ip, {r0, r1, r2, r3}
 8000dac:	e884 000f 	stmia.w	r4, {r0, r1, r2, r3}
 8000db0:	9700      	str	r7, [sp, #0]
 8000db2:	e006      	b.n	8000dc2 <__gnu_Unwind_RaiseException+0x42>
 8000db4:	466a      	mov	r2, sp
 8000db6:	4629      	mov	r1, r5
 8000db8:	692b      	ldr	r3, [r5, #16]
 8000dba:	4798      	blx	r3
 8000dbc:	2808      	cmp	r0, #8
 8000dbe:	4604      	mov	r4, r0
 8000dc0:	d108      	bne.n	8000dd4 <__gnu_Unwind_RaiseException+0x54>
 8000dc2:	4628      	mov	r0, r5
 8000dc4:	9910      	ldr	r1, [sp, #64]	; 0x40
 8000dc6:	f7ff fec7 	bl	8000b58 <get_eit_entry>
 8000dca:	2800      	cmp	r0, #0
 8000dcc:	d0f2      	beq.n	8000db4 <__gnu_Unwind_RaiseException+0x34>
 8000dce:	2009      	movs	r0, #9
 8000dd0:	b079      	add	sp, #484	; 0x1e4
 8000dd2:	bdf0      	pop	{r4, r5, r6, r7, pc}
 8000dd4:	4668      	mov	r0, sp
 8000dd6:	f7ff ff0f 	bl	8000bf8 <restore_non_core_regs>
 8000dda:	2c06      	cmp	r4, #6
 8000ddc:	d1f7      	bne.n	8000dce <__gnu_Unwind_RaiseException+0x4e>
 8000dde:	4631      	mov	r1, r6
 8000de0:	4628      	mov	r0, r5
 8000de2:	f7ff ff3f 	bl	8000c64 <unwind_phase2>
 8000de6:	bf00      	nop

08000de8 <__gnu_Unwind_ForcedUnwind>:
 8000de8:	b410      	push	{r4}
 8000dea:	4614      	mov	r4, r2
 8000dec:	6184      	str	r4, [r0, #24]
 8000dee:	6bdc      	ldr	r4, [r3, #60]	; 0x3c
 8000df0:	60c1      	str	r1, [r0, #12]
 8000df2:	2200      	movs	r2, #0
 8000df4:	641c      	str	r4, [r3, #64]	; 0x40
 8000df6:	4619      	mov	r1, r3
 8000df8:	bc10      	pop	{r4}
 8000dfa:	e753      	b.n	8000ca4 <unwind_phase2_forced>

08000dfc <__gnu_Unwind_Resume>:
 8000dfc:	b570      	push	{r4, r5, r6, lr}
 8000dfe:	6943      	ldr	r3, [r0, #20]
 8000e00:	68c6      	ldr	r6, [r0, #12]
 8000e02:	640b      	str	r3, [r1, #64]	; 0x40
 8000e04:	b9ae      	cbnz	r6, 8000e32 <__gnu_Unwind_Resume+0x36>
 8000e06:	460a      	mov	r2, r1
 8000e08:	6903      	ldr	r3, [r0, #16]
 8000e0a:	4604      	mov	r4, r0
 8000e0c:	460d      	mov	r5, r1
 8000e0e:	4601      	mov	r1, r0
 8000e10:	2002      	movs	r0, #2
 8000e12:	4798      	blx	r3
 8000e14:	2807      	cmp	r0, #7
 8000e16:	d005      	beq.n	8000e24 <__gnu_Unwind_Resume+0x28>
 8000e18:	2808      	cmp	r0, #8
 8000e1a:	d10f      	bne.n	8000e3c <__gnu_Unwind_Resume+0x40>
 8000e1c:	4629      	mov	r1, r5
 8000e1e:	4620      	mov	r0, r4
 8000e20:	f7ff ff20 	bl	8000c64 <unwind_phase2>
 8000e24:	4630      	mov	r0, r6
 8000e26:	6c29      	ldr	r1, [r5, #64]	; 0x40
 8000e28:	f7ff ff1a 	bl	8000c60 <_Unwind_DebugHook>
 8000e2c:	1d28      	adds	r0, r5, #4
 8000e2e:	f000 fb37 	bl	80014a0 <__restore_core_regs>
 8000e32:	2201      	movs	r2, #1
 8000e34:	f7ff ff36 	bl	8000ca4 <unwind_phase2_forced>
 8000e38:	f006 fff4 	bl	8007e24 <abort>
 8000e3c:	f006 fff2 	bl	8007e24 <abort>

08000e40 <__gnu_Unwind_Resume_or_Rethrow>:
 8000e40:	68c2      	ldr	r2, [r0, #12]
 8000e42:	b12a      	cbz	r2, 8000e50 <__gnu_Unwind_Resume_or_Rethrow+0x10>
 8000e44:	f8d1 c03c 	ldr.w	ip, [r1, #60]	; 0x3c
 8000e48:	2200      	movs	r2, #0
 8000e4a:	f8c1 c040 	str.w	ip, [r1, #64]	; 0x40
 8000e4e:	e729      	b.n	8000ca4 <unwind_phase2_forced>
 8000e50:	e796      	b.n	8000d80 <__gnu_Unwind_RaiseException>
 8000e52:	bf00      	nop

08000e54 <_Unwind_Complete>:
 8000e54:	4770      	bx	lr
 8000e56:	bf00      	nop

08000e58 <_Unwind_DeleteException>:
 8000e58:	6883      	ldr	r3, [r0, #8]
 8000e5a:	4601      	mov	r1, r0
 8000e5c:	b10b      	cbz	r3, 8000e62 <_Unwind_DeleteException+0xa>
 8000e5e:	2001      	movs	r0, #1
 8000e60:	4718      	bx	r3
 8000e62:	4770      	bx	lr

08000e64 <_Unwind_VRS_Get>:
 8000e64:	2901      	cmp	r1, #1
 8000e66:	d012      	beq.n	8000e8e <_Unwind_VRS_Get+0x2a>
 8000e68:	d809      	bhi.n	8000e7e <_Unwind_VRS_Get+0x1a>
 8000e6a:	b973      	cbnz	r3, 8000e8a <_Unwind_VRS_Get+0x26>
 8000e6c:	2a0f      	cmp	r2, #15
 8000e6e:	d80c      	bhi.n	8000e8a <_Unwind_VRS_Get+0x26>
 8000e70:	eb00 0082 	add.w	r0, r0, r2, lsl #2
 8000e74:	6842      	ldr	r2, [r0, #4]
 8000e76:	4618      	mov	r0, r3
 8000e78:	9b00      	ldr	r3, [sp, #0]
 8000e7a:	601a      	str	r2, [r3, #0]
 8000e7c:	4770      	bx	lr
 8000e7e:	3903      	subs	r1, #3
 8000e80:	2901      	cmp	r1, #1
 8000e82:	bf94      	ite	ls
 8000e84:	2001      	movls	r0, #1
 8000e86:	2002      	movhi	r0, #2
 8000e88:	4770      	bx	lr
 8000e8a:	2002      	movs	r0, #2
 8000e8c:	4770      	bx	lr
 8000e8e:	4608      	mov	r0, r1
 8000e90:	4770      	bx	lr
 8000e92:	bf00      	nop

08000e94 <_Unwind_GetGR>:
 8000e94:	2300      	movs	r3, #0
 8000e96:	b500      	push	{lr}
 8000e98:	b085      	sub	sp, #20
 8000e9a:	460a      	mov	r2, r1
 8000e9c:	a903      	add	r1, sp, #12
 8000e9e:	9100      	str	r1, [sp, #0]
 8000ea0:	4619      	mov	r1, r3
 8000ea2:	f7ff ffdf 	bl	8000e64 <_Unwind_VRS_Get>
 8000ea6:	9803      	ldr	r0, [sp, #12]
 8000ea8:	b005      	add	sp, #20
 8000eaa:	f85d fb04 	ldr.w	pc, [sp], #4
 8000eae:	bf00      	nop

08000eb0 <_Unwind_VRS_Set>:
 8000eb0:	2901      	cmp	r1, #1
 8000eb2:	d012      	beq.n	8000eda <_Unwind_VRS_Set+0x2a>
 8000eb4:	d809      	bhi.n	8000eca <_Unwind_VRS_Set+0x1a>
 8000eb6:	b973      	cbnz	r3, 8000ed6 <_Unwind_VRS_Set+0x26>
 8000eb8:	2a0f      	cmp	r2, #15
 8000eba:	d80c      	bhi.n	8000ed6 <_Unwind_VRS_Set+0x26>
 8000ebc:	9900      	ldr	r1, [sp, #0]
 8000ebe:	eb00 0282 	add.w	r2, r0, r2, lsl #2
 8000ec2:	6809      	ldr	r1, [r1, #0]
 8000ec4:	4618      	mov	r0, r3
 8000ec6:	6051      	str	r1, [r2, #4]
 8000ec8:	4770      	bx	lr
 8000eca:	3903      	subs	r1, #3
 8000ecc:	2901      	cmp	r1, #1
 8000ece:	bf94      	ite	ls
 8000ed0:	2001      	movls	r0, #1
 8000ed2:	2002      	movhi	r0, #2
 8000ed4:	4770      	bx	lr
 8000ed6:	2002      	movs	r0, #2
 8000ed8:	4770      	bx	lr
 8000eda:	4608      	mov	r0, r1
 8000edc:	4770      	bx	lr
 8000ede:	bf00      	nop

08000ee0 <_Unwind_SetGR>:
 8000ee0:	2300      	movs	r3, #0
 8000ee2:	b510      	push	{r4, lr}
 8000ee4:	b084      	sub	sp, #16
 8000ee6:	ac03      	add	r4, sp, #12
 8000ee8:	9203      	str	r2, [sp, #12]
 8000eea:	9400      	str	r4, [sp, #0]
 8000eec:	460a      	mov	r2, r1
 8000eee:	4619      	mov	r1, r3
 8000ef0:	f7ff ffde 	bl	8000eb0 <_Unwind_VRS_Set>
 8000ef4:	b004      	add	sp, #16
 8000ef6:	bd10      	pop	{r4, pc}

08000ef8 <__gnu_Unwind_Backtrace>:
 8000ef8:	b570      	push	{r4, r5, r6, lr}
 8000efa:	f04f 36ff 	mov.w	r6, #4294967295
 8000efe:	6bd3      	ldr	r3, [r2, #60]	; 0x3c
 8000f00:	f5ad 7d0e 	sub.w	sp, sp, #568	; 0x238
 8000f04:	6413      	str	r3, [r2, #64]	; 0x40
 8000f06:	f10d 0e5c 	add.w	lr, sp, #92	; 0x5c
 8000f0a:	f102 0c04 	add.w	ip, r2, #4
 8000f0e:	4605      	mov	r5, r0
 8000f10:	460c      	mov	r4, r1
 8000f12:	e8bc 000f 	ldmia.w	ip!, {r0, r1, r2, r3}
 8000f16:	e8ae 000f 	stmia.w	lr!, {r0, r1, r2, r3}
 8000f1a:	e8bc 000f 	ldmia.w	ip!, {r0, r1, r2, r3}
 8000f1e:	e8ae 000f 	stmia.w	lr!, {r0, r1, r2, r3}
 8000f22:	e8bc 000f 	ldmia.w	ip!, {r0, r1, r2, r3}
 8000f26:	e8ae 000f 	stmia.w	lr!, {r0, r1, r2, r3}
 8000f2a:	e89c 000f 	ldmia.w	ip, {r0, r1, r2, r3}
 8000f2e:	e88e 000f 	stmia.w	lr, {r0, r1, r2, r3}
 8000f32:	9616      	str	r6, [sp, #88]	; 0x58
 8000f34:	e012      	b.n	8000f5c <__gnu_Unwind_Backtrace+0x64>
 8000f36:	210c      	movs	r1, #12
 8000f38:	a816      	add	r0, sp, #88	; 0x58
 8000f3a:	466a      	mov	r2, sp
 8000f3c:	f7ff ffd0 	bl	8000ee0 <_Unwind_SetGR>
 8000f40:	4621      	mov	r1, r4
 8000f42:	a816      	add	r0, sp, #88	; 0x58
 8000f44:	47a8      	blx	r5
 8000f46:	b978      	cbnz	r0, 8000f68 <__gnu_Unwind_Backtrace+0x70>
 8000f48:	4669      	mov	r1, sp
 8000f4a:	2008      	movs	r0, #8
 8000f4c:	9b04      	ldr	r3, [sp, #16]
 8000f4e:	aa16      	add	r2, sp, #88	; 0x58
 8000f50:	4798      	blx	r3
 8000f52:	2805      	cmp	r0, #5
 8000f54:	4606      	mov	r6, r0
 8000f56:	d008      	beq.n	8000f6a <__gnu_Unwind_Backtrace+0x72>
 8000f58:	2809      	cmp	r0, #9
 8000f5a:	d005      	beq.n	8000f68 <__gnu_Unwind_Backtrace+0x70>
 8000f5c:	4668      	mov	r0, sp
 8000f5e:	9926      	ldr	r1, [sp, #152]	; 0x98
 8000f60:	f7ff fdfa 	bl	8000b58 <get_eit_entry>
 8000f64:	2800      	cmp	r0, #0
 8000f66:	d0e6      	beq.n	8000f36 <__gnu_Unwind_Backtrace+0x3e>
 8000f68:	2609      	movs	r6, #9
 8000f6a:	a816      	add	r0, sp, #88	; 0x58
 8000f6c:	f7ff fe44 	bl	8000bf8 <restore_non_core_regs>
 8000f70:	4630      	mov	r0, r6
 8000f72:	f50d 7d0e 	add.w	sp, sp, #568	; 0x238
 8000f76:	bd70      	pop	{r4, r5, r6, pc}

08000f78 <__gnu_unwind_pr_common>:
 8000f78:	e92d 4ff0 	stmdb	sp!, {r4, r5, r6, r7, r8, r9, sl, fp, lr}
 8000f7c:	461e      	mov	r6, r3
 8000f7e:	6ccc      	ldr	r4, [r1, #76]	; 0x4c
 8000f80:	b089      	sub	sp, #36	; 0x24
 8000f82:	f854 3b04 	ldr.w	r3, [r4], #4
 8000f86:	460d      	mov	r5, r1
 8000f88:	4617      	mov	r7, r2
 8000f8a:	f000 0803 	and.w	r8, r0, #3
 8000f8e:	9406      	str	r4, [sp, #24]
 8000f90:	2e00      	cmp	r6, #0
 8000f92:	d079      	beq.n	8001088 <__gnu_unwind_pr_common+0x110>
 8000f94:	2202      	movs	r2, #2
 8000f96:	f88d 201c 	strb.w	r2, [sp, #28]
 8000f9a:	0c1a      	lsrs	r2, r3, #16
 8000f9c:	f88d 201d 	strb.w	r2, [sp, #29]
 8000fa0:	041b      	lsls	r3, r3, #16
 8000fa2:	b2d2      	uxtb	r2, r2
 8000fa4:	9305      	str	r3, [sp, #20]
 8000fa6:	eb04 0482 	add.w	r4, r4, r2, lsl #2
 8000faa:	6d2b      	ldr	r3, [r5, #80]	; 0x50
 8000fac:	f1b8 0f02 	cmp.w	r8, #2
 8000fb0:	bf08      	it	eq
 8000fb2:	6bac      	ldreq	r4, [r5, #56]	; 0x38
 8000fb4:	f013 0301 	ands.w	r3, r3, #1
 8000fb8:	d00c      	beq.n	8000fd4 <__gnu_unwind_pr_common+0x5c>
 8000fba:	4638      	mov	r0, r7
 8000fbc:	a905      	add	r1, sp, #20
 8000fbe:	f000 fb71 	bl	80016a4 <__gnu_unwind_execute>
 8000fc2:	b918      	cbnz	r0, 8000fcc <__gnu_unwind_pr_common+0x54>
 8000fc4:	2008      	movs	r0, #8
 8000fc6:	b009      	add	sp, #36	; 0x24
 8000fc8:	e8bd 8ff0 	ldmia.w	sp!, {r4, r5, r6, r7, r8, r9, sl, fp, pc}
 8000fcc:	2009      	movs	r0, #9
 8000fce:	b009      	add	sp, #36	; 0x24
 8000fd0:	e8bd 8ff0 	ldmia.w	sp!, {r4, r5, r6, r7, r8, r9, sl, fp, pc}
 8000fd4:	f8d4 a000 	ldr.w	sl, [r4]
 8000fd8:	f1ba 0f00 	cmp.w	sl, #0
 8000fdc:	d0ed      	beq.n	8000fba <__gnu_unwind_pr_common+0x42>
 8000fde:	9301      	str	r3, [sp, #4]
 8000fe0:	f000 0308 	and.w	r3, r0, #8
 8000fe4:	9302      	str	r3, [sp, #8]
 8000fe6:	2e02      	cmp	r6, #2
 8000fe8:	d04a      	beq.n	8001080 <__gnu_unwind_pr_common+0x108>
 8000fea:	f8b4 a000 	ldrh.w	sl, [r4]
 8000fee:	f8b4 9002 	ldrh.w	r9, [r4, #2]
 8000ff2:	3404      	adds	r4, #4
 8000ff4:	6caa      	ldr	r2, [r5, #72]	; 0x48
 8000ff6:	210f      	movs	r1, #15
 8000ff8:	4638      	mov	r0, r7
 8000ffa:	f029 0b01 	bic.w	fp, r9, #1
 8000ffe:	4493      	add	fp, r2
 8001000:	f7ff ff48 	bl	8000e94 <_Unwind_GetGR>
 8001004:	4583      	cmp	fp, r0
 8001006:	d839      	bhi.n	800107c <__gnu_unwind_pr_common+0x104>
 8001008:	f02a 0201 	bic.w	r2, sl, #1
 800100c:	445a      	add	r2, fp
 800100e:	4282      	cmp	r2, r0
 8001010:	bf94      	ite	ls
 8001012:	2000      	movls	r0, #0
 8001014:	2001      	movhi	r0, #1
 8001016:	ea4f 0349 	mov.w	r3, r9, lsl #1
 800101a:	f003 0302 	and.w	r3, r3, #2
 800101e:	f00a 0a01 	and.w	sl, sl, #1
 8001022:	ea43 030a 	orr.w	r3, r3, sl
 8001026:	2b01      	cmp	r3, #1
 8001028:	d049      	beq.n	80010be <__gnu_unwind_pr_common+0x146>
 800102a:	2b02      	cmp	r3, #2
 800102c:	d032      	beq.n	8001094 <__gnu_unwind_pr_common+0x11c>
 800102e:	2b00      	cmp	r3, #0
 8001030:	d1cc      	bne.n	8000fcc <__gnu_unwind_pr_common+0x54>
 8001032:	f1b8 0f00 	cmp.w	r8, #0
 8001036:	d002      	beq.n	800103e <__gnu_unwind_pr_common+0xc6>
 8001038:	2800      	cmp	r0, #0
 800103a:	f040 80ce 	bne.w	80011da <__gnu_unwind_pr_common+0x262>
 800103e:	3404      	adds	r4, #4
 8001040:	f8d4 a000 	ldr.w	sl, [r4]
 8001044:	f1ba 0f00 	cmp.w	sl, #0
 8001048:	d1cd      	bne.n	8000fe6 <__gnu_unwind_pr_common+0x6e>
 800104a:	4638      	mov	r0, r7
 800104c:	a905      	add	r1, sp, #20
 800104e:	f000 fb29 	bl	80016a4 <__gnu_unwind_execute>
 8001052:	2800      	cmp	r0, #0
 8001054:	d1ba      	bne.n	8000fcc <__gnu_unwind_pr_common+0x54>
 8001056:	9b01      	ldr	r3, [sp, #4]
 8001058:	2b00      	cmp	r3, #0
 800105a:	d0b3      	beq.n	8000fc4 <__gnu_unwind_pr_common+0x4c>
 800105c:	210f      	movs	r1, #15
 800105e:	4638      	mov	r0, r7
 8001060:	f7ff ff18 	bl	8000e94 <_Unwind_GetGR>
 8001064:	210e      	movs	r1, #14
 8001066:	4602      	mov	r2, r0
 8001068:	4638      	mov	r0, r7
 800106a:	f7ff ff39 	bl	8000ee0 <_Unwind_SetGR>
 800106e:	4638      	mov	r0, r7
 8001070:	210f      	movs	r1, #15
 8001072:	4a6a      	ldr	r2, [pc, #424]	; (800121c <__gnu_unwind_pr_common+0x2a4>)
 8001074:	f7ff ff34 	bl	8000ee0 <_Unwind_SetGR>
 8001078:	2007      	movs	r0, #7
 800107a:	e7a8      	b.n	8000fce <__gnu_unwind_pr_common+0x56>
 800107c:	2000      	movs	r0, #0
 800107e:	e7ca      	b.n	8001016 <__gnu_unwind_pr_common+0x9e>
 8001080:	f8d4 9004 	ldr.w	r9, [r4, #4]
 8001084:	3408      	adds	r4, #8
 8001086:	e7b5      	b.n	8000ff4 <__gnu_unwind_pr_common+0x7c>
 8001088:	021b      	lsls	r3, r3, #8
 800108a:	9305      	str	r3, [sp, #20]
 800108c:	2303      	movs	r3, #3
 800108e:	f8ad 301c 	strh.w	r3, [sp, #28]
 8001092:	e78a      	b.n	8000faa <__gnu_unwind_pr_common+0x32>
 8001094:	6823      	ldr	r3, [r4, #0]
 8001096:	f023 4b00 	bic.w	fp, r3, #2147483648	; 0x80000000
 800109a:	f1b8 0f00 	cmp.w	r8, #0
 800109e:	d145      	bne.n	800112c <__gnu_unwind_pr_common+0x1b4>
 80010a0:	b128      	cbz	r0, 80010ae <__gnu_unwind_pr_common+0x136>
 80010a2:	9a02      	ldr	r2, [sp, #8]
 80010a4:	2a00      	cmp	r2, #0
 80010a6:	d05c      	beq.n	8001162 <__gnu_unwind_pr_common+0x1ea>
 80010a8:	f1bb 0f00 	cmp.w	fp, #0
 80010ac:	d074      	beq.n	8001198 <__gnu_unwind_pr_common+0x220>
 80010ae:	2b00      	cmp	r3, #0
 80010b0:	da00      	bge.n	80010b4 <__gnu_unwind_pr_common+0x13c>
 80010b2:	3404      	adds	r4, #4
 80010b4:	f10b 0b01 	add.w	fp, fp, #1
 80010b8:	eb04 048b 	add.w	r4, r4, fp, lsl #2
 80010bc:	e7c0      	b.n	8001040 <__gnu_unwind_pr_common+0xc8>
 80010be:	f1b8 0f00 	cmp.w	r8, #0
 80010c2:	d119      	bne.n	80010f8 <__gnu_unwind_pr_common+0x180>
 80010c4:	b1b0      	cbz	r0, 80010f4 <__gnu_unwind_pr_common+0x17c>
 80010c6:	6863      	ldr	r3, [r4, #4]
 80010c8:	6822      	ldr	r2, [r4, #0]
 80010ca:	1c99      	adds	r1, r3, #2
 80010cc:	ea4f 72d2 	mov.w	r2, r2, lsr #31
 80010d0:	f43f af7c 	beq.w	8000fcc <__gnu_unwind_pr_common+0x54>
 80010d4:	f105 0158 	add.w	r1, r5, #88	; 0x58
 80010d8:	3301      	adds	r3, #1
 80010da:	9104      	str	r1, [sp, #16]
 80010dc:	f000 8091 	beq.w	8001202 <__gnu_unwind_pr_common+0x28a>
 80010e0:	1d20      	adds	r0, r4, #4
 80010e2:	f7ff fdb7 	bl	8000c54 <_Unwind_decode_typeinfo_ptr.constprop.0>
 80010e6:	ab04      	add	r3, sp, #16
 80010e8:	4601      	mov	r1, r0
 80010ea:	4628      	mov	r0, r5
 80010ec:	f3af 8000 	nop.w
 80010f0:	2800      	cmp	r0, #0
 80010f2:	d15c      	bne.n	80011ae <__gnu_unwind_pr_common+0x236>
 80010f4:	3408      	adds	r4, #8
 80010f6:	e7a3      	b.n	8001040 <__gnu_unwind_pr_common+0xc8>
 80010f8:	210d      	movs	r1, #13
 80010fa:	4638      	mov	r0, r7
 80010fc:	f8d5 9020 	ldr.w	r9, [r5, #32]
 8001100:	f7ff fec8 	bl	8000e94 <_Unwind_GetGR>
 8001104:	4581      	cmp	r9, r0
 8001106:	d1f5      	bne.n	80010f4 <__gnu_unwind_pr_common+0x17c>
 8001108:	6aab      	ldr	r3, [r5, #40]	; 0x28
 800110a:	429c      	cmp	r4, r3
 800110c:	d1f2      	bne.n	80010f4 <__gnu_unwind_pr_common+0x17c>
 800110e:	4620      	mov	r0, r4
 8001110:	f7ff fcd4 	bl	8000abc <selfrel_offset31>
 8001114:	210f      	movs	r1, #15
 8001116:	4602      	mov	r2, r0
 8001118:	4638      	mov	r0, r7
 800111a:	f7ff fee1 	bl	8000ee0 <_Unwind_SetGR>
 800111e:	4638      	mov	r0, r7
 8001120:	462a      	mov	r2, r5
 8001122:	2100      	movs	r1, #0
 8001124:	f7ff fedc 	bl	8000ee0 <_Unwind_SetGR>
 8001128:	2007      	movs	r0, #7
 800112a:	e750      	b.n	8000fce <__gnu_unwind_pr_common+0x56>
 800112c:	210d      	movs	r1, #13
 800112e:	4638      	mov	r0, r7
 8001130:	f8d5 9020 	ldr.w	r9, [r5, #32]
 8001134:	f7ff feae 	bl	8000e94 <_Unwind_GetGR>
 8001138:	4581      	cmp	r9, r0
 800113a:	d001      	beq.n	8001140 <__gnu_unwind_pr_common+0x1c8>
 800113c:	6823      	ldr	r3, [r4, #0]
 800113e:	e7b6      	b.n	80010ae <__gnu_unwind_pr_common+0x136>
 8001140:	6aab      	ldr	r3, [r5, #40]	; 0x28
 8001142:	429c      	cmp	r4, r3
 8001144:	d1fa      	bne.n	800113c <__gnu_unwind_pr_common+0x1c4>
 8001146:	2304      	movs	r3, #4
 8001148:	2200      	movs	r2, #0
 800114a:	e9c5 230b 	strd	r2, r3, [r5, #44]	; 0x2c
 800114e:	18e3      	adds	r3, r4, r3
 8001150:	f8c5 b028 	str.w	fp, [r5, #40]	; 0x28
 8001154:	636b      	str	r3, [r5, #52]	; 0x34
 8001156:	6823      	ldr	r3, [r4, #0]
 8001158:	2b00      	cmp	r3, #0
 800115a:	db5a      	blt.n	8001212 <__gnu_unwind_pr_common+0x29a>
 800115c:	2301      	movs	r3, #1
 800115e:	9301      	str	r3, [sp, #4]
 8001160:	e7a8      	b.n	80010b4 <__gnu_unwind_pr_common+0x13c>
 8001162:	f105 0358 	add.w	r3, r5, #88	; 0x58
 8001166:	f8cd 800c 	str.w	r8, [sp, #12]
 800116a:	4691      	mov	r9, r2
 800116c:	46b0      	mov	r8, r6
 800116e:	f104 0a04 	add.w	sl, r4, #4
 8001172:	461e      	mov	r6, r3
 8001174:	e00e      	b.n	8001194 <__gnu_unwind_pr_common+0x21c>
 8001176:	4650      	mov	r0, sl
 8001178:	9604      	str	r6, [sp, #16]
 800117a:	f7ff fd6b 	bl	8000c54 <_Unwind_decode_typeinfo_ptr.constprop.0>
 800117e:	2200      	movs	r2, #0
 8001180:	4601      	mov	r1, r0
 8001182:	ab04      	add	r3, sp, #16
 8001184:	4628      	mov	r0, r5
 8001186:	f109 0901 	add.w	r9, r9, #1
 800118a:	f10a 0a04 	add.w	sl, sl, #4
 800118e:	f3af 8000 	nop.w
 8001192:	b9e8      	cbnz	r0, 80011d0 <__gnu_unwind_pr_common+0x258>
 8001194:	45d9      	cmp	r9, fp
 8001196:	d1ee      	bne.n	8001176 <__gnu_unwind_pr_common+0x1fe>
 8001198:	210d      	movs	r1, #13
 800119a:	4638      	mov	r0, r7
 800119c:	f7ff fe7a 	bl	8000e94 <_Unwind_GetGR>
 80011a0:	4603      	mov	r3, r0
 80011a2:	9a04      	ldr	r2, [sp, #16]
 80011a4:	2006      	movs	r0, #6
 80011a6:	e9c5 2409 	strd	r2, r4, [r5, #36]	; 0x24
 80011aa:	622b      	str	r3, [r5, #32]
 80011ac:	e70f      	b.n	8000fce <__gnu_unwind_pr_common+0x56>
 80011ae:	4681      	mov	r9, r0
 80011b0:	210d      	movs	r1, #13
 80011b2:	4638      	mov	r0, r7
 80011b4:	f7ff fe6e 	bl	8000e94 <_Unwind_GetGR>
 80011b8:	f1b9 0f02 	cmp.w	r9, #2
 80011bc:	6228      	str	r0, [r5, #32]
 80011be:	d125      	bne.n	800120c <__gnu_unwind_pr_common+0x294>
 80011c0:	462b      	mov	r3, r5
 80011c2:	9a04      	ldr	r2, [sp, #16]
 80011c4:	f843 2f2c 	str.w	r2, [r3, #44]!
 80011c8:	626b      	str	r3, [r5, #36]	; 0x24
 80011ca:	2006      	movs	r0, #6
 80011cc:	62ac      	str	r4, [r5, #40]	; 0x28
 80011ce:	e6fe      	b.n	8000fce <__gnu_unwind_pr_common+0x56>
 80011d0:	4646      	mov	r6, r8
 80011d2:	6823      	ldr	r3, [r4, #0]
 80011d4:	f8dd 800c 	ldr.w	r8, [sp, #12]
 80011d8:	e769      	b.n	80010ae <__gnu_unwind_pr_common+0x136>
 80011da:	4620      	mov	r0, r4
 80011dc:	f7ff fc6e 	bl	8000abc <selfrel_offset31>
 80011e0:	4602      	mov	r2, r0
 80011e2:	3404      	adds	r4, #4
 80011e4:	63ac      	str	r4, [r5, #56]	; 0x38
 80011e6:	4628      	mov	r0, r5
 80011e8:	4614      	mov	r4, r2
 80011ea:	f3af 8000 	nop.w
 80011ee:	2800      	cmp	r0, #0
 80011f0:	f43f aeec 	beq.w	8000fcc <__gnu_unwind_pr_common+0x54>
 80011f4:	4638      	mov	r0, r7
 80011f6:	4622      	mov	r2, r4
 80011f8:	210f      	movs	r1, #15
 80011fa:	f7ff fe71 	bl	8000ee0 <_Unwind_SetGR>
 80011fe:	2007      	movs	r0, #7
 8001200:	e6e5      	b.n	8000fce <__gnu_unwind_pr_common+0x56>
 8001202:	210d      	movs	r1, #13
 8001204:	4638      	mov	r0, r7
 8001206:	f7ff fe45 	bl	8000e94 <_Unwind_GetGR>
 800120a:	6228      	str	r0, [r5, #32]
 800120c:	9b04      	ldr	r3, [sp, #16]
 800120e:	626b      	str	r3, [r5, #36]	; 0x24
 8001210:	e7db      	b.n	80011ca <__gnu_unwind_pr_common+0x252>
 8001212:	f10b 0001 	add.w	r0, fp, #1
 8001216:	eb04 0080 	add.w	r0, r4, r0, lsl #2
 800121a:	e779      	b.n	8001110 <__gnu_unwind_pr_common+0x198>
 800121c:	00000000 	.word	0x00000000

08001220 <__aeabi_unwind_cpp_pr0>:
 8001220:	2300      	movs	r3, #0
 8001222:	e6a9      	b.n	8000f78 <__gnu_unwind_pr_common>

08001224 <__aeabi_unwind_cpp_pr1>:
 8001224:	2301      	movs	r3, #1
 8001226:	e6a7      	b.n	8000f78 <__gnu_unwind_pr_common>

08001228 <__aeabi_unwind_cpp_pr2>:
 8001228:	2302      	movs	r3, #2
 800122a:	e6a5      	b.n	8000f78 <__gnu_unwind_pr_common>

0800122c <_Unwind_VRS_Pop>:
 800122c:	e92d 43f0 	stmdb	sp!, {r4, r5, r6, r7, r8, r9, lr}
 8001230:	4606      	mov	r6, r0
 8001232:	4615      	mov	r5, r2
 8001234:	461c      	mov	r4, r3
 8001236:	b0c3      	sub	sp, #268	; 0x10c
 8001238:	2904      	cmp	r1, #4
 800123a:	f200 80b8 	bhi.w	80013ae <_Unwind_VRS_Pop+0x182>
 800123e:	e8df f001 	tbb	[pc, r1]
 8001242:	569c      	.short	0x569c
 8001244:	2db6      	.short	0x2db6
 8001246:	03          	.byte	0x03
 8001247:	00          	.byte	0x00
 8001248:	2c00      	cmp	r4, #0
 800124a:	f040 80b0 	bne.w	80013ae <_Unwind_VRS_Pop+0x182>
 800124e:	2a10      	cmp	r2, #16
 8001250:	f200 80ad 	bhi.w	80013ae <_Unwind_VRS_Pop+0x182>
 8001254:	6803      	ldr	r3, [r0, #0]
 8001256:	06d8      	lsls	r0, r3, #27
 8001258:	f100 80f1 	bmi.w	800143e <_Unwind_VRS_Pop+0x212>
 800125c:	af20      	add	r7, sp, #128	; 0x80
 800125e:	4638      	mov	r0, r7
 8001260:	f000 f990 	bl	8001584 <__gnu_Unwind_Save_WMMXC>
 8001264:	2401      	movs	r4, #1
 8001266:	4638      	mov	r0, r7
 8001268:	2300      	movs	r3, #0
 800126a:	6bb1      	ldr	r1, [r6, #56]	; 0x38
 800126c:	fa04 f203 	lsl.w	r2, r4, r3
 8001270:	422a      	tst	r2, r5
 8001272:	f103 0301 	add.w	r3, r3, #1
 8001276:	d005      	beq.n	8001284 <_Unwind_VRS_Pop+0x58>
 8001278:	460a      	mov	r2, r1
 800127a:	f852 cb04 	ldr.w	ip, [r2], #4
 800127e:	4611      	mov	r1, r2
 8001280:	f8c0 c000 	str.w	ip, [r0]
 8001284:	2b04      	cmp	r3, #4
 8001286:	f100 0004 	add.w	r0, r0, #4
 800128a:	d1ef      	bne.n	800126c <_Unwind_VRS_Pop+0x40>
 800128c:	4638      	mov	r0, r7
 800128e:	63b1      	str	r1, [r6, #56]	; 0x38
 8001290:	f000 f96e 	bl	8001570 <__gnu_Unwind_Restore_WMMXC>
 8001294:	2000      	movs	r0, #0
 8001296:	b043      	add	sp, #268	; 0x10c
 8001298:	e8bd 83f0 	ldmia.w	sp!, {r4, r5, r6, r7, r8, r9, pc}
 800129c:	2c03      	cmp	r4, #3
 800129e:	f040 8086 	bne.w	80013ae <_Unwind_VRS_Pop+0x182>
 80012a2:	b294      	uxth	r4, r2
 80012a4:	eb04 4312 	add.w	r3, r4, r2, lsr #16
 80012a8:	2b10      	cmp	r3, #16
 80012aa:	ea4f 4512 	mov.w	r5, r2, lsr #16
 80012ae:	d87e      	bhi.n	80013ae <_Unwind_VRS_Pop+0x182>
 80012b0:	6803      	ldr	r3, [r0, #0]
 80012b2:	071f      	lsls	r7, r3, #28
 80012b4:	f100 80cb 	bmi.w	800144e <_Unwind_VRS_Pop+0x222>
 80012b8:	af20      	add	r7, sp, #128	; 0x80
 80012ba:	4638      	mov	r0, r7
 80012bc:	f000 f936 	bl	800152c <__gnu_Unwind_Save_WMMXD>
 80012c0:	6bb2      	ldr	r2, [r6, #56]	; 0x38
 80012c2:	eb07 01c5 	add.w	r1, r7, r5, lsl #3
 80012c6:	b154      	cbz	r4, 80012de <_Unwind_VRS_Pop+0xb2>
 80012c8:	460b      	mov	r3, r1
 80012ca:	eb01 01c4 	add.w	r1, r1, r4, lsl #3
 80012ce:	1ad0      	subs	r0, r2, r3
 80012d0:	00e4      	lsls	r4, r4, #3
 80012d2:	581d      	ldr	r5, [r3, r0]
 80012d4:	f843 5b04 	str.w	r5, [r3], #4
 80012d8:	428b      	cmp	r3, r1
 80012da:	d1fa      	bne.n	80012d2 <_Unwind_VRS_Pop+0xa6>
 80012dc:	4422      	add	r2, r4
 80012de:	4638      	mov	r0, r7
 80012e0:	63b2      	str	r2, [r6, #56]	; 0x38
 80012e2:	f000 f901 	bl	80014e8 <__gnu_Unwind_Restore_WMMXD>
 80012e6:	2000      	movs	r0, #0
 80012e8:	b043      	add	sp, #268	; 0x10c
 80012ea:	e8bd 83f0 	ldmia.w	sp!, {r4, r5, r6, r7, r8, r9, pc}
 80012ee:	2c01      	cmp	r4, #1
 80012f0:	ea4f 4812 	mov.w	r8, r2, lsr #16
 80012f4:	b295      	uxth	r5, r2
 80012f6:	d056      	beq.n	80013a6 <_Unwind_VRS_Pop+0x17a>
 80012f8:	2c05      	cmp	r4, #5
 80012fa:	d158      	bne.n	80013ae <_Unwind_VRS_Pop+0x182>
 80012fc:	eb08 0905 	add.w	r9, r8, r5
 8001300:	f1b9 0f20 	cmp.w	r9, #32
 8001304:	d853      	bhi.n	80013ae <_Unwind_VRS_Pop+0x182>
 8001306:	f1b8 0f0f 	cmp.w	r8, #15
 800130a:	d973      	bls.n	80013f4 <_Unwind_VRS_Pop+0x1c8>
 800130c:	46a9      	mov	r9, r5
 800130e:	2d00      	cmp	r5, #0
 8001310:	f040 8084 	bne.w	800141c <_Unwind_VRS_Pop+0x1f0>
 8001314:	6bb3      	ldr	r3, [r6, #56]	; 0x38
 8001316:	b365      	cbz	r5, 8001372 <_Unwind_VRS_Pop+0x146>
 8001318:	af20      	add	r7, sp, #128	; 0x80
 800131a:	f04f 0900 	mov.w	r9, #0
 800131e:	eb07 07c8 	add.w	r7, r7, r8, lsl #3
 8001322:	3f04      	subs	r7, #4
 8001324:	eb03 05c5 	add.w	r5, r3, r5, lsl #3
 8001328:	f853 1b04 	ldr.w	r1, [r3], #4
 800132c:	42ab      	cmp	r3, r5
 800132e:	f847 1f04 	str.w	r1, [r7, #4]!
 8001332:	d1f9      	bne.n	8001328 <_Unwind_VRS_Pop+0xfc>
 8001334:	f1b9 0f00 	cmp.w	r9, #0
 8001338:	d00f      	beq.n	800135a <_Unwind_VRS_Pop+0x12e>
 800133a:	466f      	mov	r7, sp
 800133c:	4641      	mov	r1, r8
 800133e:	2910      	cmp	r1, #16
 8001340:	bf38      	it	cc
 8001342:	2110      	movcc	r1, #16
 8001344:	eb07 01c1 	add.w	r1, r7, r1, lsl #3
 8001348:	3984      	subs	r1, #132	; 0x84
 800134a:	eb03 05c9 	add.w	r5, r3, r9, lsl #3
 800134e:	f853 0b04 	ldr.w	r0, [r3], #4
 8001352:	42ab      	cmp	r3, r5
 8001354:	f841 0f04 	str.w	r0, [r1, #4]!
 8001358:	d1f9      	bne.n	800134e <_Unwind_VRS_Pop+0x122>
 800135a:	2c01      	cmp	r4, #1
 800135c:	d07f      	beq.n	800145e <_Unwind_VRS_Pop+0x232>
 800135e:	f1b8 0f0f 	cmp.w	r8, #15
 8001362:	63b5      	str	r5, [r6, #56]	; 0x38
 8001364:	d942      	bls.n	80013ec <_Unwind_VRS_Pop+0x1c0>
 8001366:	f1b9 0f00 	cmp.w	r9, #0
 800136a:	d002      	beq.n	8001372 <_Unwind_VRS_Pop+0x146>
 800136c:	4668      	mov	r0, sp
 800136e:	f000 f8b3 	bl	80014d8 <__gnu_Unwind_Restore_VFP_D_16_to_31>
 8001372:	2000      	movs	r0, #0
 8001374:	b043      	add	sp, #268	; 0x10c
 8001376:	e8bd 83f0 	ldmia.w	sp!, {r4, r5, r6, r7, r8, r9, pc}
 800137a:	b9c4      	cbnz	r4, 80013ae <_Unwind_VRS_Pop+0x182>
 800137c:	4623      	mov	r3, r4
 800137e:	2401      	movs	r4, #1
 8001380:	6b82      	ldr	r2, [r0, #56]	; 0x38
 8001382:	1d37      	adds	r7, r6, #4
 8001384:	b2a8      	uxth	r0, r5
 8001386:	fa04 f103 	lsl.w	r1, r4, r3
 800138a:	4201      	tst	r1, r0
 800138c:	bf1c      	itt	ne
 800138e:	f852 1b04 	ldrne.w	r1, [r2], #4
 8001392:	f847 1023 	strne.w	r1, [r7, r3, lsl #2]
 8001396:	3301      	adds	r3, #1
 8001398:	2b10      	cmp	r3, #16
 800139a:	d1f4      	bne.n	8001386 <_Unwind_VRS_Pop+0x15a>
 800139c:	f415 5000 	ands.w	r0, r5, #8192	; 0x2000
 80013a0:	d1e7      	bne.n	8001372 <_Unwind_VRS_Pop+0x146>
 80013a2:	63b2      	str	r2, [r6, #56]	; 0x38
 80013a4:	e004      	b.n	80013b0 <_Unwind_VRS_Pop+0x184>
 80013a6:	eb08 0305 	add.w	r3, r8, r5
 80013aa:	2b10      	cmp	r3, #16
 80013ac:	d903      	bls.n	80013b6 <_Unwind_VRS_Pop+0x18a>
 80013ae:	2002      	movs	r0, #2
 80013b0:	b043      	add	sp, #268	; 0x10c
 80013b2:	e8bd 83f0 	ldmia.w	sp!, {r4, r5, r6, r7, r8, r9, pc}
 80013b6:	f1b8 0f0f 	cmp.w	r8, #15
 80013ba:	d8f8      	bhi.n	80013ae <_Unwind_VRS_Pop+0x182>
 80013bc:	6833      	ldr	r3, [r6, #0]
 80013be:	07da      	lsls	r2, r3, #31
 80013c0:	d506      	bpl.n	80013d0 <_Unwind_VRS_Pop+0x1a4>
 80013c2:	4630      	mov	r0, r6
 80013c4:	f023 0303 	bic.w	r3, r3, #3
 80013c8:	f840 3b48 	str.w	r3, [r0], #72
 80013cc:	f000 f878 	bl	80014c0 <__gnu_Unwind_Save_VFP>
 80013d0:	af20      	add	r7, sp, #128	; 0x80
 80013d2:	4638      	mov	r0, r7
 80013d4:	f000 f874 	bl	80014c0 <__gnu_Unwind_Save_VFP>
 80013d8:	6bb3      	ldr	r3, [r6, #56]	; 0x38
 80013da:	2d00      	cmp	r5, #0
 80013dc:	d19d      	bne.n	800131a <_Unwind_VRS_Pop+0xee>
 80013de:	461d      	mov	r5, r3
 80013e0:	3504      	adds	r5, #4
 80013e2:	4638      	mov	r0, r7
 80013e4:	63b5      	str	r5, [r6, #56]	; 0x38
 80013e6:	f000 f867 	bl	80014b8 <__gnu_Unwind_Restore_VFP>
 80013ea:	e7c2      	b.n	8001372 <_Unwind_VRS_Pop+0x146>
 80013ec:	a820      	add	r0, sp, #128	; 0x80
 80013ee:	f000 f86b 	bl	80014c8 <__gnu_Unwind_Restore_VFP_D>
 80013f2:	e7b8      	b.n	8001366 <_Unwind_VRS_Pop+0x13a>
 80013f4:	f1b9 0f10 	cmp.w	r9, #16
 80013f8:	d93f      	bls.n	800147a <_Unwind_VRS_Pop+0x24e>
 80013fa:	f1a9 0910 	sub.w	r9, r9, #16
 80013fe:	6833      	ldr	r3, [r6, #0]
 8001400:	07d9      	lsls	r1, r3, #31
 8001402:	d508      	bpl.n	8001416 <_Unwind_VRS_Pop+0x1ea>
 8001404:	4630      	mov	r0, r6
 8001406:	f023 0301 	bic.w	r3, r3, #1
 800140a:	f043 0302 	orr.w	r3, r3, #2
 800140e:	f840 3b48 	str.w	r3, [r0], #72
 8001412:	f000 f85d 	bl	80014d0 <__gnu_Unwind_Save_VFP_D>
 8001416:	f1b9 0f00 	cmp.w	r9, #0
 800141a:	d031      	beq.n	8001480 <_Unwind_VRS_Pop+0x254>
 800141c:	6833      	ldr	r3, [r6, #0]
 800141e:	075a      	lsls	r2, r3, #29
 8001420:	d41f      	bmi.n	8001462 <_Unwind_VRS_Pop+0x236>
 8001422:	f1b8 0f0f 	cmp.w	r8, #15
 8001426:	d924      	bls.n	8001472 <_Unwind_VRS_Pop+0x246>
 8001428:	466f      	mov	r7, sp
 800142a:	f1c8 0510 	rsb	r5, r8, #16
 800142e:	4638      	mov	r0, r7
 8001430:	f000 f856 	bl	80014e0 <__gnu_Unwind_Save_VFP_D_16_to_31>
 8001434:	2d00      	cmp	r5, #0
 8001436:	6bb3      	ldr	r3, [r6, #56]	; 0x38
 8001438:	dd80      	ble.n	800133c <_Unwind_VRS_Pop+0x110>
 800143a:	af20      	add	r7, sp, #128	; 0x80
 800143c:	e76f      	b.n	800131e <_Unwind_VRS_Pop+0xf2>
 800143e:	f023 0310 	bic.w	r3, r3, #16
 8001442:	6033      	str	r3, [r6, #0]
 8001444:	f506 70e8 	add.w	r0, r6, #464	; 0x1d0
 8001448:	f000 f89c 	bl	8001584 <__gnu_Unwind_Save_WMMXC>
 800144c:	e706      	b.n	800125c <_Unwind_VRS_Pop+0x30>
 800144e:	f023 0308 	bic.w	r3, r3, #8
 8001452:	6003      	str	r3, [r0, #0]
 8001454:	f500 70a8 	add.w	r0, r0, #336	; 0x150
 8001458:	f000 f868 	bl	800152c <__gnu_Unwind_Save_WMMXD>
 800145c:	e72c      	b.n	80012b8 <_Unwind_VRS_Pop+0x8c>
 800145e:	af20      	add	r7, sp, #128	; 0x80
 8001460:	e7be      	b.n	80013e0 <_Unwind_VRS_Pop+0x1b4>
 8001462:	4630      	mov	r0, r6
 8001464:	f023 0304 	bic.w	r3, r3, #4
 8001468:	f840 3bd0 	str.w	r3, [r0], #208
 800146c:	f000 f838 	bl	80014e0 <__gnu_Unwind_Save_VFP_D_16_to_31>
 8001470:	e7d7      	b.n	8001422 <_Unwind_VRS_Pop+0x1f6>
 8001472:	a820      	add	r0, sp, #128	; 0x80
 8001474:	f000 f82c 	bl	80014d0 <__gnu_Unwind_Save_VFP_D>
 8001478:	e7d6      	b.n	8001428 <_Unwind_VRS_Pop+0x1fc>
 800147a:	f04f 0900 	mov.w	r9, #0
 800147e:	e7be      	b.n	80013fe <_Unwind_VRS_Pop+0x1d2>
 8001480:	f1b8 0f0f 	cmp.w	r8, #15
 8001484:	f63f af46 	bhi.w	8001314 <_Unwind_VRS_Pop+0xe8>
 8001488:	af20      	add	r7, sp, #128	; 0x80
 800148a:	4638      	mov	r0, r7
 800148c:	f000 f820 	bl	80014d0 <__gnu_Unwind_Save_VFP_D>
 8001490:	6bb3      	ldr	r3, [r6, #56]	; 0x38
 8001492:	2d00      	cmp	r5, #0
 8001494:	f47f af41 	bne.w	800131a <_Unwind_VRS_Pop+0xee>
 8001498:	4638      	mov	r0, r7
 800149a:	f000 f815 	bl	80014c8 <__gnu_Unwind_Restore_VFP_D>
 800149e:	e768      	b.n	8001372 <_Unwind_VRS_Pop+0x146>

080014a0 <__restore_core_regs>:
 80014a0:	f100 0134 	add.w	r1, r0, #52	; 0x34
 80014a4:	e891 0038 	ldmia.w	r1, {r3, r4, r5}
 80014a8:	469c      	mov	ip, r3
 80014aa:	46a6      	mov	lr, r4
 80014ac:	f84c 5d04 	str.w	r5, [ip, #-4]!
 80014b0:	e890 0fff 	ldmia.w	r0, {r0, r1, r2, r3, r4, r5, r6, r7, r8, r9, sl, fp}
 80014b4:	46e5      	mov	sp, ip
 80014b6:	bd00      	pop	{pc}

080014b8 <__gnu_Unwind_Restore_VFP>:
 80014b8:	ec90 0b21 	fldmiax	r0, {d0-d15}	;@ Deprecated
 80014bc:	4770      	bx	lr
 80014be:	bf00      	nop

080014c0 <__gnu_Unwind_Save_VFP>:
 80014c0:	ec80 0b21 	fstmiax	r0, {d0-d15}	;@ Deprecated
 80014c4:	4770      	bx	lr
 80014c6:	bf00      	nop

080014c8 <__gnu_Unwind_Restore_VFP_D>:
 80014c8:	ec90 0b20 	vldmia	r0, {d0-d15}
 80014cc:	4770      	bx	lr
 80014ce:	bf00      	nop

080014d0 <__gnu_Unwind_Save_VFP_D>:
 80014d0:	ec80 0b20 	vstmia	r0, {d0-d15}
 80014d4:	4770      	bx	lr
 80014d6:	bf00      	nop

080014d8 <__gnu_Unwind_Restore_VFP_D_16_to_31>:
 80014d8:	ecd0 0b20 	vldmia	r0, {d16-d31}
 80014dc:	4770      	bx	lr
 80014de:	bf00      	nop

080014e0 <__gnu_Unwind_Save_VFP_D_16_to_31>:
 80014e0:	ecc0 0b20 	vstmia	r0, {d16-d31}
 80014e4:	4770      	bx	lr
 80014e6:	bf00      	nop

080014e8 <__gnu_Unwind_Restore_WMMXD>:
 80014e8:	ecf0 0102 	ldfe	f0, [r0], #8
 80014ec:	ecf0 1102 	ldfe	f1, [r0], #8
 80014f0:	ecf0 2102 	ldfe	f2, [r0], #8
 80014f4:	ecf0 3102 	ldfe	f3, [r0], #8
 80014f8:	ecf0 4102 	ldfe	f4, [r0], #8
 80014fc:	ecf0 5102 	ldfe	f5, [r0], #8
 8001500:	ecf0 6102 	ldfe	f6, [r0], #8
 8001504:	ecf0 7102 	ldfe	f7, [r0], #8
 8001508:	ecf0 8102 	ldfp	f0, [r0], #8
 800150c:	ecf0 9102 	ldfp	f1, [r0], #8
 8001510:	ecf0 a102 	ldfp	f2, [r0], #8
 8001514:	ecf0 b102 	ldfp	f3, [r0], #8
 8001518:	ecf0 c102 	ldfp	f4, [r0], #8
 800151c:	ecf0 d102 	ldfp	f5, [r0], #8
 8001520:	ecf0 e102 	ldfp	f6, [r0], #8
 8001524:	ecf0 f102 	ldfp	f7, [r0], #8
 8001528:	4770      	bx	lr
 800152a:	bf00      	nop

0800152c <__gnu_Unwind_Save_WMMXD>:
 800152c:	ece0 0102 	stfe	f0, [r0], #8
 8001530:	ece0 1102 	stfe	f1, [r0], #8
 8001534:	ece0 2102 	stfe	f2, [r0], #8
 8001538:	ece0 3102 	stfe	f3, [r0], #8
 800153c:	ece0 4102 	stfe	f4, [r0], #8
 8001540:	ece0 5102 	stfe	f5, [r0], #8
 8001544:	ece0 6102 	stfe	f6, [r0], #8
 8001548:	ece0 7102 	stfe	f7, [r0], #8
 800154c:	ece0 8102 	stfp	f0, [r0], #8
 8001550:	ece0 9102 	stfp	f1, [r0], #8
 8001554:	ece0 a102 	stfp	f2, [r0], #8
 8001558:	ece0 b102 	stfp	f3, [r0], #8
 800155c:	ece0 c102 	stfp	f4, [r0], #8
 8001560:	ece0 d102 	stfp	f5, [r0], #8
 8001564:	ece0 e102 	stfp	f6, [r0], #8
 8001568:	ece0 f102 	stfp	f7, [r0], #8
 800156c:	4770      	bx	lr
 800156e:	bf00      	nop

08001570 <__gnu_Unwind_Restore_WMMXC>:
 8001570:	fcb0 8101 	ldc2	1, cr8, [r0], #4
 8001574:	fcb0 9101 	ldc2	1, cr9, [r0], #4
 8001578:	fcb0 a101 	ldc2	1, cr10, [r0], #4
 800157c:	fcb0 b101 	ldc2	1, cr11, [r0], #4
 8001580:	4770      	bx	lr
 8001582:	bf00      	nop

08001584 <__gnu_Unwind_Save_WMMXC>:
 8001584:	fca0 8101 	stc2	1, cr8, [r0], #4
 8001588:	fca0 9101 	stc2	1, cr9, [r0], #4
 800158c:	fca0 a101 	stc2	1, cr10, [r0], #4
 8001590:	fca0 b101 	stc2	1, cr11, [r0], #4
 8001594:	4770      	bx	lr
 8001596:	bf00      	nop

08001598 <_Unwind_RaiseException>:
 8001598:	46ec      	mov	ip, sp
 800159a:	b500      	push	{lr}
 800159c:	e92d 5000 	stmdb	sp!, {ip, lr}
 80015a0:	e92d 1fff 	stmdb	sp!, {r0, r1, r2, r3, r4, r5, r6, r7, r8, r9, sl, fp, ip}
 80015a4:	f04f 0300 	mov.w	r3, #0
 80015a8:	e92d 000c 	stmdb	sp!, {r2, r3}
 80015ac:	a901      	add	r1, sp, #4
 80015ae:	f7ff fbe7 	bl	8000d80 <__gnu_Unwind_RaiseException>
 80015b2:	f8dd e040 	ldr.w	lr, [sp, #64]	; 0x40
 80015b6:	b012      	add	sp, #72	; 0x48
 80015b8:	4770      	bx	lr
 80015ba:	bf00      	nop

080015bc <_Unwind_Resume>:
 80015bc:	46ec      	mov	ip, sp
 80015be:	b500      	push	{lr}
 80015c0:	e92d 5000 	stmdb	sp!, {ip, lr}
 80015c4:	e92d 1fff 	stmdb	sp!, {r0, r1, r2, r3, r4, r5, r6, r7, r8, r9, sl, fp, ip}
 80015c8:	f04f 0300 	mov.w	r3, #0
 80015cc:	e92d 000c 	stmdb	sp!, {r2, r3}
 80015d0:	a901      	add	r1, sp, #4
 80015d2:	f7ff fc13 	bl	8000dfc <__gnu_Unwind_Resume>
 80015d6:	f8dd e040 	ldr.w	lr, [sp, #64]	; 0x40
 80015da:	b012      	add	sp, #72	; 0x48
 80015dc:	4770      	bx	lr
 80015de:	bf00      	nop

080015e0 <_Unwind_Resume_or_Rethrow>:
 80015e0:	46ec      	mov	ip, sp
 80015e2:	b500      	push	{lr}
 80015e4:	e92d 5000 	stmdb	sp!, {ip, lr}
 80015e8:	e92d 1fff 	stmdb	sp!, {r0, r1, r2, r3, r4, r5, r6, r7, r8, r9, sl, fp, ip}
 80015ec:	f04f 0300 	mov.w	r3, #0
 80015f0:	e92d 000c 	stmdb	sp!, {r2, r3}
 80015f4:	a901      	add	r1, sp, #4
 80015f6:	f7ff fc23 	bl	8000e40 <__gnu_Unwind_Resume_or_Rethrow>
 80015fa:	f8dd e040 	ldr.w	lr, [sp, #64]	; 0x40
 80015fe:	b012      	add	sp, #72	; 0x48
 8001600:	4770      	bx	lr
 8001602:	bf00      	nop

08001604 <_Unwind_ForcedUnwind>:
 8001604:	46ec      	mov	ip, sp
 8001606:	b500      	push	{lr}
 8001608:	e92d 5000 	stmdb	sp!, {ip, lr}
 800160c:	e92d 1fff 	stmdb	sp!, {r0, r1, r2, r3, r4, r5, r6, r7, r8, r9, sl, fp, ip}
 8001610:	f04f 0300 	mov.w	r3, #0
 8001614:	e92d 000c 	stmdb	sp!, {r2, r3}
 8001618:	ab01      	add	r3, sp, #4
 800161a:	f7ff fbe5 	bl	8000de8 <__gnu_Unwind_ForcedUnwind>
 800161e:	f8dd e040 	ldr.w	lr, [sp, #64]	; 0x40
 8001622:	b012      	add	sp, #72	; 0x48
 8001624:	4770      	bx	lr
 8001626:	bf00      	nop

08001628 <_Unwind_Backtrace>:
 8001628:	46ec      	mov	ip, sp
 800162a:	b500      	push	{lr}
 800162c:	e92d 5000 	stmdb	sp!, {ip, lr}
 8001630:	e92d 1fff 	stmdb	sp!, {r0, r1, r2, r3, r4, r5, r6, r7, r8, r9, sl, fp, ip}
 8001634:	f04f 0300 	mov.w	r3, #0
 8001638:	e92d 000c 	stmdb	sp!, {r2, r3}
 800163c:	aa01      	add	r2, sp, #4
 800163e:	f7ff fc5b 	bl	8000ef8 <__gnu_Unwind_Backtrace>
 8001642:	f8dd e040 	ldr.w	lr, [sp, #64]	; 0x40
 8001646:	b012      	add	sp, #72	; 0x48
 8001648:	4770      	bx	lr
 800164a:	bf00      	nop

0800164c <next_unwind_byte>:
 800164c:	7a02      	ldrb	r2, [r0, #8]
 800164e:	4603      	mov	r3, r0
 8001650:	b97a      	cbnz	r2, 8001672 <next_unwind_byte+0x26>
 8001652:	7a42      	ldrb	r2, [r0, #9]
 8001654:	b1a2      	cbz	r2, 8001680 <next_unwind_byte+0x34>
 8001656:	f04f 0c03 	mov.w	ip, #3
 800165a:	6841      	ldr	r1, [r0, #4]
 800165c:	3a01      	subs	r2, #1
 800165e:	7242      	strb	r2, [r0, #9]
 8001660:	6808      	ldr	r0, [r1, #0]
 8001662:	1d0a      	adds	r2, r1, #4
 8001664:	605a      	str	r2, [r3, #4]
 8001666:	0202      	lsls	r2, r0, #8
 8001668:	f883 c008 	strb.w	ip, [r3, #8]
 800166c:	0e00      	lsrs	r0, r0, #24
 800166e:	601a      	str	r2, [r3, #0]
 8001670:	4770      	bx	lr
 8001672:	6800      	ldr	r0, [r0, #0]
 8001674:	3a01      	subs	r2, #1
 8001676:	721a      	strb	r2, [r3, #8]
 8001678:	0202      	lsls	r2, r0, #8
 800167a:	601a      	str	r2, [r3, #0]
 800167c:	0e00      	lsrs	r0, r0, #24
 800167e:	4770      	bx	lr
 8001680:	20b0      	movs	r0, #176	; 0xb0
 8001682:	4770      	bx	lr

08001684 <_Unwind_GetGR.constprop.0>:
 8001684:	2300      	movs	r3, #0
 8001686:	b500      	push	{lr}
 8001688:	b085      	sub	sp, #20
 800168a:	a903      	add	r1, sp, #12
 800168c:	9100      	str	r1, [sp, #0]
 800168e:	220c      	movs	r2, #12
 8001690:	4619      	mov	r1, r3
 8001692:	f7ff fbe7 	bl	8000e64 <_Unwind_VRS_Get>
 8001696:	9803      	ldr	r0, [sp, #12]
 8001698:	b005      	add	sp, #20
 800169a:	f85d fb04 	ldr.w	pc, [sp], #4
 800169e:	bf00      	nop

080016a0 <unwind_UCB_from_context>:
 80016a0:	e7f0      	b.n	8001684 <_Unwind_GetGR.constprop.0>
 80016a2:	bf00      	nop

080016a4 <__gnu_unwind_execute>:
 80016a4:	e92d 43f0 	stmdb	sp!, {r4, r5, r6, r7, r8, r9, lr}
 80016a8:	f04f 0800 	mov.w	r8, #0
 80016ac:	4605      	mov	r5, r0
 80016ae:	460e      	mov	r6, r1
 80016b0:	b085      	sub	sp, #20
 80016b2:	4630      	mov	r0, r6
 80016b4:	f7ff ffca 	bl	800164c <next_unwind_byte>
 80016b8:	28b0      	cmp	r0, #176	; 0xb0
 80016ba:	4604      	mov	r4, r0
 80016bc:	f000 80ba 	beq.w	8001834 <__gnu_unwind_execute+0x190>
 80016c0:	0607      	lsls	r7, r0, #24
 80016c2:	d520      	bpl.n	8001706 <__gnu_unwind_execute+0x62>
 80016c4:	f000 03f0 	and.w	r3, r0, #240	; 0xf0
 80016c8:	2b80      	cmp	r3, #128	; 0x80
 80016ca:	d04d      	beq.n	8001768 <__gnu_unwind_execute+0xc4>
 80016cc:	2b90      	cmp	r3, #144	; 0x90
 80016ce:	d036      	beq.n	800173e <__gnu_unwind_execute+0x9a>
 80016d0:	2ba0      	cmp	r3, #160	; 0xa0
 80016d2:	d060      	beq.n	8001796 <__gnu_unwind_execute+0xf2>
 80016d4:	2bb0      	cmp	r3, #176	; 0xb0
 80016d6:	d073      	beq.n	80017c0 <__gnu_unwind_execute+0x11c>
 80016d8:	2bc0      	cmp	r3, #192	; 0xc0
 80016da:	f000 808a 	beq.w	80017f2 <__gnu_unwind_execute+0x14e>
 80016de:	f000 03f8 	and.w	r3, r0, #248	; 0xf8
 80016e2:	2bd0      	cmp	r3, #208	; 0xd0
 80016e4:	d10b      	bne.n	80016fe <__gnu_unwind_execute+0x5a>
 80016e6:	f000 0207 	and.w	r2, r0, #7
 80016ea:	3201      	adds	r2, #1
 80016ec:	2305      	movs	r3, #5
 80016ee:	2101      	movs	r1, #1
 80016f0:	4628      	mov	r0, r5
 80016f2:	f442 2200 	orr.w	r2, r2, #524288	; 0x80000
 80016f6:	f7ff fd99 	bl	800122c <_Unwind_VRS_Pop>
 80016fa:	2800      	cmp	r0, #0
 80016fc:	d0d9      	beq.n	80016b2 <__gnu_unwind_execute+0xe>
 80016fe:	2009      	movs	r0, #9
 8001700:	b005      	add	sp, #20
 8001702:	e8bd 83f0 	ldmia.w	sp!, {r4, r5, r6, r7, r8, r9, pc}
 8001706:	0083      	lsls	r3, r0, #2
 8001708:	b2db      	uxtb	r3, r3
 800170a:	1d1f      	adds	r7, r3, #4
 800170c:	2300      	movs	r3, #0
 800170e:	f10d 090c 	add.w	r9, sp, #12
 8001712:	4619      	mov	r1, r3
 8001714:	220d      	movs	r2, #13
 8001716:	4628      	mov	r0, r5
 8001718:	f8cd 9000 	str.w	r9, [sp]
 800171c:	f7ff fba2 	bl	8000e64 <_Unwind_VRS_Get>
 8001720:	9b03      	ldr	r3, [sp, #12]
 8001722:	0660      	lsls	r0, r4, #25
 8001724:	bf4c      	ite	mi
 8001726:	1bdf      	submi	r7, r3, r7
 8001728:	18ff      	addpl	r7, r7, r3
 800172a:	2300      	movs	r3, #0
 800172c:	220d      	movs	r2, #13
 800172e:	4628      	mov	r0, r5
 8001730:	4619      	mov	r1, r3
 8001732:	f8cd 9000 	str.w	r9, [sp]
 8001736:	9703      	str	r7, [sp, #12]
 8001738:	f7ff fbba 	bl	8000eb0 <_Unwind_VRS_Set>
 800173c:	e7b9      	b.n	80016b2 <__gnu_unwind_execute+0xe>
 800173e:	f000 030d 	and.w	r3, r0, #13
 8001742:	2b0d      	cmp	r3, #13
 8001744:	d0db      	beq.n	80016fe <__gnu_unwind_execute+0x5a>
 8001746:	2300      	movs	r3, #0
 8001748:	af03      	add	r7, sp, #12
 800174a:	4619      	mov	r1, r3
 800174c:	f000 020f 	and.w	r2, r0, #15
 8001750:	9700      	str	r7, [sp, #0]
 8001752:	4628      	mov	r0, r5
 8001754:	f7ff fb86 	bl	8000e64 <_Unwind_VRS_Get>
 8001758:	2300      	movs	r3, #0
 800175a:	220d      	movs	r2, #13
 800175c:	4628      	mov	r0, r5
 800175e:	4619      	mov	r1, r3
 8001760:	9700      	str	r7, [sp, #0]
 8001762:	f7ff fba5 	bl	8000eb0 <_Unwind_VRS_Set>
 8001766:	e7a4      	b.n	80016b2 <__gnu_unwind_execute+0xe>
 8001768:	4630      	mov	r0, r6
 800176a:	f7ff ff6f 	bl	800164c <next_unwind_byte>
 800176e:	0224      	lsls	r4, r4, #8
 8001770:	4320      	orrs	r0, r4
 8001772:	f5b0 4f00 	cmp.w	r0, #32768	; 0x8000
 8001776:	d0c2      	beq.n	80016fe <__gnu_unwind_execute+0x5a>
 8001778:	2300      	movs	r3, #0
 800177a:	0104      	lsls	r4, r0, #4
 800177c:	4619      	mov	r1, r3
 800177e:	4628      	mov	r0, r5
 8001780:	b2a2      	uxth	r2, r4
 8001782:	f7ff fd53 	bl	800122c <_Unwind_VRS_Pop>
 8001786:	2800      	cmp	r0, #0
 8001788:	d1b9      	bne.n	80016fe <__gnu_unwind_execute+0x5a>
 800178a:	f414 4f00 	tst.w	r4, #32768	; 0x8000
 800178e:	bf18      	it	ne
 8001790:	f04f 0801 	movne.w	r8, #1
 8001794:	e78d      	b.n	80016b2 <__gnu_unwind_execute+0xe>
 8001796:	43c3      	mvns	r3, r0
 8001798:	f44f 627f 	mov.w	r2, #4080	; 0xff0
 800179c:	f003 0307 	and.w	r3, r3, #7
 80017a0:	411a      	asrs	r2, r3
 80017a2:	2300      	movs	r3, #0
 80017a4:	0701      	lsls	r1, r0, #28
 80017a6:	f402 627f 	and.w	r2, r2, #4080	; 0xff0
 80017aa:	bf48      	it	mi
 80017ac:	f442 4280 	orrmi.w	r2, r2, #16384	; 0x4000
 80017b0:	4628      	mov	r0, r5
 80017b2:	4619      	mov	r1, r3
 80017b4:	f7ff fd3a 	bl	800122c <_Unwind_VRS_Pop>
 80017b8:	2800      	cmp	r0, #0
 80017ba:	f43f af7a 	beq.w	80016b2 <__gnu_unwind_execute+0xe>
 80017be:	e79e      	b.n	80016fe <__gnu_unwind_execute+0x5a>
 80017c0:	28b1      	cmp	r0, #177	; 0xb1
 80017c2:	d03c      	beq.n	800183e <__gnu_unwind_execute+0x19a>
 80017c4:	28b2      	cmp	r0, #178	; 0xb2
 80017c6:	f000 80b0 	beq.w	800192a <__gnu_unwind_execute+0x286>
 80017ca:	28b3      	cmp	r0, #179	; 0xb3
 80017cc:	d04a      	beq.n	8001864 <__gnu_unwind_execute+0x1c0>
 80017ce:	f000 03fc 	and.w	r3, r0, #252	; 0xfc
 80017d2:	2bb4      	cmp	r3, #180	; 0xb4
 80017d4:	d093      	beq.n	80016fe <__gnu_unwind_execute+0x5a>
 80017d6:	2301      	movs	r3, #1
 80017d8:	f000 0207 	and.w	r2, r0, #7
 80017dc:	441a      	add	r2, r3
 80017de:	4628      	mov	r0, r5
 80017e0:	4619      	mov	r1, r3
 80017e2:	f442 2200 	orr.w	r2, r2, #524288	; 0x80000
 80017e6:	f7ff fd21 	bl	800122c <_Unwind_VRS_Pop>
 80017ea:	2800      	cmp	r0, #0
 80017ec:	f43f af61 	beq.w	80016b2 <__gnu_unwind_execute+0xe>
 80017f0:	e785      	b.n	80016fe <__gnu_unwind_execute+0x5a>
 80017f2:	28c6      	cmp	r0, #198	; 0xc6
 80017f4:	d04f      	beq.n	8001896 <__gnu_unwind_execute+0x1f2>
 80017f6:	28c7      	cmp	r0, #199	; 0xc7
 80017f8:	d061      	beq.n	80018be <__gnu_unwind_execute+0x21a>
 80017fa:	f000 03f8 	and.w	r3, r0, #248	; 0xf8
 80017fe:	2bc0      	cmp	r3, #192	; 0xc0
 8001800:	d070      	beq.n	80018e4 <__gnu_unwind_execute+0x240>
 8001802:	28c8      	cmp	r0, #200	; 0xc8
 8001804:	d07c      	beq.n	8001900 <__gnu_unwind_execute+0x25c>
 8001806:	28c9      	cmp	r0, #201	; 0xc9
 8001808:	f47f af79 	bne.w	80016fe <__gnu_unwind_execute+0x5a>
 800180c:	4630      	mov	r0, r6
 800180e:	f7ff ff1d 	bl	800164c <next_unwind_byte>
 8001812:	2305      	movs	r3, #5
 8001814:	4602      	mov	r2, r0
 8001816:	2101      	movs	r1, #1
 8001818:	4628      	mov	r0, r5
 800181a:	0314      	lsls	r4, r2, #12
 800181c:	f002 020f 	and.w	r2, r2, #15
 8001820:	f404 2470 	and.w	r4, r4, #983040	; 0xf0000
 8001824:	440a      	add	r2, r1
 8001826:	4322      	orrs	r2, r4
 8001828:	f7ff fd00 	bl	800122c <_Unwind_VRS_Pop>
 800182c:	2800      	cmp	r0, #0
 800182e:	f43f af40 	beq.w	80016b2 <__gnu_unwind_execute+0xe>
 8001832:	e764      	b.n	80016fe <__gnu_unwind_execute+0x5a>
 8001834:	f1b8 0f00 	cmp.w	r8, #0
 8001838:	d01c      	beq.n	8001874 <__gnu_unwind_execute+0x1d0>
 800183a:	2000      	movs	r0, #0
 800183c:	e760      	b.n	8001700 <__gnu_unwind_execute+0x5c>
 800183e:	4630      	mov	r0, r6
 8001840:	f7ff ff04 	bl	800164c <next_unwind_byte>
 8001844:	4602      	mov	r2, r0
 8001846:	2800      	cmp	r0, #0
 8001848:	f43f af59 	beq.w	80016fe <__gnu_unwind_execute+0x5a>
 800184c:	f010 03f0 	ands.w	r3, r0, #240	; 0xf0
 8001850:	f47f af55 	bne.w	80016fe <__gnu_unwind_execute+0x5a>
 8001854:	4619      	mov	r1, r3
 8001856:	4628      	mov	r0, r5
 8001858:	f7ff fce8 	bl	800122c <_Unwind_VRS_Pop>
 800185c:	2800      	cmp	r0, #0
 800185e:	f43f af28 	beq.w	80016b2 <__gnu_unwind_execute+0xe>
 8001862:	e74c      	b.n	80016fe <__gnu_unwind_execute+0x5a>
 8001864:	4630      	mov	r0, r6
 8001866:	f7ff fef1 	bl	800164c <next_unwind_byte>
 800186a:	2301      	movs	r3, #1
 800186c:	4602      	mov	r2, r0
 800186e:	4619      	mov	r1, r3
 8001870:	4628      	mov	r0, r5
 8001872:	e7d2      	b.n	800181a <__gnu_unwind_execute+0x176>
 8001874:	ac03      	add	r4, sp, #12
 8001876:	4643      	mov	r3, r8
 8001878:	220e      	movs	r2, #14
 800187a:	4641      	mov	r1, r8
 800187c:	4628      	mov	r0, r5
 800187e:	9400      	str	r4, [sp, #0]
 8001880:	f7ff faf0 	bl	8000e64 <_Unwind_VRS_Get>
 8001884:	4643      	mov	r3, r8
 8001886:	220f      	movs	r2, #15
 8001888:	4628      	mov	r0, r5
 800188a:	4641      	mov	r1, r8
 800188c:	9400      	str	r4, [sp, #0]
 800188e:	f7ff fb0f 	bl	8000eb0 <_Unwind_VRS_Set>
 8001892:	4640      	mov	r0, r8
 8001894:	e734      	b.n	8001700 <__gnu_unwind_execute+0x5c>
 8001896:	4630      	mov	r0, r6
 8001898:	f7ff fed8 	bl	800164c <next_unwind_byte>
 800189c:	4602      	mov	r2, r0
 800189e:	2303      	movs	r3, #3
 80018a0:	0314      	lsls	r4, r2, #12
 80018a2:	f002 020f 	and.w	r2, r2, #15
 80018a6:	f404 2470 	and.w	r4, r4, #983040	; 0xf0000
 80018aa:	3201      	adds	r2, #1
 80018ac:	4628      	mov	r0, r5
 80018ae:	4619      	mov	r1, r3
 80018b0:	4322      	orrs	r2, r4
 80018b2:	f7ff fcbb 	bl	800122c <_Unwind_VRS_Pop>
 80018b6:	2800      	cmp	r0, #0
 80018b8:	f43f aefb 	beq.w	80016b2 <__gnu_unwind_execute+0xe>
 80018bc:	e71f      	b.n	80016fe <__gnu_unwind_execute+0x5a>
 80018be:	4630      	mov	r0, r6
 80018c0:	f7ff fec4 	bl	800164c <next_unwind_byte>
 80018c4:	4602      	mov	r2, r0
 80018c6:	2800      	cmp	r0, #0
 80018c8:	f43f af19 	beq.w	80016fe <__gnu_unwind_execute+0x5a>
 80018cc:	f010 03f0 	ands.w	r3, r0, #240	; 0xf0
 80018d0:	f47f af15 	bne.w	80016fe <__gnu_unwind_execute+0x5a>
 80018d4:	2104      	movs	r1, #4
 80018d6:	4628      	mov	r0, r5
 80018d8:	f7ff fca8 	bl	800122c <_Unwind_VRS_Pop>
 80018dc:	2800      	cmp	r0, #0
 80018de:	f43f aee8 	beq.w	80016b2 <__gnu_unwind_execute+0xe>
 80018e2:	e70c      	b.n	80016fe <__gnu_unwind_execute+0x5a>
 80018e4:	2303      	movs	r3, #3
 80018e6:	f000 020f 	and.w	r2, r0, #15
 80018ea:	3201      	adds	r2, #1
 80018ec:	4628      	mov	r0, r5
 80018ee:	4619      	mov	r1, r3
 80018f0:	f442 2220 	orr.w	r2, r2, #655360	; 0xa0000
 80018f4:	f7ff fc9a 	bl	800122c <_Unwind_VRS_Pop>
 80018f8:	2800      	cmp	r0, #0
 80018fa:	f43f aeda 	beq.w	80016b2 <__gnu_unwind_execute+0xe>
 80018fe:	e6fe      	b.n	80016fe <__gnu_unwind_execute+0x5a>
 8001900:	4630      	mov	r0, r6
 8001902:	f7ff fea3 	bl	800164c <next_unwind_byte>
 8001906:	4602      	mov	r2, r0
 8001908:	2101      	movs	r1, #1
 800190a:	f002 04f0 	and.w	r4, r2, #240	; 0xf0
 800190e:	f002 020f 	and.w	r2, r2, #15
 8001912:	3410      	adds	r4, #16
 8001914:	440a      	add	r2, r1
 8001916:	2305      	movs	r3, #5
 8001918:	4628      	mov	r0, r5
 800191a:	ea42 3204 	orr.w	r2, r2, r4, lsl #12
 800191e:	f7ff fc85 	bl	800122c <_Unwind_VRS_Pop>
 8001922:	2800      	cmp	r0, #0
 8001924:	f43f aec5 	beq.w	80016b2 <__gnu_unwind_execute+0xe>
 8001928:	e6e9      	b.n	80016fe <__gnu_unwind_execute+0x5a>
 800192a:	2300      	movs	r3, #0
 800192c:	f10d 090c 	add.w	r9, sp, #12
 8001930:	220d      	movs	r2, #13
 8001932:	4619      	mov	r1, r3
 8001934:	4628      	mov	r0, r5
 8001936:	f8cd 9000 	str.w	r9, [sp]
 800193a:	f7ff fa93 	bl	8000e64 <_Unwind_VRS_Get>
 800193e:	4630      	mov	r0, r6
 8001940:	f7ff fe84 	bl	800164c <next_unwind_byte>
 8001944:	0602      	lsls	r2, r0, #24
 8001946:	f04f 0402 	mov.w	r4, #2
 800194a:	d50c      	bpl.n	8001966 <__gnu_unwind_execute+0x2c2>
 800194c:	9b03      	ldr	r3, [sp, #12]
 800194e:	f000 007f 	and.w	r0, r0, #127	; 0x7f
 8001952:	40a0      	lsls	r0, r4
 8001954:	4418      	add	r0, r3
 8001956:	9003      	str	r0, [sp, #12]
 8001958:	4630      	mov	r0, r6
 800195a:	f7ff fe77 	bl	800164c <next_unwind_byte>
 800195e:	0603      	lsls	r3, r0, #24
 8001960:	f104 0407 	add.w	r4, r4, #7
 8001964:	d4f2      	bmi.n	800194c <__gnu_unwind_execute+0x2a8>
 8001966:	9b03      	ldr	r3, [sp, #12]
 8001968:	f000 027f 	and.w	r2, r0, #127	; 0x7f
 800196c:	40a2      	lsls	r2, r4
 800196e:	f503 7301 	add.w	r3, r3, #516	; 0x204
 8001972:	441a      	add	r2, r3
 8001974:	2300      	movs	r3, #0
 8001976:	9203      	str	r2, [sp, #12]
 8001978:	4628      	mov	r0, r5
 800197a:	220d      	movs	r2, #13
 800197c:	4619      	mov	r1, r3
 800197e:	f8cd 9000 	str.w	r9, [sp]
 8001982:	f7ff fa95 	bl	8000eb0 <_Unwind_VRS_Set>
 8001986:	e694      	b.n	80016b2 <__gnu_unwind_execute+0xe>

08001988 <__gnu_unwind_frame>:
 8001988:	460b      	mov	r3, r1
 800198a:	f04f 0c03 	mov.w	ip, #3
 800198e:	b500      	push	{lr}
 8001990:	6cc2      	ldr	r2, [r0, #76]	; 0x4c
 8001992:	4618      	mov	r0, r3
 8001994:	6853      	ldr	r3, [r2, #4]
 8001996:	b085      	sub	sp, #20
 8001998:	3208      	adds	r2, #8
 800199a:	9202      	str	r2, [sp, #8]
 800199c:	a901      	add	r1, sp, #4
 800199e:	0e1a      	lsrs	r2, r3, #24
 80019a0:	021b      	lsls	r3, r3, #8
 80019a2:	f88d c00c 	strb.w	ip, [sp, #12]
 80019a6:	9301      	str	r3, [sp, #4]
 80019a8:	f88d 200d 	strb.w	r2, [sp, #13]
 80019ac:	f7ff fe7a 	bl	80016a4 <__gnu_unwind_execute>
 80019b0:	b005      	add	sp, #20
 80019b2:	f85d fb04 	ldr.w	pc, [sp], #4
 80019b6:	bf00      	nop

080019b8 <_Unwind_GetRegionStart>:
 80019b8:	b508      	push	{r3, lr}
 80019ba:	f7ff fe71 	bl	80016a0 <unwind_UCB_from_context>
 80019be:	6c80      	ldr	r0, [r0, #72]	; 0x48
 80019c0:	bd08      	pop	{r3, pc}
 80019c2:	bf00      	nop

080019c4 <_Unwind_GetLanguageSpecificData>:
 80019c4:	b508      	push	{r3, lr}
 80019c6:	f7ff fe6b 	bl	80016a0 <unwind_UCB_from_context>
 80019ca:	6cc0      	ldr	r0, [r0, #76]	; 0x4c
 80019cc:	79c3      	ldrb	r3, [r0, #7]
 80019ce:	3302      	adds	r3, #2
 80019d0:	eb00 0083 	add.w	r0, r0, r3, lsl #2
 80019d4:	bd08      	pop	{r3, pc}
 80019d6:	bf00      	nop

080019d8 <_ZnwjPv>:
#endif // __cpp_sized_deallocation
#endif // __cpp_aligned_new

// Default placement versions of operator new.
_GLIBCXX_NODISCARD inline void* operator new(std::size_t, void* __p) _GLIBCXX_USE_NOEXCEPT
{ return __p; }
 80019d8:	b480      	push	{r7}
 80019da:	b083      	sub	sp, #12
 80019dc:	af00      	add	r7, sp, #0
 80019de:	6078      	str	r0, [r7, #4]
 80019e0:	6039      	str	r1, [r7, #0]
 80019e2:	683b      	ldr	r3, [r7, #0]
 80019e4:	4618      	mov	r0, r3
 80019e6:	370c      	adds	r7, #12
 80019e8:	46bd      	mov	sp, r7
 80019ea:	bc80      	pop	{r7}
 80019ec:	4770      	bx	lr

080019ee <_ZSt16__deque_buf_sizej>:
#define _GLIBCXX_DEQUE_BUF_SIZE 512
#endif

  _GLIBCXX_CONSTEXPR inline size_t
  __deque_buf_size(size_t __size)
  { return (__size < _GLIBCXX_DEQUE_BUF_SIZE
 80019ee:	b480      	push	{r7}
 80019f0:	b083      	sub	sp, #12
 80019f2:	af00      	add	r7, sp, #0
 80019f4:	6078      	str	r0, [r7, #4]
	    ? size_t(_GLIBCXX_DEQUE_BUF_SIZE / __size) : size_t(1)); }
 80019f6:	687b      	ldr	r3, [r7, #4]
 80019f8:	f5b3 7f00 	cmp.w	r3, #512	; 0x200
 80019fc:	d205      	bcs.n	8001a0a <_ZSt16__deque_buf_sizej+0x1c>
 80019fe:	f44f 7200 	mov.w	r2, #512	; 0x200
 8001a02:	687b      	ldr	r3, [r7, #4]
 8001a04:	fbb2 f3f3 	udiv	r3, r2, r3
 8001a08:	e000      	b.n	8001a0c <_ZSt16__deque_buf_sizej+0x1e>
 8001a0a:	2301      	movs	r3, #1
 8001a0c:	4618      	mov	r0, r3
 8001a0e:	370c      	adds	r7, #12
 8001a10:	46bd      	mov	sp, r7
 8001a12:	bc80      	pop	{r7}
 8001a14:	4770      	bx	lr
	...

08001a18 <_ZNSt7__cxx114stodERKNS_12basic_stringIcSt11char_traitsIcESaIcEEEPj>:
  stof(const string& __str, size_t* __idx = 0)
  { return __gnu_cxx::__stoa(&std::strtof, "stof", __str.c_str(), __idx); }

  inline double
  stod(const string& __str, size_t* __idx = 0)
  { return __gnu_cxx::__stoa(&std::strtod, "stod", __str.c_str(), __idx); }
 8001a18:	b580      	push	{r7, lr}
 8001a1a:	b082      	sub	sp, #8
 8001a1c:	af00      	add	r7, sp, #0
 8001a1e:	6078      	str	r0, [r7, #4]
 8001a20:	6039      	str	r1, [r7, #0]
 8001a22:	6878      	ldr	r0, [r7, #4]
 8001a24:	f006 f973 	bl	8007d0e <_ZNKSt7__cxx1112basic_stringIcSt11char_traitsIcESaIcEE5c_strEv>
 8001a28:	4602      	mov	r2, r0
 8001a2a:	683b      	ldr	r3, [r7, #0]
 8001a2c:	4905      	ldr	r1, [pc, #20]	; (8001a44 <_ZNSt7__cxx114stodERKNS_12basic_stringIcSt11char_traitsIcESaIcEEEPj+0x2c>)
 8001a2e:	4806      	ldr	r0, [pc, #24]	; (8001a48 <_ZNSt7__cxx114stodERKNS_12basic_stringIcSt11char_traitsIcESaIcEEEPj+0x30>)
 8001a30:	f000 fb2a 	bl	8002088 <_ZN9__gnu_cxx6__stoaIddcJEEET0_PFT_PKT1_PPS3_DpT2_EPKcS5_PjS9_>
 8001a34:	4602      	mov	r2, r0
 8001a36:	460b      	mov	r3, r1
 8001a38:	4610      	mov	r0, r2
 8001a3a:	4619      	mov	r1, r3
 8001a3c:	3708      	adds	r7, #8
 8001a3e:	46bd      	mov	sp, r7
 8001a40:	bd80      	pop	{r7, pc}
 8001a42:	bf00      	nop
 8001a44:	0800afa0 	.word	0x0800afa0
 8001a48:	08008d99 	.word	0x08008d99

08001a4c <_ZNSt7__cxx119to_stringEd>:
					   "%f", __val);
  }

  inline string
  to_string(double __val)
  {
 8001a4c:	b580      	push	{r7, lr}
 8001a4e:	b088      	sub	sp, #32
 8001a50:	af02      	add	r7, sp, #8
 8001a52:	60f8      	str	r0, [r7, #12]
 8001a54:	e9c7 2300 	strd	r2, r3, [r7]
    const int __n = 
 8001a58:	f44f 73a4 	mov.w	r3, #328	; 0x148
 8001a5c:	617b      	str	r3, [r7, #20]
      __gnu_cxx::__numeric_traits<double>::__max_exponent10 + 20;
    return __gnu_cxx::__to_xstring<string>(&std::vsnprintf, __n,
					   "%f", __val);
 8001a5e:	68f8      	ldr	r0, [r7, #12]
 8001a60:	e9d7 2300 	ldrd	r2, r3, [r7]
 8001a64:	e9cd 2300 	strd	r2, r3, [sp]
 8001a68:	4b04      	ldr	r3, [pc, #16]	; (8001a7c <_ZNSt7__cxx119to_stringEd+0x30>)
 8001a6a:	f44f 72a4 	mov.w	r2, #328	; 0x148
 8001a6e:	4904      	ldr	r1, [pc, #16]	; (8001a80 <_ZNSt7__cxx119to_stringEd+0x34>)
 8001a70:	f000 fb56 	bl	8002120 <_ZN9__gnu_cxx12__to_xstringINSt7__cxx1112basic_stringIcSt11char_traitsIcESaIcEEEcEET_PFiPT0_jPKS8_St9__va_listEjSB_z>
  }
 8001a74:	68f8      	ldr	r0, [r7, #12]
 8001a76:	3718      	adds	r7, #24
 8001a78:	46bd      	mov	sp, r7
 8001a7a:	bd80      	pop	{r7, pc}
 8001a7c:	0800afa8 	.word	0x0800afa8
 8001a80:	08008e09 	.word	0x08008e09

08001a84 <_ZN9CALCULATE9Calculate11addToSuffixERc>:

#include <calculate.hpp>

namespace CALCULATE{

void Calculate::addToSuffix(char& c) {
 8001a84:	b580      	push	{r7, lr}
 8001a86:	b082      	sub	sp, #8
 8001a88:	af00      	add	r7, sp, #0
 8001a8a:	6078      	str	r0, [r7, #4]
 8001a8c:	6039      	str	r1, [r7, #0]
    suffix += c;
 8001a8e:	687b      	ldr	r3, [r7, #4]
 8001a90:	f103 0250 	add.w	r2, r3, #80	; 0x50
 8001a94:	683b      	ldr	r3, [r7, #0]
 8001a96:	781b      	ldrb	r3, [r3, #0]
 8001a98:	4619      	mov	r1, r3
 8001a9a:	4610      	mov	r0, r2
 8001a9c:	f006 f878 	bl	8007b90 <_ZNSt7__cxx1112basic_stringIcSt11char_traitsIcESaIcEEpLEc>
    suffix += ' ';
 8001aa0:	687b      	ldr	r3, [r7, #4]
 8001aa2:	3350      	adds	r3, #80	; 0x50
 8001aa4:	2120      	movs	r1, #32
 8001aa6:	4618      	mov	r0, r3
 8001aa8:	f006 f872 	bl	8007b90 <_ZNSt7__cxx1112basic_stringIcSt11char_traitsIcESaIcEEpLEc>
}
 8001aac:	bf00      	nop
 8001aae:	3708      	adds	r7, #8
 8001ab0:	46bd      	mov	sp, r7
 8001ab2:	bd80      	pop	{r7, pc}

08001ab4 <_ZN9CALCULATE9Calculate11addToSuffixERNSt7__cxx1112basic_stringIcSt11char_traitsIcESaIcEEE>:

void Calculate::addToSuffix(std::string& str) {
 8001ab4:	b580      	push	{r7, lr}
 8001ab6:	b082      	sub	sp, #8
 8001ab8:	af00      	add	r7, sp, #0
 8001aba:	6078      	str	r0, [r7, #4]
 8001abc:	6039      	str	r1, [r7, #0]
    suffix += str;
 8001abe:	687b      	ldr	r3, [r7, #4]
 8001ac0:	3350      	adds	r3, #80	; 0x50
 8001ac2:	6839      	ldr	r1, [r7, #0]
 8001ac4:	4618      	mov	r0, r3
 8001ac6:	f006 f91e 	bl	8007d06 <_ZNSt7__cxx1112basic_stringIcSt11char_traitsIcESaIcEEpLERKS4_>
    suffix += ' ';
 8001aca:	687b      	ldr	r3, [r7, #4]
 8001acc:	3350      	adds	r3, #80	; 0x50
 8001ace:	2120      	movs	r1, #32
 8001ad0:	4618      	mov	r0, r3
 8001ad2:	f006 f85d 	bl	8007b90 <_ZNSt7__cxx1112basic_stringIcSt11char_traitsIcESaIcEEpLEc>
}
 8001ad6:	bf00      	nop
 8001ad8:	3708      	adds	r7, #8
 8001ada:	46bd      	mov	sp, r7
 8001adc:	bd80      	pop	{r7, pc}

08001ade <_ZN9CALCULATE9Calculate16getNumStackValueEv>:

double Calculate::getNumStackValue(){
 8001ade:	b580      	push	{r7, lr}
 8001ae0:	b084      	sub	sp, #16
 8001ae2:	af00      	add	r7, sp, #0
 8001ae4:	6078      	str	r0, [r7, #4]
	double n = numStack.top();
 8001ae6:	687b      	ldr	r3, [r7, #4]
 8001ae8:	3328      	adds	r3, #40	; 0x28
 8001aea:	4618      	mov	r0, r3
 8001aec:	f000 fb4f 	bl	800218e <_ZNSt5stackIdSt5dequeIdSaIdEEE3topEv>
 8001af0:	4603      	mov	r3, r0
 8001af2:	e9d3 2300 	ldrd	r2, r3, [r3]
 8001af6:	e9c7 2302 	strd	r2, r3, [r7, #8]
	numStack.pop();
 8001afa:	687b      	ldr	r3, [r7, #4]
 8001afc:	3328      	adds	r3, #40	; 0x28
 8001afe:	4618      	mov	r0, r3
 8001b00:	f000 fb52 	bl	80021a8 <_ZNSt5stackIdSt5dequeIdSaIdEEE3popEv>
	return n;
 8001b04:	e9d7 2302 	ldrd	r2, r3, [r7, #8]
}
 8001b08:	4610      	mov	r0, r2
 8001b0a:	4619      	mov	r1, r3
 8001b0c:	3710      	adds	r7, #16
 8001b0e:	46bd      	mov	sp, r7
 8001b10:	bd80      	pop	{r7, pc}

08001b12 <_ZN9CALCULATE9Calculate8clrStackEv>:

void Calculate::clrStack(){
 8001b12:	b580      	push	{r7, lr}
 8001b14:	b082      	sub	sp, #8
 8001b16:	af00      	add	r7, sp, #0
 8001b18:	6078      	str	r0, [r7, #4]
	while (!optStack.empty())
 8001b1a:	687b      	ldr	r3, [r7, #4]
 8001b1c:	4618      	mov	r0, r3
 8001b1e:	f000 fb4f 	bl	80021c0 <_ZNKSt5stackIcSt5dequeIcSaIcEEE5emptyEv>
 8001b22:	4603      	mov	r3, r0
 8001b24:	f083 0301 	eor.w	r3, r3, #1
 8001b28:	b2db      	uxtb	r3, r3
 8001b2a:	2b00      	cmp	r3, #0
 8001b2c:	d004      	beq.n	8001b38 <_ZN9CALCULATE9Calculate8clrStackEv+0x26>
		optStack.pop();
 8001b2e:	687b      	ldr	r3, [r7, #4]
 8001b30:	4618      	mov	r0, r3
 8001b32:	f000 fb52 	bl	80021da <_ZNSt5stackIcSt5dequeIcSaIcEEE3popEv>
	while (!optStack.empty())
 8001b36:	e7f0      	b.n	8001b1a <_ZN9CALCULATE9Calculate8clrStackEv+0x8>
	while (!numStack.empty())
 8001b38:	687b      	ldr	r3, [r7, #4]
 8001b3a:	3328      	adds	r3, #40	; 0x28
 8001b3c:	4618      	mov	r0, r3
 8001b3e:	f000 fb58 	bl	80021f2 <_ZNKSt5stackIdSt5dequeIdSaIdEEE5emptyEv>
 8001b42:	4603      	mov	r3, r0
 8001b44:	f083 0301 	eor.w	r3, r3, #1
 8001b48:	b2db      	uxtb	r3, r3
 8001b4a:	2b00      	cmp	r3, #0
 8001b4c:	d005      	beq.n	8001b5a <_ZN9CALCULATE9Calculate8clrStackEv+0x48>
		numStack.pop();
 8001b4e:	687b      	ldr	r3, [r7, #4]
 8001b50:	3328      	adds	r3, #40	; 0x28
 8001b52:	4618      	mov	r0, r3
 8001b54:	f000 fb28 	bl	80021a8 <_ZNSt5stackIdSt5dequeIdSaIdEEE3popEv>
	while (!numStack.empty())
 8001b58:	e7ee      	b.n	8001b38 <_ZN9CALCULATE9Calculate8clrStackEv+0x26>
}
 8001b5a:	bf00      	nop
 8001b5c:	3708      	adds	r7, #8
 8001b5e:	46bd      	mov	sp, r7
 8001b60:	bd80      	pop	{r7, pc}

08001b62 <_ZN9CALCULATE9Calculate8isNumberERNSt7__cxx1112basic_stringIcSt11char_traitsIcESaIcEEE>:

bool Calculate::isNumber(std::string& str){
 8001b62:	b580      	push	{r7, lr}
 8001b64:	b086      	sub	sp, #24
 8001b66:	af00      	add	r7, sp, #0
 8001b68:	6078      	str	r0, [r7, #4]
 8001b6a:	6039      	str	r1, [r7, #0]
	for (char c : str) {
 8001b6c:	683b      	ldr	r3, [r7, #0]
 8001b6e:	617b      	str	r3, [r7, #20]
 8001b70:	6978      	ldr	r0, [r7, #20]
 8001b72:	f005 ffdf 	bl	8007b34 <_ZNSt7__cxx1112basic_stringIcSt11char_traitsIcESaIcEE5beginEv>
 8001b76:	4603      	mov	r3, r0
 8001b78:	60fb      	str	r3, [r7, #12]
 8001b7a:	6978      	ldr	r0, [r7, #20]
 8001b7c:	f005 ffdc 	bl	8007b38 <_ZNSt7__cxx1112basic_stringIcSt11char_traitsIcESaIcEE3endEv>
 8001b80:	4603      	mov	r3, r0
 8001b82:	60bb      	str	r3, [r7, #8]
 8001b84:	f107 0208 	add.w	r2, r7, #8
 8001b88:	f107 030c 	add.w	r3, r7, #12
 8001b8c:	4611      	mov	r1, r2
 8001b8e:	4618      	mov	r0, r3
 8001b90:	f000 fb3c 	bl	800220c <_ZN9__gnu_cxxneIPcNSt7__cxx1112basic_stringIcSt11char_traitsIcESaIcEEEEEbRKNS_17__normal_iteratorIT_T0_EESD_>
 8001b94:	4603      	mov	r3, r0
 8001b96:	2b00      	cmp	r3, #0
 8001b98:	d013      	beq.n	8001bc2 <_ZN9CALCULATE9Calculate8isNumberERNSt7__cxx1112basic_stringIcSt11char_traitsIcESaIcEEE+0x60>
 8001b9a:	f107 030c 	add.w	r3, r7, #12
 8001b9e:	4618      	mov	r0, r3
 8001ba0:	f000 fb5b 	bl	800225a <_ZNK9__gnu_cxx17__normal_iteratorIPcNSt7__cxx1112basic_stringIcSt11char_traitsIcESaIcEEEEdeEv>
 8001ba4:	4603      	mov	r3, r0
 8001ba6:	781b      	ldrb	r3, [r3, #0]
 8001ba8:	74fb      	strb	r3, [r7, #19]
	    if (!std::isdigit(c)){
 8001baa:	7cfb      	ldrb	r3, [r7, #19]
 8001bac:	3b30      	subs	r3, #48	; 0x30
 8001bae:	2b09      	cmp	r3, #9
 8001bb0:	d901      	bls.n	8001bb6 <_ZN9CALCULATE9Calculate8isNumberERNSt7__cxx1112basic_stringIcSt11char_traitsIcESaIcEEE+0x54>
	    	return false;
 8001bb2:	2300      	movs	r3, #0
 8001bb4:	e006      	b.n	8001bc4 <_ZN9CALCULATE9Calculate8isNumberERNSt7__cxx1112basic_stringIcSt11char_traitsIcESaIcEEE+0x62>
	for (char c : str) {
 8001bb6:	f107 030c 	add.w	r3, r7, #12
 8001bba:	4618      	mov	r0, r3
 8001bbc:	f000 fb3e 	bl	800223c <_ZN9__gnu_cxx17__normal_iteratorIPcNSt7__cxx1112basic_stringIcSt11char_traitsIcESaIcEEEEppEv>
 8001bc0:	e7e0      	b.n	8001b84 <_ZN9CALCULATE9Calculate8isNumberERNSt7__cxx1112basic_stringIcSt11char_traitsIcESaIcEEE+0x22>
	    }
	}
	return true;
 8001bc2:	2301      	movs	r3, #1
}
 8001bc4:	4618      	mov	r0, r3
 8001bc6:	3718      	adds	r7, #24
 8001bc8:	46bd      	mov	sp, r7
 8001bca:	bd80      	pop	{r7, pc}

08001bcc <_ZNK9CALCULATE9Calculate8getLevelERc>:

int Calculate::getLevel(char& opt) const{
 8001bcc:	b480      	push	{r7}
 8001bce:	b083      	sub	sp, #12
 8001bd0:	af00      	add	r7, sp, #0
 8001bd2:	6078      	str	r0, [r7, #4]
 8001bd4:	6039      	str	r1, [r7, #0]
	switch (opt) {
 8001bd6:	683b      	ldr	r3, [r7, #0]
 8001bd8:	781b      	ldrb	r3, [r3, #0]
 8001bda:	3b28      	subs	r3, #40	; 0x28
 8001bdc:	2b07      	cmp	r3, #7
 8001bde:	d81b      	bhi.n	8001c18 <_ZNK9CALCULATE9Calculate8getLevelERc+0x4c>
 8001be0:	a201      	add	r2, pc, #4	; (adr r2, 8001be8 <_ZNK9CALCULATE9Calculate8getLevelERc+0x1c>)
 8001be2:	f852 f023 	ldr.w	pc, [r2, r3, lsl #2]
 8001be6:	bf00      	nop
 8001be8:	08001c09 	.word	0x08001c09
 8001bec:	08001c15 	.word	0x08001c15
 8001bf0:	08001c11 	.word	0x08001c11
 8001bf4:	08001c0d 	.word	0x08001c0d
 8001bf8:	08001c19 	.word	0x08001c19
 8001bfc:	08001c0d 	.word	0x08001c0d
 8001c00:	08001c19 	.word	0x08001c19
 8001c04:	08001c11 	.word	0x08001c11
	case '(':
		return 0;
 8001c08:	2300      	movs	r3, #0
 8001c0a:	e007      	b.n	8001c1c <_ZNK9CALCULATE9Calculate8getLevelERc+0x50>
	case '+':
	case '-':
		return 1;
 8001c0c:	2301      	movs	r3, #1
 8001c0e:	e005      	b.n	8001c1c <_ZNK9CALCULATE9Calculate8getLevelERc+0x50>
	case '*':
	case '/':
		return 2;
 8001c10:	2302      	movs	r3, #2
 8001c12:	e003      	b.n	8001c1c <_ZNK9CALCULATE9Calculate8getLevelERc+0x50>
	case ')':
		return 3;
 8001c14:	2303      	movs	r3, #3
 8001c16:	e001      	b.n	8001c1c <_ZNK9CALCULATE9Calculate8getLevelERc+0x50>
	}
	return -1;
 8001c18:	f04f 33ff 	mov.w	r3, #4294967295
}
 8001c1c:	4618      	mov	r0, r3
 8001c1e:	370c      	adds	r7, #12
 8001c20:	46bd      	mov	sp, r7
 8001c22:	bc80      	pop	{r7}
 8001c24:	4770      	bx	lr
 8001c26:	bf00      	nop

08001c28 <_ZN9CALCULATE9Calculate7doCalcuEv>:

bool Calculate::doCalcu(){
 8001c28:	b5b0      	push	{r4, r5, r7, lr}
 8001c2a:	b0ac      	sub	sp, #176	; 0xb0
 8001c2c:	af00      	add	r7, sp, #0
 8001c2e:	6078      	str	r0, [r7, #4]
 8001c30:	2500      	movs	r5, #0
	clrStack();
 8001c32:	6878      	ldr	r0, [r7, #4]
 8001c34:	f7ff ff6d 	bl	8001b12 <_ZN9CALCULATE9Calculate8clrStackEv>

	sendStringViaCDC(suffix);
 8001c38:	687b      	ldr	r3, [r7, #4]
 8001c3a:	3350      	adds	r3, #80	; 0x50
 8001c3c:	4618      	mov	r0, r3
 8001c3e:	f001 ff29 	bl	8003a94 <_Z16sendStringViaCDCRKNSt7__cxx1112basic_stringIcSt11char_traitsIcESaIcEEE>

	size_t startPos = 0;
 8001c42:	2300      	movs	r3, #0
 8001c44:	f8c7 30ac 	str.w	r3, [r7, #172]	; 0xac
	size_t spacePos = suffix.find(' ', startPos);
 8001c48:	687b      	ldr	r3, [r7, #4]
 8001c4a:	3350      	adds	r3, #80	; 0x50
 8001c4c:	f8d7 20ac 	ldr.w	r2, [r7, #172]	; 0xac
 8001c50:	2120      	movs	r1, #32
 8001c52:	4618      	mov	r0, r3
 8001c54:	f006 f85d 	bl	8007d12 <_ZNKSt7__cxx1112basic_stringIcSt11char_traitsIcESaIcEE4findEcj>
 8001c58:	f8c7 00a8 	str.w	r0, [r7, #168]	; 0xa8
	while (spacePos != std::string::npos) {
 8001c5c:	f8d7 30a8 	ldr.w	r3, [r7, #168]	; 0xa8
 8001c60:	f1b3 3fff 	cmp.w	r3, #4294967295
 8001c64:	f000 811a 	beq.w	8001e9c <_ZN9CALCULATE9Calculate7doCalcuEv+0x274>
		std::string word = suffix.substr(startPos, spacePos - startPos);
 8001c68:	687b      	ldr	r3, [r7, #4]
 8001c6a:	f103 0150 	add.w	r1, r3, #80	; 0x50
 8001c6e:	f8d7 20a8 	ldr.w	r2, [r7, #168]	; 0xa8
 8001c72:	f8d7 30ac 	ldr.w	r3, [r7, #172]	; 0xac
 8001c76:	1ad3      	subs	r3, r2, r3
 8001c78:	f107 0008 	add.w	r0, r7, #8
 8001c7c:	f8d7 20ac 	ldr.w	r2, [r7, #172]	; 0xac
 8001c80:	f006 f8b2 	bl	8007de8 <_ZNKSt7__cxx1112basic_stringIcSt11char_traitsIcESaIcEE6substrEjj>
		if (isNumber(word)){
 8001c84:	f107 0308 	add.w	r3, r7, #8
 8001c88:	4619      	mov	r1, r3
 8001c8a:	6878      	ldr	r0, [r7, #4]
 8001c8c:	f7ff ff69 	bl	8001b62 <_ZN9CALCULATE9Calculate8isNumberERNSt7__cxx1112basic_stringIcSt11char_traitsIcESaIcEEE>
 8001c90:	4603      	mov	r3, r0
 8001c92:	2b00      	cmp	r3, #0
 8001c94:	d013      	beq.n	8001cbe <_ZN9CALCULATE9Calculate7doCalcuEv+0x96>
			numStack.push(std::stod(word));
 8001c96:	687b      	ldr	r3, [r7, #4]
 8001c98:	f103 0428 	add.w	r4, r3, #40	; 0x28
 8001c9c:	f107 0308 	add.w	r3, r7, #8
 8001ca0:	2100      	movs	r1, #0
 8001ca2:	4618      	mov	r0, r3
 8001ca4:	f7ff feb8 	bl	8001a18 <_ZNSt7__cxx114stodERKNS_12basic_stringIcSt11char_traitsIcESaIcEEEPj>
 8001ca8:	4602      	mov	r2, r0
 8001caa:	460b      	mov	r3, r1
 8001cac:	e9c7 2308 	strd	r2, r3, [r7, #32]
 8001cb0:	f107 0320 	add.w	r3, r7, #32
 8001cb4:	4619      	mov	r1, r3
 8001cb6:	4620      	mov	r0, r4
 8001cb8:	f000 fada 	bl	8002270 <_ZNSt5stackIdSt5dequeIdSaIdEEE4pushEOd>
 8001cbc:	e0d6      	b.n	8001e6c <_ZN9CALCULATE9Calculate7doCalcuEv+0x244>
		}
		else {
			char opt = word[0];
 8001cbe:	f107 0308 	add.w	r3, r7, #8
 8001cc2:	2100      	movs	r1, #0
 8001cc4:	4618      	mov	r0, r3
 8001cc6:	f005 ff43 	bl	8007b50 <_ZNSt7__cxx1112basic_stringIcSt11char_traitsIcESaIcEEixEj>
 8001cca:	4603      	mov	r3, r0
 8001ccc:	781b      	ldrb	r3, [r3, #0]
 8001cce:	f887 30a7 	strb.w	r3, [r7, #167]	; 0xa7
			switch(opt) {
 8001cd2:	f897 30a7 	ldrb.w	r3, [r7, #167]	; 0xa7
 8001cd6:	3b2a      	subs	r3, #42	; 0x2a
 8001cd8:	2b05      	cmp	r3, #5
 8001cda:	f200 80c7 	bhi.w	8001e6c <_ZN9CALCULATE9Calculate7doCalcuEv+0x244>
 8001cde:	a201      	add	r2, pc, #4	; (adr r2, 8001ce4 <_ZN9CALCULATE9Calculate7doCalcuEv+0xbc>)
 8001ce0:	f852 f023 	ldr.w	pc, [r2, r3, lsl #2]
 8001ce4:	08001db5 	.word	0x08001db5
 8001ce8:	08001cfd 	.word	0x08001cfd
 8001cec:	08001e6d 	.word	0x08001e6d
 8001cf0:	08001d59 	.word	0x08001d59
 8001cf4:	08001e6d 	.word	0x08001e6d
 8001cf8:	08001e11 	.word	0x08001e11
			case '+': {
				if (numStack.size() >= 2) {
 8001cfc:	687b      	ldr	r3, [r7, #4]
 8001cfe:	3328      	adds	r3, #40	; 0x28
 8001d00:	4618      	mov	r0, r3
 8001d02:	f000 fac7 	bl	8002294 <_ZNKSt5stackIdSt5dequeIdSaIdEEE4sizeEv>
 8001d06:	4603      	mov	r3, r0
 8001d08:	2b01      	cmp	r3, #1
 8001d0a:	bf8c      	ite	hi
 8001d0c:	2301      	movhi	r3, #1
 8001d0e:	2300      	movls	r3, #0
 8001d10:	b2db      	uxtb	r3, r3
 8001d12:	2b00      	cmp	r3, #0
 8001d14:	d01d      	beq.n	8001d52 <_ZN9CALCULATE9Calculate7doCalcuEv+0x12a>
					double n2 = getNumStackValue();
 8001d16:	6878      	ldr	r0, [r7, #4]
 8001d18:	f7ff fee1 	bl	8001ade <_ZN9CALCULATE9Calculate16getNumStackValueEv>
 8001d1c:	e9c7 011e 	strd	r0, r1, [r7, #120]	; 0x78
					double n1 = getNumStackValue();
 8001d20:	6878      	ldr	r0, [r7, #4]
 8001d22:	f7ff fedc 	bl	8001ade <_ZN9CALCULATE9Calculate16getNumStackValueEv>
 8001d26:	e9c7 011c 	strd	r0, r1, [r7, #112]	; 0x70
					numStack.push(n1 + n2);
 8001d2a:	687b      	ldr	r3, [r7, #4]
 8001d2c:	f103 0428 	add.w	r4, r3, #40	; 0x28
 8001d30:	e9d7 231e 	ldrd	r2, r3, [r7, #120]	; 0x78
 8001d34:	e9d7 011c 	ldrd	r0, r1, [r7, #112]	; 0x70
 8001d38:	f7fe fa18 	bl	800016c <__adddf3>
 8001d3c:	4602      	mov	r2, r0
 8001d3e:	460b      	mov	r3, r1
 8001d40:	e9c7 230a 	strd	r2, r3, [r7, #40]	; 0x28
 8001d44:	f107 0328 	add.w	r3, r7, #40	; 0x28
 8001d48:	4619      	mov	r1, r3
 8001d4a:	4620      	mov	r0, r4
 8001d4c:	f000 fa90 	bl	8002270 <_ZNSt5stackIdSt5dequeIdSaIdEEE4pushEOd>
				}
				else {
					return false;
				}
				break;
 8001d50:	e08c      	b.n	8001e6c <_ZN9CALCULATE9Calculate7doCalcuEv+0x244>
					return false;
 8001d52:	2500      	movs	r5, #0
 8001d54:	2400      	movs	r4, #0
 8001d56:	e099      	b.n	8001e8c <_ZN9CALCULATE9Calculate7doCalcuEv+0x264>
			}
			case '-': {
				if (numStack.size() >= 2) {
 8001d58:	687b      	ldr	r3, [r7, #4]
 8001d5a:	3328      	adds	r3, #40	; 0x28
 8001d5c:	4618      	mov	r0, r3
 8001d5e:	f000 fa99 	bl	8002294 <_ZNKSt5stackIdSt5dequeIdSaIdEEE4sizeEv>
 8001d62:	4603      	mov	r3, r0
 8001d64:	2b01      	cmp	r3, #1
 8001d66:	bf8c      	ite	hi
 8001d68:	2301      	movhi	r3, #1
 8001d6a:	2300      	movls	r3, #0
 8001d6c:	b2db      	uxtb	r3, r3
 8001d6e:	2b00      	cmp	r3, #0
 8001d70:	d01d      	beq.n	8001dae <_ZN9CALCULATE9Calculate7doCalcuEv+0x186>
					double n2 = getNumStackValue();
 8001d72:	6878      	ldr	r0, [r7, #4]
 8001d74:	f7ff feb3 	bl	8001ade <_ZN9CALCULATE9Calculate16getNumStackValueEv>
 8001d78:	e9c7 0122 	strd	r0, r1, [r7, #136]	; 0x88
					double n1 = getNumStackValue();
 8001d7c:	6878      	ldr	r0, [r7, #4]
 8001d7e:	f7ff feae 	bl	8001ade <_ZN9CALCULATE9Calculate16getNumStackValueEv>
 8001d82:	e9c7 0120 	strd	r0, r1, [r7, #128]	; 0x80
					numStack.push(n1 - n2);
 8001d86:	687b      	ldr	r3, [r7, #4]
 8001d88:	f103 0428 	add.w	r4, r3, #40	; 0x28
 8001d8c:	e9d7 2322 	ldrd	r2, r3, [r7, #136]	; 0x88
 8001d90:	e9d7 0120 	ldrd	r0, r1, [r7, #128]	; 0x80
 8001d94:	f7fe f9e8 	bl	8000168 <__aeabi_dsub>
 8001d98:	4602      	mov	r2, r0
 8001d9a:	460b      	mov	r3, r1
 8001d9c:	e9c7 230c 	strd	r2, r3, [r7, #48]	; 0x30
 8001da0:	f107 0330 	add.w	r3, r7, #48	; 0x30
 8001da4:	4619      	mov	r1, r3
 8001da6:	4620      	mov	r0, r4
 8001da8:	f000 fa62 	bl	8002270 <_ZNSt5stackIdSt5dequeIdSaIdEEE4pushEOd>
				}
				else {
					return false;
				}
				break;
 8001dac:	e05e      	b.n	8001e6c <_ZN9CALCULATE9Calculate7doCalcuEv+0x244>
					return false;
 8001dae:	2500      	movs	r5, #0
 8001db0:	2400      	movs	r4, #0
 8001db2:	e06b      	b.n	8001e8c <_ZN9CALCULATE9Calculate7doCalcuEv+0x264>
			}
			case '*': {
				if (numStack.size() >= 2) {
 8001db4:	687b      	ldr	r3, [r7, #4]
 8001db6:	3328      	adds	r3, #40	; 0x28
 8001db8:	4618      	mov	r0, r3
 8001dba:	f000 fa6b 	bl	8002294 <_ZNKSt5stackIdSt5dequeIdSaIdEEE4sizeEv>
 8001dbe:	4603      	mov	r3, r0
 8001dc0:	2b01      	cmp	r3, #1
 8001dc2:	bf8c      	ite	hi
 8001dc4:	2301      	movhi	r3, #1
 8001dc6:	2300      	movls	r3, #0
 8001dc8:	b2db      	uxtb	r3, r3
 8001dca:	2b00      	cmp	r3, #0
 8001dcc:	d01d      	beq.n	8001e0a <_ZN9CALCULATE9Calculate7doCalcuEv+0x1e2>
					double n2 = getNumStackValue();
 8001dce:	6878      	ldr	r0, [r7, #4]
 8001dd0:	f7ff fe85 	bl	8001ade <_ZN9CALCULATE9Calculate16getNumStackValueEv>
 8001dd4:	e9c7 011a 	strd	r0, r1, [r7, #104]	; 0x68
					double n1 = getNumStackValue();
 8001dd8:	6878      	ldr	r0, [r7, #4]
 8001dda:	f7ff fe80 	bl	8001ade <_ZN9CALCULATE9Calculate16getNumStackValueEv>
 8001dde:	e9c7 0118 	strd	r0, r1, [r7, #96]	; 0x60
					numStack.push(n1 * n2);
 8001de2:	687b      	ldr	r3, [r7, #4]
 8001de4:	f103 0428 	add.w	r4, r3, #40	; 0x28
 8001de8:	e9d7 231a 	ldrd	r2, r3, [r7, #104]	; 0x68
 8001dec:	e9d7 0118 	ldrd	r0, r1, [r7, #96]	; 0x60
 8001df0:	f7fe fb72 	bl	80004d8 <__aeabi_dmul>
 8001df4:	4602      	mov	r2, r0
 8001df6:	460b      	mov	r3, r1
 8001df8:	e9c7 230e 	strd	r2, r3, [r7, #56]	; 0x38
 8001dfc:	f107 0338 	add.w	r3, r7, #56	; 0x38
 8001e00:	4619      	mov	r1, r3
 8001e02:	4620      	mov	r0, r4
 8001e04:	f000 fa34 	bl	8002270 <_ZNSt5stackIdSt5dequeIdSaIdEEE4pushEOd>
				}
				else {
					return false;
				}
				break;
 8001e08:	e030      	b.n	8001e6c <_ZN9CALCULATE9Calculate7doCalcuEv+0x244>
					return false;
 8001e0a:	2500      	movs	r5, #0
 8001e0c:	2400      	movs	r4, #0
 8001e0e:	e03d      	b.n	8001e8c <_ZN9CALCULATE9Calculate7doCalcuEv+0x264>
			}
			case '/': {
				if (numStack.size() >= 2) {
 8001e10:	687b      	ldr	r3, [r7, #4]
 8001e12:	3328      	adds	r3, #40	; 0x28
 8001e14:	4618      	mov	r0, r3
 8001e16:	f000 fa3d 	bl	8002294 <_ZNKSt5stackIdSt5dequeIdSaIdEEE4sizeEv>
 8001e1a:	4603      	mov	r3, r0
 8001e1c:	2b01      	cmp	r3, #1
 8001e1e:	bf8c      	ite	hi
 8001e20:	2301      	movhi	r3, #1
 8001e22:	2300      	movls	r3, #0
 8001e24:	b2db      	uxtb	r3, r3
 8001e26:	2b00      	cmp	r3, #0
 8001e28:	d01d      	beq.n	8001e66 <_ZN9CALCULATE9Calculate7doCalcuEv+0x23e>
					double n2 = getNumStackValue();
 8001e2a:	6878      	ldr	r0, [r7, #4]
 8001e2c:	f7ff fe57 	bl	8001ade <_ZN9CALCULATE9Calculate16getNumStackValueEv>
 8001e30:	e9c7 0126 	strd	r0, r1, [r7, #152]	; 0x98
					double n1 = getNumStackValue();
 8001e34:	6878      	ldr	r0, [r7, #4]
 8001e36:	f7ff fe52 	bl	8001ade <_ZN9CALCULATE9Calculate16getNumStackValueEv>
 8001e3a:	e9c7 0124 	strd	r0, r1, [r7, #144]	; 0x90
					numStack.push(n1 / n2);
 8001e3e:	687b      	ldr	r3, [r7, #4]
 8001e40:	f103 0428 	add.w	r4, r3, #40	; 0x28
 8001e44:	e9d7 2326 	ldrd	r2, r3, [r7, #152]	; 0x98
 8001e48:	e9d7 0124 	ldrd	r0, r1, [r7, #144]	; 0x90
 8001e4c:	f7fe fc6e 	bl	800072c <__aeabi_ddiv>
 8001e50:	4602      	mov	r2, r0
 8001e52:	460b      	mov	r3, r1
 8001e54:	e9c7 2310 	strd	r2, r3, [r7, #64]	; 0x40
 8001e58:	f107 0340 	add.w	r3, r7, #64	; 0x40
 8001e5c:	4619      	mov	r1, r3
 8001e5e:	4620      	mov	r0, r4
 8001e60:	f000 fa06 	bl	8002270 <_ZNSt5stackIdSt5dequeIdSaIdEEE4pushEOd>
				}
				else {
					return false;
				}
				break;
 8001e64:	e002      	b.n	8001e6c <_ZN9CALCULATE9Calculate7doCalcuEv+0x244>
					return false;
 8001e66:	2500      	movs	r5, #0
 8001e68:	2400      	movs	r4, #0
 8001e6a:	e00f      	b.n	8001e8c <_ZN9CALCULATE9Calculate7doCalcuEv+0x264>
			}
			}
		}
		startPos = spacePos + 1;
 8001e6c:	f8d7 30a8 	ldr.w	r3, [r7, #168]	; 0xa8
 8001e70:	3301      	adds	r3, #1
 8001e72:	f8c7 30ac 	str.w	r3, [r7, #172]	; 0xac
		spacePos = suffix.find(' ', startPos);
 8001e76:	687b      	ldr	r3, [r7, #4]
 8001e78:	3350      	adds	r3, #80	; 0x50
 8001e7a:	f8d7 20ac 	ldr.w	r2, [r7, #172]	; 0xac
 8001e7e:	2120      	movs	r1, #32
 8001e80:	4618      	mov	r0, r3
 8001e82:	f005 ff46 	bl	8007d12 <_ZNKSt7__cxx1112basic_stringIcSt11char_traitsIcESaIcEE4findEcj>
 8001e86:	f8c7 00a8 	str.w	r0, [r7, #168]	; 0xa8
 8001e8a:	2401      	movs	r4, #1
 8001e8c:	f107 0308 	add.w	r3, r7, #8
 8001e90:	4618      	mov	r0, r3
 8001e92:	f005 fe21 	bl	8007ad8 <_ZNSt7__cxx1112basic_stringIcSt11char_traitsIcESaIcEED1Ev>
 8001e96:	2c01      	cmp	r4, #1
 8001e98:	d12e      	bne.n	8001ef8 <_ZN9CALCULATE9Calculate7doCalcuEv+0x2d0>
	while (spacePos != std::string::npos) {
 8001e9a:	e6df      	b.n	8001c5c <_ZN9CALCULATE9Calculate7doCalcuEv+0x34>
	}
	if(numStack.size() == 1){
 8001e9c:	687b      	ldr	r3, [r7, #4]
 8001e9e:	3328      	adds	r3, #40	; 0x28
 8001ea0:	4618      	mov	r0, r3
 8001ea2:	f000 f9f7 	bl	8002294 <_ZNKSt5stackIdSt5dequeIdSaIdEEE4sizeEv>
 8001ea6:	4603      	mov	r3, r0
 8001ea8:	2b01      	cmp	r3, #1
 8001eaa:	bf0c      	ite	eq
 8001eac:	2301      	moveq	r3, #1
 8001eae:	2300      	movne	r3, #0
 8001eb0:	b2db      	uxtb	r3, r3
 8001eb2:	2b00      	cmp	r3, #0
 8001eb4:	d01f      	beq.n	8001ef6 <_ZN9CALCULATE9Calculate7doCalcuEv+0x2ce>
		operand = std::to_string(numStack.top());
 8001eb6:	687b      	ldr	r3, [r7, #4]
 8001eb8:	f103 0468 	add.w	r4, r3, #104	; 0x68
 8001ebc:	687b      	ldr	r3, [r7, #4]
 8001ebe:	3328      	adds	r3, #40	; 0x28
 8001ec0:	4618      	mov	r0, r3
 8001ec2:	f000 f964 	bl	800218e <_ZNSt5stackIdSt5dequeIdSaIdEEE3topEv>
 8001ec6:	4603      	mov	r3, r0
 8001ec8:	e9d3 2300 	ldrd	r2, r3, [r3]
 8001ecc:	f107 0148 	add.w	r1, r7, #72	; 0x48
 8001ed0:	4608      	mov	r0, r1
 8001ed2:	f7ff fdbb 	bl	8001a4c <_ZNSt7__cxx119to_stringEd>
 8001ed6:	f107 0348 	add.w	r3, r7, #72	; 0x48
 8001eda:	4619      	mov	r1, r3
 8001edc:	4620      	mov	r0, r4
 8001ede:	f005 fe01 	bl	8007ae4 <_ZNSt7__cxx1112basic_stringIcSt11char_traitsIcESaIcEEaSEOS4_>
 8001ee2:	f107 0348 	add.w	r3, r7, #72	; 0x48
 8001ee6:	4618      	mov	r0, r3
 8001ee8:	f005 fdf6 	bl	8007ad8 <_ZNSt7__cxx1112basic_stringIcSt11char_traitsIcESaIcEED1Ev>
		clrStack();
 8001eec:	6878      	ldr	r0, [r7, #4]
 8001eee:	f7ff fe10 	bl	8001b12 <_ZN9CALCULATE9Calculate8clrStackEv>
		return true;
 8001ef2:	2501      	movs	r5, #1
 8001ef4:	e000      	b.n	8001ef8 <_ZN9CALCULATE9Calculate7doCalcuEv+0x2d0>
	}
}
 8001ef6:	e000      	b.n	8001efa <_ZN9CALCULATE9Calculate7doCalcuEv+0x2d2>
 8001ef8:	462b      	mov	r3, r5
 8001efa:	4618      	mov	r0, r3
 8001efc:	37b0      	adds	r7, #176	; 0xb0
 8001efe:	46bd      	mov	sp, r7
 8001f00:	bdb0      	pop	{r4, r5, r7, pc}
 8001f02:	bf00      	nop

08001f04 <_ZN9CALCULATE9Calculate8getInputEc>:

void Calculate::getInput(char opt){
 8001f04:	b590      	push	{r4, r7, lr}
 8001f06:	b083      	sub	sp, #12
 8001f08:	af00      	add	r7, sp, #0
 8001f0a:	6078      	str	r0, [r7, #4]
 8001f0c:	460b      	mov	r3, r1
 8001f0e:	70fb      	strb	r3, [r7, #3]
	//
	if(std::isdigit(opt)){
 8001f10:	78fb      	ldrb	r3, [r7, #3]
 8001f12:	3b30      	subs	r3, #48	; 0x30
 8001f14:	2b09      	cmp	r3, #9
 8001f16:	bf94      	ite	ls
 8001f18:	2301      	movls	r3, #1
 8001f1a:	2300      	movhi	r3, #0
 8001f1c:	b2db      	uxtb	r3, r3
 8001f1e:	2b00      	cmp	r3, #0
 8001f20:	d007      	beq.n	8001f32 <_ZN9CALCULATE9Calculate8getInputEc+0x2e>
		operand += opt;
 8001f22:	687b      	ldr	r3, [r7, #4]
 8001f24:	3368      	adds	r3, #104	; 0x68
 8001f26:	78fa      	ldrb	r2, [r7, #3]
 8001f28:	4611      	mov	r1, r2
 8001f2a:	4618      	mov	r0, r3
 8001f2c:	f005 fe30 	bl	8007b90 <_ZNSt7__cxx1112basic_stringIcSt11char_traitsIcESaIcEEpLEc>
				addToSuffix(optStack.top());
				optStack.pop();
			}
		}
	}
}
 8001f30:	e069      	b.n	8002006 <_ZN9CALCULATE9Calculate8getInputEc+0x102>
		addToSuffix(operand);
 8001f32:	687b      	ldr	r3, [r7, #4]
 8001f34:	3368      	adds	r3, #104	; 0x68
 8001f36:	4619      	mov	r1, r3
 8001f38:	6878      	ldr	r0, [r7, #4]
 8001f3a:	f7ff fdbb 	bl	8001ab4 <_ZN9CALCULATE9Calculate11addToSuffixERNSt7__cxx1112basic_stringIcSt11char_traitsIcESaIcEEE>
		operand = "";
 8001f3e:	687b      	ldr	r3, [r7, #4]
 8001f40:	3368      	adds	r3, #104	; 0x68
 8001f42:	4933      	ldr	r1, [pc, #204]	; (8002010 <_ZN9CALCULATE9Calculate8getInputEc+0x10c>)
 8001f44:	4618      	mov	r0, r3
 8001f46:	f005 feb4 	bl	8007cb2 <_ZNSt7__cxx1112basic_stringIcSt11char_traitsIcESaIcEEaSEPKc>
		if(opt == '='){
 8001f4a:	78fb      	ldrb	r3, [r7, #3]
 8001f4c:	2b3d      	cmp	r3, #61	; 0x3d
 8001f4e:	d103      	bne.n	8001f58 <_ZN9CALCULATE9Calculate8getInputEc+0x54>
			doCalcu();
 8001f50:	6878      	ldr	r0, [r7, #4]
 8001f52:	f7ff fe69 	bl	8001c28 <_ZN9CALCULATE9Calculate7doCalcuEv>
}
 8001f56:	e056      	b.n	8002006 <_ZN9CALCULATE9Calculate8getInputEc+0x102>
		else if(opt == '('){
 8001f58:	78fb      	ldrb	r3, [r7, #3]
 8001f5a:	2b28      	cmp	r3, #40	; 0x28
 8001f5c:	d106      	bne.n	8001f6c <_ZN9CALCULATE9Calculate8getInputEc+0x68>
			optStack.push(opt);
 8001f5e:	687b      	ldr	r3, [r7, #4]
 8001f60:	1cfa      	adds	r2, r7, #3
 8001f62:	4611      	mov	r1, r2
 8001f64:	4618      	mov	r0, r3
 8001f66:	f000 f9a2 	bl	80022ae <_ZNSt5stackIcSt5dequeIcSaIcEEE4pushERKc>
}
 8001f6a:	e04c      	b.n	8002006 <_ZN9CALCULATE9Calculate8getInputEc+0x102>
		else if(opt == ')'){
 8001f6c:	78fb      	ldrb	r3, [r7, #3]
 8001f6e:	2b29      	cmp	r3, #41	; 0x29
 8001f70:	d11a      	bne.n	8001fa8 <_ZN9CALCULATE9Calculate8getInputEc+0xa4>
			while (optStack.top() != '(') {
 8001f72:	687b      	ldr	r3, [r7, #4]
 8001f74:	4618      	mov	r0, r3
 8001f76:	f000 f9a8 	bl	80022ca <_ZNSt5stackIcSt5dequeIcSaIcEEE3topEv>
 8001f7a:	4603      	mov	r3, r0
 8001f7c:	781b      	ldrb	r3, [r3, #0]
 8001f7e:	2b28      	cmp	r3, #40	; 0x28
 8001f80:	bf14      	ite	ne
 8001f82:	2301      	movne	r3, #1
 8001f84:	2300      	moveq	r3, #0
 8001f86:	b2db      	uxtb	r3, r3
 8001f88:	2b00      	cmp	r3, #0
 8001f8a:	d03c      	beq.n	8002006 <_ZN9CALCULATE9Calculate8getInputEc+0x102>
				addToSuffix(optStack.top());
 8001f8c:	687b      	ldr	r3, [r7, #4]
 8001f8e:	4618      	mov	r0, r3
 8001f90:	f000 f99b 	bl	80022ca <_ZNSt5stackIcSt5dequeIcSaIcEEE3topEv>
 8001f94:	4603      	mov	r3, r0
 8001f96:	4619      	mov	r1, r3
 8001f98:	6878      	ldr	r0, [r7, #4]
 8001f9a:	f7ff fd73 	bl	8001a84 <_ZN9CALCULATE9Calculate11addToSuffixERc>
				optStack.pop();
 8001f9e:	687b      	ldr	r3, [r7, #4]
 8001fa0:	4618      	mov	r0, r3
 8001fa2:	f000 f91a 	bl	80021da <_ZNSt5stackIcSt5dequeIcSaIcEEE3popEv>
			while (optStack.top() != '(') {
 8001fa6:	e7e4      	b.n	8001f72 <_ZN9CALCULATE9Calculate8getInputEc+0x6e>
			while (!optStack.empty() && getLevel(opt) <= getLevel(optStack.top())) {
 8001fa8:	687b      	ldr	r3, [r7, #4]
 8001faa:	4618      	mov	r0, r3
 8001fac:	f000 f908 	bl	80021c0 <_ZNKSt5stackIcSt5dequeIcSaIcEEE5emptyEv>
 8001fb0:	4603      	mov	r3, r0
 8001fb2:	f083 0301 	eor.w	r3, r3, #1
 8001fb6:	b2db      	uxtb	r3, r3
 8001fb8:	2b00      	cmp	r3, #0
 8001fba:	d013      	beq.n	8001fe4 <_ZN9CALCULATE9Calculate8getInputEc+0xe0>
 8001fbc:	1cfb      	adds	r3, r7, #3
 8001fbe:	4619      	mov	r1, r3
 8001fc0:	6878      	ldr	r0, [r7, #4]
 8001fc2:	f7ff fe03 	bl	8001bcc <_ZNK9CALCULATE9Calculate8getLevelERc>
 8001fc6:	4604      	mov	r4, r0
 8001fc8:	687b      	ldr	r3, [r7, #4]
 8001fca:	4618      	mov	r0, r3
 8001fcc:	f000 f97d 	bl	80022ca <_ZNSt5stackIcSt5dequeIcSaIcEEE3topEv>
 8001fd0:	4603      	mov	r3, r0
 8001fd2:	4619      	mov	r1, r3
 8001fd4:	6878      	ldr	r0, [r7, #4]
 8001fd6:	f7ff fdf9 	bl	8001bcc <_ZNK9CALCULATE9Calculate8getLevelERc>
 8001fda:	4603      	mov	r3, r0
 8001fdc:	429c      	cmp	r4, r3
 8001fde:	dc01      	bgt.n	8001fe4 <_ZN9CALCULATE9Calculate8getInputEc+0xe0>
 8001fe0:	2301      	movs	r3, #1
 8001fe2:	e000      	b.n	8001fe6 <_ZN9CALCULATE9Calculate8getInputEc+0xe2>
 8001fe4:	2300      	movs	r3, #0
 8001fe6:	2b00      	cmp	r3, #0
 8001fe8:	d00d      	beq.n	8002006 <_ZN9CALCULATE9Calculate8getInputEc+0x102>
				addToSuffix(optStack.top());
 8001fea:	687b      	ldr	r3, [r7, #4]
 8001fec:	4618      	mov	r0, r3
 8001fee:	f000 f96c 	bl	80022ca <_ZNSt5stackIcSt5dequeIcSaIcEEE3topEv>
 8001ff2:	4603      	mov	r3, r0
 8001ff4:	4619      	mov	r1, r3
 8001ff6:	6878      	ldr	r0, [r7, #4]
 8001ff8:	f7ff fd44 	bl	8001a84 <_ZN9CALCULATE9Calculate11addToSuffixERc>
				optStack.pop();
 8001ffc:	687b      	ldr	r3, [r7, #4]
 8001ffe:	4618      	mov	r0, r3
 8002000:	f000 f8eb 	bl	80021da <_ZNSt5stackIcSt5dequeIcSaIcEEE3popEv>
			while (!optStack.empty() && getLevel(opt) <= getLevel(optStack.top())) {
 8002004:	e7d0      	b.n	8001fa8 <_ZN9CALCULATE9Calculate8getInputEc+0xa4>
}
 8002006:	bf00      	nop
 8002008:	370c      	adds	r7, #12
 800200a:	46bd      	mov	sp, r7
 800200c:	bd90      	pop	{r4, r7, pc}
 800200e:	bf00      	nop
 8002010:	0800afac 	.word	0x0800afac

08002014 <_ZZN9__gnu_cxx6__stoaIddcJEEET0_PFT_PKT1_PPS3_DpT2_EPKcS5_PjS9_EN11_Save_errnoC1Ev>:
      _Ret __ret;

      _CharT* __endptr;

      struct _Save_errno {
	_Save_errno() : _M_errno(errno) { errno = 0; }
 8002014:	b580      	push	{r7, lr}
 8002016:	b082      	sub	sp, #8
 8002018:	af00      	add	r7, sp, #0
 800201a:	6078      	str	r0, [r7, #4]
 800201c:	f005 ff0a 	bl	8007e34 <__errno>
 8002020:	4603      	mov	r3, r0
 8002022:	681a      	ldr	r2, [r3, #0]
 8002024:	687b      	ldr	r3, [r7, #4]
 8002026:	601a      	str	r2, [r3, #0]
 8002028:	f005 ff04 	bl	8007e34 <__errno>
 800202c:	4603      	mov	r3, r0
 800202e:	2200      	movs	r2, #0
 8002030:	601a      	str	r2, [r3, #0]
 8002032:	687b      	ldr	r3, [r7, #4]
 8002034:	4618      	mov	r0, r3
 8002036:	3708      	adds	r7, #8
 8002038:	46bd      	mov	sp, r7
 800203a:	bd80      	pop	{r7, pc}

0800203c <_ZZN9__gnu_cxx6__stoaIddcJEEET0_PFT_PKT1_PPS3_DpT2_EPKcS5_PjS9_EN11_Save_errnoD1Ev>:
	~_Save_errno() { if (errno == 0) errno = _M_errno; }
 800203c:	b580      	push	{r7, lr}
 800203e:	b082      	sub	sp, #8
 8002040:	af00      	add	r7, sp, #0
 8002042:	6078      	str	r0, [r7, #4]
 8002044:	f005 fef6 	bl	8007e34 <__errno>
 8002048:	4603      	mov	r3, r0
 800204a:	681b      	ldr	r3, [r3, #0]
 800204c:	2b00      	cmp	r3, #0
 800204e:	bf0c      	ite	eq
 8002050:	2301      	moveq	r3, #1
 8002052:	2300      	movne	r3, #0
 8002054:	b2db      	uxtb	r3, r3
 8002056:	2b00      	cmp	r3, #0
 8002058:	d005      	beq.n	8002066 <_ZZN9__gnu_cxx6__stoaIddcJEEET0_PFT_PKT1_PPS3_DpT2_EPKcS5_PjS9_EN11_Save_errnoD1Ev+0x2a>
 800205a:	f005 feeb 	bl	8007e34 <__errno>
 800205e:	4602      	mov	r2, r0
 8002060:	687b      	ldr	r3, [r7, #4]
 8002062:	681b      	ldr	r3, [r3, #0]
 8002064:	6013      	str	r3, [r2, #0]
 8002066:	687b      	ldr	r3, [r7, #4]
 8002068:	4618      	mov	r0, r3
 800206a:	3708      	adds	r7, #8
 800206c:	46bd      	mov	sp, r7
 800206e:	bd80      	pop	{r7, pc}

08002070 <_ZZN9__gnu_cxx6__stoaIddcJEEET0_PFT_PKT1_PPS3_DpT2_EPKcS5_PjS9_EN10_Range_chk6_S_chkEdSt17integral_constantIbLb0EE>:
	int _M_errno;
      } const __save_errno;

      struct _Range_chk {
	  static bool
	  _S_chk(_TRet, std::false_type) { return false; }
 8002070:	b480      	push	{r7}
 8002072:	b085      	sub	sp, #20
 8002074:	af00      	add	r7, sp, #0
 8002076:	e9c7 0102 	strd	r0, r1, [r7, #8]
 800207a:	713a      	strb	r2, [r7, #4]
 800207c:	2300      	movs	r3, #0
 800207e:	4618      	mov	r0, r3
 8002080:	3714      	adds	r7, #20
 8002082:	46bd      	mov	sp, r7
 8002084:	bc80      	pop	{r7}
 8002086:	4770      	bx	lr

08002088 <_ZN9__gnu_cxx6__stoaIddcJEEET0_PFT_PKT1_PPS3_DpT2_EPKcS5_PjS9_>:
    __stoa(_TRet (*__convf) (const _CharT*, _CharT**, _Base...),
 8002088:	b5b0      	push	{r4, r5, r7, lr}
 800208a:	b08c      	sub	sp, #48	; 0x30
 800208c:	af00      	add	r7, sp, #0
 800208e:	60f8      	str	r0, [r7, #12]
 8002090:	60b9      	str	r1, [r7, #8]
 8002092:	607a      	str	r2, [r7, #4]
 8002094:	603b      	str	r3, [r7, #0]
      } const __save_errno;
 8002096:	f107 0314 	add.w	r3, r7, #20
 800209a:	4618      	mov	r0, r3
 800209c:	f7ff ffba 	bl	8002014 <_ZZN9__gnu_cxx6__stoaIddcJEEET0_PFT_PKT1_PPS3_DpT2_EPKcS5_PjS9_EN11_Save_errnoC1Ev>
	    return __val < _TRet(__numeric_traits<int>::__min)
	      || __val > _TRet(__numeric_traits<int>::__max);
	  }
      };

      const _TRet __tmp = __convf(__str, &__endptr, __base...);
 80020a0:	f107 0218 	add.w	r2, r7, #24
 80020a4:	68fb      	ldr	r3, [r7, #12]
 80020a6:	4611      	mov	r1, r2
 80020a8:	6878      	ldr	r0, [r7, #4]
 80020aa:	4798      	blx	r3
 80020ac:	e9c7 010a 	strd	r0, r1, [r7, #40]	; 0x28

      if (__endptr == __str)
 80020b0:	69bb      	ldr	r3, [r7, #24]
 80020b2:	687a      	ldr	r2, [r7, #4]
 80020b4:	429a      	cmp	r2, r3
 80020b6:	d102      	bne.n	80020be <_ZN9__gnu_cxx6__stoaIddcJEEET0_PFT_PKT1_PPS3_DpT2_EPKcS5_PjS9_+0x36>
	std::__throw_invalid_argument(__name);
 80020b8:	68b8      	ldr	r0, [r7, #8]
 80020ba:	f005 fb8a 	bl	80077d2 <_ZSt24__throw_invalid_argumentPKc>
      else if (errno == ERANGE
 80020be:	f005 feb9 	bl	8007e34 <__errno>
 80020c2:	4603      	mov	r3, r0
 80020c4:	681b      	ldr	r3, [r3, #0]
	  || _Range_chk::_S_chk(__tmp, std::is_same<_Ret, int>{}))
 80020c6:	2b22      	cmp	r3, #34	; 0x22
 80020c8:	d007      	beq.n	80020da <_ZN9__gnu_cxx6__stoaIddcJEEET0_PFT_PKT1_PPS3_DpT2_EPKcS5_PjS9_+0x52>
 80020ca:	4622      	mov	r2, r4
 80020cc:	e9d7 010a 	ldrd	r0, r1, [r7, #40]	; 0x28
 80020d0:	f7ff ffce 	bl	8002070 <_ZZN9__gnu_cxx6__stoaIddcJEEET0_PFT_PKT1_PPS3_DpT2_EPKcS5_PjS9_EN10_Range_chk6_S_chkEdSt17integral_constantIbLb0EE>
 80020d4:	4603      	mov	r3, r0
 80020d6:	2b00      	cmp	r3, #0
 80020d8:	d001      	beq.n	80020de <_ZN9__gnu_cxx6__stoaIddcJEEET0_PFT_PKT1_PPS3_DpT2_EPKcS5_PjS9_+0x56>
 80020da:	2301      	movs	r3, #1
 80020dc:	e000      	b.n	80020e0 <_ZN9__gnu_cxx6__stoaIddcJEEET0_PFT_PKT1_PPS3_DpT2_EPKcS5_PjS9_+0x58>
 80020de:	2300      	movs	r3, #0
      else if (errno == ERANGE
 80020e0:	2b00      	cmp	r3, #0
 80020e2:	d002      	beq.n	80020ea <_ZN9__gnu_cxx6__stoaIddcJEEET0_PFT_PKT1_PPS3_DpT2_EPKcS5_PjS9_+0x62>
	std::__throw_out_of_range(__name);
 80020e4:	68b8      	ldr	r0, [r7, #8]
 80020e6:	f005 fb7a 	bl	80077de <_ZSt20__throw_out_of_rangePKc>
      else
	__ret = __tmp;
 80020ea:	e9d7 230a 	ldrd	r2, r3, [r7, #40]	; 0x28
 80020ee:	e9c7 2308 	strd	r2, r3, [r7, #32]

      if (__idx)
 80020f2:	683b      	ldr	r3, [r7, #0]
 80020f4:	2b00      	cmp	r3, #0
 80020f6:	d005      	beq.n	8002104 <_ZN9__gnu_cxx6__stoaIddcJEEET0_PFT_PKT1_PPS3_DpT2_EPKcS5_PjS9_+0x7c>
	*__idx = __endptr - __str;
 80020f8:	69ba      	ldr	r2, [r7, #24]
 80020fa:	687b      	ldr	r3, [r7, #4]
 80020fc:	1ad3      	subs	r3, r2, r3
 80020fe:	461a      	mov	r2, r3
 8002100:	683b      	ldr	r3, [r7, #0]
 8002102:	601a      	str	r2, [r3, #0]

      return __ret;
 8002104:	e9d7 4508 	ldrd	r4, r5, [r7, #32]
      } const __save_errno;
 8002108:	f107 0314 	add.w	r3, r7, #20
 800210c:	4618      	mov	r0, r3
 800210e:	f7ff ff95 	bl	800203c <_ZZN9__gnu_cxx6__stoaIddcJEEET0_PFT_PKT1_PPS3_DpT2_EPKcS5_PjS9_EN11_Save_errnoD1Ev>
      return __ret;
 8002112:	4622      	mov	r2, r4
 8002114:	462b      	mov	r3, r5
    }
 8002116:	4610      	mov	r0, r2
 8002118:	4619      	mov	r1, r3
 800211a:	3730      	adds	r7, #48	; 0x30
 800211c:	46bd      	mov	sp, r7
 800211e:	bdb0      	pop	{r4, r5, r7, pc}

08002120 <_ZN9__gnu_cxx12__to_xstringINSt7__cxx1112basic_stringIcSt11char_traitsIcESaIcEEEcEET_PFiPT0_jPKS8_St9__va_listEjSB_z>:

  // Helper for the to_string / to_wstring functions.
  template<typename _String, typename _CharT = typename _String::value_type>
    _String
    __to_xstring(int (*__convf) (_CharT*, std::size_t, const _CharT*,
 8002120:	b408      	push	{r3}
 8002122:	b590      	push	{r4, r7, lr}
 8002124:	b088      	sub	sp, #32
 8002126:	af00      	add	r7, sp, #0
 8002128:	60f8      	str	r0, [r7, #12]
 800212a:	60b9      	str	r1, [r7, #8]
 800212c:	607a      	str	r2, [r7, #4]
				 __builtin_va_list), std::size_t __n,
		 const _CharT* __fmt, ...)
    {
      // XXX Eventually the result should be constructed in-place in
      // the __cxx11 string, likely with the help of internal hooks.
      _CharT* __s = static_cast<_CharT*>(__builtin_alloca(sizeof(_CharT)
 800212e:	687b      	ldr	r3, [r7, #4]
 8002130:	3307      	adds	r3, #7
 8002132:	08db      	lsrs	r3, r3, #3
 8002134:	00db      	lsls	r3, r3, #3
 8002136:	ebad 0d03 	sub.w	sp, sp, r3
 800213a:	466b      	mov	r3, sp
 800213c:	3307      	adds	r3, #7
 800213e:	08db      	lsrs	r3, r3, #3
 8002140:	00db      	lsls	r3, r3, #3
 8002142:	61fb      	str	r3, [r7, #28]
							  * __n));

      __builtin_va_list __args;
      __builtin_va_start(__args, __fmt);
 8002144:	f107 0330 	add.w	r3, r7, #48	; 0x30
 8002148:	613b      	str	r3, [r7, #16]

      const int __len = __convf(__s, __n, __fmt, __args);
 800214a:	68bc      	ldr	r4, [r7, #8]
 800214c:	693b      	ldr	r3, [r7, #16]
 800214e:	6afa      	ldr	r2, [r7, #44]	; 0x2c
 8002150:	6879      	ldr	r1, [r7, #4]
 8002152:	69f8      	ldr	r0, [r7, #28]
 8002154:	47a0      	blx	r4
 8002156:	61b8      	str	r0, [r7, #24]

      __builtin_va_end(__args);

      return _String(__s, __s + __len);
 8002158:	69bb      	ldr	r3, [r7, #24]
 800215a:	69fa      	ldr	r2, [r7, #28]
 800215c:	18d4      	adds	r4, r2, r3
 800215e:	f107 0314 	add.w	r3, r7, #20
 8002162:	4618      	mov	r0, r3
 8002164:	f005 fb2d 	bl	80077c2 <_ZNSaIcEC1Ev>
 8002168:	f107 0314 	add.w	r3, r7, #20
 800216c:	4622      	mov	r2, r4
 800216e:	69f9      	ldr	r1, [r7, #28]
 8002170:	68f8      	ldr	r0, [r7, #12]
 8002172:	f000 f8b7 	bl	80022e4 <_ZNSt7__cxx1112basic_stringIcSt11char_traitsIcESaIcEEC1IPcvEET_S7_RKS3_>
 8002176:	f107 0314 	add.w	r3, r7, #20
 800217a:	4618      	mov	r0, r3
 800217c:	f005 fb22 	bl	80077c4 <_ZNSaIcED1Ev>
    }
 8002180:	68f8      	ldr	r0, [r7, #12]
 8002182:	3720      	adds	r7, #32
 8002184:	46bd      	mov	sp, r7
 8002186:	e8bd 4090 	ldmia.w	sp!, {r4, r7, lr}
 800218a:	b001      	add	sp, #4
 800218c:	4770      	bx	lr

0800218e <_ZNSt5stackIdSt5dequeIdSaIdEEE3topEv>:
      /**
       *  Returns a read/write reference to the data at the first
       *  element of the %stack.
       */
      reference
      top()
 800218e:	b580      	push	{r7, lr}
 8002190:	b082      	sub	sp, #8
 8002192:	af00      	add	r7, sp, #0
 8002194:	6078      	str	r0, [r7, #4]
      {
	__glibcxx_requires_nonempty();
	return c.back();
 8002196:	687b      	ldr	r3, [r7, #4]
 8002198:	4618      	mov	r0, r3
 800219a:	f000 f8cd 	bl	8002338 <_ZNSt5dequeIdSaIdEE4backEv>
 800219e:	4603      	mov	r3, r0
      }
 80021a0:	4618      	mov	r0, r3
 80021a2:	3708      	adds	r7, #8
 80021a4:	46bd      	mov	sp, r7
 80021a6:	bd80      	pop	{r7, pc}

080021a8 <_ZNSt5stackIdSt5dequeIdSaIdEEE3popEv>:
       *  Note that no data is returned, and if the first element's
       *  data is needed, it should be retrieved before pop() is
       *  called.
       */
      void
      pop()
 80021a8:	b580      	push	{r7, lr}
 80021aa:	b082      	sub	sp, #8
 80021ac:	af00      	add	r7, sp, #0
 80021ae:	6078      	str	r0, [r7, #4]
      {
	__glibcxx_requires_nonempty();
	c.pop_back();
 80021b0:	687b      	ldr	r3, [r7, #4]
 80021b2:	4618      	mov	r0, r3
 80021b4:	f000 f8d9 	bl	800236a <_ZNSt5dequeIdSaIdEE8pop_backEv>
      }
 80021b8:	bf00      	nop
 80021ba:	3708      	adds	r7, #8
 80021bc:	46bd      	mov	sp, r7
 80021be:	bd80      	pop	{r7, pc}

080021c0 <_ZNKSt5stackIcSt5dequeIcSaIcEEE5emptyEv>:
      empty() const
 80021c0:	b580      	push	{r7, lr}
 80021c2:	b082      	sub	sp, #8
 80021c4:	af00      	add	r7, sp, #0
 80021c6:	6078      	str	r0, [r7, #4]
      { return c.empty(); }
 80021c8:	687b      	ldr	r3, [r7, #4]
 80021ca:	4618      	mov	r0, r3
 80021cc:	f000 f8f0 	bl	80023b0 <_ZNKSt5dequeIcSaIcEE5emptyEv>
 80021d0:	4603      	mov	r3, r0
 80021d2:	4618      	mov	r0, r3
 80021d4:	3708      	adds	r7, #8
 80021d6:	46bd      	mov	sp, r7
 80021d8:	bd80      	pop	{r7, pc}

080021da <_ZNSt5stackIcSt5dequeIcSaIcEEE3popEv>:
      pop()
 80021da:	b580      	push	{r7, lr}
 80021dc:	b082      	sub	sp, #8
 80021de:	af00      	add	r7, sp, #0
 80021e0:	6078      	str	r0, [r7, #4]
	c.pop_back();
 80021e2:	687b      	ldr	r3, [r7, #4]
 80021e4:	4618      	mov	r0, r3
 80021e6:	f000 f8f5 	bl	80023d4 <_ZNSt5dequeIcSaIcEE8pop_backEv>
      }
 80021ea:	bf00      	nop
 80021ec:	3708      	adds	r7, #8
 80021ee:	46bd      	mov	sp, r7
 80021f0:	bd80      	pop	{r7, pc}

080021f2 <_ZNKSt5stackIdSt5dequeIdSaIdEEE5emptyEv>:
      empty() const
 80021f2:	b580      	push	{r7, lr}
 80021f4:	b082      	sub	sp, #8
 80021f6:	af00      	add	r7, sp, #0
 80021f8:	6078      	str	r0, [r7, #4]
      { return c.empty(); }
 80021fa:	687b      	ldr	r3, [r7, #4]
 80021fc:	4618      	mov	r0, r3
 80021fe:	f000 f90b 	bl	8002418 <_ZNKSt5dequeIdSaIdEE5emptyEv>
 8002202:	4603      	mov	r3, r0
 8002204:	4618      	mov	r0, r3
 8002206:	3708      	adds	r7, #8
 8002208:	46bd      	mov	sp, r7
 800220a:	bd80      	pop	{r7, pc}

0800220c <_ZN9__gnu_cxxneIPcNSt7__cxx1112basic_stringIcSt11char_traitsIcESaIcEEEEEbRKNS_17__normal_iteratorIT_T0_EESD_>:
    { return __lhs.base() != __rhs.base(); }

  template<typename _Iterator, typename _Container>
    _GLIBCXX20_CONSTEXPR
    inline bool
    operator!=(const __normal_iterator<_Iterator, _Container>& __lhs,
 800220c:	b590      	push	{r4, r7, lr}
 800220e:	b083      	sub	sp, #12
 8002210:	af00      	add	r7, sp, #0
 8002212:	6078      	str	r0, [r7, #4]
 8002214:	6039      	str	r1, [r7, #0]
	       const __normal_iterator<_Iterator, _Container>& __rhs)
    _GLIBCXX_NOEXCEPT
    { return __lhs.base() != __rhs.base(); }
 8002216:	6878      	ldr	r0, [r7, #4]
 8002218:	f000 f910 	bl	800243c <_ZNK9__gnu_cxx17__normal_iteratorIPcNSt7__cxx1112basic_stringIcSt11char_traitsIcESaIcEEEE4baseEv>
 800221c:	4603      	mov	r3, r0
 800221e:	681c      	ldr	r4, [r3, #0]
 8002220:	6838      	ldr	r0, [r7, #0]
 8002222:	f000 f90b 	bl	800243c <_ZNK9__gnu_cxx17__normal_iteratorIPcNSt7__cxx1112basic_stringIcSt11char_traitsIcESaIcEEEE4baseEv>
 8002226:	4603      	mov	r3, r0
 8002228:	681b      	ldr	r3, [r3, #0]
 800222a:	429c      	cmp	r4, r3
 800222c:	bf14      	ite	ne
 800222e:	2301      	movne	r3, #1
 8002230:	2300      	moveq	r3, #0
 8002232:	b2db      	uxtb	r3, r3
 8002234:	4618      	mov	r0, r3
 8002236:	370c      	adds	r7, #12
 8002238:	46bd      	mov	sp, r7
 800223a:	bd90      	pop	{r4, r7, pc}

0800223c <_ZN9__gnu_cxx17__normal_iteratorIPcNSt7__cxx1112basic_stringIcSt11char_traitsIcESaIcEEEEppEv>:
      operator++() _GLIBCXX_NOEXCEPT
 800223c:	b480      	push	{r7}
 800223e:	b083      	sub	sp, #12
 8002240:	af00      	add	r7, sp, #0
 8002242:	6078      	str	r0, [r7, #4]
	++_M_current;
 8002244:	687b      	ldr	r3, [r7, #4]
 8002246:	681b      	ldr	r3, [r3, #0]
 8002248:	1c5a      	adds	r2, r3, #1
 800224a:	687b      	ldr	r3, [r7, #4]
 800224c:	601a      	str	r2, [r3, #0]
	return *this;
 800224e:	687b      	ldr	r3, [r7, #4]
      }
 8002250:	4618      	mov	r0, r3
 8002252:	370c      	adds	r7, #12
 8002254:	46bd      	mov	sp, r7
 8002256:	bc80      	pop	{r7}
 8002258:	4770      	bx	lr

0800225a <_ZNK9__gnu_cxx17__normal_iteratorIPcNSt7__cxx1112basic_stringIcSt11char_traitsIcESaIcEEEEdeEv>:
      operator*() const _GLIBCXX_NOEXCEPT
 800225a:	b480      	push	{r7}
 800225c:	b083      	sub	sp, #12
 800225e:	af00      	add	r7, sp, #0
 8002260:	6078      	str	r0, [r7, #4]
      { return *_M_current; }
 8002262:	687b      	ldr	r3, [r7, #4]
 8002264:	681b      	ldr	r3, [r3, #0]
 8002266:	4618      	mov	r0, r3
 8002268:	370c      	adds	r7, #12
 800226a:	46bd      	mov	sp, r7
 800226c:	bc80      	pop	{r7}
 800226e:	4770      	bx	lr

08002270 <_ZNSt5stackIdSt5dequeIdSaIdEEE4pushEOd>:
      push(value_type&& __x)
 8002270:	b590      	push	{r4, r7, lr}
 8002272:	b083      	sub	sp, #12
 8002274:	af00      	add	r7, sp, #0
 8002276:	6078      	str	r0, [r7, #4]
 8002278:	6039      	str	r1, [r7, #0]
      { c.push_back(std::move(__x)); }
 800227a:	687c      	ldr	r4, [r7, #4]
 800227c:	6838      	ldr	r0, [r7, #0]
 800227e:	f000 f8e7 	bl	8002450 <_ZSt4moveIRdEONSt16remove_referenceIT_E4typeEOS2_>
 8002282:	4603      	mov	r3, r0
 8002284:	4619      	mov	r1, r3
 8002286:	4620      	mov	r0, r4
 8002288:	f000 f8ec 	bl	8002464 <_ZNSt5dequeIdSaIdEE9push_backEOd>
 800228c:	bf00      	nop
 800228e:	370c      	adds	r7, #12
 8002290:	46bd      	mov	sp, r7
 8002292:	bd90      	pop	{r4, r7, pc}

08002294 <_ZNKSt5stackIdSt5dequeIdSaIdEEE4sizeEv>:
      size() const
 8002294:	b580      	push	{r7, lr}
 8002296:	b082      	sub	sp, #8
 8002298:	af00      	add	r7, sp, #0
 800229a:	6078      	str	r0, [r7, #4]
      { return c.size(); }
 800229c:	687b      	ldr	r3, [r7, #4]
 800229e:	4618      	mov	r0, r3
 80022a0:	f000 f8f1 	bl	8002486 <_ZNKSt5dequeIdSaIdEE4sizeEv>
 80022a4:	4603      	mov	r3, r0
 80022a6:	4618      	mov	r0, r3
 80022a8:	3708      	adds	r7, #8
 80022aa:	46bd      	mov	sp, r7
 80022ac:	bd80      	pop	{r7, pc}

080022ae <_ZNSt5stackIcSt5dequeIcSaIcEEE4pushERKc>:
      push(const value_type& __x)
 80022ae:	b580      	push	{r7, lr}
 80022b0:	b082      	sub	sp, #8
 80022b2:	af00      	add	r7, sp, #0
 80022b4:	6078      	str	r0, [r7, #4]
 80022b6:	6039      	str	r1, [r7, #0]
      { c.push_back(__x); }
 80022b8:	687b      	ldr	r3, [r7, #4]
 80022ba:	6839      	ldr	r1, [r7, #0]
 80022bc:	4618      	mov	r0, r3
 80022be:	f000 f8f4 	bl	80024aa <_ZNSt5dequeIcSaIcEE9push_backERKc>
 80022c2:	bf00      	nop
 80022c4:	3708      	adds	r7, #8
 80022c6:	46bd      	mov	sp, r7
 80022c8:	bd80      	pop	{r7, pc}

080022ca <_ZNSt5stackIcSt5dequeIcSaIcEEE3topEv>:
      top()
 80022ca:	b580      	push	{r7, lr}
 80022cc:	b082      	sub	sp, #8
 80022ce:	af00      	add	r7, sp, #0
 80022d0:	6078      	str	r0, [r7, #4]
	return c.back();
 80022d2:	687b      	ldr	r3, [r7, #4]
 80022d4:	4618      	mov	r0, r3
 80022d6:	f000 f909 	bl	80024ec <_ZNSt5dequeIcSaIcEE4backEv>
 80022da:	4603      	mov	r3, r0
      }
 80022dc:	4618      	mov	r0, r3
 80022de:	3708      	adds	r7, #8
 80022e0:	46bd      	mov	sp, r7
 80022e2:	bd80      	pop	{r7, pc}

080022e4 <_ZNSt7__cxx1112basic_stringIcSt11char_traitsIcESaIcEEC1IPcvEET_S7_RKS3_>:
        basic_string(_InputIterator __beg, _InputIterator __end,
 80022e4:	b590      	push	{r4, r7, lr}
 80022e6:	b085      	sub	sp, #20
 80022e8:	af00      	add	r7, sp, #0
 80022ea:	60f8      	str	r0, [r7, #12]
 80022ec:	60b9      	str	r1, [r7, #8]
 80022ee:	607a      	str	r2, [r7, #4]
 80022f0:	603b      	str	r3, [r7, #0]
	: _M_dataplus(_M_local_data(), __a)
 80022f2:	68fc      	ldr	r4, [r7, #12]
 80022f4:	68f8      	ldr	r0, [r7, #12]
 80022f6:	f005 fb34 	bl	8007962 <_ZNSt7__cxx1112basic_stringIcSt11char_traitsIcESaIcEE13_M_local_dataEv>
 80022fa:	4603      	mov	r3, r0
 80022fc:	683a      	ldr	r2, [r7, #0]
 80022fe:	4619      	mov	r1, r3
 8002300:	4620      	mov	r0, r4
 8002302:	f005 fd1b 	bl	8007d3c <_ZNSt7__cxx1112basic_stringIcSt11char_traitsIcESaIcEE12_Alloc_hiderC1EPcRKS3_>
	{ _M_construct(__beg, __end); }
 8002306:	687a      	ldr	r2, [r7, #4]
 8002308:	68b9      	ldr	r1, [r7, #8]
 800230a:	68f8      	ldr	r0, [r7, #12]
 800230c:	f000 f805 	bl	800231a <_ZNSt7__cxx1112basic_stringIcSt11char_traitsIcESaIcEE12_M_constructIPcEEvT_S7_>
 8002310:	68fb      	ldr	r3, [r7, #12]
 8002312:	4618      	mov	r0, r3
 8002314:	3714      	adds	r7, #20
 8002316:	46bd      	mov	sp, r7
 8002318:	bd90      	pop	{r4, r7, pc}

0800231a <_ZNSt7__cxx1112basic_stringIcSt11char_traitsIcESaIcEE12_M_constructIPcEEvT_S7_>:
        _M_construct(_InIterator __beg, _InIterator __end)
 800231a:	b580      	push	{r7, lr}
 800231c:	b084      	sub	sp, #16
 800231e:	af00      	add	r7, sp, #0
 8002320:	60f8      	str	r0, [r7, #12]
 8002322:	60b9      	str	r1, [r7, #8]
 8002324:	607a      	str	r2, [r7, #4]
	  _M_construct_aux(__beg, __end, _Integral());
 8002326:	687a      	ldr	r2, [r7, #4]
 8002328:	68b9      	ldr	r1, [r7, #8]
 800232a:	68f8      	ldr	r0, [r7, #12]
 800232c:	f000 f8f7 	bl	800251e <_ZNSt7__cxx1112basic_stringIcSt11char_traitsIcESaIcEE16_M_construct_auxIPcEEvT_S7_St12__false_type>
        }
 8002330:	bf00      	nop
 8002332:	3710      	adds	r7, #16
 8002334:	46bd      	mov	sp, r7
 8002336:	bd80      	pop	{r7, pc}

08002338 <_ZNSt5dequeIdSaIdEE4backEv>:
      /**
       *  Returns a read/write reference to the data at the last element of the
       *  %deque.
       */
      reference
      back() _GLIBCXX_NOEXCEPT
 8002338:	b580      	push	{r7, lr}
 800233a:	b086      	sub	sp, #24
 800233c:	af00      	add	r7, sp, #0
 800233e:	6078      	str	r0, [r7, #4]
      {
	__glibcxx_requires_nonempty();
	iterator __tmp = end();
 8002340:	f107 0308 	add.w	r3, r7, #8
 8002344:	6879      	ldr	r1, [r7, #4]
 8002346:	4618      	mov	r0, r3
 8002348:	f000 f8fa 	bl	8002540 <_ZNSt5dequeIdSaIdEE3endEv>
	--__tmp;
 800234c:	f107 0308 	add.w	r3, r7, #8
 8002350:	4618      	mov	r0, r3
 8002352:	f000 f91f 	bl	8002594 <_ZNSt15_Deque_iteratorIdRdPdEmmEv>
	return *__tmp;
 8002356:	f107 0308 	add.w	r3, r7, #8
 800235a:	4618      	mov	r0, r3
 800235c:	f000 f93a 	bl	80025d4 <_ZNKSt15_Deque_iteratorIdRdPdEdeEv>
 8002360:	4603      	mov	r3, r0
      }
 8002362:	4618      	mov	r0, r3
 8002364:	3718      	adds	r7, #24
 8002366:	46bd      	mov	sp, r7
 8002368:	bd80      	pop	{r7, pc}

0800236a <_ZNSt5dequeIdSaIdEE8pop_backEv>:
       *
       *  Note that no data is returned, and if the last element's data is
       *  needed, it should be retrieved before pop_back() is called.
       */
      void
      pop_back() _GLIBCXX_NOEXCEPT
 800236a:	b580      	push	{r7, lr}
 800236c:	b082      	sub	sp, #8
 800236e:	af00      	add	r7, sp, #0
 8002370:	6078      	str	r0, [r7, #4]
      {
	__glibcxx_requires_nonempty();
	if (this->_M_impl._M_finish._M_cur
 8002372:	687b      	ldr	r3, [r7, #4]
 8002374:	699a      	ldr	r2, [r3, #24]
	    != this->_M_impl._M_finish._M_first)
 8002376:	687b      	ldr	r3, [r7, #4]
 8002378:	69db      	ldr	r3, [r3, #28]
	if (this->_M_impl._M_finish._M_cur
 800237a:	429a      	cmp	r2, r3
 800237c:	d011      	beq.n	80023a2 <_ZNSt5dequeIdSaIdEE8pop_backEv+0x38>
	  {
	    --this->_M_impl._M_finish._M_cur;
 800237e:	687b      	ldr	r3, [r7, #4]
 8002380:	699b      	ldr	r3, [r3, #24]
 8002382:	f1a3 0208 	sub.w	r2, r3, #8
 8002386:	687b      	ldr	r3, [r7, #4]
 8002388:	619a      	str	r2, [r3, #24]
	    _Alloc_traits::destroy(_M_get_Tp_allocator(),
 800238a:	687b      	ldr	r3, [r7, #4]
 800238c:	4618      	mov	r0, r3
 800238e:	f000 f92c 	bl	80025ea <_ZNSt11_Deque_baseIdSaIdEE19_M_get_Tp_allocatorEv>
 8002392:	4602      	mov	r2, r0
 8002394:	687b      	ldr	r3, [r7, #4]
 8002396:	699b      	ldr	r3, [r3, #24]
 8002398:	4619      	mov	r1, r3
 800239a:	4610      	mov	r0, r2
 800239c:	f000 f92f 	bl	80025fe <_ZNSt16allocator_traitsISaIdEE7destroyIdEEvRS0_PT_>
				   this->_M_impl._M_finish._M_cur);
	  }
	else
	  _M_pop_back_aux();
      }
 80023a0:	e002      	b.n	80023a8 <_ZNSt5dequeIdSaIdEE8pop_backEv+0x3e>
	  _M_pop_back_aux();
 80023a2:	6878      	ldr	r0, [r7, #4]
 80023a4:	f000 f938 	bl	8002618 <_ZNSt5dequeIdSaIdEE15_M_pop_back_auxEv>
      }
 80023a8:	bf00      	nop
 80023aa:	3708      	adds	r7, #8
 80023ac:	46bd      	mov	sp, r7
 80023ae:	bd80      	pop	{r7, pc}

080023b0 <_ZNKSt5dequeIcSaIcEE5emptyEv>:
      empty() const _GLIBCXX_NOEXCEPT
 80023b0:	b580      	push	{r7, lr}
 80023b2:	b082      	sub	sp, #8
 80023b4:	af00      	add	r7, sp, #0
 80023b6:	6078      	str	r0, [r7, #4]
      { return this->_M_impl._M_finish == this->_M_impl._M_start; }
 80023b8:	687b      	ldr	r3, [r7, #4]
 80023ba:	f103 0218 	add.w	r2, r3, #24
 80023be:	687b      	ldr	r3, [r7, #4]
 80023c0:	3308      	adds	r3, #8
 80023c2:	4619      	mov	r1, r3
 80023c4:	4610      	mov	r0, r2
 80023c6:	f000 f951 	bl	800266c <_ZSteqRKSt15_Deque_iteratorIcRcPcES4_>
 80023ca:	4603      	mov	r3, r0
 80023cc:	4618      	mov	r0, r3
 80023ce:	3708      	adds	r7, #8
 80023d0:	46bd      	mov	sp, r7
 80023d2:	bd80      	pop	{r7, pc}

080023d4 <_ZNSt5dequeIcSaIcEE8pop_backEv>:
      pop_back() _GLIBCXX_NOEXCEPT
 80023d4:	b580      	push	{r7, lr}
 80023d6:	b082      	sub	sp, #8
 80023d8:	af00      	add	r7, sp, #0
 80023da:	6078      	str	r0, [r7, #4]
	if (this->_M_impl._M_finish._M_cur
 80023dc:	687b      	ldr	r3, [r7, #4]
 80023de:	699a      	ldr	r2, [r3, #24]
	    != this->_M_impl._M_finish._M_first)
 80023e0:	687b      	ldr	r3, [r7, #4]
 80023e2:	69db      	ldr	r3, [r3, #28]
	if (this->_M_impl._M_finish._M_cur
 80023e4:	429a      	cmp	r2, r3
 80023e6:	d010      	beq.n	800240a <_ZNSt5dequeIcSaIcEE8pop_backEv+0x36>
	    --this->_M_impl._M_finish._M_cur;
 80023e8:	687b      	ldr	r3, [r7, #4]
 80023ea:	699b      	ldr	r3, [r3, #24]
 80023ec:	1e5a      	subs	r2, r3, #1
 80023ee:	687b      	ldr	r3, [r7, #4]
 80023f0:	619a      	str	r2, [r3, #24]
	    _Alloc_traits::destroy(_M_get_Tp_allocator(),
 80023f2:	687b      	ldr	r3, [r7, #4]
 80023f4:	4618      	mov	r0, r3
 80023f6:	f000 f94c 	bl	8002692 <_ZNSt11_Deque_baseIcSaIcEE19_M_get_Tp_allocatorEv>
 80023fa:	4602      	mov	r2, r0
 80023fc:	687b      	ldr	r3, [r7, #4]
 80023fe:	699b      	ldr	r3, [r3, #24]
 8002400:	4619      	mov	r1, r3
 8002402:	4610      	mov	r0, r2
 8002404:	f000 f94f 	bl	80026a6 <_ZNSt16allocator_traitsISaIcEE7destroyIcEEvRS0_PT_>
      }
 8002408:	e002      	b.n	8002410 <_ZNSt5dequeIcSaIcEE8pop_backEv+0x3c>
	  _M_pop_back_aux();
 800240a:	6878      	ldr	r0, [r7, #4]
 800240c:	f000 f958 	bl	80026c0 <_ZNSt5dequeIcSaIcEE15_M_pop_back_auxEv>
      }
 8002410:	bf00      	nop
 8002412:	3708      	adds	r7, #8
 8002414:	46bd      	mov	sp, r7
 8002416:	bd80      	pop	{r7, pc}

08002418 <_ZNKSt5dequeIdSaIdEE5emptyEv>:
      empty() const _GLIBCXX_NOEXCEPT
 8002418:	b580      	push	{r7, lr}
 800241a:	b082      	sub	sp, #8
 800241c:	af00      	add	r7, sp, #0
 800241e:	6078      	str	r0, [r7, #4]
      { return this->_M_impl._M_finish == this->_M_impl._M_start; }
 8002420:	687b      	ldr	r3, [r7, #4]
 8002422:	f103 0218 	add.w	r2, r3, #24
 8002426:	687b      	ldr	r3, [r7, #4]
 8002428:	3308      	adds	r3, #8
 800242a:	4619      	mov	r1, r3
 800242c:	4610      	mov	r0, r2
 800242e:	f000 f970 	bl	8002712 <_ZSteqRKSt15_Deque_iteratorIdRdPdES4_>
 8002432:	4603      	mov	r3, r0
 8002434:	4618      	mov	r0, r3
 8002436:	3708      	adds	r7, #8
 8002438:	46bd      	mov	sp, r7
 800243a:	bd80      	pop	{r7, pc}

0800243c <_ZNK9__gnu_cxx17__normal_iteratorIPcNSt7__cxx1112basic_stringIcSt11char_traitsIcESaIcEEEE4baseEv>:
      base() const _GLIBCXX_NOEXCEPT
 800243c:	b480      	push	{r7}
 800243e:	b083      	sub	sp, #12
 8002440:	af00      	add	r7, sp, #0
 8002442:	6078      	str	r0, [r7, #4]
      { return _M_current; }
 8002444:	687b      	ldr	r3, [r7, #4]
 8002446:	4618      	mov	r0, r3
 8002448:	370c      	adds	r7, #12
 800244a:	46bd      	mov	sp, r7
 800244c:	bc80      	pop	{r7}
 800244e:	4770      	bx	lr

08002450 <_ZSt4moveIRdEONSt16remove_referenceIT_E4typeEOS2_>:
   *  @param  __t  A thing of arbitrary type.
   *  @return The parameter cast to an rvalue-reference to allow moving it.
  */
  template<typename _Tp>
    constexpr typename std::remove_reference<_Tp>::type&&
    move(_Tp&& __t) noexcept
 8002450:	b480      	push	{r7}
 8002452:	b083      	sub	sp, #12
 8002454:	af00      	add	r7, sp, #0
 8002456:	6078      	str	r0, [r7, #4]
    { return static_cast<typename std::remove_reference<_Tp>::type&&>(__t); }
 8002458:	687b      	ldr	r3, [r7, #4]
 800245a:	4618      	mov	r0, r3
 800245c:	370c      	adds	r7, #12
 800245e:	46bd      	mov	sp, r7
 8002460:	bc80      	pop	{r7}
 8002462:	4770      	bx	lr

08002464 <_ZNSt5dequeIdSaIdEE9push_backEOd>:
      push_back(value_type&& __x)
 8002464:	b580      	push	{r7, lr}
 8002466:	b082      	sub	sp, #8
 8002468:	af00      	add	r7, sp, #0
 800246a:	6078      	str	r0, [r7, #4]
 800246c:	6039      	str	r1, [r7, #0]
      { emplace_back(std::move(__x)); }
 800246e:	6838      	ldr	r0, [r7, #0]
 8002470:	f7ff ffee 	bl	8002450 <_ZSt4moveIRdEONSt16remove_referenceIT_E4typeEOS2_>
 8002474:	4603      	mov	r3, r0
 8002476:	4619      	mov	r1, r3
 8002478:	6878      	ldr	r0, [r7, #4]
 800247a:	f000 f95d 	bl	8002738 <_ZNSt5dequeIdSaIdEE12emplace_backIJdEEEvDpOT_>
 800247e:	bf00      	nop
 8002480:	3708      	adds	r7, #8
 8002482:	46bd      	mov	sp, r7
 8002484:	bd80      	pop	{r7, pc}

08002486 <_ZNKSt5dequeIdSaIdEE4sizeEv>:
      size() const _GLIBCXX_NOEXCEPT
 8002486:	b580      	push	{r7, lr}
 8002488:	b082      	sub	sp, #8
 800248a:	af00      	add	r7, sp, #0
 800248c:	6078      	str	r0, [r7, #4]
      { return this->_M_impl._M_finish - this->_M_impl._M_start; }
 800248e:	687b      	ldr	r3, [r7, #4]
 8002490:	f103 0218 	add.w	r2, r3, #24
 8002494:	687b      	ldr	r3, [r7, #4]
 8002496:	3308      	adds	r3, #8
 8002498:	4619      	mov	r1, r3
 800249a:	4610      	mov	r0, r2
 800249c:	f000 f977 	bl	800278e <_ZStmiRKSt15_Deque_iteratorIdRdPdES4_>
 80024a0:	4603      	mov	r3, r0
 80024a2:	4618      	mov	r0, r3
 80024a4:	3708      	adds	r7, #8
 80024a6:	46bd      	mov	sp, r7
 80024a8:	bd80      	pop	{r7, pc}

080024aa <_ZNSt5dequeIcSaIcEE9push_backERKc>:
      push_back(const value_type& __x)
 80024aa:	b580      	push	{r7, lr}
 80024ac:	b082      	sub	sp, #8
 80024ae:	af00      	add	r7, sp, #0
 80024b0:	6078      	str	r0, [r7, #4]
 80024b2:	6039      	str	r1, [r7, #0]
	if (this->_M_impl._M_finish._M_cur
 80024b4:	687b      	ldr	r3, [r7, #4]
 80024b6:	699a      	ldr	r2, [r3, #24]
	    != this->_M_impl._M_finish._M_last - 1)
 80024b8:	687b      	ldr	r3, [r7, #4]
 80024ba:	6a1b      	ldr	r3, [r3, #32]
 80024bc:	3b01      	subs	r3, #1
	if (this->_M_impl._M_finish._M_cur
 80024be:	429a      	cmp	r2, r3
 80024c0:	d00c      	beq.n	80024dc <_ZNSt5dequeIcSaIcEE9push_backERKc+0x32>
	    _Alloc_traits::construct(this->_M_impl,
 80024c2:	6878      	ldr	r0, [r7, #4]
 80024c4:	687b      	ldr	r3, [r7, #4]
 80024c6:	699b      	ldr	r3, [r3, #24]
 80024c8:	683a      	ldr	r2, [r7, #0]
 80024ca:	4619      	mov	r1, r3
 80024cc:	f000 f9a1 	bl	8002812 <_ZNSt16allocator_traitsISaIcEE9constructIcJRKcEEEvRS0_PT_DpOT0_>
	    ++this->_M_impl._M_finish._M_cur;
 80024d0:	687b      	ldr	r3, [r7, #4]
 80024d2:	699b      	ldr	r3, [r3, #24]
 80024d4:	1c5a      	adds	r2, r3, #1
 80024d6:	687b      	ldr	r3, [r7, #4]
 80024d8:	619a      	str	r2, [r3, #24]
      }
 80024da:	e003      	b.n	80024e4 <_ZNSt5dequeIcSaIcEE9push_backERKc+0x3a>
	  _M_push_back_aux(__x);
 80024dc:	6839      	ldr	r1, [r7, #0]
 80024de:	6878      	ldr	r0, [r7, #4]
 80024e0:	f000 f9aa 	bl	8002838 <_ZNSt5dequeIcSaIcEE16_M_push_back_auxIJRKcEEEvDpOT_>
      }
 80024e4:	bf00      	nop
 80024e6:	3708      	adds	r7, #8
 80024e8:	46bd      	mov	sp, r7
 80024ea:	bd80      	pop	{r7, pc}

080024ec <_ZNSt5dequeIcSaIcEE4backEv>:
      back() _GLIBCXX_NOEXCEPT
 80024ec:	b580      	push	{r7, lr}
 80024ee:	b086      	sub	sp, #24
 80024f0:	af00      	add	r7, sp, #0
 80024f2:	6078      	str	r0, [r7, #4]
	iterator __tmp = end();
 80024f4:	f107 0308 	add.w	r3, r7, #8
 80024f8:	6879      	ldr	r1, [r7, #4]
 80024fa:	4618      	mov	r0, r3
 80024fc:	f000 f9e0 	bl	80028c0 <_ZNSt5dequeIcSaIcEE3endEv>
	--__tmp;
 8002500:	f107 0308 	add.w	r3, r7, #8
 8002504:	4618      	mov	r0, r3
 8002506:	f000 fa05 	bl	8002914 <_ZNSt15_Deque_iteratorIcRcPcEmmEv>
	return *__tmp;
 800250a:	f107 0308 	add.w	r3, r7, #8
 800250e:	4618      	mov	r0, r3
 8002510:	f000 fa1f 	bl	8002952 <_ZNKSt15_Deque_iteratorIcRcPcEdeEv>
 8002514:	4603      	mov	r3, r0
      }
 8002516:	4618      	mov	r0, r3
 8002518:	3718      	adds	r7, #24
 800251a:	46bd      	mov	sp, r7
 800251c:	bd80      	pop	{r7, pc}

0800251e <_ZNSt7__cxx1112basic_stringIcSt11char_traitsIcESaIcEE16_M_construct_auxIPcEEvT_S7_St12__false_type>:
        _M_construct_aux(_InIterator __beg, _InIterator __end,
 800251e:	b590      	push	{r4, r7, lr}
 8002520:	b087      	sub	sp, #28
 8002522:	af00      	add	r7, sp, #0
 8002524:	60f8      	str	r0, [r7, #12]
 8002526:	60b9      	str	r1, [r7, #8]
 8002528:	607a      	str	r2, [r7, #4]
 800252a:	703b      	strb	r3, [r7, #0]
          _M_construct(__beg, __end, _Tag());
 800252c:	4623      	mov	r3, r4
 800252e:	687a      	ldr	r2, [r7, #4]
 8002530:	68b9      	ldr	r1, [r7, #8]
 8002532:	68f8      	ldr	r0, [r7, #12]
 8002534:	f000 fa18 	bl	8002968 <_ZNSt7__cxx1112basic_stringIcSt11char_traitsIcESaIcEE12_M_constructIPcEEvT_S7_St20forward_iterator_tag>
	}
 8002538:	bf00      	nop
 800253a:	371c      	adds	r7, #28
 800253c:	46bd      	mov	sp, r7
 800253e:	bd90      	pop	{r4, r7, pc}

08002540 <_ZNSt5dequeIdSaIdEE3endEv>:
      end() _GLIBCXX_NOEXCEPT
 8002540:	b580      	push	{r7, lr}
 8002542:	b082      	sub	sp, #8
 8002544:	af00      	add	r7, sp, #0
 8002546:	6078      	str	r0, [r7, #4]
 8002548:	6039      	str	r1, [r7, #0]
      { return this->_M_impl._M_finish; }
 800254a:	683b      	ldr	r3, [r7, #0]
 800254c:	3318      	adds	r3, #24
 800254e:	4619      	mov	r1, r3
 8002550:	6878      	ldr	r0, [r7, #4]
 8002552:	f000 f804 	bl	800255e <_ZNSt15_Deque_iteratorIdRdPdEC1ERKS2_>
 8002556:	6878      	ldr	r0, [r7, #4]
 8002558:	3708      	adds	r7, #8
 800255a:	46bd      	mov	sp, r7
 800255c:	bd80      	pop	{r7, pc}

0800255e <_ZNSt15_Deque_iteratorIdRdPdEC1ERKS2_>:
      _Deque_iterator(const _Deque_iterator& __x) noexcept
 800255e:	b480      	push	{r7}
 8002560:	b083      	sub	sp, #12
 8002562:	af00      	add	r7, sp, #0
 8002564:	6078      	str	r0, [r7, #4]
 8002566:	6039      	str	r1, [r7, #0]
       : _M_cur(__x._M_cur), _M_first(__x._M_first),
 8002568:	683b      	ldr	r3, [r7, #0]
 800256a:	681a      	ldr	r2, [r3, #0]
	 _M_last(__x._M_last), _M_node(__x._M_node) { }
 800256c:	687b      	ldr	r3, [r7, #4]
 800256e:	601a      	str	r2, [r3, #0]
       : _M_cur(__x._M_cur), _M_first(__x._M_first),
 8002570:	683b      	ldr	r3, [r7, #0]
 8002572:	685a      	ldr	r2, [r3, #4]
	 _M_last(__x._M_last), _M_node(__x._M_node) { }
 8002574:	687b      	ldr	r3, [r7, #4]
 8002576:	605a      	str	r2, [r3, #4]
 8002578:	683b      	ldr	r3, [r7, #0]
 800257a:	689a      	ldr	r2, [r3, #8]
 800257c:	687b      	ldr	r3, [r7, #4]
 800257e:	609a      	str	r2, [r3, #8]
 8002580:	683b      	ldr	r3, [r7, #0]
 8002582:	68da      	ldr	r2, [r3, #12]
 8002584:	687b      	ldr	r3, [r7, #4]
 8002586:	60da      	str	r2, [r3, #12]
 8002588:	687b      	ldr	r3, [r7, #4]
 800258a:	4618      	mov	r0, r3
 800258c:	370c      	adds	r7, #12
 800258e:	46bd      	mov	sp, r7
 8002590:	bc80      	pop	{r7}
 8002592:	4770      	bx	lr

08002594 <_ZNSt15_Deque_iteratorIdRdPdEmmEv>:
      operator--() _GLIBCXX_NOEXCEPT
 8002594:	b580      	push	{r7, lr}
 8002596:	b082      	sub	sp, #8
 8002598:	af00      	add	r7, sp, #0
 800259a:	6078      	str	r0, [r7, #4]
	if (_M_cur == _M_first)
 800259c:	687b      	ldr	r3, [r7, #4]
 800259e:	681a      	ldr	r2, [r3, #0]
 80025a0:	687b      	ldr	r3, [r7, #4]
 80025a2:	685b      	ldr	r3, [r3, #4]
 80025a4:	429a      	cmp	r2, r3
 80025a6:	d10a      	bne.n	80025be <_ZNSt15_Deque_iteratorIdRdPdEmmEv+0x2a>
	    _M_set_node(_M_node - 1);
 80025a8:	687b      	ldr	r3, [r7, #4]
 80025aa:	68db      	ldr	r3, [r3, #12]
 80025ac:	3b04      	subs	r3, #4
 80025ae:	4619      	mov	r1, r3
 80025b0:	6878      	ldr	r0, [r7, #4]
 80025b2:	f000 fa21 	bl	80029f8 <_ZNSt15_Deque_iteratorIdRdPdE11_M_set_nodeEPS1_>
	    _M_cur = _M_last;
 80025b6:	687b      	ldr	r3, [r7, #4]
 80025b8:	689a      	ldr	r2, [r3, #8]
 80025ba:	687b      	ldr	r3, [r7, #4]
 80025bc:	601a      	str	r2, [r3, #0]
	--_M_cur;
 80025be:	687b      	ldr	r3, [r7, #4]
 80025c0:	681b      	ldr	r3, [r3, #0]
 80025c2:	f1a3 0208 	sub.w	r2, r3, #8
 80025c6:	687b      	ldr	r3, [r7, #4]
 80025c8:	601a      	str	r2, [r3, #0]
	return *this;
 80025ca:	687b      	ldr	r3, [r7, #4]
      }
 80025cc:	4618      	mov	r0, r3
 80025ce:	3708      	adds	r7, #8
 80025d0:	46bd      	mov	sp, r7
 80025d2:	bd80      	pop	{r7, pc}

080025d4 <_ZNKSt15_Deque_iteratorIdRdPdEdeEv>:
      operator*() const _GLIBCXX_NOEXCEPT
 80025d4:	b480      	push	{r7}
 80025d6:	b083      	sub	sp, #12
 80025d8:	af00      	add	r7, sp, #0
 80025da:	6078      	str	r0, [r7, #4]
      { return *_M_cur; }
 80025dc:	687b      	ldr	r3, [r7, #4]
 80025de:	681b      	ldr	r3, [r3, #0]
 80025e0:	4618      	mov	r0, r3
 80025e2:	370c      	adds	r7, #12
 80025e4:	46bd      	mov	sp, r7
 80025e6:	bc80      	pop	{r7}
 80025e8:	4770      	bx	lr

080025ea <_ZNSt11_Deque_baseIdSaIdEE19_M_get_Tp_allocatorEv>:
      _M_get_Tp_allocator() _GLIBCXX_NOEXCEPT
 80025ea:	b480      	push	{r7}
 80025ec:	b083      	sub	sp, #12
 80025ee:	af00      	add	r7, sp, #0
 80025f0:	6078      	str	r0, [r7, #4]
      { return this->_M_impl; }
 80025f2:	687b      	ldr	r3, [r7, #4]
 80025f4:	4618      	mov	r0, r3
 80025f6:	370c      	adds	r7, #12
 80025f8:	46bd      	mov	sp, r7
 80025fa:	bc80      	pop	{r7}
 80025fc:	4770      	bx	lr

080025fe <_ZNSt16allocator_traitsISaIdEE7destroyIdEEvRS0_PT_>:
       *
       *  Calls @c __a.destroy(__p).
      */
      template<typename _Up>
	static _GLIBCXX20_CONSTEXPR void
	destroy(allocator_type& __a __attribute__((__unused__)), _Up* __p)
 80025fe:	b580      	push	{r7, lr}
 8002600:	b082      	sub	sp, #8
 8002602:	af00      	add	r7, sp, #0
 8002604:	6078      	str	r0, [r7, #4]
 8002606:	6039      	str	r1, [r7, #0]
	noexcept(is_nothrow_destructible<_Up>::value)
	{
#if __cplusplus <= 201703L
	  __a.destroy(__p);
 8002608:	6839      	ldr	r1, [r7, #0]
 800260a:	6878      	ldr	r0, [r7, #4]
 800260c:	f000 fa0d 	bl	8002a2a <_ZN9__gnu_cxx13new_allocatorIdE7destroyIdEEvPT_>
#else
	  std::destroy_at(__p);
#endif
	}
 8002610:	bf00      	nop
 8002612:	3708      	adds	r7, #8
 8002614:	46bd      	mov	sp, r7
 8002616:	bd80      	pop	{r7, pc}

08002618 <_ZNSt5dequeIdSaIdEE15_M_pop_back_auxEv>:
	  }
      }

  // Called only if _M_impl._M_finish._M_cur == _M_impl._M_finish._M_first.
  template <typename _Tp, typename _Alloc>
    void deque<_Tp, _Alloc>::
 8002618:	b580      	push	{r7, lr}
 800261a:	b082      	sub	sp, #8
 800261c:	af00      	add	r7, sp, #0
 800261e:	6078      	str	r0, [r7, #4]
    _M_pop_back_aux()
    {
      _M_deallocate_node(this->_M_impl._M_finish._M_first);
 8002620:	687a      	ldr	r2, [r7, #4]
 8002622:	687b      	ldr	r3, [r7, #4]
 8002624:	69db      	ldr	r3, [r3, #28]
 8002626:	4619      	mov	r1, r3
 8002628:	4610      	mov	r0, r2
 800262a:	f000 fa08 	bl	8002a3e <_ZNSt11_Deque_baseIdSaIdEE18_M_deallocate_nodeEPd>
      this->_M_impl._M_finish._M_set_node(this->_M_impl._M_finish._M_node - 1);
 800262e:	687b      	ldr	r3, [r7, #4]
 8002630:	f103 0218 	add.w	r2, r3, #24
 8002634:	687b      	ldr	r3, [r7, #4]
 8002636:	6a5b      	ldr	r3, [r3, #36]	; 0x24
 8002638:	3b04      	subs	r3, #4
 800263a:	4619      	mov	r1, r3
 800263c:	4610      	mov	r0, r2
 800263e:	f000 f9db 	bl	80029f8 <_ZNSt15_Deque_iteratorIdRdPdE11_M_set_nodeEPS1_>
      this->_M_impl._M_finish._M_cur = this->_M_impl._M_finish._M_last - 1;
 8002642:	687b      	ldr	r3, [r7, #4]
 8002644:	6a1b      	ldr	r3, [r3, #32]
 8002646:	f1a3 0208 	sub.w	r2, r3, #8
 800264a:	687b      	ldr	r3, [r7, #4]
 800264c:	619a      	str	r2, [r3, #24]
      _Alloc_traits::destroy(_M_get_Tp_allocator(),
 800264e:	687b      	ldr	r3, [r7, #4]
 8002650:	4618      	mov	r0, r3
 8002652:	f7ff ffca 	bl	80025ea <_ZNSt11_Deque_baseIdSaIdEE19_M_get_Tp_allocatorEv>
 8002656:	4602      	mov	r2, r0
 8002658:	687b      	ldr	r3, [r7, #4]
 800265a:	699b      	ldr	r3, [r3, #24]
 800265c:	4619      	mov	r1, r3
 800265e:	4610      	mov	r0, r2
 8002660:	f7ff ffcd 	bl	80025fe <_ZNSt16allocator_traitsISaIdEE7destroyIdEEvRS0_PT_>
			     this->_M_impl._M_finish._M_cur);
    }
 8002664:	bf00      	nop
 8002666:	3708      	adds	r7, #8
 8002668:	46bd      	mov	sp, r7
 800266a:	bd80      	pop	{r7, pc}

0800266c <_ZSteqRKSt15_Deque_iteratorIcRcPcES4_>:
      operator==(const _Self& __x, const _Self& __y) _GLIBCXX_NOEXCEPT
 800266c:	b480      	push	{r7}
 800266e:	b083      	sub	sp, #12
 8002670:	af00      	add	r7, sp, #0
 8002672:	6078      	str	r0, [r7, #4]
 8002674:	6039      	str	r1, [r7, #0]
      { return __x._M_cur == __y._M_cur; }
 8002676:	687b      	ldr	r3, [r7, #4]
 8002678:	681a      	ldr	r2, [r3, #0]
 800267a:	683b      	ldr	r3, [r7, #0]
 800267c:	681b      	ldr	r3, [r3, #0]
 800267e:	429a      	cmp	r2, r3
 8002680:	bf0c      	ite	eq
 8002682:	2301      	moveq	r3, #1
 8002684:	2300      	movne	r3, #0
 8002686:	b2db      	uxtb	r3, r3
 8002688:	4618      	mov	r0, r3
 800268a:	370c      	adds	r7, #12
 800268c:	46bd      	mov	sp, r7
 800268e:	bc80      	pop	{r7}
 8002690:	4770      	bx	lr

08002692 <_ZNSt11_Deque_baseIcSaIcEE19_M_get_Tp_allocatorEv>:
      _M_get_Tp_allocator() _GLIBCXX_NOEXCEPT
 8002692:	b480      	push	{r7}
 8002694:	b083      	sub	sp, #12
 8002696:	af00      	add	r7, sp, #0
 8002698:	6078      	str	r0, [r7, #4]
      { return this->_M_impl; }
 800269a:	687b      	ldr	r3, [r7, #4]
 800269c:	4618      	mov	r0, r3
 800269e:	370c      	adds	r7, #12
 80026a0:	46bd      	mov	sp, r7
 80026a2:	bc80      	pop	{r7}
 80026a4:	4770      	bx	lr

080026a6 <_ZNSt16allocator_traitsISaIcEE7destroyIcEEvRS0_PT_>:
	destroy(allocator_type& __a __attribute__((__unused__)), _Up* __p)
 80026a6:	b580      	push	{r7, lr}
 80026a8:	b082      	sub	sp, #8
 80026aa:	af00      	add	r7, sp, #0
 80026ac:	6078      	str	r0, [r7, #4]
 80026ae:	6039      	str	r1, [r7, #0]
	  __a.destroy(__p);
 80026b0:	6839      	ldr	r1, [r7, #0]
 80026b2:	6878      	ldr	r0, [r7, #4]
 80026b4:	f000 f9d6 	bl	8002a64 <_ZN9__gnu_cxx13new_allocatorIcE7destroyIcEEvPT_>
	}
 80026b8:	bf00      	nop
 80026ba:	3708      	adds	r7, #8
 80026bc:	46bd      	mov	sp, r7
 80026be:	bd80      	pop	{r7, pc}

080026c0 <_ZNSt5dequeIcSaIcEE15_M_pop_back_auxEv>:
    void deque<_Tp, _Alloc>::
 80026c0:	b580      	push	{r7, lr}
 80026c2:	b082      	sub	sp, #8
 80026c4:	af00      	add	r7, sp, #0
 80026c6:	6078      	str	r0, [r7, #4]
      _M_deallocate_node(this->_M_impl._M_finish._M_first);
 80026c8:	687a      	ldr	r2, [r7, #4]
 80026ca:	687b      	ldr	r3, [r7, #4]
 80026cc:	69db      	ldr	r3, [r3, #28]
 80026ce:	4619      	mov	r1, r3
 80026d0:	4610      	mov	r0, r2
 80026d2:	f000 f9d1 	bl	8002a78 <_ZNSt11_Deque_baseIcSaIcEE18_M_deallocate_nodeEPc>
      this->_M_impl._M_finish._M_set_node(this->_M_impl._M_finish._M_node - 1);
 80026d6:	687b      	ldr	r3, [r7, #4]
 80026d8:	f103 0218 	add.w	r2, r3, #24
 80026dc:	687b      	ldr	r3, [r7, #4]
 80026de:	6a5b      	ldr	r3, [r3, #36]	; 0x24
 80026e0:	3b04      	subs	r3, #4
 80026e2:	4619      	mov	r1, r3
 80026e4:	4610      	mov	r0, r2
 80026e6:	f000 f9da 	bl	8002a9e <_ZNSt15_Deque_iteratorIcRcPcE11_M_set_nodeEPS1_>
      this->_M_impl._M_finish._M_cur = this->_M_impl._M_finish._M_last - 1;
 80026ea:	687b      	ldr	r3, [r7, #4]
 80026ec:	6a1b      	ldr	r3, [r3, #32]
 80026ee:	1e5a      	subs	r2, r3, #1
 80026f0:	687b      	ldr	r3, [r7, #4]
 80026f2:	619a      	str	r2, [r3, #24]
      _Alloc_traits::destroy(_M_get_Tp_allocator(),
 80026f4:	687b      	ldr	r3, [r7, #4]
 80026f6:	4618      	mov	r0, r3
 80026f8:	f7ff ffcb 	bl	8002692 <_ZNSt11_Deque_baseIcSaIcEE19_M_get_Tp_allocatorEv>
 80026fc:	4602      	mov	r2, r0
 80026fe:	687b      	ldr	r3, [r7, #4]
 8002700:	699b      	ldr	r3, [r3, #24]
 8002702:	4619      	mov	r1, r3
 8002704:	4610      	mov	r0, r2
 8002706:	f7ff ffce 	bl	80026a6 <_ZNSt16allocator_traitsISaIcEE7destroyIcEEvRS0_PT_>
    }
 800270a:	bf00      	nop
 800270c:	3708      	adds	r7, #8
 800270e:	46bd      	mov	sp, r7
 8002710:	bd80      	pop	{r7, pc}

08002712 <_ZSteqRKSt15_Deque_iteratorIdRdPdES4_>:
      operator==(const _Self& __x, const _Self& __y) _GLIBCXX_NOEXCEPT
 8002712:	b480      	push	{r7}
 8002714:	b083      	sub	sp, #12
 8002716:	af00      	add	r7, sp, #0
 8002718:	6078      	str	r0, [r7, #4]
 800271a:	6039      	str	r1, [r7, #0]
      { return __x._M_cur == __y._M_cur; }
 800271c:	687b      	ldr	r3, [r7, #4]
 800271e:	681a      	ldr	r2, [r3, #0]
 8002720:	683b      	ldr	r3, [r7, #0]
 8002722:	681b      	ldr	r3, [r3, #0]
 8002724:	429a      	cmp	r2, r3
 8002726:	bf0c      	ite	eq
 8002728:	2301      	moveq	r3, #1
 800272a:	2300      	movne	r3, #0
 800272c:	b2db      	uxtb	r3, r3
 800272e:	4618      	mov	r0, r3
 8002730:	370c      	adds	r7, #12
 8002732:	46bd      	mov	sp, r7
 8002734:	bc80      	pop	{r7}
 8002736:	4770      	bx	lr

08002738 <_ZNSt5dequeIdSaIdEE12emplace_backIJdEEEvDpOT_>:
      deque<_Tp, _Alloc>::
 8002738:	b5b0      	push	{r4, r5, r7, lr}
 800273a:	b082      	sub	sp, #8
 800273c:	af00      	add	r7, sp, #0
 800273e:	6078      	str	r0, [r7, #4]
 8002740:	6039      	str	r1, [r7, #0]
	if (this->_M_impl._M_finish._M_cur
 8002742:	687b      	ldr	r3, [r7, #4]
 8002744:	699a      	ldr	r2, [r3, #24]
	    != this->_M_impl._M_finish._M_last - 1)
 8002746:	687b      	ldr	r3, [r7, #4]
 8002748:	6a1b      	ldr	r3, [r3, #32]
 800274a:	3b08      	subs	r3, #8
	if (this->_M_impl._M_finish._M_cur
 800274c:	429a      	cmp	r2, r3
 800274e:	d012      	beq.n	8002776 <_ZNSt5dequeIdSaIdEE12emplace_backIJdEEEvDpOT_+0x3e>
	    _Alloc_traits::construct(this->_M_impl,
 8002750:	687c      	ldr	r4, [r7, #4]
 8002752:	687b      	ldr	r3, [r7, #4]
 8002754:	699d      	ldr	r5, [r3, #24]
 8002756:	6838      	ldr	r0, [r7, #0]
 8002758:	f000 f9b9 	bl	8002ace <_ZSt7forwardIdEOT_RNSt16remove_referenceIS0_E4typeE>
 800275c:	4603      	mov	r3, r0
 800275e:	461a      	mov	r2, r3
 8002760:	4629      	mov	r1, r5
 8002762:	4620      	mov	r0, r4
 8002764:	f000 f9bd 	bl	8002ae2 <_ZNSt16allocator_traitsISaIdEE9constructIdJdEEEvRS0_PT_DpOT0_>
	    ++this->_M_impl._M_finish._M_cur;
 8002768:	687b      	ldr	r3, [r7, #4]
 800276a:	699b      	ldr	r3, [r3, #24]
 800276c:	f103 0208 	add.w	r2, r3, #8
 8002770:	687b      	ldr	r3, [r7, #4]
 8002772:	619a      	str	r2, [r3, #24]
      }
 8002774:	e007      	b.n	8002786 <_ZNSt5dequeIdSaIdEE12emplace_backIJdEEEvDpOT_+0x4e>
	  _M_push_back_aux(std::forward<_Args>(__args)...);
 8002776:	6838      	ldr	r0, [r7, #0]
 8002778:	f000 f9a9 	bl	8002ace <_ZSt7forwardIdEOT_RNSt16remove_referenceIS0_E4typeE>
 800277c:	4603      	mov	r3, r0
 800277e:	4619      	mov	r1, r3
 8002780:	6878      	ldr	r0, [r7, #4]
 8002782:	f000 f9c1 	bl	8002b08 <_ZNSt5dequeIdSaIdEE16_M_push_back_auxIJdEEEvDpOT_>
      }
 8002786:	bf00      	nop
 8002788:	3708      	adds	r7, #8
 800278a:	46bd      	mov	sp, r7
 800278c:	bdb0      	pop	{r4, r5, r7, pc}

0800278e <_ZStmiRKSt15_Deque_iteratorIdRdPdES4_>:
      operator-(const _Self& __x, const _Self& __y) _GLIBCXX_NOEXCEPT
 800278e:	b580      	push	{r7, lr}
 8002790:	b082      	sub	sp, #8
 8002792:	af00      	add	r7, sp, #0
 8002794:	6078      	str	r0, [r7, #4]
 8002796:	6039      	str	r1, [r7, #0]
	return difference_type(_S_buffer_size())
 8002798:	f000 f9fa 	bl	8002b90 <_ZNSt15_Deque_iteratorIdRdPdE14_S_buffer_sizeEv>
 800279c:	4603      	mov	r3, r0
 800279e:	4619      	mov	r1, r3
	  * (__x._M_node - __y._M_node - 1) + (__x._M_cur - __x._M_first)
 80027a0:	687b      	ldr	r3, [r7, #4]
 80027a2:	68da      	ldr	r2, [r3, #12]
 80027a4:	683b      	ldr	r3, [r7, #0]
 80027a6:	68db      	ldr	r3, [r3, #12]
 80027a8:	1ad3      	subs	r3, r2, r3
 80027aa:	109b      	asrs	r3, r3, #2
 80027ac:	3b01      	subs	r3, #1
 80027ae:	fb01 f303 	mul.w	r3, r1, r3
 80027b2:	687a      	ldr	r2, [r7, #4]
 80027b4:	6811      	ldr	r1, [r2, #0]
 80027b6:	687a      	ldr	r2, [r7, #4]
 80027b8:	6852      	ldr	r2, [r2, #4]
 80027ba:	1a8a      	subs	r2, r1, r2
 80027bc:	10d2      	asrs	r2, r2, #3
 80027be:	4413      	add	r3, r2
	  + (__y._M_last - __y._M_cur);
 80027c0:	683a      	ldr	r2, [r7, #0]
 80027c2:	6891      	ldr	r1, [r2, #8]
 80027c4:	683a      	ldr	r2, [r7, #0]
 80027c6:	6812      	ldr	r2, [r2, #0]
 80027c8:	1a8a      	subs	r2, r1, r2
 80027ca:	10d2      	asrs	r2, r2, #3
 80027cc:	4413      	add	r3, r2
      }
 80027ce:	4618      	mov	r0, r3
 80027d0:	3708      	adds	r7, #8
 80027d2:	46bd      	mov	sp, r7
 80027d4:	bd80      	pop	{r7, pc}

080027d6 <_ZNSt16allocator_traitsISaIcEE10deallocateERS0_Pcj>:
      deallocate(allocator_type& __a, pointer __p, size_type __n)
 80027d6:	b580      	push	{r7, lr}
 80027d8:	b084      	sub	sp, #16
 80027da:	af00      	add	r7, sp, #0
 80027dc:	60f8      	str	r0, [r7, #12]
 80027de:	60b9      	str	r1, [r7, #8]
 80027e0:	607a      	str	r2, [r7, #4]
      { __a.deallocate(__p, __n); }
 80027e2:	687a      	ldr	r2, [r7, #4]
 80027e4:	68b9      	ldr	r1, [r7, #8]
 80027e6:	68f8      	ldr	r0, [r7, #12]
 80027e8:	f000 f9da 	bl	8002ba0 <_ZN9__gnu_cxx13new_allocatorIcE10deallocateEPcj>
 80027ec:	bf00      	nop
 80027ee:	3710      	adds	r7, #16
 80027f0:	46bd      	mov	sp, r7
 80027f2:	bd80      	pop	{r7, pc}

080027f4 <_ZNSt16allocator_traitsISaIcEE8allocateERS0_j>:
      allocate(allocator_type& __a, size_type __n)
 80027f4:	b580      	push	{r7, lr}
 80027f6:	b082      	sub	sp, #8
 80027f8:	af00      	add	r7, sp, #0
 80027fa:	6078      	str	r0, [r7, #4]
 80027fc:	6039      	str	r1, [r7, #0]
      { return __a.allocate(__n); }
 80027fe:	2200      	movs	r2, #0
 8002800:	6839      	ldr	r1, [r7, #0]
 8002802:	6878      	ldr	r0, [r7, #4]
 8002804:	f000 f9da 	bl	8002bbc <_ZN9__gnu_cxx13new_allocatorIcE8allocateEjPKv>
 8002808:	4603      	mov	r3, r0
 800280a:	4618      	mov	r0, r3
 800280c:	3708      	adds	r7, #8
 800280e:	46bd      	mov	sp, r7
 8002810:	bd80      	pop	{r7, pc}

08002812 <_ZNSt16allocator_traitsISaIcEE9constructIcJRKcEEEvRS0_PT_DpOT0_>:
	construct(allocator_type& __a __attribute__((__unused__)), _Up* __p,
 8002812:	b580      	push	{r7, lr}
 8002814:	b084      	sub	sp, #16
 8002816:	af00      	add	r7, sp, #0
 8002818:	60f8      	str	r0, [r7, #12]
 800281a:	60b9      	str	r1, [r7, #8]
 800281c:	607a      	str	r2, [r7, #4]
	  __a.construct(__p, std::forward<_Args>(__args)...);
 800281e:	6878      	ldr	r0, [r7, #4]
 8002820:	f000 f9e8 	bl	8002bf4 <_ZSt7forwardIRKcEOT_RNSt16remove_referenceIS2_E4typeE>
 8002824:	4603      	mov	r3, r0
 8002826:	461a      	mov	r2, r3
 8002828:	68b9      	ldr	r1, [r7, #8]
 800282a:	68f8      	ldr	r0, [r7, #12]
 800282c:	f000 f9ec 	bl	8002c08 <_ZN9__gnu_cxx13new_allocatorIcE9constructIcJRKcEEEvPT_DpOT0_>
	}
 8002830:	bf00      	nop
 8002832:	3710      	adds	r7, #16
 8002834:	46bd      	mov	sp, r7
 8002836:	bd80      	pop	{r7, pc}

08002838 <_ZNSt5dequeIcSaIcEE16_M_push_back_auxIJRKcEEEvDpOT_>:
      deque<_Tp, _Alloc>::
 8002838:	b5b0      	push	{r4, r5, r7, lr}
 800283a:	b082      	sub	sp, #8
 800283c:	af00      	add	r7, sp, #0
 800283e:	6078      	str	r0, [r7, #4]
 8002840:	6039      	str	r1, [r7, #0]
	if (size() == max_size())
 8002842:	6878      	ldr	r0, [r7, #4]
 8002844:	f000 f9f7 	bl	8002c36 <_ZNKSt5dequeIcSaIcEE4sizeEv>
 8002848:	4604      	mov	r4, r0
 800284a:	6878      	ldr	r0, [r7, #4]
 800284c:	f000 fa05 	bl	8002c5a <_ZNKSt5dequeIcSaIcEE8max_sizeEv>
 8002850:	4603      	mov	r3, r0
 8002852:	429c      	cmp	r4, r3
 8002854:	bf0c      	ite	eq
 8002856:	2301      	moveq	r3, #1
 8002858:	2300      	movne	r3, #0
 800285a:	b2db      	uxtb	r3, r3
 800285c:	2b00      	cmp	r3, #0
 800285e:	d002      	beq.n	8002866 <_ZNSt5dequeIcSaIcEE16_M_push_back_auxIJRKcEEEvDpOT_+0x2e>
	  __throw_length_error(
 8002860:	4816      	ldr	r0, [pc, #88]	; (80028bc <_ZNSt5dequeIcSaIcEE16_M_push_back_auxIJRKcEEEvDpOT_+0x84>)
 8002862:	f004 ffb9 	bl	80077d8 <_ZSt20__throw_length_errorPKc>
	_M_reserve_map_at_back();
 8002866:	2101      	movs	r1, #1
 8002868:	6878      	ldr	r0, [r7, #4]
 800286a:	f000 fa07 	bl	8002c7c <_ZNSt5dequeIcSaIcEE22_M_reserve_map_at_backEj>
	*(this->_M_impl._M_finish._M_node + 1) = this->_M_allocate_node();
 800286e:	687a      	ldr	r2, [r7, #4]
 8002870:	687b      	ldr	r3, [r7, #4]
 8002872:	6a5b      	ldr	r3, [r3, #36]	; 0x24
 8002874:	1d1c      	adds	r4, r3, #4
 8002876:	4610      	mov	r0, r2
 8002878:	f000 fa1b 	bl	8002cb2 <_ZNSt11_Deque_baseIcSaIcEE16_M_allocate_nodeEv>
 800287c:	4603      	mov	r3, r0
 800287e:	6023      	str	r3, [r4, #0]
	    _Alloc_traits::construct(this->_M_impl,
 8002880:	687c      	ldr	r4, [r7, #4]
 8002882:	687b      	ldr	r3, [r7, #4]
 8002884:	699d      	ldr	r5, [r3, #24]
 8002886:	6838      	ldr	r0, [r7, #0]
 8002888:	f000 f9b4 	bl	8002bf4 <_ZSt7forwardIRKcEOT_RNSt16remove_referenceIS2_E4typeE>
 800288c:	4603      	mov	r3, r0
 800288e:	461a      	mov	r2, r3
 8002890:	4629      	mov	r1, r5
 8002892:	4620      	mov	r0, r4
 8002894:	f7ff ffbd 	bl	8002812 <_ZNSt16allocator_traitsISaIcEE9constructIcJRKcEEEvRS0_PT_DpOT0_>
	    this->_M_impl._M_finish._M_set_node(this->_M_impl._M_finish._M_node
 8002898:	687b      	ldr	r3, [r7, #4]
 800289a:	f103 0218 	add.w	r2, r3, #24
 800289e:	687b      	ldr	r3, [r7, #4]
 80028a0:	6a5b      	ldr	r3, [r3, #36]	; 0x24
 80028a2:	3304      	adds	r3, #4
 80028a4:	4619      	mov	r1, r3
 80028a6:	4610      	mov	r0, r2
 80028a8:	f000 f8f9 	bl	8002a9e <_ZNSt15_Deque_iteratorIcRcPcE11_M_set_nodeEPS1_>
	    this->_M_impl._M_finish._M_cur = this->_M_impl._M_finish._M_first;
 80028ac:	687b      	ldr	r3, [r7, #4]
 80028ae:	69da      	ldr	r2, [r3, #28]
 80028b0:	687b      	ldr	r3, [r7, #4]
 80028b2:	619a      	str	r2, [r3, #24]
      }
 80028b4:	bf00      	nop
 80028b6:	3708      	adds	r7, #8
 80028b8:	46bd      	mov	sp, r7
 80028ba:	bdb0      	pop	{r4, r5, r7, pc}
 80028bc:	0800afb0 	.word	0x0800afb0

080028c0 <_ZNSt5dequeIcSaIcEE3endEv>:
      end() _GLIBCXX_NOEXCEPT
 80028c0:	b580      	push	{r7, lr}
 80028c2:	b082      	sub	sp, #8
 80028c4:	af00      	add	r7, sp, #0
 80028c6:	6078      	str	r0, [r7, #4]
 80028c8:	6039      	str	r1, [r7, #0]
      { return this->_M_impl._M_finish; }
 80028ca:	683b      	ldr	r3, [r7, #0]
 80028cc:	3318      	adds	r3, #24
 80028ce:	4619      	mov	r1, r3
 80028d0:	6878      	ldr	r0, [r7, #4]
 80028d2:	f000 f804 	bl	80028de <_ZNSt15_Deque_iteratorIcRcPcEC1ERKS2_>
 80028d6:	6878      	ldr	r0, [r7, #4]
 80028d8:	3708      	adds	r7, #8
 80028da:	46bd      	mov	sp, r7
 80028dc:	bd80      	pop	{r7, pc}

080028de <_ZNSt15_Deque_iteratorIcRcPcEC1ERKS2_>:
      _Deque_iterator(const _Deque_iterator& __x) noexcept
 80028de:	b480      	push	{r7}
 80028e0:	b083      	sub	sp, #12
 80028e2:	af00      	add	r7, sp, #0
 80028e4:	6078      	str	r0, [r7, #4]
 80028e6:	6039      	str	r1, [r7, #0]
       : _M_cur(__x._M_cur), _M_first(__x._M_first),
 80028e8:	683b      	ldr	r3, [r7, #0]
 80028ea:	681a      	ldr	r2, [r3, #0]
	 _M_last(__x._M_last), _M_node(__x._M_node) { }
 80028ec:	687b      	ldr	r3, [r7, #4]
 80028ee:	601a      	str	r2, [r3, #0]
       : _M_cur(__x._M_cur), _M_first(__x._M_first),
 80028f0:	683b      	ldr	r3, [r7, #0]
 80028f2:	685a      	ldr	r2, [r3, #4]
	 _M_last(__x._M_last), _M_node(__x._M_node) { }
 80028f4:	687b      	ldr	r3, [r7, #4]
 80028f6:	605a      	str	r2, [r3, #4]
 80028f8:	683b      	ldr	r3, [r7, #0]
 80028fa:	689a      	ldr	r2, [r3, #8]
 80028fc:	687b      	ldr	r3, [r7, #4]
 80028fe:	609a      	str	r2, [r3, #8]
 8002900:	683b      	ldr	r3, [r7, #0]
 8002902:	68da      	ldr	r2, [r3, #12]
 8002904:	687b      	ldr	r3, [r7, #4]
 8002906:	60da      	str	r2, [r3, #12]
 8002908:	687b      	ldr	r3, [r7, #4]
 800290a:	4618      	mov	r0, r3
 800290c:	370c      	adds	r7, #12
 800290e:	46bd      	mov	sp, r7
 8002910:	bc80      	pop	{r7}
 8002912:	4770      	bx	lr

08002914 <_ZNSt15_Deque_iteratorIcRcPcEmmEv>:
      operator--() _GLIBCXX_NOEXCEPT
 8002914:	b580      	push	{r7, lr}
 8002916:	b082      	sub	sp, #8
 8002918:	af00      	add	r7, sp, #0
 800291a:	6078      	str	r0, [r7, #4]
	if (_M_cur == _M_first)
 800291c:	687b      	ldr	r3, [r7, #4]
 800291e:	681a      	ldr	r2, [r3, #0]
 8002920:	687b      	ldr	r3, [r7, #4]
 8002922:	685b      	ldr	r3, [r3, #4]
 8002924:	429a      	cmp	r2, r3
 8002926:	d10a      	bne.n	800293e <_ZNSt15_Deque_iteratorIcRcPcEmmEv+0x2a>
	    _M_set_node(_M_node - 1);
 8002928:	687b      	ldr	r3, [r7, #4]
 800292a:	68db      	ldr	r3, [r3, #12]
 800292c:	3b04      	subs	r3, #4
 800292e:	4619      	mov	r1, r3
 8002930:	6878      	ldr	r0, [r7, #4]
 8002932:	f000 f8b4 	bl	8002a9e <_ZNSt15_Deque_iteratorIcRcPcE11_M_set_nodeEPS1_>
	    _M_cur = _M_last;
 8002936:	687b      	ldr	r3, [r7, #4]
 8002938:	689a      	ldr	r2, [r3, #8]
 800293a:	687b      	ldr	r3, [r7, #4]
 800293c:	601a      	str	r2, [r3, #0]
	--_M_cur;
 800293e:	687b      	ldr	r3, [r7, #4]
 8002940:	681b      	ldr	r3, [r3, #0]
 8002942:	1e5a      	subs	r2, r3, #1
 8002944:	687b      	ldr	r3, [r7, #4]
 8002946:	601a      	str	r2, [r3, #0]
	return *this;
 8002948:	687b      	ldr	r3, [r7, #4]
      }
 800294a:	4618      	mov	r0, r3
 800294c:	3708      	adds	r7, #8
 800294e:	46bd      	mov	sp, r7
 8002950:	bd80      	pop	{r7, pc}

08002952 <_ZNKSt15_Deque_iteratorIcRcPcEdeEv>:
      operator*() const _GLIBCXX_NOEXCEPT
 8002952:	b480      	push	{r7}
 8002954:	b083      	sub	sp, #12
 8002956:	af00      	add	r7, sp, #0
 8002958:	6078      	str	r0, [r7, #4]
      { return *_M_cur; }
 800295a:	687b      	ldr	r3, [r7, #4]
 800295c:	681b      	ldr	r3, [r3, #0]
 800295e:	4618      	mov	r0, r3
 8002960:	370c      	adds	r7, #12
 8002962:	46bd      	mov	sp, r7
 8002964:	bc80      	pop	{r7}
 8002966:	4770      	bx	lr

08002968 <_ZNSt7__cxx1112basic_stringIcSt11char_traitsIcESaIcEE12_M_constructIPcEEvT_S7_St20forward_iterator_tag>:
      }

  template<typename _CharT, typename _Traits, typename _Alloc>
    template<typename _InIterator>
      void
      basic_string<_CharT, _Traits, _Alloc>::
 8002968:	b580      	push	{r7, lr}
 800296a:	b086      	sub	sp, #24
 800296c:	af00      	add	r7, sp, #0
 800296e:	60f8      	str	r0, [r7, #12]
 8002970:	60b9      	str	r1, [r7, #8]
 8002972:	607a      	str	r2, [r7, #4]
 8002974:	703b      	strb	r3, [r7, #0]
      _M_construct(_InIterator __beg, _InIterator __end,
		   std::forward_iterator_tag)
      {
	// NB: Not required, but considered best practice.
	if (__gnu_cxx::__is_null_pointer(__beg) && __beg != __end)
 8002976:	68b8      	ldr	r0, [r7, #8]
 8002978:	f000 f9ad 	bl	8002cd6 <_ZN9__gnu_cxx17__is_null_pointerIcEEbPT_>
 800297c:	4603      	mov	r3, r0
 800297e:	2b00      	cmp	r3, #0
 8002980:	d005      	beq.n	800298e <_ZNSt7__cxx1112basic_stringIcSt11char_traitsIcESaIcEE12_M_constructIPcEEvT_S7_St20forward_iterator_tag+0x26>
 8002982:	68ba      	ldr	r2, [r7, #8]
 8002984:	687b      	ldr	r3, [r7, #4]
 8002986:	429a      	cmp	r2, r3
 8002988:	d001      	beq.n	800298e <_ZNSt7__cxx1112basic_stringIcSt11char_traitsIcESaIcEE12_M_constructIPcEEvT_S7_St20forward_iterator_tag+0x26>
 800298a:	2301      	movs	r3, #1
 800298c:	e000      	b.n	8002990 <_ZNSt7__cxx1112basic_stringIcSt11char_traitsIcESaIcEE12_M_constructIPcEEvT_S7_St20forward_iterator_tag+0x28>
 800298e:	2300      	movs	r3, #0
 8002990:	2b00      	cmp	r3, #0
 8002992:	d002      	beq.n	800299a <_ZNSt7__cxx1112basic_stringIcSt11char_traitsIcESaIcEE12_M_constructIPcEEvT_S7_St20forward_iterator_tag+0x32>
	  std::__throw_logic_error(__N("basic_string::"
 8002994:	4817      	ldr	r0, [pc, #92]	; (80029f4 <_ZNSt7__cxx1112basic_stringIcSt11char_traitsIcESaIcEE12_M_constructIPcEEvT_S7_St20forward_iterator_tag+0x8c>)
 8002996:	f004 ff19 	bl	80077cc <_ZSt19__throw_logic_errorPKc>
				       "_M_construct null not valid"));

	size_type __dnew = static_cast<size_type>(std::distance(__beg, __end));
 800299a:	6879      	ldr	r1, [r7, #4]
 800299c:	68b8      	ldr	r0, [r7, #8]
 800299e:	f000 f9a9 	bl	8002cf4 <_ZSt8distanceIPcENSt15iterator_traitsIT_E15difference_typeES2_S2_>
 80029a2:	4603      	mov	r3, r0
 80029a4:	617b      	str	r3, [r7, #20]

	if (__dnew > size_type(_S_local_capacity))
 80029a6:	697b      	ldr	r3, [r7, #20]
 80029a8:	2b0f      	cmp	r3, #15
 80029aa:	d910      	bls.n	80029ce <_ZNSt7__cxx1112basic_stringIcSt11char_traitsIcESaIcEE12_M_constructIPcEEvT_S7_St20forward_iterator_tag+0x66>
	  {
	    _M_data(_M_create(__dnew, size_type(0)));
 80029ac:	f107 0314 	add.w	r3, r7, #20
 80029b0:	2200      	movs	r2, #0
 80029b2:	4619      	mov	r1, r3
 80029b4:	68f8      	ldr	r0, [r7, #12]
 80029b6:	f004 ffdd 	bl	8007974 <_ZNSt7__cxx1112basic_stringIcSt11char_traitsIcESaIcEE9_M_createERjj>
 80029ba:	4603      	mov	r3, r0
 80029bc:	4619      	mov	r1, r3
 80029be:	68f8      	ldr	r0, [r7, #12]
 80029c0:	f004 ffcb 	bl	800795a <_ZNSt7__cxx1112basic_stringIcSt11char_traitsIcESaIcEE7_M_dataEPc>
	    _M_capacity(__dnew);
 80029c4:	697b      	ldr	r3, [r7, #20]
 80029c6:	4619      	mov	r1, r3
 80029c8:	68f8      	ldr	r0, [r7, #12]
 80029ca:	f004 ffcc 	bl	8007966 <_ZNSt7__cxx1112basic_stringIcSt11char_traitsIcESaIcEE11_M_capacityEj>
	  }

	// Check for out_of_range and length_error exceptions.
	__try
	  { this->_S_copy_chars(_M_data(), __beg, __end); }
 80029ce:	68f8      	ldr	r0, [r7, #12]
 80029d0:	f004 ffc5 	bl	800795e <_ZNKSt7__cxx1112basic_stringIcSt11char_traitsIcESaIcEE7_M_dataEv>
 80029d4:	4603      	mov	r3, r0
 80029d6:	687a      	ldr	r2, [r7, #4]
 80029d8:	68b9      	ldr	r1, [r7, #8]
 80029da:	4618      	mov	r0, r3
 80029dc:	f005 f830 	bl	8007a40 <_ZNSt7__cxx1112basic_stringIcSt11char_traitsIcESaIcEE13_S_copy_charsEPcS5_S5_>
	  {
	    _M_dispose();
	    __throw_exception_again;
	  }

	_M_set_length(__dnew);
 80029e0:	697b      	ldr	r3, [r7, #20]
 80029e2:	4619      	mov	r1, r3
 80029e4:	68f8      	ldr	r0, [r7, #12]
 80029e6:	f004 ffc0 	bl	800796a <_ZNSt7__cxx1112basic_stringIcSt11char_traitsIcESaIcEE13_M_set_lengthEj>
      }
 80029ea:	bf00      	nop
 80029ec:	3718      	adds	r7, #24
 80029ee:	46bd      	mov	sp, r7
 80029f0:	bd80      	pop	{r7, pc}
 80029f2:	bf00      	nop
 80029f4:	0800afe0 	.word	0x0800afe0

080029f8 <_ZNSt15_Deque_iteratorIdRdPdE11_M_set_nodeEPS1_>:
      _M_set_node(_Map_pointer __new_node) _GLIBCXX_NOEXCEPT
 80029f8:	b590      	push	{r4, r7, lr}
 80029fa:	b083      	sub	sp, #12
 80029fc:	af00      	add	r7, sp, #0
 80029fe:	6078      	str	r0, [r7, #4]
 8002a00:	6039      	str	r1, [r7, #0]
	_M_node = __new_node;
 8002a02:	687b      	ldr	r3, [r7, #4]
 8002a04:	683a      	ldr	r2, [r7, #0]
 8002a06:	60da      	str	r2, [r3, #12]
	_M_first = *__new_node;
 8002a08:	683b      	ldr	r3, [r7, #0]
 8002a0a:	681a      	ldr	r2, [r3, #0]
 8002a0c:	687b      	ldr	r3, [r7, #4]
 8002a0e:	605a      	str	r2, [r3, #4]
	_M_last = _M_first + difference_type(_S_buffer_size());
 8002a10:	687b      	ldr	r3, [r7, #4]
 8002a12:	685c      	ldr	r4, [r3, #4]
 8002a14:	f000 f8bc 	bl	8002b90 <_ZNSt15_Deque_iteratorIdRdPdE14_S_buffer_sizeEv>
 8002a18:	4603      	mov	r3, r0
 8002a1a:	00db      	lsls	r3, r3, #3
 8002a1c:	18e2      	adds	r2, r4, r3
 8002a1e:	687b      	ldr	r3, [r7, #4]
 8002a20:	609a      	str	r2, [r3, #8]
      }
 8002a22:	bf00      	nop
 8002a24:	370c      	adds	r7, #12
 8002a26:	46bd      	mov	sp, r7
 8002a28:	bd90      	pop	{r4, r7, pc}

08002a2a <_ZN9__gnu_cxx13new_allocatorIdE7destroyIdEEvPT_>:
	noexcept(std::is_nothrow_constructible<_Up, _Args...>::value)
	{ ::new((void *)__p) _Up(std::forward<_Args>(__args)...); }

      template<typename _Up>
	void
	destroy(_Up* __p)
 8002a2a:	b480      	push	{r7}
 8002a2c:	b083      	sub	sp, #12
 8002a2e:	af00      	add	r7, sp, #0
 8002a30:	6078      	str	r0, [r7, #4]
 8002a32:	6039      	str	r1, [r7, #0]
	noexcept(std::is_nothrow_destructible<_Up>::value)
	{ __p->~_Up(); }
 8002a34:	bf00      	nop
 8002a36:	370c      	adds	r7, #12
 8002a38:	46bd      	mov	sp, r7
 8002a3a:	bc80      	pop	{r7}
 8002a3c:	4770      	bx	lr

08002a3e <_ZNSt11_Deque_baseIdSaIdEE18_M_deallocate_nodeEPd>:
      _M_deallocate_node(_Ptr __p) _GLIBCXX_NOEXCEPT
 8002a3e:	b590      	push	{r4, r7, lr}
 8002a40:	b083      	sub	sp, #12
 8002a42:	af00      	add	r7, sp, #0
 8002a44:	6078      	str	r0, [r7, #4]
 8002a46:	6039      	str	r1, [r7, #0]
	_Traits::deallocate(_M_impl, __p, __deque_buf_size(sizeof(_Tp)));
 8002a48:	687c      	ldr	r4, [r7, #4]
 8002a4a:	2008      	movs	r0, #8
 8002a4c:	f7fe ffcf 	bl	80019ee <_ZSt16__deque_buf_sizej>
 8002a50:	4603      	mov	r3, r0
 8002a52:	461a      	mov	r2, r3
 8002a54:	6839      	ldr	r1, [r7, #0]
 8002a56:	4620      	mov	r0, r4
 8002a58:	f000 f960 	bl	8002d1c <_ZNSt16allocator_traitsISaIdEE10deallocateERS0_Pdj>
      }
 8002a5c:	bf00      	nop
 8002a5e:	370c      	adds	r7, #12
 8002a60:	46bd      	mov	sp, r7
 8002a62:	bd90      	pop	{r4, r7, pc}

08002a64 <_ZN9__gnu_cxx13new_allocatorIcE7destroyIcEEvPT_>:
	destroy(_Up* __p)
 8002a64:	b480      	push	{r7}
 8002a66:	b083      	sub	sp, #12
 8002a68:	af00      	add	r7, sp, #0
 8002a6a:	6078      	str	r0, [r7, #4]
 8002a6c:	6039      	str	r1, [r7, #0]
	{ __p->~_Up(); }
 8002a6e:	bf00      	nop
 8002a70:	370c      	adds	r7, #12
 8002a72:	46bd      	mov	sp, r7
 8002a74:	bc80      	pop	{r7}
 8002a76:	4770      	bx	lr

08002a78 <_ZNSt11_Deque_baseIcSaIcEE18_M_deallocate_nodeEPc>:
      _M_deallocate_node(_Ptr __p) _GLIBCXX_NOEXCEPT
 8002a78:	b590      	push	{r4, r7, lr}
 8002a7a:	b083      	sub	sp, #12
 8002a7c:	af00      	add	r7, sp, #0
 8002a7e:	6078      	str	r0, [r7, #4]
 8002a80:	6039      	str	r1, [r7, #0]
	_Traits::deallocate(_M_impl, __p, __deque_buf_size(sizeof(_Tp)));
 8002a82:	687c      	ldr	r4, [r7, #4]
 8002a84:	2001      	movs	r0, #1
 8002a86:	f7fe ffb2 	bl	80019ee <_ZSt16__deque_buf_sizej>
 8002a8a:	4603      	mov	r3, r0
 8002a8c:	461a      	mov	r2, r3
 8002a8e:	6839      	ldr	r1, [r7, #0]
 8002a90:	4620      	mov	r0, r4
 8002a92:	f7ff fea0 	bl	80027d6 <_ZNSt16allocator_traitsISaIcEE10deallocateERS0_Pcj>
      }
 8002a96:	bf00      	nop
 8002a98:	370c      	adds	r7, #12
 8002a9a:	46bd      	mov	sp, r7
 8002a9c:	bd90      	pop	{r4, r7, pc}

08002a9e <_ZNSt15_Deque_iteratorIcRcPcE11_M_set_nodeEPS1_>:
      _M_set_node(_Map_pointer __new_node) _GLIBCXX_NOEXCEPT
 8002a9e:	b590      	push	{r4, r7, lr}
 8002aa0:	b083      	sub	sp, #12
 8002aa2:	af00      	add	r7, sp, #0
 8002aa4:	6078      	str	r0, [r7, #4]
 8002aa6:	6039      	str	r1, [r7, #0]
	_M_node = __new_node;
 8002aa8:	687b      	ldr	r3, [r7, #4]
 8002aaa:	683a      	ldr	r2, [r7, #0]
 8002aac:	60da      	str	r2, [r3, #12]
	_M_first = *__new_node;
 8002aae:	683b      	ldr	r3, [r7, #0]
 8002ab0:	681a      	ldr	r2, [r3, #0]
 8002ab2:	687b      	ldr	r3, [r7, #4]
 8002ab4:	605a      	str	r2, [r3, #4]
	_M_last = _M_first + difference_type(_S_buffer_size());
 8002ab6:	687b      	ldr	r3, [r7, #4]
 8002ab8:	685c      	ldr	r4, [r3, #4]
 8002aba:	f000 f93e 	bl	8002d3a <_ZNSt15_Deque_iteratorIcRcPcE14_S_buffer_sizeEv>
 8002abe:	4603      	mov	r3, r0
 8002ac0:	18e2      	adds	r2, r4, r3
 8002ac2:	687b      	ldr	r3, [r7, #4]
 8002ac4:	609a      	str	r2, [r3, #8]
      }
 8002ac6:	bf00      	nop
 8002ac8:	370c      	adds	r7, #12
 8002aca:	46bd      	mov	sp, r7
 8002acc:	bd90      	pop	{r4, r7, pc}

08002ace <_ZSt7forwardIdEOT_RNSt16remove_referenceIS0_E4typeE>:
    forward(typename std::remove_reference<_Tp>::type& __t) noexcept
 8002ace:	b480      	push	{r7}
 8002ad0:	b083      	sub	sp, #12
 8002ad2:	af00      	add	r7, sp, #0
 8002ad4:	6078      	str	r0, [r7, #4]
    { return static_cast<_Tp&&>(__t); }
 8002ad6:	687b      	ldr	r3, [r7, #4]
 8002ad8:	4618      	mov	r0, r3
 8002ada:	370c      	adds	r7, #12
 8002adc:	46bd      	mov	sp, r7
 8002ade:	bc80      	pop	{r7}
 8002ae0:	4770      	bx	lr

08002ae2 <_ZNSt16allocator_traitsISaIdEE9constructIdJdEEEvRS0_PT_DpOT0_>:
	construct(allocator_type& __a __attribute__((__unused__)), _Up* __p,
 8002ae2:	b580      	push	{r7, lr}
 8002ae4:	b084      	sub	sp, #16
 8002ae6:	af00      	add	r7, sp, #0
 8002ae8:	60f8      	str	r0, [r7, #12]
 8002aea:	60b9      	str	r1, [r7, #8]
 8002aec:	607a      	str	r2, [r7, #4]
	  __a.construct(__p, std::forward<_Args>(__args)...);
 8002aee:	6878      	ldr	r0, [r7, #4]
 8002af0:	f7ff ffed 	bl	8002ace <_ZSt7forwardIdEOT_RNSt16remove_referenceIS0_E4typeE>
 8002af4:	4603      	mov	r3, r0
 8002af6:	461a      	mov	r2, r3
 8002af8:	68b9      	ldr	r1, [r7, #8]
 8002afa:	68f8      	ldr	r0, [r7, #12]
 8002afc:	f000 f925 	bl	8002d4a <_ZN9__gnu_cxx13new_allocatorIdE9constructIdJdEEEvPT_DpOT0_>
	}
 8002b00:	bf00      	nop
 8002b02:	3710      	adds	r7, #16
 8002b04:	46bd      	mov	sp, r7
 8002b06:	bd80      	pop	{r7, pc}

08002b08 <_ZNSt5dequeIdSaIdEE16_M_push_back_auxIJdEEEvDpOT_>:
      deque<_Tp, _Alloc>::
 8002b08:	b5b0      	push	{r4, r5, r7, lr}
 8002b0a:	b082      	sub	sp, #8
 8002b0c:	af00      	add	r7, sp, #0
 8002b0e:	6078      	str	r0, [r7, #4]
 8002b10:	6039      	str	r1, [r7, #0]
	if (size() == max_size())
 8002b12:	6878      	ldr	r0, [r7, #4]
 8002b14:	f7ff fcb7 	bl	8002486 <_ZNKSt5dequeIdSaIdEE4sizeEv>
 8002b18:	4604      	mov	r4, r0
 8002b1a:	6878      	ldr	r0, [r7, #4]
 8002b1c:	f000 f92d 	bl	8002d7a <_ZNKSt5dequeIdSaIdEE8max_sizeEv>
 8002b20:	4603      	mov	r3, r0
 8002b22:	429c      	cmp	r4, r3
 8002b24:	bf0c      	ite	eq
 8002b26:	2301      	moveq	r3, #1
 8002b28:	2300      	movne	r3, #0
 8002b2a:	b2db      	uxtb	r3, r3
 8002b2c:	2b00      	cmp	r3, #0
 8002b2e:	d002      	beq.n	8002b36 <_ZNSt5dequeIdSaIdEE16_M_push_back_auxIJdEEEvDpOT_+0x2e>
	  __throw_length_error(
 8002b30:	4816      	ldr	r0, [pc, #88]	; (8002b8c <_ZNSt5dequeIdSaIdEE16_M_push_back_auxIJdEEEvDpOT_+0x84>)
 8002b32:	f004 fe51 	bl	80077d8 <_ZSt20__throw_length_errorPKc>
	_M_reserve_map_at_back();
 8002b36:	2101      	movs	r1, #1
 8002b38:	6878      	ldr	r0, [r7, #4]
 8002b3a:	f000 f92f 	bl	8002d9c <_ZNSt5dequeIdSaIdEE22_M_reserve_map_at_backEj>
	*(this->_M_impl._M_finish._M_node + 1) = this->_M_allocate_node();
 8002b3e:	687a      	ldr	r2, [r7, #4]
 8002b40:	687b      	ldr	r3, [r7, #4]
 8002b42:	6a5b      	ldr	r3, [r3, #36]	; 0x24
 8002b44:	1d1c      	adds	r4, r3, #4
 8002b46:	4610      	mov	r0, r2
 8002b48:	f000 f943 	bl	8002dd2 <_ZNSt11_Deque_baseIdSaIdEE16_M_allocate_nodeEv>
 8002b4c:	4603      	mov	r3, r0
 8002b4e:	6023      	str	r3, [r4, #0]
	    _Alloc_traits::construct(this->_M_impl,
 8002b50:	687c      	ldr	r4, [r7, #4]
 8002b52:	687b      	ldr	r3, [r7, #4]
 8002b54:	699d      	ldr	r5, [r3, #24]
 8002b56:	6838      	ldr	r0, [r7, #0]
 8002b58:	f7ff ffb9 	bl	8002ace <_ZSt7forwardIdEOT_RNSt16remove_referenceIS0_E4typeE>
 8002b5c:	4603      	mov	r3, r0
 8002b5e:	461a      	mov	r2, r3
 8002b60:	4629      	mov	r1, r5
 8002b62:	4620      	mov	r0, r4
 8002b64:	f7ff ffbd 	bl	8002ae2 <_ZNSt16allocator_traitsISaIdEE9constructIdJdEEEvRS0_PT_DpOT0_>
	    this->_M_impl._M_finish._M_set_node(this->_M_impl._M_finish._M_node
 8002b68:	687b      	ldr	r3, [r7, #4]
 8002b6a:	f103 0218 	add.w	r2, r3, #24
 8002b6e:	687b      	ldr	r3, [r7, #4]
 8002b70:	6a5b      	ldr	r3, [r3, #36]	; 0x24
 8002b72:	3304      	adds	r3, #4
 8002b74:	4619      	mov	r1, r3
 8002b76:	4610      	mov	r0, r2
 8002b78:	f7ff ff3e 	bl	80029f8 <_ZNSt15_Deque_iteratorIdRdPdE11_M_set_nodeEPS1_>
	    this->_M_impl._M_finish._M_cur = this->_M_impl._M_finish._M_first;
 8002b7c:	687b      	ldr	r3, [r7, #4]
 8002b7e:	69da      	ldr	r2, [r3, #28]
 8002b80:	687b      	ldr	r3, [r7, #4]
 8002b82:	619a      	str	r2, [r3, #24]
      }
 8002b84:	bf00      	nop
 8002b86:	3708      	adds	r7, #8
 8002b88:	46bd      	mov	sp, r7
 8002b8a:	bdb0      	pop	{r4, r5, r7, pc}
 8002b8c:	0800afb0 	.word	0x0800afb0

08002b90 <_ZNSt15_Deque_iteratorIdRdPdE14_S_buffer_sizeEv>:
      static size_t _S_buffer_size() _GLIBCXX_NOEXCEPT
 8002b90:	b580      	push	{r7, lr}
 8002b92:	af00      	add	r7, sp, #0
      { return __deque_buf_size(sizeof(_Tp)); }
 8002b94:	2008      	movs	r0, #8
 8002b96:	f7fe ff2a 	bl	80019ee <_ZSt16__deque_buf_sizej>
 8002b9a:	4603      	mov	r3, r0
 8002b9c:	4618      	mov	r0, r3
 8002b9e:	bd80      	pop	{r7, pc}

08002ba0 <_ZN9__gnu_cxx13new_allocatorIcE10deallocateEPcj>:
      deallocate(_Tp* __p, size_type __t)
 8002ba0:	b580      	push	{r7, lr}
 8002ba2:	b084      	sub	sp, #16
 8002ba4:	af00      	add	r7, sp, #0
 8002ba6:	60f8      	str	r0, [r7, #12]
 8002ba8:	60b9      	str	r1, [r7, #8]
 8002baa:	607a      	str	r2, [r7, #4]
	::operator delete(__p
 8002bac:	6879      	ldr	r1, [r7, #4]
 8002bae:	68b8      	ldr	r0, [r7, #8]
 8002bb0:	f004 fdf4 	bl	800779c <_ZdlPvj>
      }
 8002bb4:	bf00      	nop
 8002bb6:	3710      	adds	r7, #16
 8002bb8:	46bd      	mov	sp, r7
 8002bba:	bd80      	pop	{r7, pc}

08002bbc <_ZN9__gnu_cxx13new_allocatorIcE8allocateEjPKv>:
      allocate(size_type __n, const void* = static_cast<const void*>(0))
 8002bbc:	b580      	push	{r7, lr}
 8002bbe:	b084      	sub	sp, #16
 8002bc0:	af00      	add	r7, sp, #0
 8002bc2:	60f8      	str	r0, [r7, #12]
 8002bc4:	60b9      	str	r1, [r7, #8]
 8002bc6:	607a      	str	r2, [r7, #4]
	if (__n > this->_M_max_size())
 8002bc8:	68f8      	ldr	r0, [r7, #12]
 8002bca:	f000 f914 	bl	8002df6 <_ZNK9__gnu_cxx13new_allocatorIcE11_M_max_sizeEv>
 8002bce:	4602      	mov	r2, r0
 8002bd0:	68bb      	ldr	r3, [r7, #8]
 8002bd2:	4293      	cmp	r3, r2
 8002bd4:	bf8c      	ite	hi
 8002bd6:	2301      	movhi	r3, #1
 8002bd8:	2300      	movls	r3, #0
 8002bda:	b2db      	uxtb	r3, r3
 8002bdc:	2b00      	cmp	r3, #0
 8002bde:	d001      	beq.n	8002be4 <_ZN9__gnu_cxx13new_allocatorIcE8allocateEjPKv+0x28>
	  std::__throw_bad_alloc();
 8002be0:	f004 fdf1 	bl	80077c6 <_ZSt17__throw_bad_allocv>
	return static_cast<_Tp*>(::operator new(__n * sizeof(_Tp)));
 8002be4:	68b8      	ldr	r0, [r7, #8]
 8002be6:	f004 fddb 	bl	80077a0 <_Znwj>
 8002bea:	4603      	mov	r3, r0
      }
 8002bec:	4618      	mov	r0, r3
 8002bee:	3710      	adds	r7, #16
 8002bf0:	46bd      	mov	sp, r7
 8002bf2:	bd80      	pop	{r7, pc}

08002bf4 <_ZSt7forwardIRKcEOT_RNSt16remove_referenceIS2_E4typeE>:
    forward(typename std::remove_reference<_Tp>::type& __t) noexcept
 8002bf4:	b480      	push	{r7}
 8002bf6:	b083      	sub	sp, #12
 8002bf8:	af00      	add	r7, sp, #0
 8002bfa:	6078      	str	r0, [r7, #4]
    { return static_cast<_Tp&&>(__t); }
 8002bfc:	687b      	ldr	r3, [r7, #4]
 8002bfe:	4618      	mov	r0, r3
 8002c00:	370c      	adds	r7, #12
 8002c02:	46bd      	mov	sp, r7
 8002c04:	bc80      	pop	{r7}
 8002c06:	4770      	bx	lr

08002c08 <_ZN9__gnu_cxx13new_allocatorIcE9constructIcJRKcEEEvPT_DpOT0_>:
	construct(_Up* __p, _Args&&... __args)
 8002c08:	b590      	push	{r4, r7, lr}
 8002c0a:	b085      	sub	sp, #20
 8002c0c:	af00      	add	r7, sp, #0
 8002c0e:	60f8      	str	r0, [r7, #12]
 8002c10:	60b9      	str	r1, [r7, #8]
 8002c12:	607a      	str	r2, [r7, #4]
	{ ::new((void *)__p) _Up(std::forward<_Args>(__args)...); }
 8002c14:	6878      	ldr	r0, [r7, #4]
 8002c16:	f7ff ffed 	bl	8002bf4 <_ZSt7forwardIRKcEOT_RNSt16remove_referenceIS2_E4typeE>
 8002c1a:	4603      	mov	r3, r0
 8002c1c:	781c      	ldrb	r4, [r3, #0]
 8002c1e:	68bb      	ldr	r3, [r7, #8]
 8002c20:	4619      	mov	r1, r3
 8002c22:	2001      	movs	r0, #1
 8002c24:	f7fe fed8 	bl	80019d8 <_ZnwjPv>
 8002c28:	4603      	mov	r3, r0
 8002c2a:	4622      	mov	r2, r4
 8002c2c:	701a      	strb	r2, [r3, #0]
 8002c2e:	bf00      	nop
 8002c30:	3714      	adds	r7, #20
 8002c32:	46bd      	mov	sp, r7
 8002c34:	bd90      	pop	{r4, r7, pc}

08002c36 <_ZNKSt5dequeIcSaIcEE4sizeEv>:
      size() const _GLIBCXX_NOEXCEPT
 8002c36:	b580      	push	{r7, lr}
 8002c38:	b082      	sub	sp, #8
 8002c3a:	af00      	add	r7, sp, #0
 8002c3c:	6078      	str	r0, [r7, #4]
      { return this->_M_impl._M_finish - this->_M_impl._M_start; }
 8002c3e:	687b      	ldr	r3, [r7, #4]
 8002c40:	f103 0218 	add.w	r2, r3, #24
 8002c44:	687b      	ldr	r3, [r7, #4]
 8002c46:	3308      	adds	r3, #8
 8002c48:	4619      	mov	r1, r3
 8002c4a:	4610      	mov	r0, r2
 8002c4c:	f000 f8de 	bl	8002e0c <_ZStmiRKSt15_Deque_iteratorIcRcPcES4_>
 8002c50:	4603      	mov	r3, r0
 8002c52:	4618      	mov	r0, r3
 8002c54:	3708      	adds	r7, #8
 8002c56:	46bd      	mov	sp, r7
 8002c58:	bd80      	pop	{r7, pc}

08002c5a <_ZNKSt5dequeIcSaIcEE8max_sizeEv>:
      max_size() const _GLIBCXX_NOEXCEPT
 8002c5a:	b580      	push	{r7, lr}
 8002c5c:	b082      	sub	sp, #8
 8002c5e:	af00      	add	r7, sp, #0
 8002c60:	6078      	str	r0, [r7, #4]
      { return _S_max_size(_M_get_Tp_allocator()); }
 8002c62:	687b      	ldr	r3, [r7, #4]
 8002c64:	4618      	mov	r0, r3
 8002c66:	f000 f90d 	bl	8002e84 <_ZNKSt11_Deque_baseIcSaIcEE19_M_get_Tp_allocatorEv>
 8002c6a:	4603      	mov	r3, r0
 8002c6c:	4618      	mov	r0, r3
 8002c6e:	f000 f8ef 	bl	8002e50 <_ZNSt5dequeIcSaIcEE11_S_max_sizeERKS0_>
 8002c72:	4603      	mov	r3, r0
 8002c74:	4618      	mov	r0, r3
 8002c76:	3708      	adds	r7, #8
 8002c78:	46bd      	mov	sp, r7
 8002c7a:	bd80      	pop	{r7, pc}

08002c7c <_ZNSt5dequeIcSaIcEE22_M_reserve_map_at_backEj>:
       *  Makes sure the _M_map has space for new nodes.  Does not
       *  actually add the nodes.  Can invalidate _M_map pointers.
       *  (And consequently, %deque iterators.)
       */
      void
      _M_reserve_map_at_back(size_type __nodes_to_add = 1)
 8002c7c:	b580      	push	{r7, lr}
 8002c7e:	b082      	sub	sp, #8
 8002c80:	af00      	add	r7, sp, #0
 8002c82:	6078      	str	r0, [r7, #4]
 8002c84:	6039      	str	r1, [r7, #0]
      {
	if (__nodes_to_add + 1 > this->_M_impl._M_map_size
 8002c86:	683b      	ldr	r3, [r7, #0]
 8002c88:	1c5a      	adds	r2, r3, #1
 8002c8a:	687b      	ldr	r3, [r7, #4]
 8002c8c:	685b      	ldr	r3, [r3, #4]
	    - (this->_M_impl._M_finish._M_node - this->_M_impl._M_map))
 8002c8e:	6879      	ldr	r1, [r7, #4]
 8002c90:	6a48      	ldr	r0, [r1, #36]	; 0x24
 8002c92:	6879      	ldr	r1, [r7, #4]
 8002c94:	6809      	ldr	r1, [r1, #0]
 8002c96:	1a41      	subs	r1, r0, r1
 8002c98:	1089      	asrs	r1, r1, #2
 8002c9a:	1a5b      	subs	r3, r3, r1
	if (__nodes_to_add + 1 > this->_M_impl._M_map_size
 8002c9c:	429a      	cmp	r2, r3
 8002c9e:	d904      	bls.n	8002caa <_ZNSt5dequeIcSaIcEE22_M_reserve_map_at_backEj+0x2e>
	  _M_reallocate_map(__nodes_to_add, false);
 8002ca0:	2200      	movs	r2, #0
 8002ca2:	6839      	ldr	r1, [r7, #0]
 8002ca4:	6878      	ldr	r0, [r7, #4]
 8002ca6:	f000 f8f7 	bl	8002e98 <_ZNSt5dequeIcSaIcEE17_M_reallocate_mapEjb>
      }
 8002caa:	bf00      	nop
 8002cac:	3708      	adds	r7, #8
 8002cae:	46bd      	mov	sp, r7
 8002cb0:	bd80      	pop	{r7, pc}

08002cb2 <_ZNSt11_Deque_baseIcSaIcEE16_M_allocate_nodeEv>:
      _M_allocate_node()
 8002cb2:	b590      	push	{r4, r7, lr}
 8002cb4:	b083      	sub	sp, #12
 8002cb6:	af00      	add	r7, sp, #0
 8002cb8:	6078      	str	r0, [r7, #4]
	return _Traits::allocate(_M_impl, __deque_buf_size(sizeof(_Tp)));
 8002cba:	687c      	ldr	r4, [r7, #4]
 8002cbc:	2001      	movs	r0, #1
 8002cbe:	f7fe fe96 	bl	80019ee <_ZSt16__deque_buf_sizej>
 8002cc2:	4603      	mov	r3, r0
 8002cc4:	4619      	mov	r1, r3
 8002cc6:	4620      	mov	r0, r4
 8002cc8:	f7ff fd94 	bl	80027f4 <_ZNSt16allocator_traitsISaIcEE8allocateERS0_j>
 8002ccc:	4603      	mov	r3, r0
      }
 8002cce:	4618      	mov	r0, r3
 8002cd0:	370c      	adds	r7, #12
 8002cd2:	46bd      	mov	sp, r7
 8002cd4:	bd90      	pop	{r4, r7, pc}

08002cd6 <_ZN9__gnu_cxx17__is_null_pointerIcEEbPT_>:


  // For use in string and vstring.
  template<typename _Type>
    inline bool
    __is_null_pointer(_Type* __ptr)
 8002cd6:	b480      	push	{r7}
 8002cd8:	b083      	sub	sp, #12
 8002cda:	af00      	add	r7, sp, #0
 8002cdc:	6078      	str	r0, [r7, #4]
    { return __ptr == 0; }
 8002cde:	687b      	ldr	r3, [r7, #4]
 8002ce0:	2b00      	cmp	r3, #0
 8002ce2:	bf0c      	ite	eq
 8002ce4:	2301      	moveq	r3, #1
 8002ce6:	2300      	movne	r3, #0
 8002ce8:	b2db      	uxtb	r3, r3
 8002cea:	4618      	mov	r0, r3
 8002cec:	370c      	adds	r7, #12
 8002cee:	46bd      	mov	sp, r7
 8002cf0:	bc80      	pop	{r7}
 8002cf2:	4770      	bx	lr

08002cf4 <_ZSt8distanceIPcENSt15iterator_traitsIT_E15difference_typeES2_S2_>:
   *  and are constant time.  For other %iterator classes they are linear time.
  */
  template<typename _InputIterator>
    inline _GLIBCXX17_CONSTEXPR
    typename iterator_traits<_InputIterator>::difference_type
    distance(_InputIterator __first, _InputIterator __last)
 8002cf4:	b5b0      	push	{r4, r5, r7, lr}
 8002cf6:	b082      	sub	sp, #8
 8002cf8:	af00      	add	r7, sp, #0
 8002cfa:	6078      	str	r0, [r7, #4]
 8002cfc:	6039      	str	r1, [r7, #0]
    {
      // concept requirements -- taken care of in __distance
      return std::__distance(__first, __last,
 8002cfe:	687c      	ldr	r4, [r7, #4]
			     std::__iterator_category(__first));
 8002d00:	1d3b      	adds	r3, r7, #4
 8002d02:	4618      	mov	r0, r3
 8002d04:	f000 f962 	bl	8002fcc <_ZSt19__iterator_categoryIPcENSt15iterator_traitsIT_E17iterator_categoryERKS2_>
      return std::__distance(__first, __last,
 8002d08:	462a      	mov	r2, r5
 8002d0a:	6839      	ldr	r1, [r7, #0]
 8002d0c:	4620      	mov	r0, r4
 8002d0e:	f000 f967 	bl	8002fe0 <_ZSt10__distanceIPcENSt15iterator_traitsIT_E15difference_typeES2_S2_St26random_access_iterator_tag>
 8002d12:	4603      	mov	r3, r0
    }
 8002d14:	4618      	mov	r0, r3
 8002d16:	3708      	adds	r7, #8
 8002d18:	46bd      	mov	sp, r7
 8002d1a:	bdb0      	pop	{r4, r5, r7, pc}

08002d1c <_ZNSt16allocator_traitsISaIdEE10deallocateERS0_Pdj>:
      deallocate(allocator_type& __a, pointer __p, size_type __n)
 8002d1c:	b580      	push	{r7, lr}
 8002d1e:	b084      	sub	sp, #16
 8002d20:	af00      	add	r7, sp, #0
 8002d22:	60f8      	str	r0, [r7, #12]
 8002d24:	60b9      	str	r1, [r7, #8]
 8002d26:	607a      	str	r2, [r7, #4]
      { __a.deallocate(__p, __n); }
 8002d28:	687a      	ldr	r2, [r7, #4]
 8002d2a:	68b9      	ldr	r1, [r7, #8]
 8002d2c:	68f8      	ldr	r0, [r7, #12]
 8002d2e:	f000 f965 	bl	8002ffc <_ZN9__gnu_cxx13new_allocatorIdE10deallocateEPdj>
 8002d32:	bf00      	nop
 8002d34:	3710      	adds	r7, #16
 8002d36:	46bd      	mov	sp, r7
 8002d38:	bd80      	pop	{r7, pc}

08002d3a <_ZNSt15_Deque_iteratorIcRcPcE14_S_buffer_sizeEv>:
      static size_t _S_buffer_size() _GLIBCXX_NOEXCEPT
 8002d3a:	b580      	push	{r7, lr}
 8002d3c:	af00      	add	r7, sp, #0
      { return __deque_buf_size(sizeof(_Tp)); }
 8002d3e:	2001      	movs	r0, #1
 8002d40:	f7fe fe55 	bl	80019ee <_ZSt16__deque_buf_sizej>
 8002d44:	4603      	mov	r3, r0
 8002d46:	4618      	mov	r0, r3
 8002d48:	bd80      	pop	{r7, pc}

08002d4a <_ZN9__gnu_cxx13new_allocatorIdE9constructIdJdEEEvPT_DpOT0_>:
	construct(_Up* __p, _Args&&... __args)
 8002d4a:	b5b0      	push	{r4, r5, r7, lr}
 8002d4c:	b084      	sub	sp, #16
 8002d4e:	af00      	add	r7, sp, #0
 8002d50:	60f8      	str	r0, [r7, #12]
 8002d52:	60b9      	str	r1, [r7, #8]
 8002d54:	607a      	str	r2, [r7, #4]
	{ ::new((void *)__p) _Up(std::forward<_Args>(__args)...); }
 8002d56:	6878      	ldr	r0, [r7, #4]
 8002d58:	f7ff feb9 	bl	8002ace <_ZSt7forwardIdEOT_RNSt16remove_referenceIS0_E4typeE>
 8002d5c:	4603      	mov	r3, r0
 8002d5e:	e9d3 4500 	ldrd	r4, r5, [r3]
 8002d62:	68bb      	ldr	r3, [r7, #8]
 8002d64:	4619      	mov	r1, r3
 8002d66:	2008      	movs	r0, #8
 8002d68:	f7fe fe36 	bl	80019d8 <_ZnwjPv>
 8002d6c:	4603      	mov	r3, r0
 8002d6e:	e9c3 4500 	strd	r4, r5, [r3]
 8002d72:	bf00      	nop
 8002d74:	3710      	adds	r7, #16
 8002d76:	46bd      	mov	sp, r7
 8002d78:	bdb0      	pop	{r4, r5, r7, pc}

08002d7a <_ZNKSt5dequeIdSaIdEE8max_sizeEv>:
      max_size() const _GLIBCXX_NOEXCEPT
 8002d7a:	b580      	push	{r7, lr}
 8002d7c:	b082      	sub	sp, #8
 8002d7e:	af00      	add	r7, sp, #0
 8002d80:	6078      	str	r0, [r7, #4]
      { return _S_max_size(_M_get_Tp_allocator()); }
 8002d82:	687b      	ldr	r3, [r7, #4]
 8002d84:	4618      	mov	r0, r3
 8002d86:	f000 f963 	bl	8003050 <_ZNKSt11_Deque_baseIdSaIdEE19_M_get_Tp_allocatorEv>
 8002d8a:	4603      	mov	r3, r0
 8002d8c:	4618      	mov	r0, r3
 8002d8e:	f000 f945 	bl	800301c <_ZNSt5dequeIdSaIdEE11_S_max_sizeERKS0_>
 8002d92:	4603      	mov	r3, r0
 8002d94:	4618      	mov	r0, r3
 8002d96:	3708      	adds	r7, #8
 8002d98:	46bd      	mov	sp, r7
 8002d9a:	bd80      	pop	{r7, pc}

08002d9c <_ZNSt5dequeIdSaIdEE22_M_reserve_map_at_backEj>:
      _M_reserve_map_at_back(size_type __nodes_to_add = 1)
 8002d9c:	b580      	push	{r7, lr}
 8002d9e:	b082      	sub	sp, #8
 8002da0:	af00      	add	r7, sp, #0
 8002da2:	6078      	str	r0, [r7, #4]
 8002da4:	6039      	str	r1, [r7, #0]
	if (__nodes_to_add + 1 > this->_M_impl._M_map_size
 8002da6:	683b      	ldr	r3, [r7, #0]
 8002da8:	1c5a      	adds	r2, r3, #1
 8002daa:	687b      	ldr	r3, [r7, #4]
 8002dac:	685b      	ldr	r3, [r3, #4]
	    - (this->_M_impl._M_finish._M_node - this->_M_impl._M_map))
 8002dae:	6879      	ldr	r1, [r7, #4]
 8002db0:	6a48      	ldr	r0, [r1, #36]	; 0x24
 8002db2:	6879      	ldr	r1, [r7, #4]
 8002db4:	6809      	ldr	r1, [r1, #0]
 8002db6:	1a41      	subs	r1, r0, r1
 8002db8:	1089      	asrs	r1, r1, #2
 8002dba:	1a5b      	subs	r3, r3, r1
	if (__nodes_to_add + 1 > this->_M_impl._M_map_size
 8002dbc:	429a      	cmp	r2, r3
 8002dbe:	d904      	bls.n	8002dca <_ZNSt5dequeIdSaIdEE22_M_reserve_map_at_backEj+0x2e>
	  _M_reallocate_map(__nodes_to_add, false);
 8002dc0:	2200      	movs	r2, #0
 8002dc2:	6839      	ldr	r1, [r7, #0]
 8002dc4:	6878      	ldr	r0, [r7, #4]
 8002dc6:	f000 f94d 	bl	8003064 <_ZNSt5dequeIdSaIdEE17_M_reallocate_mapEjb>
      }
 8002dca:	bf00      	nop
 8002dcc:	3708      	adds	r7, #8
 8002dce:	46bd      	mov	sp, r7
 8002dd0:	bd80      	pop	{r7, pc}

08002dd2 <_ZNSt11_Deque_baseIdSaIdEE16_M_allocate_nodeEv>:
      _M_allocate_node()
 8002dd2:	b590      	push	{r4, r7, lr}
 8002dd4:	b083      	sub	sp, #12
 8002dd6:	af00      	add	r7, sp, #0
 8002dd8:	6078      	str	r0, [r7, #4]
	return _Traits::allocate(_M_impl, __deque_buf_size(sizeof(_Tp)));
 8002dda:	687c      	ldr	r4, [r7, #4]
 8002ddc:	2008      	movs	r0, #8
 8002dde:	f7fe fe06 	bl	80019ee <_ZSt16__deque_buf_sizej>
 8002de2:	4603      	mov	r3, r0
 8002de4:	4619      	mov	r1, r3
 8002de6:	4620      	mov	r0, r4
 8002de8:	f000 f9d6 	bl	8003198 <_ZNSt16allocator_traitsISaIdEE8allocateERS0_j>
 8002dec:	4603      	mov	r3, r0
      }
 8002dee:	4618      	mov	r0, r3
 8002df0:	370c      	adds	r7, #12
 8002df2:	46bd      	mov	sp, r7
 8002df4:	bd90      	pop	{r4, r7, pc}

08002df6 <_ZNK9__gnu_cxx13new_allocatorIcE11_M_max_sizeEv>:
	{ return false; }
#endif

    private:
      _GLIBCXX_CONSTEXPR size_type
      _M_max_size() const _GLIBCXX_USE_NOEXCEPT
 8002df6:	b480      	push	{r7}
 8002df8:	b083      	sub	sp, #12
 8002dfa:	af00      	add	r7, sp, #0
 8002dfc:	6078      	str	r0, [r7, #4]
      {
#if __PTRDIFF_MAX__ < __SIZE_MAX__
	return std::size_t(__PTRDIFF_MAX__) / sizeof(_Tp);
 8002dfe:	f06f 4300 	mvn.w	r3, #2147483648	; 0x80000000
#else
	return std::size_t(-1) / sizeof(_Tp);
#endif
      }
 8002e02:	4618      	mov	r0, r3
 8002e04:	370c      	adds	r7, #12
 8002e06:	46bd      	mov	sp, r7
 8002e08:	bc80      	pop	{r7}
 8002e0a:	4770      	bx	lr

08002e0c <_ZStmiRKSt15_Deque_iteratorIcRcPcES4_>:
      operator-(const _Self& __x, const _Self& __y) _GLIBCXX_NOEXCEPT
 8002e0c:	b580      	push	{r7, lr}
 8002e0e:	b082      	sub	sp, #8
 8002e10:	af00      	add	r7, sp, #0
 8002e12:	6078      	str	r0, [r7, #4]
 8002e14:	6039      	str	r1, [r7, #0]
	return difference_type(_S_buffer_size())
 8002e16:	f7ff ff90 	bl	8002d3a <_ZNSt15_Deque_iteratorIcRcPcE14_S_buffer_sizeEv>
 8002e1a:	4603      	mov	r3, r0
 8002e1c:	4619      	mov	r1, r3
	  * (__x._M_node - __y._M_node - 1) + (__x._M_cur - __x._M_first)
 8002e1e:	687b      	ldr	r3, [r7, #4]
 8002e20:	68da      	ldr	r2, [r3, #12]
 8002e22:	683b      	ldr	r3, [r7, #0]
 8002e24:	68db      	ldr	r3, [r3, #12]
 8002e26:	1ad3      	subs	r3, r2, r3
 8002e28:	109b      	asrs	r3, r3, #2
 8002e2a:	3b01      	subs	r3, #1
 8002e2c:	fb03 f201 	mul.w	r2, r3, r1
 8002e30:	687b      	ldr	r3, [r7, #4]
 8002e32:	6819      	ldr	r1, [r3, #0]
 8002e34:	687b      	ldr	r3, [r7, #4]
 8002e36:	685b      	ldr	r3, [r3, #4]
 8002e38:	1acb      	subs	r3, r1, r3
 8002e3a:	441a      	add	r2, r3
	  + (__y._M_last - __y._M_cur);
 8002e3c:	683b      	ldr	r3, [r7, #0]
 8002e3e:	6899      	ldr	r1, [r3, #8]
 8002e40:	683b      	ldr	r3, [r7, #0]
 8002e42:	681b      	ldr	r3, [r3, #0]
 8002e44:	1acb      	subs	r3, r1, r3
 8002e46:	4413      	add	r3, r2
      }
 8002e48:	4618      	mov	r0, r3
 8002e4a:	3708      	adds	r7, #8
 8002e4c:	46bd      	mov	sp, r7
 8002e4e:	bd80      	pop	{r7, pc}

08002e50 <_ZNSt5dequeIcSaIcEE11_S_max_sizeERKS0_>:
      _S_max_size(const _Tp_alloc_type& __a) _GLIBCXX_NOEXCEPT
 8002e50:	b580      	push	{r7, lr}
 8002e52:	b084      	sub	sp, #16
 8002e54:	af00      	add	r7, sp, #0
 8002e56:	6078      	str	r0, [r7, #4]
	const size_t __diffmax = __gnu_cxx::__numeric_traits<ptrdiff_t>::__max;
 8002e58:	f06f 4300 	mvn.w	r3, #2147483648	; 0x80000000
 8002e5c:	60fb      	str	r3, [r7, #12]
	const size_t __allocmax = _Alloc_traits::max_size(__a);
 8002e5e:	6878      	ldr	r0, [r7, #4]
 8002e60:	f000 f9a9 	bl	80031b6 <_ZNSt16allocator_traitsISaIcEE8max_sizeERKS0_>
 8002e64:	4603      	mov	r3, r0
 8002e66:	60bb      	str	r3, [r7, #8]
	return (std::min)(__diffmax, __allocmax);
 8002e68:	f107 0208 	add.w	r2, r7, #8
 8002e6c:	f107 030c 	add.w	r3, r7, #12
 8002e70:	4611      	mov	r1, r2
 8002e72:	4618      	mov	r0, r3
 8002e74:	f000 f9ab 	bl	80031ce <_ZSt3minIjERKT_S2_S2_>
 8002e78:	4603      	mov	r3, r0
 8002e7a:	681b      	ldr	r3, [r3, #0]
      }
 8002e7c:	4618      	mov	r0, r3
 8002e7e:	3710      	adds	r7, #16
 8002e80:	46bd      	mov	sp, r7
 8002e82:	bd80      	pop	{r7, pc}

08002e84 <_ZNKSt11_Deque_baseIcSaIcEE19_M_get_Tp_allocatorEv>:
      _M_get_Tp_allocator() const _GLIBCXX_NOEXCEPT
 8002e84:	b480      	push	{r7}
 8002e86:	b083      	sub	sp, #12
 8002e88:	af00      	add	r7, sp, #0
 8002e8a:	6078      	str	r0, [r7, #4]
      { return this->_M_impl; }
 8002e8c:	687b      	ldr	r3, [r7, #4]
 8002e8e:	4618      	mov	r0, r3
 8002e90:	370c      	adds	r7, #12
 8002e92:	46bd      	mov	sp, r7
 8002e94:	bc80      	pop	{r7}
 8002e96:	4770      	bx	lr

08002e98 <_ZNSt5dequeIcSaIcEE17_M_reallocate_mapEjb>:
	}
    }

  template <typename _Tp, typename _Alloc>
    void
    deque<_Tp, _Alloc>::
 8002e98:	b590      	push	{r4, r7, lr}
 8002e9a:	b08b      	sub	sp, #44	; 0x2c
 8002e9c:	af00      	add	r7, sp, #0
 8002e9e:	60f8      	str	r0, [r7, #12]
 8002ea0:	60b9      	str	r1, [r7, #8]
 8002ea2:	4613      	mov	r3, r2
 8002ea4:	71fb      	strb	r3, [r7, #7]
    _M_reallocate_map(size_type __nodes_to_add, bool __add_at_front)
    {
      const size_type __old_num_nodes
	= this->_M_impl._M_finish._M_node - this->_M_impl._M_start._M_node + 1;
 8002ea6:	68fb      	ldr	r3, [r7, #12]
 8002ea8:	6a5a      	ldr	r2, [r3, #36]	; 0x24
 8002eaa:	68fb      	ldr	r3, [r7, #12]
 8002eac:	695b      	ldr	r3, [r3, #20]
 8002eae:	1ad3      	subs	r3, r2, r3
 8002eb0:	109b      	asrs	r3, r3, #2
 8002eb2:	3301      	adds	r3, #1
      const size_type __old_num_nodes
 8002eb4:	623b      	str	r3, [r7, #32]
      const size_type __new_num_nodes = __old_num_nodes + __nodes_to_add;
 8002eb6:	68bb      	ldr	r3, [r7, #8]
 8002eb8:	6a3a      	ldr	r2, [r7, #32]
 8002eba:	4413      	add	r3, r2
 8002ebc:	61fb      	str	r3, [r7, #28]

      _Map_pointer __new_nstart;
      if (this->_M_impl._M_map_size > 2 * __new_num_nodes)
 8002ebe:	68fb      	ldr	r3, [r7, #12]
 8002ec0:	685a      	ldr	r2, [r3, #4]
 8002ec2:	69fb      	ldr	r3, [r7, #28]
 8002ec4:	005b      	lsls	r3, r3, #1
 8002ec6:	429a      	cmp	r2, r3
 8002ec8:	d92d      	bls.n	8002f26 <_ZNSt5dequeIcSaIcEE17_M_reallocate_mapEjb+0x8e>
	{
	  __new_nstart = this->_M_impl._M_map + (this->_M_impl._M_map_size
 8002eca:	68fb      	ldr	r3, [r7, #12]
 8002ecc:	681a      	ldr	r2, [r3, #0]
 8002ece:	68fb      	ldr	r3, [r7, #12]
 8002ed0:	6859      	ldr	r1, [r3, #4]
					 - __new_num_nodes) / 2
 8002ed2:	69fb      	ldr	r3, [r7, #28]
 8002ed4:	1acb      	subs	r3, r1, r3
 8002ed6:	085b      	lsrs	r3, r3, #1
	  __new_nstart = this->_M_impl._M_map + (this->_M_impl._M_map_size
 8002ed8:	0099      	lsls	r1, r3, #2
			 + (__add_at_front ? __nodes_to_add : 0);
 8002eda:	79fb      	ldrb	r3, [r7, #7]
 8002edc:	2b00      	cmp	r3, #0
 8002ede:	d002      	beq.n	8002ee6 <_ZNSt5dequeIcSaIcEE17_M_reallocate_mapEjb+0x4e>
 8002ee0:	68bb      	ldr	r3, [r7, #8]
 8002ee2:	009b      	lsls	r3, r3, #2
 8002ee4:	e000      	b.n	8002ee8 <_ZNSt5dequeIcSaIcEE17_M_reallocate_mapEjb+0x50>
 8002ee6:	2300      	movs	r3, #0
 8002ee8:	440b      	add	r3, r1
	  __new_nstart = this->_M_impl._M_map + (this->_M_impl._M_map_size
 8002eea:	4413      	add	r3, r2
 8002eec:	627b      	str	r3, [r7, #36]	; 0x24
	  if (__new_nstart < this->_M_impl._M_start._M_node)
 8002eee:	68fb      	ldr	r3, [r7, #12]
 8002ef0:	695b      	ldr	r3, [r3, #20]
 8002ef2:	6a7a      	ldr	r2, [r7, #36]	; 0x24
 8002ef4:	429a      	cmp	r2, r3
 8002ef6:	d209      	bcs.n	8002f0c <_ZNSt5dequeIcSaIcEE17_M_reallocate_mapEjb+0x74>
	    std::copy(this->_M_impl._M_start._M_node,
 8002ef8:	68fb      	ldr	r3, [r7, #12]
 8002efa:	6958      	ldr	r0, [r3, #20]
		      this->_M_impl._M_finish._M_node + 1,
 8002efc:	68fb      	ldr	r3, [r7, #12]
 8002efe:	6a5b      	ldr	r3, [r3, #36]	; 0x24
	    std::copy(this->_M_impl._M_start._M_node,
 8002f00:	3304      	adds	r3, #4
 8002f02:	6a7a      	ldr	r2, [r7, #36]	; 0x24
 8002f04:	4619      	mov	r1, r3
 8002f06:	f000 f975 	bl	80031f4 <_ZSt4copyIPPcS1_ET0_T_S3_S2_>
 8002f0a:	e048      	b.n	8002f9e <_ZNSt5dequeIcSaIcEE17_M_reallocate_mapEjb+0x106>
		      __new_nstart);
	  else
	    std::copy_backward(this->_M_impl._M_start._M_node,
 8002f0c:	68fb      	ldr	r3, [r7, #12]
 8002f0e:	6958      	ldr	r0, [r3, #20]
			       this->_M_impl._M_finish._M_node + 1,
 8002f10:	68fb      	ldr	r3, [r7, #12]
 8002f12:	6a5b      	ldr	r3, [r3, #36]	; 0x24
	    std::copy_backward(this->_M_impl._M_start._M_node,
 8002f14:	1d19      	adds	r1, r3, #4
			       __new_nstart + __old_num_nodes);
 8002f16:	6a3b      	ldr	r3, [r7, #32]
 8002f18:	009b      	lsls	r3, r3, #2
	    std::copy_backward(this->_M_impl._M_start._M_node,
 8002f1a:	6a7a      	ldr	r2, [r7, #36]	; 0x24
 8002f1c:	4413      	add	r3, r2
 8002f1e:	461a      	mov	r2, r3
 8002f20:	f000 f980 	bl	8003224 <_ZSt13copy_backwardIPPcS1_ET0_T_S3_S2_>
 8002f24:	e03b      	b.n	8002f9e <_ZNSt5dequeIcSaIcEE17_M_reallocate_mapEjb+0x106>
	}
      else
	{
	  size_type __new_map_size = this->_M_impl._M_map_size
 8002f26:	68fb      	ldr	r3, [r7, #12]
 8002f28:	685c      	ldr	r4, [r3, #4]
				     + std::max(this->_M_impl._M_map_size,
 8002f2a:	68fb      	ldr	r3, [r7, #12]
 8002f2c:	3304      	adds	r3, #4
 8002f2e:	f107 0208 	add.w	r2, r7, #8
 8002f32:	4611      	mov	r1, r2
 8002f34:	4618      	mov	r0, r3
 8002f36:	f000 f98d 	bl	8003254 <_ZSt3maxIjERKT_S2_S2_>
 8002f3a:	4603      	mov	r3, r0
 8002f3c:	681b      	ldr	r3, [r3, #0]
 8002f3e:	4423      	add	r3, r4
	  size_type __new_map_size = this->_M_impl._M_map_size
 8002f40:	3302      	adds	r3, #2
 8002f42:	61bb      	str	r3, [r7, #24]
						__nodes_to_add) + 2;

	  _Map_pointer __new_map = this->_M_allocate_map(__new_map_size);
 8002f44:	68fb      	ldr	r3, [r7, #12]
 8002f46:	69b9      	ldr	r1, [r7, #24]
 8002f48:	4618      	mov	r0, r3
 8002f4a:	f000 f996 	bl	800327a <_ZNSt11_Deque_baseIcSaIcEE15_M_allocate_mapEj>
 8002f4e:	6178      	str	r0, [r7, #20]
	  __new_nstart = __new_map + (__new_map_size - __new_num_nodes) / 2
 8002f50:	69ba      	ldr	r2, [r7, #24]
 8002f52:	69fb      	ldr	r3, [r7, #28]
 8002f54:	1ad3      	subs	r3, r2, r3
 8002f56:	085b      	lsrs	r3, r3, #1
 8002f58:	009a      	lsls	r2, r3, #2
			 + (__add_at_front ? __nodes_to_add : 0);
 8002f5a:	79fb      	ldrb	r3, [r7, #7]
 8002f5c:	2b00      	cmp	r3, #0
 8002f5e:	d002      	beq.n	8002f66 <_ZNSt5dequeIcSaIcEE17_M_reallocate_mapEjb+0xce>
 8002f60:	68bb      	ldr	r3, [r7, #8]
 8002f62:	009b      	lsls	r3, r3, #2
 8002f64:	e000      	b.n	8002f68 <_ZNSt5dequeIcSaIcEE17_M_reallocate_mapEjb+0xd0>
 8002f66:	2300      	movs	r3, #0
 8002f68:	4413      	add	r3, r2
	  __new_nstart = __new_map + (__new_map_size - __new_num_nodes) / 2
 8002f6a:	697a      	ldr	r2, [r7, #20]
 8002f6c:	4413      	add	r3, r2
 8002f6e:	627b      	str	r3, [r7, #36]	; 0x24
	  std::copy(this->_M_impl._M_start._M_node,
 8002f70:	68fb      	ldr	r3, [r7, #12]
 8002f72:	6958      	ldr	r0, [r3, #20]
		    this->_M_impl._M_finish._M_node + 1,
 8002f74:	68fb      	ldr	r3, [r7, #12]
 8002f76:	6a5b      	ldr	r3, [r3, #36]	; 0x24
	  std::copy(this->_M_impl._M_start._M_node,
 8002f78:	3304      	adds	r3, #4
 8002f7a:	6a7a      	ldr	r2, [r7, #36]	; 0x24
 8002f7c:	4619      	mov	r1, r3
 8002f7e:	f000 f939 	bl	80031f4 <_ZSt4copyIPPcS1_ET0_T_S3_S2_>
		    __new_nstart);
	  _M_deallocate_map(this->_M_impl._M_map, this->_M_impl._M_map_size);
 8002f82:	68f8      	ldr	r0, [r7, #12]
 8002f84:	68fb      	ldr	r3, [r7, #12]
 8002f86:	6819      	ldr	r1, [r3, #0]
 8002f88:	68fb      	ldr	r3, [r7, #12]
 8002f8a:	685b      	ldr	r3, [r3, #4]
 8002f8c:	461a      	mov	r2, r3
 8002f8e:	f000 f991 	bl	80032b4 <_ZNSt11_Deque_baseIcSaIcEE17_M_deallocate_mapEPPcj>

	  this->_M_impl._M_map = __new_map;
 8002f92:	68fb      	ldr	r3, [r7, #12]
 8002f94:	697a      	ldr	r2, [r7, #20]
 8002f96:	601a      	str	r2, [r3, #0]
	  this->_M_impl._M_map_size = __new_map_size;
 8002f98:	68fb      	ldr	r3, [r7, #12]
 8002f9a:	69ba      	ldr	r2, [r7, #24]
 8002f9c:	605a      	str	r2, [r3, #4]
	}

      this->_M_impl._M_start._M_set_node(__new_nstart);
 8002f9e:	68fb      	ldr	r3, [r7, #12]
 8002fa0:	3308      	adds	r3, #8
 8002fa2:	6a79      	ldr	r1, [r7, #36]	; 0x24
 8002fa4:	4618      	mov	r0, r3
 8002fa6:	f7ff fd7a 	bl	8002a9e <_ZNSt15_Deque_iteratorIcRcPcE11_M_set_nodeEPS1_>
      this->_M_impl._M_finish._M_set_node(__new_nstart + __old_num_nodes - 1);
 8002faa:	68fb      	ldr	r3, [r7, #12]
 8002fac:	f103 0018 	add.w	r0, r3, #24
 8002fb0:	6a3b      	ldr	r3, [r7, #32]
 8002fb2:	f103 4380 	add.w	r3, r3, #1073741824	; 0x40000000
 8002fb6:	3b01      	subs	r3, #1
 8002fb8:	009b      	lsls	r3, r3, #2
 8002fba:	6a7a      	ldr	r2, [r7, #36]	; 0x24
 8002fbc:	4413      	add	r3, r2
 8002fbe:	4619      	mov	r1, r3
 8002fc0:	f7ff fd6d 	bl	8002a9e <_ZNSt15_Deque_iteratorIcRcPcE11_M_set_nodeEPS1_>
    }
 8002fc4:	bf00      	nop
 8002fc6:	372c      	adds	r7, #44	; 0x2c
 8002fc8:	46bd      	mov	sp, r7
 8002fca:	bd90      	pop	{r4, r7, pc}

08002fcc <_ZSt19__iterator_categoryIPcENSt15iterator_traitsIT_E17iterator_categoryERKS2_>:
   *  sugar for internal library use only.
  */
  template<typename _Iter>
    inline _GLIBCXX_CONSTEXPR
    typename iterator_traits<_Iter>::iterator_category
    __iterator_category(const _Iter&)
 8002fcc:	b480      	push	{r7}
 8002fce:	b083      	sub	sp, #12
 8002fd0:	af00      	add	r7, sp, #0
 8002fd2:	6078      	str	r0, [r7, #4]
    { return typename iterator_traits<_Iter>::iterator_category(); }
 8002fd4:	bf00      	nop
 8002fd6:	4618      	mov	r0, r3
 8002fd8:	370c      	adds	r7, #12
 8002fda:	46bd      	mov	sp, r7
 8002fdc:	bc80      	pop	{r7}
 8002fde:	4770      	bx	lr

08002fe0 <_ZSt10__distanceIPcENSt15iterator_traitsIT_E15difference_typeES2_S2_St26random_access_iterator_tag>:
    __distance(_RandomAccessIterator __first, _RandomAccessIterator __last,
 8002fe0:	b480      	push	{r7}
 8002fe2:	b085      	sub	sp, #20
 8002fe4:	af00      	add	r7, sp, #0
 8002fe6:	60f8      	str	r0, [r7, #12]
 8002fe8:	60b9      	str	r1, [r7, #8]
 8002fea:	713a      	strb	r2, [r7, #4]
      return __last - __first;
 8002fec:	68ba      	ldr	r2, [r7, #8]
 8002fee:	68fb      	ldr	r3, [r7, #12]
 8002ff0:	1ad3      	subs	r3, r2, r3
    }
 8002ff2:	4618      	mov	r0, r3
 8002ff4:	3714      	adds	r7, #20
 8002ff6:	46bd      	mov	sp, r7
 8002ff8:	bc80      	pop	{r7}
 8002ffa:	4770      	bx	lr

08002ffc <_ZN9__gnu_cxx13new_allocatorIdE10deallocateEPdj>:
      deallocate(_Tp* __p, size_type __t)
 8002ffc:	b580      	push	{r7, lr}
 8002ffe:	b084      	sub	sp, #16
 8003000:	af00      	add	r7, sp, #0
 8003002:	60f8      	str	r0, [r7, #12]
 8003004:	60b9      	str	r1, [r7, #8]
 8003006:	607a      	str	r2, [r7, #4]
	::operator delete(__p
 8003008:	687b      	ldr	r3, [r7, #4]
 800300a:	00db      	lsls	r3, r3, #3
 800300c:	4619      	mov	r1, r3
 800300e:	68b8      	ldr	r0, [r7, #8]
 8003010:	f004 fbc4 	bl	800779c <_ZdlPvj>
      }
 8003014:	bf00      	nop
 8003016:	3710      	adds	r7, #16
 8003018:	46bd      	mov	sp, r7
 800301a:	bd80      	pop	{r7, pc}

0800301c <_ZNSt5dequeIdSaIdEE11_S_max_sizeERKS0_>:
      _S_max_size(const _Tp_alloc_type& __a) _GLIBCXX_NOEXCEPT
 800301c:	b580      	push	{r7, lr}
 800301e:	b084      	sub	sp, #16
 8003020:	af00      	add	r7, sp, #0
 8003022:	6078      	str	r0, [r7, #4]
	const size_t __diffmax = __gnu_cxx::__numeric_traits<ptrdiff_t>::__max;
 8003024:	f06f 4300 	mvn.w	r3, #2147483648	; 0x80000000
 8003028:	60fb      	str	r3, [r7, #12]
	const size_t __allocmax = _Alloc_traits::max_size(__a);
 800302a:	6878      	ldr	r0, [r7, #4]
 800302c:	f000 f95e 	bl	80032ec <_ZNSt16allocator_traitsISaIdEE8max_sizeERKS0_>
 8003030:	4603      	mov	r3, r0
 8003032:	60bb      	str	r3, [r7, #8]
	return (std::min)(__diffmax, __allocmax);
 8003034:	f107 0208 	add.w	r2, r7, #8
 8003038:	f107 030c 	add.w	r3, r7, #12
 800303c:	4611      	mov	r1, r2
 800303e:	4618      	mov	r0, r3
 8003040:	f000 f8c5 	bl	80031ce <_ZSt3minIjERKT_S2_S2_>
 8003044:	4603      	mov	r3, r0
 8003046:	681b      	ldr	r3, [r3, #0]
      }
 8003048:	4618      	mov	r0, r3
 800304a:	3710      	adds	r7, #16
 800304c:	46bd      	mov	sp, r7
 800304e:	bd80      	pop	{r7, pc}

08003050 <_ZNKSt11_Deque_baseIdSaIdEE19_M_get_Tp_allocatorEv>:
      _M_get_Tp_allocator() const _GLIBCXX_NOEXCEPT
 8003050:	b480      	push	{r7}
 8003052:	b083      	sub	sp, #12
 8003054:	af00      	add	r7, sp, #0
 8003056:	6078      	str	r0, [r7, #4]
      { return this->_M_impl; }
 8003058:	687b      	ldr	r3, [r7, #4]
 800305a:	4618      	mov	r0, r3
 800305c:	370c      	adds	r7, #12
 800305e:	46bd      	mov	sp, r7
 8003060:	bc80      	pop	{r7}
 8003062:	4770      	bx	lr

08003064 <_ZNSt5dequeIdSaIdEE17_M_reallocate_mapEjb>:
    deque<_Tp, _Alloc>::
 8003064:	b590      	push	{r4, r7, lr}
 8003066:	b08b      	sub	sp, #44	; 0x2c
 8003068:	af00      	add	r7, sp, #0
 800306a:	60f8      	str	r0, [r7, #12]
 800306c:	60b9      	str	r1, [r7, #8]
 800306e:	4613      	mov	r3, r2
 8003070:	71fb      	strb	r3, [r7, #7]
	= this->_M_impl._M_finish._M_node - this->_M_impl._M_start._M_node + 1;
 8003072:	68fb      	ldr	r3, [r7, #12]
 8003074:	6a5a      	ldr	r2, [r3, #36]	; 0x24
 8003076:	68fb      	ldr	r3, [r7, #12]
 8003078:	695b      	ldr	r3, [r3, #20]
 800307a:	1ad3      	subs	r3, r2, r3
 800307c:	109b      	asrs	r3, r3, #2
 800307e:	3301      	adds	r3, #1
      const size_type __old_num_nodes
 8003080:	623b      	str	r3, [r7, #32]
      const size_type __new_num_nodes = __old_num_nodes + __nodes_to_add;
 8003082:	68bb      	ldr	r3, [r7, #8]
 8003084:	6a3a      	ldr	r2, [r7, #32]
 8003086:	4413      	add	r3, r2
 8003088:	61fb      	str	r3, [r7, #28]
      if (this->_M_impl._M_map_size > 2 * __new_num_nodes)
 800308a:	68fb      	ldr	r3, [r7, #12]
 800308c:	685a      	ldr	r2, [r3, #4]
 800308e:	69fb      	ldr	r3, [r7, #28]
 8003090:	005b      	lsls	r3, r3, #1
 8003092:	429a      	cmp	r2, r3
 8003094:	d92d      	bls.n	80030f2 <_ZNSt5dequeIdSaIdEE17_M_reallocate_mapEjb+0x8e>
	  __new_nstart = this->_M_impl._M_map + (this->_M_impl._M_map_size
 8003096:	68fb      	ldr	r3, [r7, #12]
 8003098:	681a      	ldr	r2, [r3, #0]
 800309a:	68fb      	ldr	r3, [r7, #12]
 800309c:	6859      	ldr	r1, [r3, #4]
					 - __new_num_nodes) / 2
 800309e:	69fb      	ldr	r3, [r7, #28]
 80030a0:	1acb      	subs	r3, r1, r3
 80030a2:	085b      	lsrs	r3, r3, #1
	  __new_nstart = this->_M_impl._M_map + (this->_M_impl._M_map_size
 80030a4:	0099      	lsls	r1, r3, #2
			 + (__add_at_front ? __nodes_to_add : 0);
 80030a6:	79fb      	ldrb	r3, [r7, #7]
 80030a8:	2b00      	cmp	r3, #0
 80030aa:	d002      	beq.n	80030b2 <_ZNSt5dequeIdSaIdEE17_M_reallocate_mapEjb+0x4e>
 80030ac:	68bb      	ldr	r3, [r7, #8]
 80030ae:	009b      	lsls	r3, r3, #2
 80030b0:	e000      	b.n	80030b4 <_ZNSt5dequeIdSaIdEE17_M_reallocate_mapEjb+0x50>
 80030b2:	2300      	movs	r3, #0
 80030b4:	440b      	add	r3, r1
	  __new_nstart = this->_M_impl._M_map + (this->_M_impl._M_map_size
 80030b6:	4413      	add	r3, r2
 80030b8:	627b      	str	r3, [r7, #36]	; 0x24
	  if (__new_nstart < this->_M_impl._M_start._M_node)
 80030ba:	68fb      	ldr	r3, [r7, #12]
 80030bc:	695b      	ldr	r3, [r3, #20]
 80030be:	6a7a      	ldr	r2, [r7, #36]	; 0x24
 80030c0:	429a      	cmp	r2, r3
 80030c2:	d209      	bcs.n	80030d8 <_ZNSt5dequeIdSaIdEE17_M_reallocate_mapEjb+0x74>
	    std::copy(this->_M_impl._M_start._M_node,
 80030c4:	68fb      	ldr	r3, [r7, #12]
 80030c6:	6958      	ldr	r0, [r3, #20]
		      this->_M_impl._M_finish._M_node + 1,
 80030c8:	68fb      	ldr	r3, [r7, #12]
 80030ca:	6a5b      	ldr	r3, [r3, #36]	; 0x24
	    std::copy(this->_M_impl._M_start._M_node,
 80030cc:	3304      	adds	r3, #4
 80030ce:	6a7a      	ldr	r2, [r7, #36]	; 0x24
 80030d0:	4619      	mov	r1, r3
 80030d2:	f000 f917 	bl	8003304 <_ZSt4copyIPPdS1_ET0_T_S3_S2_>
 80030d6:	e048      	b.n	800316a <_ZNSt5dequeIdSaIdEE17_M_reallocate_mapEjb+0x106>
	    std::copy_backward(this->_M_impl._M_start._M_node,
 80030d8:	68fb      	ldr	r3, [r7, #12]
 80030da:	6958      	ldr	r0, [r3, #20]
			       this->_M_impl._M_finish._M_node + 1,
 80030dc:	68fb      	ldr	r3, [r7, #12]
 80030de:	6a5b      	ldr	r3, [r3, #36]	; 0x24
	    std::copy_backward(this->_M_impl._M_start._M_node,
 80030e0:	1d19      	adds	r1, r3, #4
			       __new_nstart + __old_num_nodes);
 80030e2:	6a3b      	ldr	r3, [r7, #32]
 80030e4:	009b      	lsls	r3, r3, #2
	    std::copy_backward(this->_M_impl._M_start._M_node,
 80030e6:	6a7a      	ldr	r2, [r7, #36]	; 0x24
 80030e8:	4413      	add	r3, r2
 80030ea:	461a      	mov	r2, r3
 80030ec:	f000 f922 	bl	8003334 <_ZSt13copy_backwardIPPdS1_ET0_T_S3_S2_>
 80030f0:	e03b      	b.n	800316a <_ZNSt5dequeIdSaIdEE17_M_reallocate_mapEjb+0x106>
	  size_type __new_map_size = this->_M_impl._M_map_size
 80030f2:	68fb      	ldr	r3, [r7, #12]
 80030f4:	685c      	ldr	r4, [r3, #4]
				     + std::max(this->_M_impl._M_map_size,
 80030f6:	68fb      	ldr	r3, [r7, #12]
 80030f8:	3304      	adds	r3, #4
 80030fa:	f107 0208 	add.w	r2, r7, #8
 80030fe:	4611      	mov	r1, r2
 8003100:	4618      	mov	r0, r3
 8003102:	f000 f8a7 	bl	8003254 <_ZSt3maxIjERKT_S2_S2_>
 8003106:	4603      	mov	r3, r0
 8003108:	681b      	ldr	r3, [r3, #0]
 800310a:	4423      	add	r3, r4
	  size_type __new_map_size = this->_M_impl._M_map_size
 800310c:	3302      	adds	r3, #2
 800310e:	61bb      	str	r3, [r7, #24]
	  _Map_pointer __new_map = this->_M_allocate_map(__new_map_size);
 8003110:	68fb      	ldr	r3, [r7, #12]
 8003112:	69b9      	ldr	r1, [r7, #24]
 8003114:	4618      	mov	r0, r3
 8003116:	f000 f925 	bl	8003364 <_ZNSt11_Deque_baseIdSaIdEE15_M_allocate_mapEj>
 800311a:	6178      	str	r0, [r7, #20]
	  __new_nstart = __new_map + (__new_map_size - __new_num_nodes) / 2
 800311c:	69ba      	ldr	r2, [r7, #24]
 800311e:	69fb      	ldr	r3, [r7, #28]
 8003120:	1ad3      	subs	r3, r2, r3
 8003122:	085b      	lsrs	r3, r3, #1
 8003124:	009a      	lsls	r2, r3, #2
			 + (__add_at_front ? __nodes_to_add : 0);
 8003126:	79fb      	ldrb	r3, [r7, #7]
 8003128:	2b00      	cmp	r3, #0
 800312a:	d002      	beq.n	8003132 <_ZNSt5dequeIdSaIdEE17_M_reallocate_mapEjb+0xce>
 800312c:	68bb      	ldr	r3, [r7, #8]
 800312e:	009b      	lsls	r3, r3, #2
 8003130:	e000      	b.n	8003134 <_ZNSt5dequeIdSaIdEE17_M_reallocate_mapEjb+0xd0>
 8003132:	2300      	movs	r3, #0
 8003134:	4413      	add	r3, r2
	  __new_nstart = __new_map + (__new_map_size - __new_num_nodes) / 2
 8003136:	697a      	ldr	r2, [r7, #20]
 8003138:	4413      	add	r3, r2
 800313a:	627b      	str	r3, [r7, #36]	; 0x24
	  std::copy(this->_M_impl._M_start._M_node,
 800313c:	68fb      	ldr	r3, [r7, #12]
 800313e:	6958      	ldr	r0, [r3, #20]
		    this->_M_impl._M_finish._M_node + 1,
 8003140:	68fb      	ldr	r3, [r7, #12]
 8003142:	6a5b      	ldr	r3, [r3, #36]	; 0x24
	  std::copy(this->_M_impl._M_start._M_node,
 8003144:	3304      	adds	r3, #4
 8003146:	6a7a      	ldr	r2, [r7, #36]	; 0x24
 8003148:	4619      	mov	r1, r3
 800314a:	f000 f8db 	bl	8003304 <_ZSt4copyIPPdS1_ET0_T_S3_S2_>
	  _M_deallocate_map(this->_M_impl._M_map, this->_M_impl._M_map_size);
 800314e:	68f8      	ldr	r0, [r7, #12]
 8003150:	68fb      	ldr	r3, [r7, #12]
 8003152:	6819      	ldr	r1, [r3, #0]
 8003154:	68fb      	ldr	r3, [r7, #12]
 8003156:	685b      	ldr	r3, [r3, #4]
 8003158:	461a      	mov	r2, r3
 800315a:	f000 f920 	bl	800339e <_ZNSt11_Deque_baseIdSaIdEE17_M_deallocate_mapEPPdj>
	  this->_M_impl._M_map = __new_map;
 800315e:	68fb      	ldr	r3, [r7, #12]
 8003160:	697a      	ldr	r2, [r7, #20]
 8003162:	601a      	str	r2, [r3, #0]
	  this->_M_impl._M_map_size = __new_map_size;
 8003164:	68fb      	ldr	r3, [r7, #12]
 8003166:	69ba      	ldr	r2, [r7, #24]
 8003168:	605a      	str	r2, [r3, #4]
      this->_M_impl._M_start._M_set_node(__new_nstart);
 800316a:	68fb      	ldr	r3, [r7, #12]
 800316c:	3308      	adds	r3, #8
 800316e:	6a79      	ldr	r1, [r7, #36]	; 0x24
 8003170:	4618      	mov	r0, r3
 8003172:	f7ff fc41 	bl	80029f8 <_ZNSt15_Deque_iteratorIdRdPdE11_M_set_nodeEPS1_>
      this->_M_impl._M_finish._M_set_node(__new_nstart + __old_num_nodes - 1);
 8003176:	68fb      	ldr	r3, [r7, #12]
 8003178:	f103 0018 	add.w	r0, r3, #24
 800317c:	6a3b      	ldr	r3, [r7, #32]
 800317e:	f103 4380 	add.w	r3, r3, #1073741824	; 0x40000000
 8003182:	3b01      	subs	r3, #1
 8003184:	009b      	lsls	r3, r3, #2
 8003186:	6a7a      	ldr	r2, [r7, #36]	; 0x24
 8003188:	4413      	add	r3, r2
 800318a:	4619      	mov	r1, r3
 800318c:	f7ff fc34 	bl	80029f8 <_ZNSt15_Deque_iteratorIdRdPdE11_M_set_nodeEPS1_>
    }
 8003190:	bf00      	nop
 8003192:	372c      	adds	r7, #44	; 0x2c
 8003194:	46bd      	mov	sp, r7
 8003196:	bd90      	pop	{r4, r7, pc}

08003198 <_ZNSt16allocator_traitsISaIdEE8allocateERS0_j>:
      allocate(allocator_type& __a, size_type __n)
 8003198:	b580      	push	{r7, lr}
 800319a:	b082      	sub	sp, #8
 800319c:	af00      	add	r7, sp, #0
 800319e:	6078      	str	r0, [r7, #4]
 80031a0:	6039      	str	r1, [r7, #0]
      { return __a.allocate(__n); }
 80031a2:	2200      	movs	r2, #0
 80031a4:	6839      	ldr	r1, [r7, #0]
 80031a6:	6878      	ldr	r0, [r7, #4]
 80031a8:	f000 f915 	bl	80033d6 <_ZN9__gnu_cxx13new_allocatorIdE8allocateEjPKv>
 80031ac:	4603      	mov	r3, r0
 80031ae:	4618      	mov	r0, r3
 80031b0:	3708      	adds	r7, #8
 80031b2:	46bd      	mov	sp, r7
 80031b4:	bd80      	pop	{r7, pc}

080031b6 <_ZNSt16allocator_traitsISaIcEE8max_sizeERKS0_>:
       *  @brief  The maximum supported allocation size
       *  @param  __a  An allocator.
       *  @return @c __a.max_size()
      */
      static _GLIBCXX20_CONSTEXPR size_type
      max_size(const allocator_type& __a __attribute__((__unused__))) noexcept
 80031b6:	b580      	push	{r7, lr}
 80031b8:	b082      	sub	sp, #8
 80031ba:	af00      	add	r7, sp, #0
 80031bc:	6078      	str	r0, [r7, #4]
      {
#if __cplusplus <= 201703L
	return __a.max_size();
 80031be:	6878      	ldr	r0, [r7, #4]
 80031c0:	f000 f927 	bl	8003412 <_ZNK9__gnu_cxx13new_allocatorIcE8max_sizeEv>
 80031c4:	4603      	mov	r3, r0
#else
	return size_t(-1) / sizeof(value_type);
#endif
      }
 80031c6:	4618      	mov	r0, r3
 80031c8:	3708      	adds	r7, #8
 80031ca:	46bd      	mov	sp, r7
 80031cc:	bd80      	pop	{r7, pc}

080031ce <_ZSt3minIjERKT_S2_S2_>:
   *  preprocessor macro.
  */
  template<typename _Tp>
    _GLIBCXX14_CONSTEXPR
    inline const _Tp&
    min(const _Tp& __a, const _Tp& __b)
 80031ce:	b480      	push	{r7}
 80031d0:	b083      	sub	sp, #12
 80031d2:	af00      	add	r7, sp, #0
 80031d4:	6078      	str	r0, [r7, #4]
 80031d6:	6039      	str	r1, [r7, #0]
    {
      // concept requirements
      __glibcxx_function_requires(_LessThanComparableConcept<_Tp>)
      //return __b < __a ? __b : __a;
      if (__b < __a)
 80031d8:	683b      	ldr	r3, [r7, #0]
 80031da:	681a      	ldr	r2, [r3, #0]
 80031dc:	687b      	ldr	r3, [r7, #4]
 80031de:	681b      	ldr	r3, [r3, #0]
 80031e0:	429a      	cmp	r2, r3
 80031e2:	d201      	bcs.n	80031e8 <_ZSt3minIjERKT_S2_S2_+0x1a>
	return __b;
 80031e4:	683b      	ldr	r3, [r7, #0]
 80031e6:	e000      	b.n	80031ea <_ZSt3minIjERKT_S2_S2_+0x1c>
      return __a;
 80031e8:	687b      	ldr	r3, [r7, #4]
    }
 80031ea:	4618      	mov	r0, r3
 80031ec:	370c      	adds	r7, #12
 80031ee:	46bd      	mov	sp, r7
 80031f0:	bc80      	pop	{r7}
 80031f2:	4770      	bx	lr

080031f4 <_ZSt4copyIPPcS1_ET0_T_S3_S2_>:
   *  within [first,last).
  */
  template<typename _II, typename _OI>
    _GLIBCXX20_CONSTEXPR
    inline _OI
    copy(_II __first, _II __last, _OI __result)
 80031f4:	b590      	push	{r4, r7, lr}
 80031f6:	b085      	sub	sp, #20
 80031f8:	af00      	add	r7, sp, #0
 80031fa:	60f8      	str	r0, [r7, #12]
 80031fc:	60b9      	str	r1, [r7, #8]
 80031fe:	607a      	str	r2, [r7, #4]
      __glibcxx_function_requires(_OutputIteratorConcept<_OI,
	    typename iterator_traits<_II>::value_type>)
      __glibcxx_requires_can_increment_range(__first, __last, __result);

      return std::__copy_move_a<__is_move_iterator<_II>::__value>
	     (std::__miter_base(__first), std::__miter_base(__last), __result);
 8003200:	68f8      	ldr	r0, [r7, #12]
 8003202:	f000 f912 	bl	800342a <_ZSt12__miter_baseIPPcET_S2_>
 8003206:	4604      	mov	r4, r0
 8003208:	68b8      	ldr	r0, [r7, #8]
 800320a:	f000 f90e 	bl	800342a <_ZSt12__miter_baseIPPcET_S2_>
 800320e:	4603      	mov	r3, r0
 8003210:	687a      	ldr	r2, [r7, #4]
 8003212:	4619      	mov	r1, r3
 8003214:	4620      	mov	r0, r4
 8003216:	f000 f912 	bl	800343e <_ZSt13__copy_move_aILb0EPPcS1_ET1_T0_S3_S2_>
 800321a:	4603      	mov	r3, r0
    }
 800321c:	4618      	mov	r0, r3
 800321e:	3714      	adds	r7, #20
 8003220:	46bd      	mov	sp, r7
 8003222:	bd90      	pop	{r4, r7, pc}

08003224 <_ZSt13copy_backwardIPPcS1_ET0_T_S3_S2_>:
   *  that the start of the output range may overlap [first,last).
  */
  template<typename _BI1, typename _BI2>
    _GLIBCXX20_CONSTEXPR
    inline _BI2
    copy_backward(_BI1 __first, _BI1 __last, _BI2 __result)
 8003224:	b590      	push	{r4, r7, lr}
 8003226:	b085      	sub	sp, #20
 8003228:	af00      	add	r7, sp, #0
 800322a:	60f8      	str	r0, [r7, #12]
 800322c:	60b9      	str	r1, [r7, #8]
 800322e:	607a      	str	r2, [r7, #4]
	    typename iterator_traits<_BI1>::value_type,
	    typename iterator_traits<_BI2>::value_type>)
      __glibcxx_requires_can_decrement_range(__first, __last, __result);

      return std::__copy_move_backward_a<__is_move_iterator<_BI1>::__value>
	     (std::__miter_base(__first), std::__miter_base(__last), __result);
 8003230:	68f8      	ldr	r0, [r7, #12]
 8003232:	f000 f8fa 	bl	800342a <_ZSt12__miter_baseIPPcET_S2_>
 8003236:	4604      	mov	r4, r0
 8003238:	68b8      	ldr	r0, [r7, #8]
 800323a:	f000 f8f6 	bl	800342a <_ZSt12__miter_baseIPPcET_S2_>
 800323e:	4603      	mov	r3, r0
 8003240:	687a      	ldr	r2, [r7, #4]
 8003242:	4619      	mov	r1, r3
 8003244:	4620      	mov	r0, r4
 8003246:	f000 f91d 	bl	8003484 <_ZSt22__copy_move_backward_aILb0EPPcS1_ET1_T0_S3_S2_>
 800324a:	4603      	mov	r3, r0
    }
 800324c:	4618      	mov	r0, r3
 800324e:	3714      	adds	r7, #20
 8003250:	46bd      	mov	sp, r7
 8003252:	bd90      	pop	{r4, r7, pc}

08003254 <_ZSt3maxIjERKT_S2_S2_>:
    max(const _Tp& __a, const _Tp& __b)
 8003254:	b480      	push	{r7}
 8003256:	b083      	sub	sp, #12
 8003258:	af00      	add	r7, sp, #0
 800325a:	6078      	str	r0, [r7, #4]
 800325c:	6039      	str	r1, [r7, #0]
      if (__a < __b)
 800325e:	687b      	ldr	r3, [r7, #4]
 8003260:	681a      	ldr	r2, [r3, #0]
 8003262:	683b      	ldr	r3, [r7, #0]
 8003264:	681b      	ldr	r3, [r3, #0]
 8003266:	429a      	cmp	r2, r3
 8003268:	d201      	bcs.n	800326e <_ZSt3maxIjERKT_S2_S2_+0x1a>
	return __b;
 800326a:	683b      	ldr	r3, [r7, #0]
 800326c:	e000      	b.n	8003270 <_ZSt3maxIjERKT_S2_S2_+0x1c>
      return __a;
 800326e:	687b      	ldr	r3, [r7, #4]
    }
 8003270:	4618      	mov	r0, r3
 8003272:	370c      	adds	r7, #12
 8003274:	46bd      	mov	sp, r7
 8003276:	bc80      	pop	{r7}
 8003278:	4770      	bx	lr

0800327a <_ZNSt11_Deque_baseIcSaIcEE15_M_allocate_mapEj>:
      _M_allocate_map(size_t __n)
 800327a:	b590      	push	{r4, r7, lr}
 800327c:	b085      	sub	sp, #20
 800327e:	af00      	add	r7, sp, #0
 8003280:	6078      	str	r0, [r7, #4]
 8003282:	6039      	str	r1, [r7, #0]
	_Map_alloc_type __map_alloc = _M_get_map_allocator();
 8003284:	f107 030c 	add.w	r3, r7, #12
 8003288:	6879      	ldr	r1, [r7, #4]
 800328a:	4618      	mov	r0, r3
 800328c:	f000 f91d 	bl	80034ca <_ZNKSt11_Deque_baseIcSaIcEE20_M_get_map_allocatorEv>
	return _Map_alloc_traits::allocate(__map_alloc, __n);
 8003290:	f107 030c 	add.w	r3, r7, #12
 8003294:	6839      	ldr	r1, [r7, #0]
 8003296:	4618      	mov	r0, r3
 8003298:	f000 f934 	bl	8003504 <_ZNSt16allocator_traitsISaIPcEE8allocateERS1_j>
 800329c:	4604      	mov	r4, r0
 800329e:	bf00      	nop
	_Map_alloc_type __map_alloc = _M_get_map_allocator();
 80032a0:	f107 030c 	add.w	r3, r7, #12
 80032a4:	4618      	mov	r0, r3
 80032a6:	f000 f921 	bl	80034ec <_ZNSaIPcED1Ev>
	return _Map_alloc_traits::allocate(__map_alloc, __n);
 80032aa:	4623      	mov	r3, r4
      }
 80032ac:	4618      	mov	r0, r3
 80032ae:	3714      	adds	r7, #20
 80032b0:	46bd      	mov	sp, r7
 80032b2:	bd90      	pop	{r4, r7, pc}

080032b4 <_ZNSt11_Deque_baseIcSaIcEE17_M_deallocate_mapEPPcj>:
      _M_deallocate_map(_Map_pointer __p, size_t __n) _GLIBCXX_NOEXCEPT
 80032b4:	b580      	push	{r7, lr}
 80032b6:	b086      	sub	sp, #24
 80032b8:	af00      	add	r7, sp, #0
 80032ba:	60f8      	str	r0, [r7, #12]
 80032bc:	60b9      	str	r1, [r7, #8]
 80032be:	607a      	str	r2, [r7, #4]
	_Map_alloc_type __map_alloc = _M_get_map_allocator();
 80032c0:	f107 0314 	add.w	r3, r7, #20
 80032c4:	68f9      	ldr	r1, [r7, #12]
 80032c6:	4618      	mov	r0, r3
 80032c8:	f000 f8ff 	bl	80034ca <_ZNKSt11_Deque_baseIcSaIcEE20_M_get_map_allocatorEv>
	_Map_alloc_traits::deallocate(__map_alloc, __p, __n);
 80032cc:	f107 0314 	add.w	r3, r7, #20
 80032d0:	687a      	ldr	r2, [r7, #4]
 80032d2:	68b9      	ldr	r1, [r7, #8]
 80032d4:	4618      	mov	r0, r3
 80032d6:	f000 f924 	bl	8003522 <_ZNSt16allocator_traitsISaIPcEE10deallocateERS1_PS0_j>
	_Map_alloc_type __map_alloc = _M_get_map_allocator();
 80032da:	f107 0314 	add.w	r3, r7, #20
 80032de:	4618      	mov	r0, r3
 80032e0:	f000 f904 	bl	80034ec <_ZNSaIPcED1Ev>
      }
 80032e4:	bf00      	nop
 80032e6:	3718      	adds	r7, #24
 80032e8:	46bd      	mov	sp, r7
 80032ea:	bd80      	pop	{r7, pc}

080032ec <_ZNSt16allocator_traitsISaIdEE8max_sizeERKS0_>:
      max_size(const allocator_type& __a __attribute__((__unused__))) noexcept
 80032ec:	b580      	push	{r7, lr}
 80032ee:	b082      	sub	sp, #8
 80032f0:	af00      	add	r7, sp, #0
 80032f2:	6078      	str	r0, [r7, #4]
	return __a.max_size();
 80032f4:	6878      	ldr	r0, [r7, #4]
 80032f6:	f000 f923 	bl	8003540 <_ZNK9__gnu_cxx13new_allocatorIdE8max_sizeEv>
 80032fa:	4603      	mov	r3, r0
      }
 80032fc:	4618      	mov	r0, r3
 80032fe:	3708      	adds	r7, #8
 8003300:	46bd      	mov	sp, r7
 8003302:	bd80      	pop	{r7, pc}

08003304 <_ZSt4copyIPPdS1_ET0_T_S3_S2_>:
    copy(_II __first, _II __last, _OI __result)
 8003304:	b590      	push	{r4, r7, lr}
 8003306:	b085      	sub	sp, #20
 8003308:	af00      	add	r7, sp, #0
 800330a:	60f8      	str	r0, [r7, #12]
 800330c:	60b9      	str	r1, [r7, #8]
 800330e:	607a      	str	r2, [r7, #4]
	     (std::__miter_base(__first), std::__miter_base(__last), __result);
 8003310:	68f8      	ldr	r0, [r7, #12]
 8003312:	f000 f921 	bl	8003558 <_ZSt12__miter_baseIPPdET_S2_>
 8003316:	4604      	mov	r4, r0
 8003318:	68b8      	ldr	r0, [r7, #8]
 800331a:	f000 f91d 	bl	8003558 <_ZSt12__miter_baseIPPdET_S2_>
 800331e:	4603      	mov	r3, r0
 8003320:	687a      	ldr	r2, [r7, #4]
 8003322:	4619      	mov	r1, r3
 8003324:	4620      	mov	r0, r4
 8003326:	f000 f921 	bl	800356c <_ZSt13__copy_move_aILb0EPPdS1_ET1_T0_S3_S2_>
 800332a:	4603      	mov	r3, r0
    }
 800332c:	4618      	mov	r0, r3
 800332e:	3714      	adds	r7, #20
 8003330:	46bd      	mov	sp, r7
 8003332:	bd90      	pop	{r4, r7, pc}

08003334 <_ZSt13copy_backwardIPPdS1_ET0_T_S3_S2_>:
    copy_backward(_BI1 __first, _BI1 __last, _BI2 __result)
 8003334:	b590      	push	{r4, r7, lr}
 8003336:	b085      	sub	sp, #20
 8003338:	af00      	add	r7, sp, #0
 800333a:	60f8      	str	r0, [r7, #12]
 800333c:	60b9      	str	r1, [r7, #8]
 800333e:	607a      	str	r2, [r7, #4]
	     (std::__miter_base(__first), std::__miter_base(__last), __result);
 8003340:	68f8      	ldr	r0, [r7, #12]
 8003342:	f000 f909 	bl	8003558 <_ZSt12__miter_baseIPPdET_S2_>
 8003346:	4604      	mov	r4, r0
 8003348:	68b8      	ldr	r0, [r7, #8]
 800334a:	f000 f905 	bl	8003558 <_ZSt12__miter_baseIPPdET_S2_>
 800334e:	4603      	mov	r3, r0
 8003350:	687a      	ldr	r2, [r7, #4]
 8003352:	4619      	mov	r1, r3
 8003354:	4620      	mov	r0, r4
 8003356:	f000 f92c 	bl	80035b2 <_ZSt22__copy_move_backward_aILb0EPPdS1_ET1_T0_S3_S2_>
 800335a:	4603      	mov	r3, r0
    }
 800335c:	4618      	mov	r0, r3
 800335e:	3714      	adds	r7, #20
 8003360:	46bd      	mov	sp, r7
 8003362:	bd90      	pop	{r4, r7, pc}

08003364 <_ZNSt11_Deque_baseIdSaIdEE15_M_allocate_mapEj>:
      _M_allocate_map(size_t __n)
 8003364:	b590      	push	{r4, r7, lr}
 8003366:	b085      	sub	sp, #20
 8003368:	af00      	add	r7, sp, #0
 800336a:	6078      	str	r0, [r7, #4]
 800336c:	6039      	str	r1, [r7, #0]
	_Map_alloc_type __map_alloc = _M_get_map_allocator();
 800336e:	f107 030c 	add.w	r3, r7, #12
 8003372:	6879      	ldr	r1, [r7, #4]
 8003374:	4618      	mov	r0, r3
 8003376:	f000 f93f 	bl	80035f8 <_ZNKSt11_Deque_baseIdSaIdEE20_M_get_map_allocatorEv>
	return _Map_alloc_traits::allocate(__map_alloc, __n);
 800337a:	f107 030c 	add.w	r3, r7, #12
 800337e:	6839      	ldr	r1, [r7, #0]
 8003380:	4618      	mov	r0, r3
 8003382:	f000 f956 	bl	8003632 <_ZNSt16allocator_traitsISaIPdEE8allocateERS1_j>
 8003386:	4604      	mov	r4, r0
 8003388:	bf00      	nop
	_Map_alloc_type __map_alloc = _M_get_map_allocator();
 800338a:	f107 030c 	add.w	r3, r7, #12
 800338e:	4618      	mov	r0, r3
 8003390:	f000 f943 	bl	800361a <_ZNSaIPdED1Ev>
	return _Map_alloc_traits::allocate(__map_alloc, __n);
 8003394:	4623      	mov	r3, r4
      }
 8003396:	4618      	mov	r0, r3
 8003398:	3714      	adds	r7, #20
 800339a:	46bd      	mov	sp, r7
 800339c:	bd90      	pop	{r4, r7, pc}

0800339e <_ZNSt11_Deque_baseIdSaIdEE17_M_deallocate_mapEPPdj>:
      _M_deallocate_map(_Map_pointer __p, size_t __n) _GLIBCXX_NOEXCEPT
 800339e:	b580      	push	{r7, lr}
 80033a0:	b086      	sub	sp, #24
 80033a2:	af00      	add	r7, sp, #0
 80033a4:	60f8      	str	r0, [r7, #12]
 80033a6:	60b9      	str	r1, [r7, #8]
 80033a8:	607a      	str	r2, [r7, #4]
	_Map_alloc_type __map_alloc = _M_get_map_allocator();
 80033aa:	f107 0314 	add.w	r3, r7, #20
 80033ae:	68f9      	ldr	r1, [r7, #12]
 80033b0:	4618      	mov	r0, r3
 80033b2:	f000 f921 	bl	80035f8 <_ZNKSt11_Deque_baseIdSaIdEE20_M_get_map_allocatorEv>
	_Map_alloc_traits::deallocate(__map_alloc, __p, __n);
 80033b6:	f107 0314 	add.w	r3, r7, #20
 80033ba:	687a      	ldr	r2, [r7, #4]
 80033bc:	68b9      	ldr	r1, [r7, #8]
 80033be:	4618      	mov	r0, r3
 80033c0:	f000 f946 	bl	8003650 <_ZNSt16allocator_traitsISaIPdEE10deallocateERS1_PS0_j>
	_Map_alloc_type __map_alloc = _M_get_map_allocator();
 80033c4:	f107 0314 	add.w	r3, r7, #20
 80033c8:	4618      	mov	r0, r3
 80033ca:	f000 f926 	bl	800361a <_ZNSaIPdED1Ev>
      }
 80033ce:	bf00      	nop
 80033d0:	3718      	adds	r7, #24
 80033d2:	46bd      	mov	sp, r7
 80033d4:	bd80      	pop	{r7, pc}

080033d6 <_ZN9__gnu_cxx13new_allocatorIdE8allocateEjPKv>:
      allocate(size_type __n, const void* = static_cast<const void*>(0))
 80033d6:	b580      	push	{r7, lr}
 80033d8:	b084      	sub	sp, #16
 80033da:	af00      	add	r7, sp, #0
 80033dc:	60f8      	str	r0, [r7, #12]
 80033de:	60b9      	str	r1, [r7, #8]
 80033e0:	607a      	str	r2, [r7, #4]
	if (__n > this->_M_max_size())
 80033e2:	68f8      	ldr	r0, [r7, #12]
 80033e4:	f000 f943 	bl	800366e <_ZNK9__gnu_cxx13new_allocatorIdE11_M_max_sizeEv>
 80033e8:	4602      	mov	r2, r0
 80033ea:	68bb      	ldr	r3, [r7, #8]
 80033ec:	4293      	cmp	r3, r2
 80033ee:	bf8c      	ite	hi
 80033f0:	2301      	movhi	r3, #1
 80033f2:	2300      	movls	r3, #0
 80033f4:	b2db      	uxtb	r3, r3
 80033f6:	2b00      	cmp	r3, #0
 80033f8:	d001      	beq.n	80033fe <_ZN9__gnu_cxx13new_allocatorIdE8allocateEjPKv+0x28>
	  std::__throw_bad_alloc();
 80033fa:	f004 f9e4 	bl	80077c6 <_ZSt17__throw_bad_allocv>
	return static_cast<_Tp*>(::operator new(__n * sizeof(_Tp)));
 80033fe:	68bb      	ldr	r3, [r7, #8]
 8003400:	00db      	lsls	r3, r3, #3
 8003402:	4618      	mov	r0, r3
 8003404:	f004 f9cc 	bl	80077a0 <_Znwj>
 8003408:	4603      	mov	r3, r0
      }
 800340a:	4618      	mov	r0, r3
 800340c:	3710      	adds	r7, #16
 800340e:	46bd      	mov	sp, r7
 8003410:	bd80      	pop	{r7, pc}

08003412 <_ZNK9__gnu_cxx13new_allocatorIcE8max_sizeEv>:
      max_size() const _GLIBCXX_USE_NOEXCEPT
 8003412:	b580      	push	{r7, lr}
 8003414:	b082      	sub	sp, #8
 8003416:	af00      	add	r7, sp, #0
 8003418:	6078      	str	r0, [r7, #4]
      { return _M_max_size(); }
 800341a:	6878      	ldr	r0, [r7, #4]
 800341c:	f7ff fceb 	bl	8002df6 <_ZNK9__gnu_cxx13new_allocatorIcE11_M_max_sizeEv>
 8003420:	4603      	mov	r3, r0
 8003422:	4618      	mov	r0, r3
 8003424:	3708      	adds	r7, #8
 8003426:	46bd      	mov	sp, r7
 8003428:	bd80      	pop	{r7, pc}

0800342a <_ZSt12__miter_baseIPPcET_S2_>:
  // Fallback implementation of the function in bits/stl_iterator.h used to
  // remove the move_iterator wrapper.
  template<typename _Iterator>
    _GLIBCXX20_CONSTEXPR
    inline _Iterator
    __miter_base(_Iterator __it)
 800342a:	b480      	push	{r7}
 800342c:	b083      	sub	sp, #12
 800342e:	af00      	add	r7, sp, #0
 8003430:	6078      	str	r0, [r7, #4]
    { return __it; }
 8003432:	687b      	ldr	r3, [r7, #4]
 8003434:	4618      	mov	r0, r3
 8003436:	370c      	adds	r7, #12
 8003438:	46bd      	mov	sp, r7
 800343a:	bc80      	pop	{r7}
 800343c:	4770      	bx	lr

0800343e <_ZSt13__copy_move_aILb0EPPcS1_ET1_T0_S3_S2_>:
    __copy_move_a(_II __first, _II __last, _OI __result)
 800343e:	b5b0      	push	{r4, r5, r7, lr}
 8003440:	b084      	sub	sp, #16
 8003442:	af00      	add	r7, sp, #0
 8003444:	60f8      	str	r0, [r7, #12]
 8003446:	60b9      	str	r1, [r7, #8]
 8003448:	607a      	str	r2, [r7, #4]
      return std::__niter_wrap(__result,
 800344a:	68f8      	ldr	r0, [r7, #12]
 800344c:	f000 f91a 	bl	8003684 <_ZSt12__niter_baseIPPcET_S2_>
 8003450:	4604      	mov	r4, r0
 8003452:	68b8      	ldr	r0, [r7, #8]
 8003454:	f000 f916 	bl	8003684 <_ZSt12__niter_baseIPPcET_S2_>
 8003458:	4605      	mov	r5, r0
 800345a:	687b      	ldr	r3, [r7, #4]
 800345c:	4618      	mov	r0, r3
 800345e:	f000 f911 	bl	8003684 <_ZSt12__niter_baseIPPcET_S2_>
 8003462:	4603      	mov	r3, r0
 8003464:	461a      	mov	r2, r3
 8003466:	4629      	mov	r1, r5
 8003468:	4620      	mov	r0, r4
 800346a:	f000 f915 	bl	8003698 <_ZSt14__copy_move_a1ILb0EPPcS1_ET1_T0_S3_S2_>
 800346e:	4602      	mov	r2, r0
 8003470:	1d3b      	adds	r3, r7, #4
 8003472:	4611      	mov	r1, r2
 8003474:	4618      	mov	r0, r3
 8003476:	f000 f91f 	bl	80036b8 <_ZSt12__niter_wrapIPPcET_RKS2_S2_>
 800347a:	4603      	mov	r3, r0
    }
 800347c:	4618      	mov	r0, r3
 800347e:	3710      	adds	r7, #16
 8003480:	46bd      	mov	sp, r7
 8003482:	bdb0      	pop	{r4, r5, r7, pc}

08003484 <_ZSt22__copy_move_backward_aILb0EPPcS1_ET1_T0_S3_S2_>:
    __copy_move_backward_a(_II __first, _II __last, _OI __result)
 8003484:	b5b0      	push	{r4, r5, r7, lr}
 8003486:	b084      	sub	sp, #16
 8003488:	af00      	add	r7, sp, #0
 800348a:	60f8      	str	r0, [r7, #12]
 800348c:	60b9      	str	r1, [r7, #8]
 800348e:	607a      	str	r2, [r7, #4]
      return std::__niter_wrap(__result,
 8003490:	68f8      	ldr	r0, [r7, #12]
 8003492:	f000 f8f7 	bl	8003684 <_ZSt12__niter_baseIPPcET_S2_>
 8003496:	4604      	mov	r4, r0
 8003498:	68b8      	ldr	r0, [r7, #8]
 800349a:	f000 f8f3 	bl	8003684 <_ZSt12__niter_baseIPPcET_S2_>
 800349e:	4605      	mov	r5, r0
 80034a0:	687b      	ldr	r3, [r7, #4]
 80034a2:	4618      	mov	r0, r3
 80034a4:	f000 f8ee 	bl	8003684 <_ZSt12__niter_baseIPPcET_S2_>
 80034a8:	4603      	mov	r3, r0
 80034aa:	461a      	mov	r2, r3
 80034ac:	4629      	mov	r1, r5
 80034ae:	4620      	mov	r0, r4
 80034b0:	f000 f90d 	bl	80036ce <_ZSt23__copy_move_backward_a1ILb0EPPcS1_ET1_T0_S3_S2_>
 80034b4:	4602      	mov	r2, r0
 80034b6:	1d3b      	adds	r3, r7, #4
 80034b8:	4611      	mov	r1, r2
 80034ba:	4618      	mov	r0, r3
 80034bc:	f000 f8fc 	bl	80036b8 <_ZSt12__niter_wrapIPPcET_RKS2_S2_>
 80034c0:	4603      	mov	r3, r0
    }
 80034c2:	4618      	mov	r0, r3
 80034c4:	3710      	adds	r7, #16
 80034c6:	46bd      	mov	sp, r7
 80034c8:	bdb0      	pop	{r4, r5, r7, pc}

080034ca <_ZNKSt11_Deque_baseIcSaIcEE20_M_get_map_allocatorEv>:
      _M_get_map_allocator() const _GLIBCXX_NOEXCEPT
 80034ca:	b580      	push	{r7, lr}
 80034cc:	b082      	sub	sp, #8
 80034ce:	af00      	add	r7, sp, #0
 80034d0:	6078      	str	r0, [r7, #4]
 80034d2:	6039      	str	r1, [r7, #0]
      { return _Map_alloc_type(_M_get_Tp_allocator()); }
 80034d4:	6838      	ldr	r0, [r7, #0]
 80034d6:	f7ff fcd5 	bl	8002e84 <_ZNKSt11_Deque_baseIcSaIcEE19_M_get_Tp_allocatorEv>
 80034da:	4603      	mov	r3, r0
 80034dc:	4619      	mov	r1, r3
 80034de:	6878      	ldr	r0, [r7, #4]
 80034e0:	f000 f905 	bl	80036ee <_ZNSaIPcEC1IcEERKSaIT_E>
 80034e4:	6878      	ldr	r0, [r7, #4]
 80034e6:	3708      	adds	r7, #8
 80034e8:	46bd      	mov	sp, r7
 80034ea:	bd80      	pop	{r7, pc}

080034ec <_ZNSaIPcED1Ev>:
	allocator(const allocator<_Tp1>&) _GLIBCXX_NOTHROW { }

#if __cpp_constexpr_dynamic_alloc
      constexpr
#endif
      ~allocator() _GLIBCXX_NOTHROW { }
 80034ec:	b580      	push	{r7, lr}
 80034ee:	b082      	sub	sp, #8
 80034f0:	af00      	add	r7, sp, #0
 80034f2:	6078      	str	r0, [r7, #4]
 80034f4:	6878      	ldr	r0, [r7, #4]
 80034f6:	f000 f907 	bl	8003708 <_ZN9__gnu_cxx13new_allocatorIPcED1Ev>
 80034fa:	687b      	ldr	r3, [r7, #4]
 80034fc:	4618      	mov	r0, r3
 80034fe:	3708      	adds	r7, #8
 8003500:	46bd      	mov	sp, r7
 8003502:	bd80      	pop	{r7, pc}

08003504 <_ZNSt16allocator_traitsISaIPcEE8allocateERS1_j>:
      allocate(allocator_type& __a, size_type __n)
 8003504:	b580      	push	{r7, lr}
 8003506:	b082      	sub	sp, #8
 8003508:	af00      	add	r7, sp, #0
 800350a:	6078      	str	r0, [r7, #4]
 800350c:	6039      	str	r1, [r7, #0]
      { return __a.allocate(__n); }
 800350e:	2200      	movs	r2, #0
 8003510:	6839      	ldr	r1, [r7, #0]
 8003512:	6878      	ldr	r0, [r7, #4]
 8003514:	f000 f902 	bl	800371c <_ZN9__gnu_cxx13new_allocatorIPcE8allocateEjPKv>
 8003518:	4603      	mov	r3, r0
 800351a:	4618      	mov	r0, r3
 800351c:	3708      	adds	r7, #8
 800351e:	46bd      	mov	sp, r7
 8003520:	bd80      	pop	{r7, pc}

08003522 <_ZNSt16allocator_traitsISaIPcEE10deallocateERS1_PS0_j>:
      deallocate(allocator_type& __a, pointer __p, size_type __n)
 8003522:	b580      	push	{r7, lr}
 8003524:	b084      	sub	sp, #16
 8003526:	af00      	add	r7, sp, #0
 8003528:	60f8      	str	r0, [r7, #12]
 800352a:	60b9      	str	r1, [r7, #8]
 800352c:	607a      	str	r2, [r7, #4]
      { __a.deallocate(__p, __n); }
 800352e:	687a      	ldr	r2, [r7, #4]
 8003530:	68b9      	ldr	r1, [r7, #8]
 8003532:	68f8      	ldr	r0, [r7, #12]
 8003534:	f000 f910 	bl	8003758 <_ZN9__gnu_cxx13new_allocatorIPcE10deallocateEPS1_j>
 8003538:	bf00      	nop
 800353a:	3710      	adds	r7, #16
 800353c:	46bd      	mov	sp, r7
 800353e:	bd80      	pop	{r7, pc}

08003540 <_ZNK9__gnu_cxx13new_allocatorIdE8max_sizeEv>:
      max_size() const _GLIBCXX_USE_NOEXCEPT
 8003540:	b580      	push	{r7, lr}
 8003542:	b082      	sub	sp, #8
 8003544:	af00      	add	r7, sp, #0
 8003546:	6078      	str	r0, [r7, #4]
      { return _M_max_size(); }
 8003548:	6878      	ldr	r0, [r7, #4]
 800354a:	f000 f890 	bl	800366e <_ZNK9__gnu_cxx13new_allocatorIdE11_M_max_sizeEv>
 800354e:	4603      	mov	r3, r0
 8003550:	4618      	mov	r0, r3
 8003552:	3708      	adds	r7, #8
 8003554:	46bd      	mov	sp, r7
 8003556:	bd80      	pop	{r7, pc}

08003558 <_ZSt12__miter_baseIPPdET_S2_>:
    __miter_base(_Iterator __it)
 8003558:	b480      	push	{r7}
 800355a:	b083      	sub	sp, #12
 800355c:	af00      	add	r7, sp, #0
 800355e:	6078      	str	r0, [r7, #4]
    { return __it; }
 8003560:	687b      	ldr	r3, [r7, #4]
 8003562:	4618      	mov	r0, r3
 8003564:	370c      	adds	r7, #12
 8003566:	46bd      	mov	sp, r7
 8003568:	bc80      	pop	{r7}
 800356a:	4770      	bx	lr

0800356c <_ZSt13__copy_move_aILb0EPPdS1_ET1_T0_S3_S2_>:
    __copy_move_a(_II __first, _II __last, _OI __result)
 800356c:	b5b0      	push	{r4, r5, r7, lr}
 800356e:	b084      	sub	sp, #16
 8003570:	af00      	add	r7, sp, #0
 8003572:	60f8      	str	r0, [r7, #12]
 8003574:	60b9      	str	r1, [r7, #8]
 8003576:	607a      	str	r2, [r7, #4]
      return std::__niter_wrap(__result,
 8003578:	68f8      	ldr	r0, [r7, #12]
 800357a:	f000 f8fd 	bl	8003778 <_ZSt12__niter_baseIPPdET_S2_>
 800357e:	4604      	mov	r4, r0
 8003580:	68b8      	ldr	r0, [r7, #8]
 8003582:	f000 f8f9 	bl	8003778 <_ZSt12__niter_baseIPPdET_S2_>
 8003586:	4605      	mov	r5, r0
 8003588:	687b      	ldr	r3, [r7, #4]
 800358a:	4618      	mov	r0, r3
 800358c:	f000 f8f4 	bl	8003778 <_ZSt12__niter_baseIPPdET_S2_>
 8003590:	4603      	mov	r3, r0
 8003592:	461a      	mov	r2, r3
 8003594:	4629      	mov	r1, r5
 8003596:	4620      	mov	r0, r4
 8003598:	f000 f8f8 	bl	800378c <_ZSt14__copy_move_a1ILb0EPPdS1_ET1_T0_S3_S2_>
 800359c:	4602      	mov	r2, r0
 800359e:	1d3b      	adds	r3, r7, #4
 80035a0:	4611      	mov	r1, r2
 80035a2:	4618      	mov	r0, r3
 80035a4:	f000 f902 	bl	80037ac <_ZSt12__niter_wrapIPPdET_RKS2_S2_>
 80035a8:	4603      	mov	r3, r0
    }
 80035aa:	4618      	mov	r0, r3
 80035ac:	3710      	adds	r7, #16
 80035ae:	46bd      	mov	sp, r7
 80035b0:	bdb0      	pop	{r4, r5, r7, pc}

080035b2 <_ZSt22__copy_move_backward_aILb0EPPdS1_ET1_T0_S3_S2_>:
    __copy_move_backward_a(_II __first, _II __last, _OI __result)
 80035b2:	b5b0      	push	{r4, r5, r7, lr}
 80035b4:	b084      	sub	sp, #16
 80035b6:	af00      	add	r7, sp, #0
 80035b8:	60f8      	str	r0, [r7, #12]
 80035ba:	60b9      	str	r1, [r7, #8]
 80035bc:	607a      	str	r2, [r7, #4]
      return std::__niter_wrap(__result,
 80035be:	68f8      	ldr	r0, [r7, #12]
 80035c0:	f000 f8da 	bl	8003778 <_ZSt12__niter_baseIPPdET_S2_>
 80035c4:	4604      	mov	r4, r0
 80035c6:	68b8      	ldr	r0, [r7, #8]
 80035c8:	f000 f8d6 	bl	8003778 <_ZSt12__niter_baseIPPdET_S2_>
 80035cc:	4605      	mov	r5, r0
 80035ce:	687b      	ldr	r3, [r7, #4]
 80035d0:	4618      	mov	r0, r3
 80035d2:	f000 f8d1 	bl	8003778 <_ZSt12__niter_baseIPPdET_S2_>
 80035d6:	4603      	mov	r3, r0
 80035d8:	461a      	mov	r2, r3
 80035da:	4629      	mov	r1, r5
 80035dc:	4620      	mov	r0, r4
 80035de:	f000 f8f0 	bl	80037c2 <_ZSt23__copy_move_backward_a1ILb0EPPdS1_ET1_T0_S3_S2_>
 80035e2:	4602      	mov	r2, r0
 80035e4:	1d3b      	adds	r3, r7, #4
 80035e6:	4611      	mov	r1, r2
 80035e8:	4618      	mov	r0, r3
 80035ea:	f000 f8df 	bl	80037ac <_ZSt12__niter_wrapIPPdET_RKS2_S2_>
 80035ee:	4603      	mov	r3, r0
    }
 80035f0:	4618      	mov	r0, r3
 80035f2:	3710      	adds	r7, #16
 80035f4:	46bd      	mov	sp, r7
 80035f6:	bdb0      	pop	{r4, r5, r7, pc}

080035f8 <_ZNKSt11_Deque_baseIdSaIdEE20_M_get_map_allocatorEv>:
      _M_get_map_allocator() const _GLIBCXX_NOEXCEPT
 80035f8:	b580      	push	{r7, lr}
 80035fa:	b082      	sub	sp, #8
 80035fc:	af00      	add	r7, sp, #0
 80035fe:	6078      	str	r0, [r7, #4]
 8003600:	6039      	str	r1, [r7, #0]
      { return _Map_alloc_type(_M_get_Tp_allocator()); }
 8003602:	6838      	ldr	r0, [r7, #0]
 8003604:	f7ff fd24 	bl	8003050 <_ZNKSt11_Deque_baseIdSaIdEE19_M_get_Tp_allocatorEv>
 8003608:	4603      	mov	r3, r0
 800360a:	4619      	mov	r1, r3
 800360c:	6878      	ldr	r0, [r7, #4]
 800360e:	f000 f8e8 	bl	80037e2 <_ZNSaIPdEC1IdEERKSaIT_E>
 8003612:	6878      	ldr	r0, [r7, #4]
 8003614:	3708      	adds	r7, #8
 8003616:	46bd      	mov	sp, r7
 8003618:	bd80      	pop	{r7, pc}

0800361a <_ZNSaIPdED1Ev>:
 800361a:	b580      	push	{r7, lr}
 800361c:	b082      	sub	sp, #8
 800361e:	af00      	add	r7, sp, #0
 8003620:	6078      	str	r0, [r7, #4]
 8003622:	6878      	ldr	r0, [r7, #4]
 8003624:	f000 f8ea 	bl	80037fc <_ZN9__gnu_cxx13new_allocatorIPdED1Ev>
 8003628:	687b      	ldr	r3, [r7, #4]
 800362a:	4618      	mov	r0, r3
 800362c:	3708      	adds	r7, #8
 800362e:	46bd      	mov	sp, r7
 8003630:	bd80      	pop	{r7, pc}

08003632 <_ZNSt16allocator_traitsISaIPdEE8allocateERS1_j>:
      allocate(allocator_type& __a, size_type __n)
 8003632:	b580      	push	{r7, lr}
 8003634:	b082      	sub	sp, #8
 8003636:	af00      	add	r7, sp, #0
 8003638:	6078      	str	r0, [r7, #4]
 800363a:	6039      	str	r1, [r7, #0]
      { return __a.allocate(__n); }
 800363c:	2200      	movs	r2, #0
 800363e:	6839      	ldr	r1, [r7, #0]
 8003640:	6878      	ldr	r0, [r7, #4]
 8003642:	f000 f8e5 	bl	8003810 <_ZN9__gnu_cxx13new_allocatorIPdE8allocateEjPKv>
 8003646:	4603      	mov	r3, r0
 8003648:	4618      	mov	r0, r3
 800364a:	3708      	adds	r7, #8
 800364c:	46bd      	mov	sp, r7
 800364e:	bd80      	pop	{r7, pc}

08003650 <_ZNSt16allocator_traitsISaIPdEE10deallocateERS1_PS0_j>:
      deallocate(allocator_type& __a, pointer __p, size_type __n)
 8003650:	b580      	push	{r7, lr}
 8003652:	b084      	sub	sp, #16
 8003654:	af00      	add	r7, sp, #0
 8003656:	60f8      	str	r0, [r7, #12]
 8003658:	60b9      	str	r1, [r7, #8]
 800365a:	607a      	str	r2, [r7, #4]
      { __a.deallocate(__p, __n); }
 800365c:	687a      	ldr	r2, [r7, #4]
 800365e:	68b9      	ldr	r1, [r7, #8]
 8003660:	68f8      	ldr	r0, [r7, #12]
 8003662:	f000 f8f3 	bl	800384c <_ZN9__gnu_cxx13new_allocatorIPdE10deallocateEPS1_j>
 8003666:	bf00      	nop
 8003668:	3710      	adds	r7, #16
 800366a:	46bd      	mov	sp, r7
 800366c:	bd80      	pop	{r7, pc}

0800366e <_ZNK9__gnu_cxx13new_allocatorIdE11_M_max_sizeEv>:
      _M_max_size() const _GLIBCXX_USE_NOEXCEPT
 800366e:	b480      	push	{r7}
 8003670:	b083      	sub	sp, #12
 8003672:	af00      	add	r7, sp, #0
 8003674:	6078      	str	r0, [r7, #4]
	return std::size_t(__PTRDIFF_MAX__) / sizeof(_Tp);
 8003676:	f06f 4370 	mvn.w	r3, #4026531840	; 0xf0000000
      }
 800367a:	4618      	mov	r0, r3
 800367c:	370c      	adds	r7, #12
 800367e:	46bd      	mov	sp, r7
 8003680:	bc80      	pop	{r7}
 8003682:	4770      	bx	lr

08003684 <_ZSt12__niter_baseIPPcET_S2_>:
    __niter_base(_Iterator __it)
 8003684:	b480      	push	{r7}
 8003686:	b083      	sub	sp, #12
 8003688:	af00      	add	r7, sp, #0
 800368a:	6078      	str	r0, [r7, #4]
    { return __it; }
 800368c:	687b      	ldr	r3, [r7, #4]
 800368e:	4618      	mov	r0, r3
 8003690:	370c      	adds	r7, #12
 8003692:	46bd      	mov	sp, r7
 8003694:	bc80      	pop	{r7}
 8003696:	4770      	bx	lr

08003698 <_ZSt14__copy_move_a1ILb0EPPcS1_ET1_T0_S3_S2_>:
    __copy_move_a1(_II __first, _II __last, _OI __result)
 8003698:	b580      	push	{r7, lr}
 800369a:	b084      	sub	sp, #16
 800369c:	af00      	add	r7, sp, #0
 800369e:	60f8      	str	r0, [r7, #12]
 80036a0:	60b9      	str	r1, [r7, #8]
 80036a2:	607a      	str	r2, [r7, #4]
    { return std::__copy_move_a2<_IsMove>(__first, __last, __result); }
 80036a4:	687a      	ldr	r2, [r7, #4]
 80036a6:	68b9      	ldr	r1, [r7, #8]
 80036a8:	68f8      	ldr	r0, [r7, #12]
 80036aa:	f000 f8df 	bl	800386c <_ZSt14__copy_move_a2ILb0EPPcS1_ET1_T0_S3_S2_>
 80036ae:	4603      	mov	r3, r0
 80036b0:	4618      	mov	r0, r3
 80036b2:	3710      	adds	r7, #16
 80036b4:	46bd      	mov	sp, r7
 80036b6:	bd80      	pop	{r7, pc}

080036b8 <_ZSt12__niter_wrapIPPcET_RKS2_S2_>:
    __niter_wrap(const _Iterator&, _Iterator __res)
 80036b8:	b480      	push	{r7}
 80036ba:	b083      	sub	sp, #12
 80036bc:	af00      	add	r7, sp, #0
 80036be:	6078      	str	r0, [r7, #4]
 80036c0:	6039      	str	r1, [r7, #0]
    { return __res; }
 80036c2:	683b      	ldr	r3, [r7, #0]
 80036c4:	4618      	mov	r0, r3
 80036c6:	370c      	adds	r7, #12
 80036c8:	46bd      	mov	sp, r7
 80036ca:	bc80      	pop	{r7}
 80036cc:	4770      	bx	lr

080036ce <_ZSt23__copy_move_backward_a1ILb0EPPcS1_ET1_T0_S3_S2_>:
    __copy_move_backward_a1(_BI1 __first, _BI1 __last, _BI2 __result)
 80036ce:	b580      	push	{r7, lr}
 80036d0:	b084      	sub	sp, #16
 80036d2:	af00      	add	r7, sp, #0
 80036d4:	60f8      	str	r0, [r7, #12]
 80036d6:	60b9      	str	r1, [r7, #8]
 80036d8:	607a      	str	r2, [r7, #4]
    { return std::__copy_move_backward_a2<_IsMove>(__first, __last, __result); }
 80036da:	687a      	ldr	r2, [r7, #4]
 80036dc:	68b9      	ldr	r1, [r7, #8]
 80036de:	68f8      	ldr	r0, [r7, #12]
 80036e0:	f000 f8d4 	bl	800388c <_ZSt23__copy_move_backward_a2ILb0EPPcS1_ET1_T0_S3_S2_>
 80036e4:	4603      	mov	r3, r0
 80036e6:	4618      	mov	r0, r3
 80036e8:	3710      	adds	r7, #16
 80036ea:	46bd      	mov	sp, r7
 80036ec:	bd80      	pop	{r7, pc}

080036ee <_ZNSaIPcEC1IcEERKSaIT_E>:
	allocator(const allocator<_Tp1>&) _GLIBCXX_NOTHROW { }
 80036ee:	b580      	push	{r7, lr}
 80036f0:	b082      	sub	sp, #8
 80036f2:	af00      	add	r7, sp, #0
 80036f4:	6078      	str	r0, [r7, #4]
 80036f6:	6039      	str	r1, [r7, #0]
 80036f8:	6878      	ldr	r0, [r7, #4]
 80036fa:	f000 f8d7 	bl	80038ac <_ZN9__gnu_cxx13new_allocatorIPcEC1Ev>
 80036fe:	687b      	ldr	r3, [r7, #4]
 8003700:	4618      	mov	r0, r3
 8003702:	3708      	adds	r7, #8
 8003704:	46bd      	mov	sp, r7
 8003706:	bd80      	pop	{r7, pc}

08003708 <_ZN9__gnu_cxx13new_allocatorIPcED1Ev>:
      ~new_allocator() _GLIBCXX_USE_NOEXCEPT { }
 8003708:	b480      	push	{r7}
 800370a:	b083      	sub	sp, #12
 800370c:	af00      	add	r7, sp, #0
 800370e:	6078      	str	r0, [r7, #4]
 8003710:	687b      	ldr	r3, [r7, #4]
 8003712:	4618      	mov	r0, r3
 8003714:	370c      	adds	r7, #12
 8003716:	46bd      	mov	sp, r7
 8003718:	bc80      	pop	{r7}
 800371a:	4770      	bx	lr

0800371c <_ZN9__gnu_cxx13new_allocatorIPcE8allocateEjPKv>:
      allocate(size_type __n, const void* = static_cast<const void*>(0))
 800371c:	b580      	push	{r7, lr}
 800371e:	b084      	sub	sp, #16
 8003720:	af00      	add	r7, sp, #0
 8003722:	60f8      	str	r0, [r7, #12]
 8003724:	60b9      	str	r1, [r7, #8]
 8003726:	607a      	str	r2, [r7, #4]
	if (__n > this->_M_max_size())
 8003728:	68f8      	ldr	r0, [r7, #12]
 800372a:	f000 f8c9 	bl	80038c0 <_ZNK9__gnu_cxx13new_allocatorIPcE11_M_max_sizeEv>
 800372e:	4602      	mov	r2, r0
 8003730:	68bb      	ldr	r3, [r7, #8]
 8003732:	4293      	cmp	r3, r2
 8003734:	bf8c      	ite	hi
 8003736:	2301      	movhi	r3, #1
 8003738:	2300      	movls	r3, #0
 800373a:	b2db      	uxtb	r3, r3
 800373c:	2b00      	cmp	r3, #0
 800373e:	d001      	beq.n	8003744 <_ZN9__gnu_cxx13new_allocatorIPcE8allocateEjPKv+0x28>
	  std::__throw_bad_alloc();
 8003740:	f004 f841 	bl	80077c6 <_ZSt17__throw_bad_allocv>
	return static_cast<_Tp*>(::operator new(__n * sizeof(_Tp)));
 8003744:	68bb      	ldr	r3, [r7, #8]
 8003746:	009b      	lsls	r3, r3, #2
 8003748:	4618      	mov	r0, r3
 800374a:	f004 f829 	bl	80077a0 <_Znwj>
 800374e:	4603      	mov	r3, r0
      }
 8003750:	4618      	mov	r0, r3
 8003752:	3710      	adds	r7, #16
 8003754:	46bd      	mov	sp, r7
 8003756:	bd80      	pop	{r7, pc}

08003758 <_ZN9__gnu_cxx13new_allocatorIPcE10deallocateEPS1_j>:
      deallocate(_Tp* __p, size_type __t)
 8003758:	b580      	push	{r7, lr}
 800375a:	b084      	sub	sp, #16
 800375c:	af00      	add	r7, sp, #0
 800375e:	60f8      	str	r0, [r7, #12]
 8003760:	60b9      	str	r1, [r7, #8]
 8003762:	607a      	str	r2, [r7, #4]
	::operator delete(__p
 8003764:	687b      	ldr	r3, [r7, #4]
 8003766:	009b      	lsls	r3, r3, #2
 8003768:	4619      	mov	r1, r3
 800376a:	68b8      	ldr	r0, [r7, #8]
 800376c:	f004 f816 	bl	800779c <_ZdlPvj>
      }
 8003770:	bf00      	nop
 8003772:	3710      	adds	r7, #16
 8003774:	46bd      	mov	sp, r7
 8003776:	bd80      	pop	{r7, pc}

08003778 <_ZSt12__niter_baseIPPdET_S2_>:
    __niter_base(_Iterator __it)
 8003778:	b480      	push	{r7}
 800377a:	b083      	sub	sp, #12
 800377c:	af00      	add	r7, sp, #0
 800377e:	6078      	str	r0, [r7, #4]
    { return __it; }
 8003780:	687b      	ldr	r3, [r7, #4]
 8003782:	4618      	mov	r0, r3
 8003784:	370c      	adds	r7, #12
 8003786:	46bd      	mov	sp, r7
 8003788:	bc80      	pop	{r7}
 800378a:	4770      	bx	lr

0800378c <_ZSt14__copy_move_a1ILb0EPPdS1_ET1_T0_S3_S2_>:
    __copy_move_a1(_II __first, _II __last, _OI __result)
 800378c:	b580      	push	{r7, lr}
 800378e:	b084      	sub	sp, #16
 8003790:	af00      	add	r7, sp, #0
 8003792:	60f8      	str	r0, [r7, #12]
 8003794:	60b9      	str	r1, [r7, #8]
 8003796:	607a      	str	r2, [r7, #4]
    { return std::__copy_move_a2<_IsMove>(__first, __last, __result); }
 8003798:	687a      	ldr	r2, [r7, #4]
 800379a:	68b9      	ldr	r1, [r7, #8]
 800379c:	68f8      	ldr	r0, [r7, #12]
 800379e:	f000 f89a 	bl	80038d6 <_ZSt14__copy_move_a2ILb0EPPdS1_ET1_T0_S3_S2_>
 80037a2:	4603      	mov	r3, r0
 80037a4:	4618      	mov	r0, r3
 80037a6:	3710      	adds	r7, #16
 80037a8:	46bd      	mov	sp, r7
 80037aa:	bd80      	pop	{r7, pc}

080037ac <_ZSt12__niter_wrapIPPdET_RKS2_S2_>:
    __niter_wrap(const _Iterator&, _Iterator __res)
 80037ac:	b480      	push	{r7}
 80037ae:	b083      	sub	sp, #12
 80037b0:	af00      	add	r7, sp, #0
 80037b2:	6078      	str	r0, [r7, #4]
 80037b4:	6039      	str	r1, [r7, #0]
    { return __res; }
 80037b6:	683b      	ldr	r3, [r7, #0]
 80037b8:	4618      	mov	r0, r3
 80037ba:	370c      	adds	r7, #12
 80037bc:	46bd      	mov	sp, r7
 80037be:	bc80      	pop	{r7}
 80037c0:	4770      	bx	lr

080037c2 <_ZSt23__copy_move_backward_a1ILb0EPPdS1_ET1_T0_S3_S2_>:
    __copy_move_backward_a1(_BI1 __first, _BI1 __last, _BI2 __result)
 80037c2:	b580      	push	{r7, lr}
 80037c4:	b084      	sub	sp, #16
 80037c6:	af00      	add	r7, sp, #0
 80037c8:	60f8      	str	r0, [r7, #12]
 80037ca:	60b9      	str	r1, [r7, #8]
 80037cc:	607a      	str	r2, [r7, #4]
    { return std::__copy_move_backward_a2<_IsMove>(__first, __last, __result); }
 80037ce:	687a      	ldr	r2, [r7, #4]
 80037d0:	68b9      	ldr	r1, [r7, #8]
 80037d2:	68f8      	ldr	r0, [r7, #12]
 80037d4:	f000 f88f 	bl	80038f6 <_ZSt23__copy_move_backward_a2ILb0EPPdS1_ET1_T0_S3_S2_>
 80037d8:	4603      	mov	r3, r0
 80037da:	4618      	mov	r0, r3
 80037dc:	3710      	adds	r7, #16
 80037de:	46bd      	mov	sp, r7
 80037e0:	bd80      	pop	{r7, pc}

080037e2 <_ZNSaIPdEC1IdEERKSaIT_E>:
 80037e2:	b580      	push	{r7, lr}
 80037e4:	b082      	sub	sp, #8
 80037e6:	af00      	add	r7, sp, #0
 80037e8:	6078      	str	r0, [r7, #4]
 80037ea:	6039      	str	r1, [r7, #0]
 80037ec:	6878      	ldr	r0, [r7, #4]
 80037ee:	f000 f892 	bl	8003916 <_ZN9__gnu_cxx13new_allocatorIPdEC1Ev>
 80037f2:	687b      	ldr	r3, [r7, #4]
 80037f4:	4618      	mov	r0, r3
 80037f6:	3708      	adds	r7, #8
 80037f8:	46bd      	mov	sp, r7
 80037fa:	bd80      	pop	{r7, pc}

080037fc <_ZN9__gnu_cxx13new_allocatorIPdED1Ev>:
      ~new_allocator() _GLIBCXX_USE_NOEXCEPT { }
 80037fc:	b480      	push	{r7}
 80037fe:	b083      	sub	sp, #12
 8003800:	af00      	add	r7, sp, #0
 8003802:	6078      	str	r0, [r7, #4]
 8003804:	687b      	ldr	r3, [r7, #4]
 8003806:	4618      	mov	r0, r3
 8003808:	370c      	adds	r7, #12
 800380a:	46bd      	mov	sp, r7
 800380c:	bc80      	pop	{r7}
 800380e:	4770      	bx	lr

08003810 <_ZN9__gnu_cxx13new_allocatorIPdE8allocateEjPKv>:
      allocate(size_type __n, const void* = static_cast<const void*>(0))
 8003810:	b580      	push	{r7, lr}
 8003812:	b084      	sub	sp, #16
 8003814:	af00      	add	r7, sp, #0
 8003816:	60f8      	str	r0, [r7, #12]
 8003818:	60b9      	str	r1, [r7, #8]
 800381a:	607a      	str	r2, [r7, #4]
	if (__n > this->_M_max_size())
 800381c:	68f8      	ldr	r0, [r7, #12]
 800381e:	f000 f884 	bl	800392a <_ZNK9__gnu_cxx13new_allocatorIPdE11_M_max_sizeEv>
 8003822:	4602      	mov	r2, r0
 8003824:	68bb      	ldr	r3, [r7, #8]
 8003826:	4293      	cmp	r3, r2
 8003828:	bf8c      	ite	hi
 800382a:	2301      	movhi	r3, #1
 800382c:	2300      	movls	r3, #0
 800382e:	b2db      	uxtb	r3, r3
 8003830:	2b00      	cmp	r3, #0
 8003832:	d001      	beq.n	8003838 <_ZN9__gnu_cxx13new_allocatorIPdE8allocateEjPKv+0x28>
	  std::__throw_bad_alloc();
 8003834:	f003 ffc7 	bl	80077c6 <_ZSt17__throw_bad_allocv>
	return static_cast<_Tp*>(::operator new(__n * sizeof(_Tp)));
 8003838:	68bb      	ldr	r3, [r7, #8]
 800383a:	009b      	lsls	r3, r3, #2
 800383c:	4618      	mov	r0, r3
 800383e:	f003 ffaf 	bl	80077a0 <_Znwj>
 8003842:	4603      	mov	r3, r0
      }
 8003844:	4618      	mov	r0, r3
 8003846:	3710      	adds	r7, #16
 8003848:	46bd      	mov	sp, r7
 800384a:	bd80      	pop	{r7, pc}

0800384c <_ZN9__gnu_cxx13new_allocatorIPdE10deallocateEPS1_j>:
      deallocate(_Tp* __p, size_type __t)
 800384c:	b580      	push	{r7, lr}
 800384e:	b084      	sub	sp, #16
 8003850:	af00      	add	r7, sp, #0
 8003852:	60f8      	str	r0, [r7, #12]
 8003854:	60b9      	str	r1, [r7, #8]
 8003856:	607a      	str	r2, [r7, #4]
	::operator delete(__p
 8003858:	687b      	ldr	r3, [r7, #4]
 800385a:	009b      	lsls	r3, r3, #2
 800385c:	4619      	mov	r1, r3
 800385e:	68b8      	ldr	r0, [r7, #8]
 8003860:	f003 ff9c 	bl	800779c <_ZdlPvj>
      }
 8003864:	bf00      	nop
 8003866:	3710      	adds	r7, #16
 8003868:	46bd      	mov	sp, r7
 800386a:	bd80      	pop	{r7, pc}

0800386c <_ZSt14__copy_move_a2ILb0EPPcS1_ET1_T0_S3_S2_>:
    __copy_move_a2(_II __first, _II __last, _OI __result)
 800386c:	b580      	push	{r7, lr}
 800386e:	b084      	sub	sp, #16
 8003870:	af00      	add	r7, sp, #0
 8003872:	60f8      	str	r0, [r7, #12]
 8003874:	60b9      	str	r1, [r7, #8]
 8003876:	607a      	str	r2, [r7, #4]
			      _Category>::__copy_m(__first, __last, __result);
 8003878:	687a      	ldr	r2, [r7, #4]
 800387a:	68b9      	ldr	r1, [r7, #8]
 800387c:	68f8      	ldr	r0, [r7, #12]
 800387e:	f000 f85f 	bl	8003940 <_ZNSt11__copy_moveILb0ELb1ESt26random_access_iterator_tagE8__copy_mIPcEEPT_PKS4_S7_S5_>
 8003882:	4603      	mov	r3, r0
    }
 8003884:	4618      	mov	r0, r3
 8003886:	3710      	adds	r7, #16
 8003888:	46bd      	mov	sp, r7
 800388a:	bd80      	pop	{r7, pc}

0800388c <_ZSt23__copy_move_backward_a2ILb0EPPcS1_ET1_T0_S3_S2_>:
    __copy_move_backward_a2(_BI1 __first, _BI1 __last, _BI2 __result)
 800388c:	b580      	push	{r7, lr}
 800388e:	b084      	sub	sp, #16
 8003890:	af00      	add	r7, sp, #0
 8003892:	60f8      	str	r0, [r7, #12]
 8003894:	60b9      	str	r1, [r7, #8]
 8003896:	607a      	str	r2, [r7, #4]
				       _Category>::__copy_move_b(__first,
 8003898:	687a      	ldr	r2, [r7, #4]
 800389a:	68b9      	ldr	r1, [r7, #8]
 800389c:	68f8      	ldr	r0, [r7, #12]
 800389e:	f000 f86c 	bl	800397a <_ZNSt20__copy_move_backwardILb0ELb1ESt26random_access_iterator_tagE13__copy_move_bIPcEEPT_PKS4_S7_S5_>
 80038a2:	4603      	mov	r3, r0
    }
 80038a4:	4618      	mov	r0, r3
 80038a6:	3710      	adds	r7, #16
 80038a8:	46bd      	mov	sp, r7
 80038aa:	bd80      	pop	{r7, pc}

080038ac <_ZN9__gnu_cxx13new_allocatorIPcEC1Ev>:
      new_allocator() _GLIBCXX_USE_NOEXCEPT { }
 80038ac:	b480      	push	{r7}
 80038ae:	b083      	sub	sp, #12
 80038b0:	af00      	add	r7, sp, #0
 80038b2:	6078      	str	r0, [r7, #4]
 80038b4:	687b      	ldr	r3, [r7, #4]
 80038b6:	4618      	mov	r0, r3
 80038b8:	370c      	adds	r7, #12
 80038ba:	46bd      	mov	sp, r7
 80038bc:	bc80      	pop	{r7}
 80038be:	4770      	bx	lr

080038c0 <_ZNK9__gnu_cxx13new_allocatorIPcE11_M_max_sizeEv>:
      _M_max_size() const _GLIBCXX_USE_NOEXCEPT
 80038c0:	b480      	push	{r7}
 80038c2:	b083      	sub	sp, #12
 80038c4:	af00      	add	r7, sp, #0
 80038c6:	6078      	str	r0, [r7, #4]
	return std::size_t(__PTRDIFF_MAX__) / sizeof(_Tp);
 80038c8:	f06f 4360 	mvn.w	r3, #3758096384	; 0xe0000000
      }
 80038cc:	4618      	mov	r0, r3
 80038ce:	370c      	adds	r7, #12
 80038d0:	46bd      	mov	sp, r7
 80038d2:	bc80      	pop	{r7}
 80038d4:	4770      	bx	lr

080038d6 <_ZSt14__copy_move_a2ILb0EPPdS1_ET1_T0_S3_S2_>:
    __copy_move_a2(_II __first, _II __last, _OI __result)
 80038d6:	b580      	push	{r7, lr}
 80038d8:	b084      	sub	sp, #16
 80038da:	af00      	add	r7, sp, #0
 80038dc:	60f8      	str	r0, [r7, #12]
 80038de:	60b9      	str	r1, [r7, #8]
 80038e0:	607a      	str	r2, [r7, #4]
			      _Category>::__copy_m(__first, __last, __result);
 80038e2:	687a      	ldr	r2, [r7, #4]
 80038e4:	68b9      	ldr	r1, [r7, #8]
 80038e6:	68f8      	ldr	r0, [r7, #12]
 80038e8:	f000 f869 	bl	80039be <_ZNSt11__copy_moveILb0ELb1ESt26random_access_iterator_tagE8__copy_mIPdEEPT_PKS4_S7_S5_>
 80038ec:	4603      	mov	r3, r0
    }
 80038ee:	4618      	mov	r0, r3
 80038f0:	3710      	adds	r7, #16
 80038f2:	46bd      	mov	sp, r7
 80038f4:	bd80      	pop	{r7, pc}

080038f6 <_ZSt23__copy_move_backward_a2ILb0EPPdS1_ET1_T0_S3_S2_>:
    __copy_move_backward_a2(_BI1 __first, _BI1 __last, _BI2 __result)
 80038f6:	b580      	push	{r7, lr}
 80038f8:	b084      	sub	sp, #16
 80038fa:	af00      	add	r7, sp, #0
 80038fc:	60f8      	str	r0, [r7, #12]
 80038fe:	60b9      	str	r1, [r7, #8]
 8003900:	607a      	str	r2, [r7, #4]
				       _Category>::__copy_move_b(__first,
 8003902:	687a      	ldr	r2, [r7, #4]
 8003904:	68b9      	ldr	r1, [r7, #8]
 8003906:	68f8      	ldr	r0, [r7, #12]
 8003908:	f000 f876 	bl	80039f8 <_ZNSt20__copy_move_backwardILb0ELb1ESt26random_access_iterator_tagE13__copy_move_bIPdEEPT_PKS4_S7_S5_>
 800390c:	4603      	mov	r3, r0
    }
 800390e:	4618      	mov	r0, r3
 8003910:	3710      	adds	r7, #16
 8003912:	46bd      	mov	sp, r7
 8003914:	bd80      	pop	{r7, pc}

08003916 <_ZN9__gnu_cxx13new_allocatorIPdEC1Ev>:
      new_allocator() _GLIBCXX_USE_NOEXCEPT { }
 8003916:	b480      	push	{r7}
 8003918:	b083      	sub	sp, #12
 800391a:	af00      	add	r7, sp, #0
 800391c:	6078      	str	r0, [r7, #4]
 800391e:	687b      	ldr	r3, [r7, #4]
 8003920:	4618      	mov	r0, r3
 8003922:	370c      	adds	r7, #12
 8003924:	46bd      	mov	sp, r7
 8003926:	bc80      	pop	{r7}
 8003928:	4770      	bx	lr

0800392a <_ZNK9__gnu_cxx13new_allocatorIPdE11_M_max_sizeEv>:
      _M_max_size() const _GLIBCXX_USE_NOEXCEPT
 800392a:	b480      	push	{r7}
 800392c:	b083      	sub	sp, #12
 800392e:	af00      	add	r7, sp, #0
 8003930:	6078      	str	r0, [r7, #4]
	return std::size_t(__PTRDIFF_MAX__) / sizeof(_Tp);
 8003932:	f06f 4360 	mvn.w	r3, #3758096384	; 0xe0000000
      }
 8003936:	4618      	mov	r0, r3
 8003938:	370c      	adds	r7, #12
 800393a:	46bd      	mov	sp, r7
 800393c:	bc80      	pop	{r7}
 800393e:	4770      	bx	lr

08003940 <_ZNSt11__copy_moveILb0ELb1ESt26random_access_iterator_tagE8__copy_mIPcEEPT_PKS4_S7_S5_>:
	__copy_m(const _Tp* __first, const _Tp* __last, _Tp* __result)
 8003940:	b580      	push	{r7, lr}
 8003942:	b086      	sub	sp, #24
 8003944:	af00      	add	r7, sp, #0
 8003946:	60f8      	str	r0, [r7, #12]
 8003948:	60b9      	str	r1, [r7, #8]
 800394a:	607a      	str	r2, [r7, #4]
	  const ptrdiff_t _Num = __last - __first;
 800394c:	68ba      	ldr	r2, [r7, #8]
 800394e:	68fb      	ldr	r3, [r7, #12]
 8003950:	1ad3      	subs	r3, r2, r3
 8003952:	109b      	asrs	r3, r3, #2
 8003954:	617b      	str	r3, [r7, #20]
	  if (_Num)
 8003956:	697b      	ldr	r3, [r7, #20]
 8003958:	2b00      	cmp	r3, #0
 800395a:	d006      	beq.n	800396a <_ZNSt11__copy_moveILb0ELb1ESt26random_access_iterator_tagE8__copy_mIPcEEPT_PKS4_S7_S5_+0x2a>
	    __builtin_memmove(__result, __first, sizeof(_Tp) * _Num);
 800395c:	697b      	ldr	r3, [r7, #20]
 800395e:	009b      	lsls	r3, r3, #2
 8003960:	461a      	mov	r2, r3
 8003962:	68f9      	ldr	r1, [r7, #12]
 8003964:	6878      	ldr	r0, [r7, #4]
 8003966:	f004 fabb 	bl	8007ee0 <memmove>
	  return __result + _Num;
 800396a:	697b      	ldr	r3, [r7, #20]
 800396c:	009b      	lsls	r3, r3, #2
 800396e:	687a      	ldr	r2, [r7, #4]
 8003970:	4413      	add	r3, r2
	}
 8003972:	4618      	mov	r0, r3
 8003974:	3718      	adds	r7, #24
 8003976:	46bd      	mov	sp, r7
 8003978:	bd80      	pop	{r7, pc}

0800397a <_ZNSt20__copy_move_backwardILb0ELb1ESt26random_access_iterator_tagE13__copy_move_bIPcEEPT_PKS4_S7_S5_>:
	__copy_move_b(const _Tp* __first, const _Tp* __last, _Tp* __result)
 800397a:	b580      	push	{r7, lr}
 800397c:	b086      	sub	sp, #24
 800397e:	af00      	add	r7, sp, #0
 8003980:	60f8      	str	r0, [r7, #12]
 8003982:	60b9      	str	r1, [r7, #8]
 8003984:	607a      	str	r2, [r7, #4]
	  const ptrdiff_t _Num = __last - __first;
 8003986:	68ba      	ldr	r2, [r7, #8]
 8003988:	68fb      	ldr	r3, [r7, #12]
 800398a:	1ad3      	subs	r3, r2, r3
 800398c:	109b      	asrs	r3, r3, #2
 800398e:	617b      	str	r3, [r7, #20]
	  if (_Num)
 8003990:	697b      	ldr	r3, [r7, #20]
 8003992:	2b00      	cmp	r3, #0
 8003994:	d00a      	beq.n	80039ac <_ZNSt20__copy_move_backwardILb0ELb1ESt26random_access_iterator_tagE13__copy_move_bIPcEEPT_PKS4_S7_S5_+0x32>
	    __builtin_memmove(__result - _Num, __first, sizeof(_Tp) * _Num);
 8003996:	697b      	ldr	r3, [r7, #20]
 8003998:	009b      	lsls	r3, r3, #2
 800399a:	425b      	negs	r3, r3
 800399c:	687a      	ldr	r2, [r7, #4]
 800399e:	18d0      	adds	r0, r2, r3
 80039a0:	697b      	ldr	r3, [r7, #20]
 80039a2:	009b      	lsls	r3, r3, #2
 80039a4:	461a      	mov	r2, r3
 80039a6:	68f9      	ldr	r1, [r7, #12]
 80039a8:	f004 fa9a 	bl	8007ee0 <memmove>
	  return __result - _Num;
 80039ac:	697b      	ldr	r3, [r7, #20]
 80039ae:	009b      	lsls	r3, r3, #2
 80039b0:	425b      	negs	r3, r3
 80039b2:	687a      	ldr	r2, [r7, #4]
 80039b4:	4413      	add	r3, r2
	}
 80039b6:	4618      	mov	r0, r3
 80039b8:	3718      	adds	r7, #24
 80039ba:	46bd      	mov	sp, r7
 80039bc:	bd80      	pop	{r7, pc}

080039be <_ZNSt11__copy_moveILb0ELb1ESt26random_access_iterator_tagE8__copy_mIPdEEPT_PKS4_S7_S5_>:
	__copy_m(const _Tp* __first, const _Tp* __last, _Tp* __result)
 80039be:	b580      	push	{r7, lr}
 80039c0:	b086      	sub	sp, #24
 80039c2:	af00      	add	r7, sp, #0
 80039c4:	60f8      	str	r0, [r7, #12]
 80039c6:	60b9      	str	r1, [r7, #8]
 80039c8:	607a      	str	r2, [r7, #4]
	  const ptrdiff_t _Num = __last - __first;
 80039ca:	68ba      	ldr	r2, [r7, #8]
 80039cc:	68fb      	ldr	r3, [r7, #12]
 80039ce:	1ad3      	subs	r3, r2, r3
 80039d0:	109b      	asrs	r3, r3, #2
 80039d2:	617b      	str	r3, [r7, #20]
	  if (_Num)
 80039d4:	697b      	ldr	r3, [r7, #20]
 80039d6:	2b00      	cmp	r3, #0
 80039d8:	d006      	beq.n	80039e8 <_ZNSt11__copy_moveILb0ELb1ESt26random_access_iterator_tagE8__copy_mIPdEEPT_PKS4_S7_S5_+0x2a>
	    __builtin_memmove(__result, __first, sizeof(_Tp) * _Num);
 80039da:	697b      	ldr	r3, [r7, #20]
 80039dc:	009b      	lsls	r3, r3, #2
 80039de:	461a      	mov	r2, r3
 80039e0:	68f9      	ldr	r1, [r7, #12]
 80039e2:	6878      	ldr	r0, [r7, #4]
 80039e4:	f004 fa7c 	bl	8007ee0 <memmove>
	  return __result + _Num;
 80039e8:	697b      	ldr	r3, [r7, #20]
 80039ea:	009b      	lsls	r3, r3, #2
 80039ec:	687a      	ldr	r2, [r7, #4]
 80039ee:	4413      	add	r3, r2
	}
 80039f0:	4618      	mov	r0, r3
 80039f2:	3718      	adds	r7, #24
 80039f4:	46bd      	mov	sp, r7
 80039f6:	bd80      	pop	{r7, pc}

080039f8 <_ZNSt20__copy_move_backwardILb0ELb1ESt26random_access_iterator_tagE13__copy_move_bIPdEEPT_PKS4_S7_S5_>:
	__copy_move_b(const _Tp* __first, const _Tp* __last, _Tp* __result)
 80039f8:	b580      	push	{r7, lr}
 80039fa:	b086      	sub	sp, #24
 80039fc:	af00      	add	r7, sp, #0
 80039fe:	60f8      	str	r0, [r7, #12]
 8003a00:	60b9      	str	r1, [r7, #8]
 8003a02:	607a      	str	r2, [r7, #4]
	  const ptrdiff_t _Num = __last - __first;
 8003a04:	68ba      	ldr	r2, [r7, #8]
 8003a06:	68fb      	ldr	r3, [r7, #12]
 8003a08:	1ad3      	subs	r3, r2, r3
 8003a0a:	109b      	asrs	r3, r3, #2
 8003a0c:	617b      	str	r3, [r7, #20]
	  if (_Num)
 8003a0e:	697b      	ldr	r3, [r7, #20]
 8003a10:	2b00      	cmp	r3, #0
 8003a12:	d00a      	beq.n	8003a2a <_ZNSt20__copy_move_backwardILb0ELb1ESt26random_access_iterator_tagE13__copy_move_bIPdEEPT_PKS4_S7_S5_+0x32>
	    __builtin_memmove(__result - _Num, __first, sizeof(_Tp) * _Num);
 8003a14:	697b      	ldr	r3, [r7, #20]
 8003a16:	009b      	lsls	r3, r3, #2
 8003a18:	425b      	negs	r3, r3
 8003a1a:	687a      	ldr	r2, [r7, #4]
 8003a1c:	18d0      	adds	r0, r2, r3
 8003a1e:	697b      	ldr	r3, [r7, #20]
 8003a20:	009b      	lsls	r3, r3, #2
 8003a22:	461a      	mov	r2, r3
 8003a24:	68f9      	ldr	r1, [r7, #12]
 8003a26:	f004 fa5b 	bl	8007ee0 <memmove>
	  return __result - _Num;
 8003a2a:	697b      	ldr	r3, [r7, #20]
 8003a2c:	009b      	lsls	r3, r3, #2
 8003a2e:	425b      	negs	r3, r3
 8003a30:	687a      	ldr	r2, [r7, #4]
 8003a32:	4413      	add	r3, r2
	}
 8003a34:	4618      	mov	r0, r3
 8003a36:	3718      	adds	r7, #24
 8003a38:	46bd      	mov	sp, r7
 8003a3a:	bd80      	pop	{r7, pc}

08003a3c <delayUSecs>:

#ifdef __cplusplus
extern "C" {
#endif

void delayUSecs(uint32_t us){
 8003a3c:	b480      	push	{r7}
 8003a3e:	b083      	sub	sp, #12
 8003a40:	af00      	add	r7, sp, #0
 8003a42:	6078      	str	r0, [r7, #4]
	SysTick->CTRL = 0;
 8003a44:	4b12      	ldr	r3, [pc, #72]	; (8003a90 <delayUSecs+0x54>)
 8003a46:	2200      	movs	r2, #0
 8003a48:	601a      	str	r2, [r3, #0]
	SysTick->LOAD = SYSTEMCLOCKS_PER_SEC / 1000000 * us - 1;
 8003a4a:	687a      	ldr	r2, [r7, #4]
 8003a4c:	4613      	mov	r3, r2
 8003a4e:	00db      	lsls	r3, r3, #3
 8003a50:	4413      	add	r3, r2
 8003a52:	00db      	lsls	r3, r3, #3
 8003a54:	4a0e      	ldr	r2, [pc, #56]	; (8003a90 <delayUSecs+0x54>)
 8003a56:	3b01      	subs	r3, #1
 8003a58:	6053      	str	r3, [r2, #4]
	SysTick->VAL = 0;
 8003a5a:	4b0d      	ldr	r3, [pc, #52]	; (8003a90 <delayUSecs+0x54>)
 8003a5c:	2200      	movs	r2, #0
 8003a5e:	609a      	str	r2, [r3, #8]
	SysTick->CTRL = 5;
 8003a60:	4b0b      	ldr	r3, [pc, #44]	; (8003a90 <delayUSecs+0x54>)
 8003a62:	2205      	movs	r2, #5
 8003a64:	601a      	str	r2, [r3, #0]
	while((SysTick->CTRL & 0x00010000) == 0);
 8003a66:	4b0a      	ldr	r3, [pc, #40]	; (8003a90 <delayUSecs+0x54>)
 8003a68:	681b      	ldr	r3, [r3, #0]
 8003a6a:	f403 3380 	and.w	r3, r3, #65536	; 0x10000
 8003a6e:	2b00      	cmp	r3, #0
 8003a70:	bf0c      	ite	eq
 8003a72:	2301      	moveq	r3, #1
 8003a74:	2300      	movne	r3, #0
 8003a76:	b2db      	uxtb	r3, r3
 8003a78:	2b00      	cmp	r3, #0
 8003a7a:	d000      	beq.n	8003a7e <delayUSecs+0x42>
 8003a7c:	e7f3      	b.n	8003a66 <delayUSecs+0x2a>
	SysTick->CTRL = 0;
 8003a7e:	4b04      	ldr	r3, [pc, #16]	; (8003a90 <delayUSecs+0x54>)
 8003a80:	2200      	movs	r2, #0
 8003a82:	601a      	str	r2, [r3, #0]
}
 8003a84:	bf00      	nop
 8003a86:	370c      	adds	r7, #12
 8003a88:	46bd      	mov	sp, r7
 8003a8a:	bc80      	pop	{r7}
 8003a8c:	4770      	bx	lr
 8003a8e:	bf00      	nop
 8003a90:	e000e010 	.word	0xe000e010

08003a94 <_Z16sendStringViaCDCRKNSt7__cxx1112basic_stringIcSt11char_traitsIcESaIcEEE>:

#ifdef __cplusplus
}
#endif

void sendStringViaCDC(const std::string& message) {
 8003a94:	b580      	push	{r7, lr}
 8003a96:	b084      	sub	sp, #16
 8003a98:	af00      	add	r7, sp, #0
 8003a9a:	6078      	str	r0, [r7, #4]
    const char* cMessage = message.c_str();
 8003a9c:	6878      	ldr	r0, [r7, #4]
 8003a9e:	f004 f936 	bl	8007d0e <_ZNKSt7__cxx1112basic_stringIcSt11char_traitsIcESaIcEE5c_strEv>
 8003aa2:	60f8      	str	r0, [r7, #12]
    uint16_t len = strlen(cMessage);
 8003aa4:	68f8      	ldr	r0, [r7, #12]
 8003aa6:	f7fc fb53 	bl	8000150 <strlen>
 8003aaa:	4603      	mov	r3, r0
 8003aac:	817b      	strh	r3, [r7, #10]
    CDC_Transmit_FS((uint8_t*)cMessage, len);
 8003aae:	897b      	ldrh	r3, [r7, #10]
 8003ab0:	4619      	mov	r1, r3
 8003ab2:	68f8      	ldr	r0, [r7, #12]
 8003ab4:	f003 fcd0 	bl	8007458 <CDC_Transmit_FS>
}
 8003ab8:	bf00      	nop
 8003aba:	3710      	adds	r7, #16
 8003abc:	46bd      	mov	sp, r7
 8003abe:	bd80      	pop	{r7, pc}

08003ac0 <MX_GPIO_Init>:
        * Output
        * EVENT_OUT
        * EXTI
*/
void MX_GPIO_Init(void)
{
 8003ac0:	b510      	push	{r4, lr}
 8003ac2:	b086      	sub	sp, #24

  GPIO_InitTypeDef GPIO_InitStruct = {0};
 8003ac4:	2210      	movs	r2, #16
 8003ac6:	2100      	movs	r1, #0
 8003ac8:	a802      	add	r0, sp, #8
 8003aca:	f004 fa23 	bl	8007f14 <memset>

  /* GPIO Ports Clock Enable */
  __HAL_RCC_GPIOD_CLK_ENABLE();
 8003ace:	4b13      	ldr	r3, [pc, #76]	; (8003b1c <MX_GPIO_Init+0x5c>)
  __HAL_RCC_GPIOA_CLK_ENABLE();

  /*Configure GPIO pin Output Level */
  HAL_GPIO_WritePin(SPI1_CS_GPIO_Port, SPI1_CS_Pin, GPIO_PIN_SET);
 8003ad0:	4c13      	ldr	r4, [pc, #76]	; (8003b20 <MX_GPIO_Init+0x60>)
  __HAL_RCC_GPIOD_CLK_ENABLE();
 8003ad2:	699a      	ldr	r2, [r3, #24]
  HAL_GPIO_WritePin(SPI1_CS_GPIO_Port, SPI1_CS_Pin, GPIO_PIN_SET);
 8003ad4:	4620      	mov	r0, r4
  __HAL_RCC_GPIOD_CLK_ENABLE();
 8003ad6:	f042 0220 	orr.w	r2, r2, #32
 8003ada:	619a      	str	r2, [r3, #24]
 8003adc:	699a      	ldr	r2, [r3, #24]
  HAL_GPIO_WritePin(SPI1_CS_GPIO_Port, SPI1_CS_Pin, GPIO_PIN_SET);
 8003ade:	2140      	movs	r1, #64	; 0x40
  __HAL_RCC_GPIOD_CLK_ENABLE();
 8003ae0:	f002 0220 	and.w	r2, r2, #32
 8003ae4:	9200      	str	r2, [sp, #0]
 8003ae6:	9a00      	ldr	r2, [sp, #0]
  __HAL_RCC_GPIOA_CLK_ENABLE();
 8003ae8:	699a      	ldr	r2, [r3, #24]
 8003aea:	f042 0204 	orr.w	r2, r2, #4
 8003aee:	619a      	str	r2, [r3, #24]
 8003af0:	699b      	ldr	r3, [r3, #24]
  HAL_GPIO_WritePin(SPI1_CS_GPIO_Port, SPI1_CS_Pin, GPIO_PIN_SET);
 8003af2:	2201      	movs	r2, #1
  __HAL_RCC_GPIOA_CLK_ENABLE();
 8003af4:	f003 0304 	and.w	r3, r3, #4
 8003af8:	9301      	str	r3, [sp, #4]
 8003afa:	9b01      	ldr	r3, [sp, #4]
  HAL_GPIO_WritePin(SPI1_CS_GPIO_Port, SPI1_CS_Pin, GPIO_PIN_SET);
 8003afc:	f000 ff2c 	bl	8004958 <HAL_GPIO_WritePin>

  /*Configure GPIO pin : PtPin */
  GPIO_InitStruct.Pin = SPI1_CS_Pin;
  GPIO_InitStruct.Mode = GPIO_MODE_OUTPUT_PP;
 8003b00:	2240      	movs	r2, #64	; 0x40
 8003b02:	2301      	movs	r3, #1
  GPIO_InitStruct.Pull = GPIO_NOPULL;
  GPIO_InitStruct.Speed = GPIO_SPEED_FREQ_LOW;
 8003b04:	2100      	movs	r1, #0
  GPIO_InitStruct.Mode = GPIO_MODE_OUTPUT_PP;
 8003b06:	e9cd 2302 	strd	r2, r3, [sp, #8]
  GPIO_InitStruct.Speed = GPIO_SPEED_FREQ_LOW;
 8003b0a:	2302      	movs	r3, #2
  HAL_GPIO_Init(SPI1_CS_GPIO_Port, &GPIO_InitStruct);
 8003b0c:	4620      	mov	r0, r4
  GPIO_InitStruct.Speed = GPIO_SPEED_FREQ_LOW;
 8003b0e:	e9cd 1304 	strd	r1, r3, [sp, #16]
  HAL_GPIO_Init(SPI1_CS_GPIO_Port, &GPIO_InitStruct);
 8003b12:	a902      	add	r1, sp, #8
 8003b14:	f000 fe46 	bl	80047a4 <HAL_GPIO_Init>

}
 8003b18:	b006      	add	sp, #24
 8003b1a:	bd10      	pop	{r4, pc}
 8003b1c:	40021000 	.word	0x40021000
 8003b20:	40010800 	.word	0x40010800

08003b24 <_ZNK9CALCULATE9Calculate10getOperandB5cxx11Ev>:
	bool doCalcu();
public:
	//
	void getInput(char opt);
	//
	inline std::string getOperand() const{
 8003b24:	b580      	push	{r7, lr}
 8003b26:	b082      	sub	sp, #8
 8003b28:	af00      	add	r7, sp, #0
 8003b2a:	6078      	str	r0, [r7, #4]
 8003b2c:	6039      	str	r1, [r7, #0]
		return operand;
 8003b2e:	683b      	ldr	r3, [r7, #0]
 8003b30:	3368      	adds	r3, #104	; 0x68
 8003b32:	4619      	mov	r1, r3
 8003b34:	6878      	ldr	r0, [r7, #4]
 8003b36:	f004 f903 	bl	8007d40 <_ZNSt7__cxx1112basic_stringIcSt11char_traitsIcESaIcEEC1ERKS4_>
	}
 8003b3a:	6878      	ldr	r0, [r7, #4]
 8003b3c:	3708      	adds	r7, #8
 8003b3e:	46bd      	mov	sp, r7
 8003b40:	bd80      	pop	{r7, pc}
	...

08003b44 <_Z14usbKeepVisablev>:
void usbKeepVisable();
/* USER CODE END PFP */

/* Private user code ---------------------------------------------------------*/
/* USER CODE BEGIN 0 */
void usbKeepVisable(){
 8003b44:	b580      	push	{r7, lr}
 8003b46:	b084      	sub	sp, #16
 8003b48:	af00      	add	r7, sp, #0
	GPIO_InitTypeDef GPIO_InitStruct = {0};
 8003b4a:	463b      	mov	r3, r7
 8003b4c:	2200      	movs	r2, #0
 8003b4e:	601a      	str	r2, [r3, #0]
 8003b50:	605a      	str	r2, [r3, #4]
 8003b52:	609a      	str	r2, [r3, #8]
 8003b54:	60da      	str	r2, [r3, #12]
	GPIO_InitStruct.Pin = GPIO_PIN_12;
 8003b56:	f44f 5380 	mov.w	r3, #4096	; 0x1000
 8003b5a:	603b      	str	r3, [r7, #0]
	GPIO_InitStruct.Mode = GPIO_MODE_OUTPUT_PP;
 8003b5c:	2301      	movs	r3, #1
 8003b5e:	607b      	str	r3, [r7, #4]
	GPIO_InitStruct.Pull = GPIO_PULLDOWN;
 8003b60:	2302      	movs	r3, #2
 8003b62:	60bb      	str	r3, [r7, #8]
	HAL_GPIO_Init(GPIOA, &GPIO_InitStruct);
 8003b64:	463b      	mov	r3, r7
 8003b66:	4619      	mov	r1, r3
 8003b68:	4808      	ldr	r0, [pc, #32]	; (8003b8c <_Z14usbKeepVisablev+0x48>)
 8003b6a:	f000 fe1b 	bl	80047a4 <HAL_GPIO_Init>
	HAL_GPIO_WritePin(GPIOA,GPIO_PIN_12,GPIO_PIN_RESET);
 8003b6e:	2200      	movs	r2, #0
 8003b70:	f44f 5180 	mov.w	r1, #4096	; 0x1000
 8003b74:	4805      	ldr	r0, [pc, #20]	; (8003b8c <_Z14usbKeepVisablev+0x48>)
 8003b76:	f000 feef 	bl	8004958 <HAL_GPIO_WritePin>
	HAL_Delay(500);
 8003b7a:	f44f 70fa 	mov.w	r0, #500	; 0x1f4
 8003b7e:	f000 fd99 	bl	80046b4 <HAL_Delay>
}
 8003b82:	bf00      	nop
 8003b84:	3710      	adds	r7, #16
 8003b86:	46bd      	mov	sp, r7
 8003b88:	bd80      	pop	{r7, pc}
 8003b8a:	bf00      	nop
 8003b8c:	40010800 	.word	0x40010800

08003b90 <_ZN9CALCULATE9CalculateC1Ev>:
class Calculate{
 8003b90:	b580      	push	{r7, lr}
 8003b92:	b082      	sub	sp, #8
 8003b94:	af00      	add	r7, sp, #0
 8003b96:	6078      	str	r0, [r7, #4]
 8003b98:	687b      	ldr	r3, [r7, #4]
 8003b9a:	4618      	mov	r0, r3
 8003b9c:	f000 f8d1 	bl	8003d42 <_ZNSt5stackIcSt5dequeIcSaIcEEEC1IS2_vEEv>
 8003ba0:	687b      	ldr	r3, [r7, #4]
 8003ba2:	3328      	adds	r3, #40	; 0x28
 8003ba4:	4618      	mov	r0, r3
 8003ba6:	f000 f8ed 	bl	8003d84 <_ZNSt5stackIdSt5dequeIdSaIdEEEC1IS2_vEEv>
 8003baa:	687b      	ldr	r3, [r7, #4]
 8003bac:	3350      	adds	r3, #80	; 0x50
 8003bae:	4618      	mov	r0, r3
 8003bb0:	f003 ff8b 	bl	8007aca <_ZNSt7__cxx1112basic_stringIcSt11char_traitsIcESaIcEEC1Ev>
 8003bb4:	687b      	ldr	r3, [r7, #4]
 8003bb6:	3368      	adds	r3, #104	; 0x68
 8003bb8:	4618      	mov	r0, r3
 8003bba:	f003 ff86 	bl	8007aca <_ZNSt7__cxx1112basic_stringIcSt11char_traitsIcESaIcEEC1Ev>
 8003bbe:	687b      	ldr	r3, [r7, #4]
 8003bc0:	4618      	mov	r0, r3
 8003bc2:	3708      	adds	r7, #8
 8003bc4:	46bd      	mov	sp, r7
 8003bc6:	bd80      	pop	{r7, pc}

08003bc8 <main>:
/**
  * @brief  The application entry point.
  * @retval int
  */
int main(void)
{
 8003bc8:	b580      	push	{r7, lr}
 8003bca:	b0a8      	sub	sp, #160	; 0xa0
 8003bcc:	af00      	add	r7, sp, #0
  /* USER CODE END 1 */

  /* MCU Configuration--------------------------------------------------------*/

  /* Reset of all peripherals, Initializes the Flash interface and the Systick. */
  HAL_Init();
 8003bce:	f000 fd4d 	bl	800466c <HAL_Init>
  /* USER CODE BEGIN Init */

  /* USER CODE END Init */

  /* Configure the system clock */
  SystemClock_Config();
 8003bd2:	f000 f83a 	bl	8003c4a <_Z18SystemClock_Configv>
  /* USER CODE BEGIN SysInit */

  /* USER CODE END SysInit */

  /* Initialize all configured peripherals */
  MX_GPIO_Init();
 8003bd6:	f7ff ff73 	bl	8003ac0 <MX_GPIO_Init>
  usbKeepVisable();
 8003bda:	f7ff ffb3 	bl	8003b44 <_Z14usbKeepVisablev>
  MX_USB_DEVICE_Init();
 8003bde:	f003 fbed 	bl	80073bc <MX_USB_DEVICE_Init>
  MX_SPI1_Init();
 8003be2:	f000 fc23 	bl	800442c <MX_SPI1_Init>
  /* USER CODE BEGIN 2 */
  MAX7219 Max7219;
  CALCULATE::Calculate Calcu;
 8003be6:	1d3b      	adds	r3, r7, #4
 8003be8:	4618      	mov	r0, r3
 8003bea:	f7ff ffd1 	bl	8003b90 <_ZN9CALCULATE9CalculateC1Ev>
  /* USER CODE END 2 */

  /* Infinite loop */
  /* USER CODE BEGIN WHILE */
  Max7219.max7219Init();
 8003bee:	f107 0384 	add.w	r3, r7, #132	; 0x84
 8003bf2:	4618      	mov	r0, r3
 8003bf4:	f000 fab8 	bl	8004168 <_ZN7MAX721911max7219InitEv>

  Calcu.getInput('3');
 8003bf8:	1d3b      	adds	r3, r7, #4
 8003bfa:	2133      	movs	r1, #51	; 0x33
 8003bfc:	4618      	mov	r0, r3
 8003bfe:	f7fe f981 	bl	8001f04 <_ZN9CALCULATE9Calculate8getInputEc>
  Calcu.getInput('+');
 8003c02:	1d3b      	adds	r3, r7, #4
 8003c04:	212b      	movs	r1, #43	; 0x2b
 8003c06:	4618      	mov	r0, r3
 8003c08:	f7fe f97c 	bl	8001f04 <_ZN9CALCULATE9Calculate8getInputEc>
  Calcu.getInput('6');
 8003c0c:	1d3b      	adds	r3, r7, #4
 8003c0e:	2136      	movs	r1, #54	; 0x36
 8003c10:	4618      	mov	r0, r3
 8003c12:	f7fe f977 	bl	8001f04 <_ZN9CALCULATE9Calculate8getInputEc>
  Calcu.getInput('=');
 8003c16:	1d3b      	adds	r3, r7, #4
 8003c18:	213d      	movs	r1, #61	; 0x3d
 8003c1a:	4618      	mov	r0, r3
 8003c1c:	f7fe f972 	bl	8001f04 <_ZN9CALCULATE9Calculate8getInputEc>

  while (1)
  {
	  Max7219.refreshScreen(Calcu.getOperand());
 8003c20:	f107 0388 	add.w	r3, r7, #136	; 0x88
 8003c24:	1d3a      	adds	r2, r7, #4
 8003c26:	4611      	mov	r1, r2
 8003c28:	4618      	mov	r0, r3
 8003c2a:	f7ff ff7b 	bl	8003b24 <_ZNK9CALCULATE9Calculate10getOperandB5cxx11Ev>
 8003c2e:	f107 0288 	add.w	r2, r7, #136	; 0x88
 8003c32:	f107 0384 	add.w	r3, r7, #132	; 0x84
 8003c36:	4611      	mov	r1, r2
 8003c38:	4618      	mov	r0, r3
 8003c3a:	f000 faf8 	bl	800422e <_ZN7MAX721913refreshScreenENSt7__cxx1112basic_stringIcSt11char_traitsIcESaIcEEE>
 8003c3e:	f107 0388 	add.w	r3, r7, #136	; 0x88
 8003c42:	4618      	mov	r0, r3
 8003c44:	f003 ff48 	bl	8007ad8 <_ZNSt7__cxx1112basic_stringIcSt11char_traitsIcESaIcEED1Ev>
 8003c48:	e7ea      	b.n	8003c20 <main+0x58>

08003c4a <_Z18SystemClock_Configv>:
/**
  * @brief System Clock Configuration
  * @retval None
  */
void SystemClock_Config(void)
{
 8003c4a:	b580      	push	{r7, lr}
 8003c4c:	b094      	sub	sp, #80	; 0x50
 8003c4e:	af00      	add	r7, sp, #0
  RCC_OscInitTypeDef RCC_OscInitStruct = {0};
 8003c50:	f107 0328 	add.w	r3, r7, #40	; 0x28
 8003c54:	2228      	movs	r2, #40	; 0x28
 8003c56:	2100      	movs	r1, #0
 8003c58:	4618      	mov	r0, r3
 8003c5a:	f004 f95b 	bl	8007f14 <memset>
  RCC_ClkInitTypeDef RCC_ClkInitStruct = {0};
 8003c5e:	f107 0314 	add.w	r3, r7, #20
 8003c62:	2200      	movs	r2, #0
 8003c64:	601a      	str	r2, [r3, #0]
 8003c66:	605a      	str	r2, [r3, #4]
 8003c68:	609a      	str	r2, [r3, #8]
 8003c6a:	60da      	str	r2, [r3, #12]
 8003c6c:	611a      	str	r2, [r3, #16]
  RCC_PeriphCLKInitTypeDef PeriphClkInit = {0};
 8003c6e:	1d3b      	adds	r3, r7, #4
 8003c70:	2200      	movs	r2, #0
 8003c72:	601a      	str	r2, [r3, #0]
 8003c74:	605a      	str	r2, [r3, #4]
 8003c76:	609a      	str	r2, [r3, #8]
 8003c78:	60da      	str	r2, [r3, #12]

  /** Initializes the RCC Oscillators according to the specified parameters
  * in the RCC_OscInitTypeDef structure.
  */
  RCC_OscInitStruct.OscillatorType = RCC_OSCILLATORTYPE_HSE;
 8003c7a:	2301      	movs	r3, #1
 8003c7c:	62bb      	str	r3, [r7, #40]	; 0x28
  RCC_OscInitStruct.HSEState = RCC_HSE_ON;
 8003c7e:	f44f 3380 	mov.w	r3, #65536	; 0x10000
 8003c82:	62fb      	str	r3, [r7, #44]	; 0x2c
  RCC_OscInitStruct.HSEPredivValue = RCC_HSE_PREDIV_DIV1;
 8003c84:	2300      	movs	r3, #0
 8003c86:	633b      	str	r3, [r7, #48]	; 0x30
  RCC_OscInitStruct.HSIState = RCC_HSI_ON;
 8003c88:	2301      	movs	r3, #1
 8003c8a:	63bb      	str	r3, [r7, #56]	; 0x38
  RCC_OscInitStruct.PLL.PLLState = RCC_PLL_ON;
 8003c8c:	2302      	movs	r3, #2
 8003c8e:	647b      	str	r3, [r7, #68]	; 0x44
  RCC_OscInitStruct.PLL.PLLSource = RCC_PLLSOURCE_HSE;
 8003c90:	f44f 3380 	mov.w	r3, #65536	; 0x10000
 8003c94:	64bb      	str	r3, [r7, #72]	; 0x48
  RCC_OscInitStruct.PLL.PLLMUL = RCC_PLL_MUL6;
 8003c96:	f44f 1380 	mov.w	r3, #1048576	; 0x100000
 8003c9a:	64fb      	str	r3, [r7, #76]	; 0x4c
  if (HAL_RCC_OscConfig(&RCC_OscInitStruct) != HAL_OK)
 8003c9c:	f107 0328 	add.w	r3, r7, #40	; 0x28
 8003ca0:	4618      	mov	r0, r3
 8003ca2:	f001 fcef 	bl	8005684 <HAL_RCC_OscConfig>
 8003ca6:	4603      	mov	r3, r0
 8003ca8:	2b00      	cmp	r3, #0
 8003caa:	bf14      	ite	ne
 8003cac:	2301      	movne	r3, #1
 8003cae:	2300      	moveq	r3, #0
 8003cb0:	b2db      	uxtb	r3, r3
 8003cb2:	2b00      	cmp	r3, #0
 8003cb4:	d001      	beq.n	8003cba <_Z18SystemClock_Configv+0x70>
  {
    Error_Handler();
 8003cb6:	f000 f832 	bl	8003d1e <Error_Handler>
  }

  /** Initializes the CPU, AHB and APB buses clocks
  */
  RCC_ClkInitStruct.ClockType = RCC_CLOCKTYPE_HCLK|RCC_CLOCKTYPE_SYSCLK
 8003cba:	230f      	movs	r3, #15
 8003cbc:	617b      	str	r3, [r7, #20]
                              |RCC_CLOCKTYPE_PCLK1|RCC_CLOCKTYPE_PCLK2;
  RCC_ClkInitStruct.SYSCLKSource = RCC_SYSCLKSOURCE_PLLCLK;
 8003cbe:	2302      	movs	r3, #2
 8003cc0:	61bb      	str	r3, [r7, #24]
  RCC_ClkInitStruct.AHBCLKDivider = RCC_SYSCLK_DIV1;
 8003cc2:	2300      	movs	r3, #0
 8003cc4:	61fb      	str	r3, [r7, #28]
  RCC_ClkInitStruct.APB1CLKDivider = RCC_HCLK_DIV2;
 8003cc6:	f44f 6380 	mov.w	r3, #1024	; 0x400
 8003cca:	623b      	str	r3, [r7, #32]
  RCC_ClkInitStruct.APB2CLKDivider = RCC_HCLK_DIV1;
 8003ccc:	2300      	movs	r3, #0
 8003cce:	627b      	str	r3, [r7, #36]	; 0x24

  if (HAL_RCC_ClockConfig(&RCC_ClkInitStruct, FLASH_LATENCY_1) != HAL_OK)
 8003cd0:	f107 0314 	add.w	r3, r7, #20
 8003cd4:	2101      	movs	r1, #1
 8003cd6:	4618      	mov	r0, r3
 8003cd8:	f001 fe96 	bl	8005a08 <HAL_RCC_ClockConfig>
 8003cdc:	4603      	mov	r3, r0
 8003cde:	2b00      	cmp	r3, #0
 8003ce0:	bf14      	ite	ne
 8003ce2:	2301      	movne	r3, #1
 8003ce4:	2300      	moveq	r3, #0
 8003ce6:	b2db      	uxtb	r3, r3
 8003ce8:	2b00      	cmp	r3, #0
 8003cea:	d001      	beq.n	8003cf0 <_Z18SystemClock_Configv+0xa6>
  {
    Error_Handler();
 8003cec:	f000 f817 	bl	8003d1e <Error_Handler>
  }
  PeriphClkInit.PeriphClockSelection = RCC_PERIPHCLK_USB;
 8003cf0:	2310      	movs	r3, #16
 8003cf2:	607b      	str	r3, [r7, #4]
  PeriphClkInit.UsbClockSelection = RCC_USBCLKSOURCE_PLL;
 8003cf4:	f44f 0380 	mov.w	r3, #4194304	; 0x400000
 8003cf8:	613b      	str	r3, [r7, #16]
  if (HAL_RCCEx_PeriphCLKConfig(&PeriphClkInit) != HAL_OK)
 8003cfa:	1d3b      	adds	r3, r7, #4
 8003cfc:	4618      	mov	r0, r3
 8003cfe:	f001 ff1f 	bl	8005b40 <HAL_RCCEx_PeriphCLKConfig>
 8003d02:	4603      	mov	r3, r0
 8003d04:	2b00      	cmp	r3, #0
 8003d06:	bf14      	ite	ne
 8003d08:	2301      	movne	r3, #1
 8003d0a:	2300      	moveq	r3, #0
 8003d0c:	b2db      	uxtb	r3, r3
 8003d0e:	2b00      	cmp	r3, #0
 8003d10:	d001      	beq.n	8003d16 <_Z18SystemClock_Configv+0xcc>
  {
    Error_Handler();
 8003d12:	f000 f804 	bl	8003d1e <Error_Handler>
  }
}
 8003d16:	bf00      	nop
 8003d18:	3750      	adds	r7, #80	; 0x50
 8003d1a:	46bd      	mov	sp, r7
 8003d1c:	bd80      	pop	{r7, pc}

08003d1e <Error_Handler>:
/**
  * @brief  This function is executed in case of error occurrence.
  * @retval None
  */
void Error_Handler(void)
{
 8003d1e:	b480      	push	{r7}
 8003d20:	af00      	add	r7, sp, #0
  \details Disables IRQ interrupts by setting the I-bit in the CPSR.
           Can only be executed in Privileged modes.
 */
__STATIC_FORCEINLINE void __disable_irq(void)
{
  __ASM volatile ("cpsid i" : : : "memory");
 8003d22:	b672      	cpsid	i
}
 8003d24:	bf00      	nop
  /* USER CODE BEGIN Error_Handler_Debug */
  /* User can add his own implementation to report the HAL error return state */
  __disable_irq();
  while (1)
 8003d26:	e7fe      	b.n	8003d26 <Error_Handler+0x8>

08003d28 <_ZNSt5dequeIcSaIcEEC1Ev>:
      deque() = default;
 8003d28:	b580      	push	{r7, lr}
 8003d2a:	b082      	sub	sp, #8
 8003d2c:	af00      	add	r7, sp, #0
 8003d2e:	6078      	str	r0, [r7, #4]
 8003d30:	687b      	ldr	r3, [r7, #4]
 8003d32:	4618      	mov	r0, r3
 8003d34:	f000 f83a 	bl	8003dac <_ZNSt11_Deque_baseIcSaIcEEC1Ev>
 8003d38:	687b      	ldr	r3, [r7, #4]
 8003d3a:	4618      	mov	r0, r3
 8003d3c:	3708      	adds	r7, #8
 8003d3e:	46bd      	mov	sp, r7
 8003d40:	bd80      	pop	{r7, pc}

08003d42 <_ZNSt5stackIcSt5dequeIcSaIcEEEC1IS2_vEEv>:
	stack()
 8003d42:	b580      	push	{r7, lr}
 8003d44:	b082      	sub	sp, #8
 8003d46:	af00      	add	r7, sp, #0
 8003d48:	6078      	str	r0, [r7, #4]
	: c() { }
 8003d4a:	687b      	ldr	r3, [r7, #4]
 8003d4c:	4618      	mov	r0, r3
 8003d4e:	2328      	movs	r3, #40	; 0x28
 8003d50:	461a      	mov	r2, r3
 8003d52:	2100      	movs	r1, #0
 8003d54:	f004 f8de 	bl	8007f14 <memset>
 8003d58:	687b      	ldr	r3, [r7, #4]
 8003d5a:	4618      	mov	r0, r3
 8003d5c:	f7ff ffe4 	bl	8003d28 <_ZNSt5dequeIcSaIcEEC1Ev>
 8003d60:	687b      	ldr	r3, [r7, #4]
 8003d62:	4618      	mov	r0, r3
 8003d64:	3708      	adds	r7, #8
 8003d66:	46bd      	mov	sp, r7
 8003d68:	bd80      	pop	{r7, pc}

08003d6a <_ZNSt5dequeIdSaIdEEC1Ev>:
 8003d6a:	b580      	push	{r7, lr}
 8003d6c:	b082      	sub	sp, #8
 8003d6e:	af00      	add	r7, sp, #0
 8003d70:	6078      	str	r0, [r7, #4]
 8003d72:	687b      	ldr	r3, [r7, #4]
 8003d74:	4618      	mov	r0, r3
 8003d76:	f000 f82a 	bl	8003dce <_ZNSt11_Deque_baseIdSaIdEEC1Ev>
 8003d7a:	687b      	ldr	r3, [r7, #4]
 8003d7c:	4618      	mov	r0, r3
 8003d7e:	3708      	adds	r7, #8
 8003d80:	46bd      	mov	sp, r7
 8003d82:	bd80      	pop	{r7, pc}

08003d84 <_ZNSt5stackIdSt5dequeIdSaIdEEEC1IS2_vEEv>:
	stack()
 8003d84:	b580      	push	{r7, lr}
 8003d86:	b082      	sub	sp, #8
 8003d88:	af00      	add	r7, sp, #0
 8003d8a:	6078      	str	r0, [r7, #4]
	: c() { }
 8003d8c:	687b      	ldr	r3, [r7, #4]
 8003d8e:	4618      	mov	r0, r3
 8003d90:	2328      	movs	r3, #40	; 0x28
 8003d92:	461a      	mov	r2, r3
 8003d94:	2100      	movs	r1, #0
 8003d96:	f004 f8bd 	bl	8007f14 <memset>
 8003d9a:	687b      	ldr	r3, [r7, #4]
 8003d9c:	4618      	mov	r0, r3
 8003d9e:	f7ff ffe4 	bl	8003d6a <_ZNSt5dequeIdSaIdEEC1Ev>
 8003da2:	687b      	ldr	r3, [r7, #4]
 8003da4:	4618      	mov	r0, r3
 8003da6:	3708      	adds	r7, #8
 8003da8:	46bd      	mov	sp, r7
 8003daa:	bd80      	pop	{r7, pc}

08003dac <_ZNSt11_Deque_baseIcSaIcEEC1Ev>:
      _Deque_base()
 8003dac:	b580      	push	{r7, lr}
 8003dae:	b082      	sub	sp, #8
 8003db0:	af00      	add	r7, sp, #0
 8003db2:	6078      	str	r0, [r7, #4]
      : _M_impl()
 8003db4:	687b      	ldr	r3, [r7, #4]
 8003db6:	4618      	mov	r0, r3
 8003db8:	f000 f81a 	bl	8003df0 <_ZNSt11_Deque_baseIcSaIcEE11_Deque_implC1Ev>
      { _M_initialize_map(0); }
 8003dbc:	2100      	movs	r1, #0
 8003dbe:	6878      	ldr	r0, [r7, #4]
 8003dc0:	f000 f826 	bl	8003e10 <_ZNSt11_Deque_baseIcSaIcEE17_M_initialize_mapEj>
 8003dc4:	687b      	ldr	r3, [r7, #4]
 8003dc6:	4618      	mov	r0, r3
 8003dc8:	3708      	adds	r7, #8
 8003dca:	46bd      	mov	sp, r7
 8003dcc:	bd80      	pop	{r7, pc}

08003dce <_ZNSt11_Deque_baseIdSaIdEEC1Ev>:
      _Deque_base()
 8003dce:	b580      	push	{r7, lr}
 8003dd0:	b082      	sub	sp, #8
 8003dd2:	af00      	add	r7, sp, #0
 8003dd4:	6078      	str	r0, [r7, #4]
      : _M_impl()
 8003dd6:	687b      	ldr	r3, [r7, #4]
 8003dd8:	4618      	mov	r0, r3
 8003dda:	f000 f87b 	bl	8003ed4 <_ZNSt11_Deque_baseIdSaIdEE11_Deque_implC1Ev>
      { _M_initialize_map(0); }
 8003dde:	2100      	movs	r1, #0
 8003de0:	6878      	ldr	r0, [r7, #4]
 8003de2:	f000 f887 	bl	8003ef4 <_ZNSt11_Deque_baseIdSaIdEE17_M_initialize_mapEj>
 8003de6:	687b      	ldr	r3, [r7, #4]
 8003de8:	4618      	mov	r0, r3
 8003dea:	3708      	adds	r7, #8
 8003dec:	46bd      	mov	sp, r7
 8003dee:	bd80      	pop	{r7, pc}

08003df0 <_ZNSt11_Deque_baseIcSaIcEE11_Deque_implC1Ev>:
	_Deque_impl() _GLIBCXX_NOEXCEPT_IF(
 8003df0:	b580      	push	{r7, lr}
 8003df2:	b082      	sub	sp, #8
 8003df4:	af00      	add	r7, sp, #0
 8003df6:	6078      	str	r0, [r7, #4]
	: _Tp_alloc_type()
 8003df8:	6878      	ldr	r0, [r7, #4]
 8003dfa:	f003 fce2 	bl	80077c2 <_ZNSaIcEC1Ev>
 8003dfe:	687b      	ldr	r3, [r7, #4]
 8003e00:	4618      	mov	r0, r3
 8003e02:	f000 f8da 	bl	8003fba <_ZNSt11_Deque_baseIcSaIcEE16_Deque_impl_dataC1Ev>
	{ }
 8003e06:	687b      	ldr	r3, [r7, #4]
 8003e08:	4618      	mov	r0, r3
 8003e0a:	3708      	adds	r7, #8
 8003e0c:	46bd      	mov	sp, r7
 8003e0e:	bd80      	pop	{r7, pc}

08003e10 <_ZNSt11_Deque_baseIcSaIcEE17_M_initialize_mapEj>:
    _Deque_base<_Tp, _Alloc>::
 8003e10:	b590      	push	{r4, r7, lr}
 8003e12:	b089      	sub	sp, #36	; 0x24
 8003e14:	af00      	add	r7, sp, #0
 8003e16:	6078      	str	r0, [r7, #4]
 8003e18:	6039      	str	r1, [r7, #0]
      const size_t __num_nodes = (__num_elements / __deque_buf_size(sizeof(_Tp))
 8003e1a:	2001      	movs	r0, #1
 8003e1c:	f7fd fde7 	bl	80019ee <_ZSt16__deque_buf_sizej>
 8003e20:	4602      	mov	r2, r0
 8003e22:	683b      	ldr	r3, [r7, #0]
 8003e24:	fbb3 f3f2 	udiv	r3, r3, r2
 8003e28:	3301      	adds	r3, #1
 8003e2a:	61fb      	str	r3, [r7, #28]
      this->_M_impl._M_map_size = std::max((size_t) _S_initial_map_size,
 8003e2c:	2308      	movs	r3, #8
 8003e2e:	60fb      	str	r3, [r7, #12]
					   size_t(__num_nodes + 2));
 8003e30:	69fb      	ldr	r3, [r7, #28]
 8003e32:	3302      	adds	r3, #2
 8003e34:	613b      	str	r3, [r7, #16]
 8003e36:	f107 0210 	add.w	r2, r7, #16
 8003e3a:	f107 030c 	add.w	r3, r7, #12
 8003e3e:	4611      	mov	r1, r2
 8003e40:	4618      	mov	r0, r3
 8003e42:	f7ff fa07 	bl	8003254 <_ZSt3maxIjERKT_S2_S2_>
 8003e46:	4603      	mov	r3, r0
      this->_M_impl._M_map_size = std::max((size_t) _S_initial_map_size,
 8003e48:	681a      	ldr	r2, [r3, #0]
 8003e4a:	687b      	ldr	r3, [r7, #4]
 8003e4c:	605a      	str	r2, [r3, #4]
      this->_M_impl._M_map = _M_allocate_map(this->_M_impl._M_map_size);
 8003e4e:	687b      	ldr	r3, [r7, #4]
 8003e50:	685b      	ldr	r3, [r3, #4]
 8003e52:	4619      	mov	r1, r3
 8003e54:	6878      	ldr	r0, [r7, #4]
 8003e56:	f7ff fa10 	bl	800327a <_ZNSt11_Deque_baseIcSaIcEE15_M_allocate_mapEj>
 8003e5a:	4602      	mov	r2, r0
 8003e5c:	687b      	ldr	r3, [r7, #4]
 8003e5e:	601a      	str	r2, [r3, #0]
      _Map_pointer __nstart = (this->_M_impl._M_map
 8003e60:	687b      	ldr	r3, [r7, #4]
 8003e62:	681a      	ldr	r2, [r3, #0]
			       + (this->_M_impl._M_map_size - __num_nodes) / 2);
 8003e64:	687b      	ldr	r3, [r7, #4]
 8003e66:	6859      	ldr	r1, [r3, #4]
 8003e68:	69fb      	ldr	r3, [r7, #28]
 8003e6a:	1acb      	subs	r3, r1, r3
 8003e6c:	085b      	lsrs	r3, r3, #1
 8003e6e:	009b      	lsls	r3, r3, #2
      _Map_pointer __nstart = (this->_M_impl._M_map
 8003e70:	4413      	add	r3, r2
 8003e72:	61bb      	str	r3, [r7, #24]
      _Map_pointer __nfinish = __nstart + __num_nodes;
 8003e74:	69fb      	ldr	r3, [r7, #28]
 8003e76:	009b      	lsls	r3, r3, #2
 8003e78:	69ba      	ldr	r2, [r7, #24]
 8003e7a:	4413      	add	r3, r2
 8003e7c:	617b      	str	r3, [r7, #20]
	{ _M_create_nodes(__nstart, __nfinish); }
 8003e7e:	697a      	ldr	r2, [r7, #20]
 8003e80:	69b9      	ldr	r1, [r7, #24]
 8003e82:	6878      	ldr	r0, [r7, #4]
 8003e84:	f000 f8b2 	bl	8003fec <_ZNSt11_Deque_baseIcSaIcEE15_M_create_nodesEPPcS3_>
      this->_M_impl._M_start._M_set_node(__nstart);
 8003e88:	687b      	ldr	r3, [r7, #4]
 8003e8a:	3308      	adds	r3, #8
 8003e8c:	69b9      	ldr	r1, [r7, #24]
 8003e8e:	4618      	mov	r0, r3
 8003e90:	f7fe fe05 	bl	8002a9e <_ZNSt15_Deque_iteratorIcRcPcE11_M_set_nodeEPS1_>
      this->_M_impl._M_finish._M_set_node(__nfinish - 1);
 8003e94:	687b      	ldr	r3, [r7, #4]
 8003e96:	f103 0218 	add.w	r2, r3, #24
 8003e9a:	697b      	ldr	r3, [r7, #20]
 8003e9c:	3b04      	subs	r3, #4
 8003e9e:	4619      	mov	r1, r3
 8003ea0:	4610      	mov	r0, r2
 8003ea2:	f7fe fdfc 	bl	8002a9e <_ZNSt15_Deque_iteratorIcRcPcE11_M_set_nodeEPS1_>
      this->_M_impl._M_start._M_cur = _M_impl._M_start._M_first;
 8003ea6:	687b      	ldr	r3, [r7, #4]
 8003ea8:	68da      	ldr	r2, [r3, #12]
 8003eaa:	687b      	ldr	r3, [r7, #4]
 8003eac:	609a      	str	r2, [r3, #8]
      this->_M_impl._M_finish._M_cur = (this->_M_impl._M_finish._M_first
 8003eae:	687b      	ldr	r3, [r7, #4]
 8003eb0:	69dc      	ldr	r4, [r3, #28]
					% __deque_buf_size(sizeof(_Tp)));
 8003eb2:	2001      	movs	r0, #1
 8003eb4:	f7fd fd9b 	bl	80019ee <_ZSt16__deque_buf_sizej>
 8003eb8:	4602      	mov	r2, r0
 8003eba:	683b      	ldr	r3, [r7, #0]
 8003ebc:	fbb3 f1f2 	udiv	r1, r3, r2
 8003ec0:	fb01 f202 	mul.w	r2, r1, r2
 8003ec4:	1a9b      	subs	r3, r3, r2
					+ __num_elements
 8003ec6:	18e2      	adds	r2, r4, r3
      this->_M_impl._M_finish._M_cur = (this->_M_impl._M_finish._M_first
 8003ec8:	687b      	ldr	r3, [r7, #4]
 8003eca:	619a      	str	r2, [r3, #24]
    }
 8003ecc:	bf00      	nop
 8003ece:	3724      	adds	r7, #36	; 0x24
 8003ed0:	46bd      	mov	sp, r7
 8003ed2:	bd90      	pop	{r4, r7, pc}

08003ed4 <_ZNSt11_Deque_baseIdSaIdEE11_Deque_implC1Ev>:
	_Deque_impl() _GLIBCXX_NOEXCEPT_IF(
 8003ed4:	b580      	push	{r7, lr}
 8003ed6:	b082      	sub	sp, #8
 8003ed8:	af00      	add	r7, sp, #0
 8003eda:	6078      	str	r0, [r7, #4]
	: _Tp_alloc_type()
 8003edc:	6878      	ldr	r0, [r7, #4]
 8003ede:	f000 f89f 	bl	8004020 <_ZNSaIdEC1Ev>
 8003ee2:	687b      	ldr	r3, [r7, #4]
 8003ee4:	4618      	mov	r0, r3
 8003ee6:	f000 f8a7 	bl	8004038 <_ZNSt11_Deque_baseIdSaIdEE16_Deque_impl_dataC1Ev>
	{ }
 8003eea:	687b      	ldr	r3, [r7, #4]
 8003eec:	4618      	mov	r0, r3
 8003eee:	3708      	adds	r7, #8
 8003ef0:	46bd      	mov	sp, r7
 8003ef2:	bd80      	pop	{r7, pc}

08003ef4 <_ZNSt11_Deque_baseIdSaIdEE17_M_initialize_mapEj>:
    _Deque_base<_Tp, _Alloc>::
 8003ef4:	b590      	push	{r4, r7, lr}
 8003ef6:	b089      	sub	sp, #36	; 0x24
 8003ef8:	af00      	add	r7, sp, #0
 8003efa:	6078      	str	r0, [r7, #4]
 8003efc:	6039      	str	r1, [r7, #0]
      const size_t __num_nodes = (__num_elements / __deque_buf_size(sizeof(_Tp))
 8003efe:	2008      	movs	r0, #8
 8003f00:	f7fd fd75 	bl	80019ee <_ZSt16__deque_buf_sizej>
 8003f04:	4602      	mov	r2, r0
 8003f06:	683b      	ldr	r3, [r7, #0]
 8003f08:	fbb3 f3f2 	udiv	r3, r3, r2
 8003f0c:	3301      	adds	r3, #1
 8003f0e:	61fb      	str	r3, [r7, #28]
      this->_M_impl._M_map_size = std::max((size_t) _S_initial_map_size,
 8003f10:	2308      	movs	r3, #8
 8003f12:	60fb      	str	r3, [r7, #12]
					   size_t(__num_nodes + 2));
 8003f14:	69fb      	ldr	r3, [r7, #28]
 8003f16:	3302      	adds	r3, #2
 8003f18:	613b      	str	r3, [r7, #16]
 8003f1a:	f107 0210 	add.w	r2, r7, #16
 8003f1e:	f107 030c 	add.w	r3, r7, #12
 8003f22:	4611      	mov	r1, r2
 8003f24:	4618      	mov	r0, r3
 8003f26:	f7ff f995 	bl	8003254 <_ZSt3maxIjERKT_S2_S2_>
 8003f2a:	4603      	mov	r3, r0
      this->_M_impl._M_map_size = std::max((size_t) _S_initial_map_size,
 8003f2c:	681a      	ldr	r2, [r3, #0]
 8003f2e:	687b      	ldr	r3, [r7, #4]
 8003f30:	605a      	str	r2, [r3, #4]
      this->_M_impl._M_map = _M_allocate_map(this->_M_impl._M_map_size);
 8003f32:	687b      	ldr	r3, [r7, #4]
 8003f34:	685b      	ldr	r3, [r3, #4]
 8003f36:	4619      	mov	r1, r3
 8003f38:	6878      	ldr	r0, [r7, #4]
 8003f3a:	f7ff fa13 	bl	8003364 <_ZNSt11_Deque_baseIdSaIdEE15_M_allocate_mapEj>
 8003f3e:	4602      	mov	r2, r0
 8003f40:	687b      	ldr	r3, [r7, #4]
 8003f42:	601a      	str	r2, [r3, #0]
      _Map_pointer __nstart = (this->_M_impl._M_map
 8003f44:	687b      	ldr	r3, [r7, #4]
 8003f46:	681a      	ldr	r2, [r3, #0]
			       + (this->_M_impl._M_map_size - __num_nodes) / 2);
 8003f48:	687b      	ldr	r3, [r7, #4]
 8003f4a:	6859      	ldr	r1, [r3, #4]
 8003f4c:	69fb      	ldr	r3, [r7, #28]
 8003f4e:	1acb      	subs	r3, r1, r3
 8003f50:	085b      	lsrs	r3, r3, #1
 8003f52:	009b      	lsls	r3, r3, #2
      _Map_pointer __nstart = (this->_M_impl._M_map
 8003f54:	4413      	add	r3, r2
 8003f56:	61bb      	str	r3, [r7, #24]
      _Map_pointer __nfinish = __nstart + __num_nodes;
 8003f58:	69fb      	ldr	r3, [r7, #28]
 8003f5a:	009b      	lsls	r3, r3, #2
 8003f5c:	69ba      	ldr	r2, [r7, #24]
 8003f5e:	4413      	add	r3, r2
 8003f60:	617b      	str	r3, [r7, #20]
	{ _M_create_nodes(__nstart, __nfinish); }
 8003f62:	697a      	ldr	r2, [r7, #20]
 8003f64:	69b9      	ldr	r1, [r7, #24]
 8003f66:	6878      	ldr	r0, [r7, #4]
 8003f68:	f000 f87f 	bl	800406a <_ZNSt11_Deque_baseIdSaIdEE15_M_create_nodesEPPdS3_>
      this->_M_impl._M_start._M_set_node(__nstart);
 8003f6c:	687b      	ldr	r3, [r7, #4]
 8003f6e:	3308      	adds	r3, #8
 8003f70:	69b9      	ldr	r1, [r7, #24]
 8003f72:	4618      	mov	r0, r3
 8003f74:	f7fe fd40 	bl	80029f8 <_ZNSt15_Deque_iteratorIdRdPdE11_M_set_nodeEPS1_>
      this->_M_impl._M_finish._M_set_node(__nfinish - 1);
 8003f78:	687b      	ldr	r3, [r7, #4]
 8003f7a:	f103 0218 	add.w	r2, r3, #24
 8003f7e:	697b      	ldr	r3, [r7, #20]
 8003f80:	3b04      	subs	r3, #4
 8003f82:	4619      	mov	r1, r3
 8003f84:	4610      	mov	r0, r2
 8003f86:	f7fe fd37 	bl	80029f8 <_ZNSt15_Deque_iteratorIdRdPdE11_M_set_nodeEPS1_>
      this->_M_impl._M_start._M_cur = _M_impl._M_start._M_first;
 8003f8a:	687b      	ldr	r3, [r7, #4]
 8003f8c:	68da      	ldr	r2, [r3, #12]
 8003f8e:	687b      	ldr	r3, [r7, #4]
 8003f90:	609a      	str	r2, [r3, #8]
      this->_M_impl._M_finish._M_cur = (this->_M_impl._M_finish._M_first
 8003f92:	687b      	ldr	r3, [r7, #4]
 8003f94:	69dc      	ldr	r4, [r3, #28]
					% __deque_buf_size(sizeof(_Tp)));
 8003f96:	2008      	movs	r0, #8
 8003f98:	f7fd fd29 	bl	80019ee <_ZSt16__deque_buf_sizej>
 8003f9c:	4602      	mov	r2, r0
 8003f9e:	683b      	ldr	r3, [r7, #0]
 8003fa0:	fbb3 f1f2 	udiv	r1, r3, r2
 8003fa4:	fb01 f202 	mul.w	r2, r1, r2
 8003fa8:	1a9b      	subs	r3, r3, r2
					+ __num_elements
 8003faa:	00db      	lsls	r3, r3, #3
 8003fac:	18e2      	adds	r2, r4, r3
      this->_M_impl._M_finish._M_cur = (this->_M_impl._M_finish._M_first
 8003fae:	687b      	ldr	r3, [r7, #4]
 8003fb0:	619a      	str	r2, [r3, #24]
    }
 8003fb2:	bf00      	nop
 8003fb4:	3724      	adds	r7, #36	; 0x24
 8003fb6:	46bd      	mov	sp, r7
 8003fb8:	bd90      	pop	{r4, r7, pc}

08003fba <_ZNSt11_Deque_baseIcSaIcEE16_Deque_impl_dataC1Ev>:
	_Deque_impl_data() _GLIBCXX_NOEXCEPT
 8003fba:	b580      	push	{r7, lr}
 8003fbc:	b082      	sub	sp, #8
 8003fbe:	af00      	add	r7, sp, #0
 8003fc0:	6078      	str	r0, [r7, #4]
	: _M_map(), _M_map_size(), _M_start(), _M_finish()
 8003fc2:	687b      	ldr	r3, [r7, #4]
 8003fc4:	2200      	movs	r2, #0
 8003fc6:	601a      	str	r2, [r3, #0]
 8003fc8:	687b      	ldr	r3, [r7, #4]
 8003fca:	2200      	movs	r2, #0
 8003fcc:	605a      	str	r2, [r3, #4]
 8003fce:	687b      	ldr	r3, [r7, #4]
 8003fd0:	3308      	adds	r3, #8
 8003fd2:	4618      	mov	r0, r3
 8003fd4:	f000 f863 	bl	800409e <_ZNSt15_Deque_iteratorIcRcPcEC1Ev>
 8003fd8:	687b      	ldr	r3, [r7, #4]
 8003fda:	3318      	adds	r3, #24
 8003fdc:	4618      	mov	r0, r3
 8003fde:	f000 f85e 	bl	800409e <_ZNSt15_Deque_iteratorIcRcPcEC1Ev>
	{ }
 8003fe2:	687b      	ldr	r3, [r7, #4]
 8003fe4:	4618      	mov	r0, r3
 8003fe6:	3708      	adds	r7, #8
 8003fe8:	46bd      	mov	sp, r7
 8003fea:	bd80      	pop	{r7, pc}

08003fec <_ZNSt11_Deque_baseIcSaIcEE15_M_create_nodesEPPcS3_>:
    _Deque_base<_Tp, _Alloc>::
 8003fec:	b580      	push	{r7, lr}
 8003fee:	b086      	sub	sp, #24
 8003ff0:	af00      	add	r7, sp, #0
 8003ff2:	60f8      	str	r0, [r7, #12]
 8003ff4:	60b9      	str	r1, [r7, #8]
 8003ff6:	607a      	str	r2, [r7, #4]
	  for (__cur = __nstart; __cur < __nfinish; ++__cur)
 8003ff8:	68bb      	ldr	r3, [r7, #8]
 8003ffa:	617b      	str	r3, [r7, #20]
 8003ffc:	697a      	ldr	r2, [r7, #20]
 8003ffe:	687b      	ldr	r3, [r7, #4]
 8004000:	429a      	cmp	r2, r3
 8004002:	d209      	bcs.n	8004018 <_ZNSt11_Deque_baseIcSaIcEE15_M_create_nodesEPPcS3_+0x2c>
	    *__cur = this->_M_allocate_node();
 8004004:	68f8      	ldr	r0, [r7, #12]
 8004006:	f7fe fe54 	bl	8002cb2 <_ZNSt11_Deque_baseIcSaIcEE16_M_allocate_nodeEv>
 800400a:	4602      	mov	r2, r0
 800400c:	697b      	ldr	r3, [r7, #20]
 800400e:	601a      	str	r2, [r3, #0]
	  for (__cur = __nstart; __cur < __nfinish; ++__cur)
 8004010:	697b      	ldr	r3, [r7, #20]
 8004012:	3304      	adds	r3, #4
 8004014:	617b      	str	r3, [r7, #20]
 8004016:	e7f1      	b.n	8003ffc <_ZNSt11_Deque_baseIcSaIcEE15_M_create_nodesEPPcS3_+0x10>
    }
 8004018:	bf00      	nop
 800401a:	3718      	adds	r7, #24
 800401c:	46bd      	mov	sp, r7
 800401e:	bd80      	pop	{r7, pc}

08004020 <_ZNSaIdEC1Ev>:
      allocator() _GLIBCXX_NOTHROW { }
 8004020:	b580      	push	{r7, lr}
 8004022:	b082      	sub	sp, #8
 8004024:	af00      	add	r7, sp, #0
 8004026:	6078      	str	r0, [r7, #4]
 8004028:	6878      	ldr	r0, [r7, #4]
 800402a:	f000 f84e 	bl	80040ca <_ZN9__gnu_cxx13new_allocatorIdEC1Ev>
 800402e:	687b      	ldr	r3, [r7, #4]
 8004030:	4618      	mov	r0, r3
 8004032:	3708      	adds	r7, #8
 8004034:	46bd      	mov	sp, r7
 8004036:	bd80      	pop	{r7, pc}

08004038 <_ZNSt11_Deque_baseIdSaIdEE16_Deque_impl_dataC1Ev>:
	_Deque_impl_data() _GLIBCXX_NOEXCEPT
 8004038:	b580      	push	{r7, lr}
 800403a:	b082      	sub	sp, #8
 800403c:	af00      	add	r7, sp, #0
 800403e:	6078      	str	r0, [r7, #4]
	: _M_map(), _M_map_size(), _M_start(), _M_finish()
 8004040:	687b      	ldr	r3, [r7, #4]
 8004042:	2200      	movs	r2, #0
 8004044:	601a      	str	r2, [r3, #0]
 8004046:	687b      	ldr	r3, [r7, #4]
 8004048:	2200      	movs	r2, #0
 800404a:	605a      	str	r2, [r3, #4]
 800404c:	687b      	ldr	r3, [r7, #4]
 800404e:	3308      	adds	r3, #8
 8004050:	4618      	mov	r0, r3
 8004052:	f000 f844 	bl	80040de <_ZNSt15_Deque_iteratorIdRdPdEC1Ev>
 8004056:	687b      	ldr	r3, [r7, #4]
 8004058:	3318      	adds	r3, #24
 800405a:	4618      	mov	r0, r3
 800405c:	f000 f83f 	bl	80040de <_ZNSt15_Deque_iteratorIdRdPdEC1Ev>
	{ }
 8004060:	687b      	ldr	r3, [r7, #4]
 8004062:	4618      	mov	r0, r3
 8004064:	3708      	adds	r7, #8
 8004066:	46bd      	mov	sp, r7
 8004068:	bd80      	pop	{r7, pc}

0800406a <_ZNSt11_Deque_baseIdSaIdEE15_M_create_nodesEPPdS3_>:
    _Deque_base<_Tp, _Alloc>::
 800406a:	b580      	push	{r7, lr}
 800406c:	b086      	sub	sp, #24
 800406e:	af00      	add	r7, sp, #0
 8004070:	60f8      	str	r0, [r7, #12]
 8004072:	60b9      	str	r1, [r7, #8]
 8004074:	607a      	str	r2, [r7, #4]
	  for (__cur = __nstart; __cur < __nfinish; ++__cur)
 8004076:	68bb      	ldr	r3, [r7, #8]
 8004078:	617b      	str	r3, [r7, #20]
 800407a:	697a      	ldr	r2, [r7, #20]
 800407c:	687b      	ldr	r3, [r7, #4]
 800407e:	429a      	cmp	r2, r3
 8004080:	d209      	bcs.n	8004096 <_ZNSt11_Deque_baseIdSaIdEE15_M_create_nodesEPPdS3_+0x2c>
	    *__cur = this->_M_allocate_node();
 8004082:	68f8      	ldr	r0, [r7, #12]
 8004084:	f7fe fea5 	bl	8002dd2 <_ZNSt11_Deque_baseIdSaIdEE16_M_allocate_nodeEv>
 8004088:	4602      	mov	r2, r0
 800408a:	697b      	ldr	r3, [r7, #20]
 800408c:	601a      	str	r2, [r3, #0]
	  for (__cur = __nstart; __cur < __nfinish; ++__cur)
 800408e:	697b      	ldr	r3, [r7, #20]
 8004090:	3304      	adds	r3, #4
 8004092:	617b      	str	r3, [r7, #20]
 8004094:	e7f1      	b.n	800407a <_ZNSt11_Deque_baseIdSaIdEE15_M_create_nodesEPPdS3_+0x10>
    }
 8004096:	bf00      	nop
 8004098:	3718      	adds	r7, #24
 800409a:	46bd      	mov	sp, r7
 800409c:	bd80      	pop	{r7, pc}

0800409e <_ZNSt15_Deque_iteratorIcRcPcEC1Ev>:
      _Deque_iterator() _GLIBCXX_NOEXCEPT
 800409e:	b480      	push	{r7}
 80040a0:	b083      	sub	sp, #12
 80040a2:	af00      	add	r7, sp, #0
 80040a4:	6078      	str	r0, [r7, #4]
      : _M_cur(), _M_first(), _M_last(), _M_node() { }
 80040a6:	687b      	ldr	r3, [r7, #4]
 80040a8:	2200      	movs	r2, #0
 80040aa:	601a      	str	r2, [r3, #0]
 80040ac:	687b      	ldr	r3, [r7, #4]
 80040ae:	2200      	movs	r2, #0
 80040b0:	605a      	str	r2, [r3, #4]
 80040b2:	687b      	ldr	r3, [r7, #4]
 80040b4:	2200      	movs	r2, #0
 80040b6:	609a      	str	r2, [r3, #8]
 80040b8:	687b      	ldr	r3, [r7, #4]
 80040ba:	2200      	movs	r2, #0
 80040bc:	60da      	str	r2, [r3, #12]
 80040be:	687b      	ldr	r3, [r7, #4]
 80040c0:	4618      	mov	r0, r3
 80040c2:	370c      	adds	r7, #12
 80040c4:	46bd      	mov	sp, r7
 80040c6:	bc80      	pop	{r7}
 80040c8:	4770      	bx	lr

080040ca <_ZN9__gnu_cxx13new_allocatorIdEC1Ev>:
      new_allocator() _GLIBCXX_USE_NOEXCEPT { }
 80040ca:	b480      	push	{r7}
 80040cc:	b083      	sub	sp, #12
 80040ce:	af00      	add	r7, sp, #0
 80040d0:	6078      	str	r0, [r7, #4]
 80040d2:	687b      	ldr	r3, [r7, #4]
 80040d4:	4618      	mov	r0, r3
 80040d6:	370c      	adds	r7, #12
 80040d8:	46bd      	mov	sp, r7
 80040da:	bc80      	pop	{r7}
 80040dc:	4770      	bx	lr

080040de <_ZNSt15_Deque_iteratorIdRdPdEC1Ev>:
      _Deque_iterator() _GLIBCXX_NOEXCEPT
 80040de:	b480      	push	{r7}
 80040e0:	b083      	sub	sp, #12
 80040e2:	af00      	add	r7, sp, #0
 80040e4:	6078      	str	r0, [r7, #4]
      : _M_cur(), _M_first(), _M_last(), _M_node() { }
 80040e6:	687b      	ldr	r3, [r7, #4]
 80040e8:	2200      	movs	r2, #0
 80040ea:	601a      	str	r2, [r3, #0]
 80040ec:	687b      	ldr	r3, [r7, #4]
 80040ee:	2200      	movs	r2, #0
 80040f0:	605a      	str	r2, [r3, #4]
 80040f2:	687b      	ldr	r3, [r7, #4]
 80040f4:	2200      	movs	r2, #0
 80040f6:	609a      	str	r2, [r3, #8]
 80040f8:	687b      	ldr	r3, [r7, #4]
 80040fa:	2200      	movs	r2, #0
 80040fc:	60da      	str	r2, [r3, #12]
 80040fe:	687b      	ldr	r3, [r7, #4]
 8004100:	4618      	mov	r0, r3
 8004102:	370c      	adds	r7, #12
 8004104:	46bd      	mov	sp, r7
 8004106:	bc80      	pop	{r7}
 8004108:	4770      	bx	lr
	...

0800410c <_ZN7MAX721911max7219SendEhh>:
 *  Created on: Nov 16, 2023
 *      Author: zhiyuan
 */
# include "max7219.hpp"

void MAX7219::max7219Send(uint8_t address,uint8_t data){
 800410c:	b580      	push	{r7, lr}
 800410e:	b084      	sub	sp, #16
 8004110:	af00      	add	r7, sp, #0
 8004112:	6078      	str	r0, [r7, #4]
 8004114:	460b      	mov	r3, r1
 8004116:	70fb      	strb	r3, [r7, #3]
 8004118:	4613      	mov	r3, r2
 800411a:	70bb      	strb	r3, [r7, #2]

	uint16_t Transmit_buf = (0x00ff&data)|(0xff00&(address<<8));
 800411c:	78bb      	ldrb	r3, [r7, #2]
 800411e:	b21a      	sxth	r2, r3
 8004120:	78fb      	ldrb	r3, [r7, #3]
 8004122:	021b      	lsls	r3, r3, #8
 8004124:	b21b      	sxth	r3, r3
 8004126:	4313      	orrs	r3, r2
 8004128:	b21b      	sxth	r3, r3
 800412a:	b29b      	uxth	r3, r3
 800412c:	81fb      	strh	r3, [r7, #14]
	HAL_GPIO_WritePin(SPI1_CS_GPIO_Port, SPI1_CS_Pin, GPIO_PIN_RESET);
 800412e:	2200      	movs	r2, #0
 8004130:	2140      	movs	r1, #64	; 0x40
 8004132:	480b      	ldr	r0, [pc, #44]	; (8004160 <_ZN7MAX721911max7219SendEhh+0x54>)
 8004134:	f000 fc10 	bl	8004958 <HAL_GPIO_WritePin>
	HAL_SPI_Transmit(&MAX7219_SPI,(uint8_t*)&Transmit_buf,1,TRANSMIT_OVERTIME);
 8004138:	f107 010e 	add.w	r1, r7, #14
 800413c:	f44f 737a 	mov.w	r3, #1000	; 0x3e8
 8004140:	2201      	movs	r2, #1
 8004142:	4808      	ldr	r0, [pc, #32]	; (8004164 <_ZN7MAX721911max7219SendEhh+0x58>)
 8004144:	f001 fe32 	bl	8005dac <HAL_SPI_Transmit>
	HAL_GPIO_WritePin(SPI1_CS_GPIO_Port, SPI1_CS_Pin, GPIO_PIN_SET);
 8004148:	2201      	movs	r2, #1
 800414a:	2140      	movs	r1, #64	; 0x40
 800414c:	4804      	ldr	r0, [pc, #16]	; (8004160 <_ZN7MAX721911max7219SendEhh+0x54>)
 800414e:	f000 fc03 	bl	8004958 <HAL_GPIO_WritePin>
	delayUSecs(100);
 8004152:	2064      	movs	r0, #100	; 0x64
 8004154:	f7ff fc72 	bl	8003a3c <delayUSecs>
}
 8004158:	bf00      	nop
 800415a:	3710      	adds	r7, #16
 800415c:	46bd      	mov	sp, r7
 800415e:	bd80      	pop	{r7, pc}
 8004160:	40010800 	.word	0x40010800
 8004164:	2000036c 	.word	0x2000036c

08004168 <_ZN7MAX721911max7219InitEv>:

void MAX7219::max7219Init(){
 8004168:	b580      	push	{r7, lr}
 800416a:	b082      	sub	sp, #8
 800416c:	af00      	add	r7, sp, #0
 800416e:	6078      	str	r0, [r7, #4]
	//
	setWorkMode(true);
 8004170:	2101      	movs	r1, #1
 8004172:	6878      	ldr	r0, [r7, #4]
 8004174:	f000 f80c 	bl	8004190 <_ZN7MAX721911setWorkModeEb>
	//
	setScanMode(0x07);
 8004178:	2107      	movs	r1, #7
 800417a:	6878      	ldr	r0, [r7, #4]
 800417c:	f000 f830 	bl	80041e0 <_ZN7MAX721911setScanModeEh>
	//
	setDecodeMode(DECODE_D0_D7);
 8004180:	21ff      	movs	r1, #255	; 0xff
 8004182:	6878      	ldr	r0, [r7, #4]
 8004184:	f000 f81c 	bl	80041c0 <_ZN7MAX721913setDecodeModeEh>
}
 8004188:	bf00      	nop
 800418a:	3708      	adds	r7, #8
 800418c:	46bd      	mov	sp, r7
 800418e:	bd80      	pop	{r7, pc}

08004190 <_ZN7MAX721911setWorkModeEb>:
		max7219Send(DISPLAY_TEST, 0x01);
	else
		max7219Send(DISPLAY_TEST, 0x00);
}

void MAX7219::setWorkMode(bool status){
 8004190:	b580      	push	{r7, lr}
 8004192:	b082      	sub	sp, #8
 8004194:	af00      	add	r7, sp, #0
 8004196:	6078      	str	r0, [r7, #4]
 8004198:	460b      	mov	r3, r1
 800419a:	70fb      	strb	r3, [r7, #3]
	if(status)
 800419c:	78fb      	ldrb	r3, [r7, #3]
 800419e:	2b00      	cmp	r3, #0
 80041a0:	d005      	beq.n	80041ae <_ZN7MAX721911setWorkModeEb+0x1e>
		max7219Send(SHUT_DOWN, 1);
 80041a2:	2201      	movs	r2, #1
 80041a4:	210c      	movs	r1, #12
 80041a6:	6878      	ldr	r0, [r7, #4]
 80041a8:	f7ff ffb0 	bl	800410c <_ZN7MAX721911max7219SendEhh>
	else
		max7219Send(SHUT_DOWN, 0);
}
 80041ac:	e004      	b.n	80041b8 <_ZN7MAX721911setWorkModeEb+0x28>
		max7219Send(SHUT_DOWN, 0);
 80041ae:	2200      	movs	r2, #0
 80041b0:	210c      	movs	r1, #12
 80041b2:	6878      	ldr	r0, [r7, #4]
 80041b4:	f7ff ffaa 	bl	800410c <_ZN7MAX721911max7219SendEhh>
}
 80041b8:	bf00      	nop
 80041ba:	3708      	adds	r7, #8
 80041bc:	46bd      	mov	sp, r7
 80041be:	bd80      	pop	{r7, pc}

080041c0 <_ZN7MAX721913setDecodeModeEh>:

void MAX7219::setDecodeMode(uint8_t mode){
 80041c0:	b580      	push	{r7, lr}
 80041c2:	b082      	sub	sp, #8
 80041c4:	af00      	add	r7, sp, #0
 80041c6:	6078      	str	r0, [r7, #4]
 80041c8:	460b      	mov	r3, r1
 80041ca:	70fb      	strb	r3, [r7, #3]
	max7219Send(DECODE_MODE, mode);
 80041cc:	78fb      	ldrb	r3, [r7, #3]
 80041ce:	461a      	mov	r2, r3
 80041d0:	2109      	movs	r1, #9
 80041d2:	6878      	ldr	r0, [r7, #4]
 80041d4:	f7ff ff9a 	bl	800410c <_ZN7MAX721911max7219SendEhh>
}
 80041d8:	bf00      	nop
 80041da:	3708      	adds	r7, #8
 80041dc:	46bd      	mov	sp, r7
 80041de:	bd80      	pop	{r7, pc}

080041e0 <_ZN7MAX721911setScanModeEh>:

void MAX7219::setScanMode(uint8_t mode){
 80041e0:	b580      	push	{r7, lr}
 80041e2:	b082      	sub	sp, #8
 80041e4:	af00      	add	r7, sp, #0
 80041e6:	6078      	str	r0, [r7, #4]
 80041e8:	460b      	mov	r3, r1
 80041ea:	70fb      	strb	r3, [r7, #3]
	max7219Send(SCAN_LIMIT, mode);
 80041ec:	78fb      	ldrb	r3, [r7, #3]
 80041ee:	461a      	mov	r2, r3
 80041f0:	210b      	movs	r1, #11
 80041f2:	6878      	ldr	r0, [r7, #4]
 80041f4:	f7ff ff8a 	bl	800410c <_ZN7MAX721911max7219SendEhh>
}
 80041f8:	bf00      	nop
 80041fa:	3708      	adds	r7, #8
 80041fc:	46bd      	mov	sp, r7
 80041fe:	bd80      	pop	{r7, pc}

08004200 <_ZN7MAX72199clrScreenEv>:

void MAX7219::clrScreen(){
 8004200:	b580      	push	{r7, lr}
 8004202:	b084      	sub	sp, #16
 8004204:	af00      	add	r7, sp, #0
 8004206:	6078      	str	r0, [r7, #4]
	for(uint8_t reg = 0x01; reg <= 8; reg++){
 8004208:	2301      	movs	r3, #1
 800420a:	73fb      	strb	r3, [r7, #15]
 800420c:	7bfb      	ldrb	r3, [r7, #15]
 800420e:	2b08      	cmp	r3, #8
 8004210:	d809      	bhi.n	8004226 <_ZN7MAX72199clrScreenEv+0x26>
		max7219Send(reg, 0x0f);
 8004212:	7bfb      	ldrb	r3, [r7, #15]
 8004214:	220f      	movs	r2, #15
 8004216:	4619      	mov	r1, r3
 8004218:	6878      	ldr	r0, [r7, #4]
 800421a:	f7ff ff77 	bl	800410c <_ZN7MAX721911max7219SendEhh>
	for(uint8_t reg = 0x01; reg <= 8; reg++){
 800421e:	7bfb      	ldrb	r3, [r7, #15]
 8004220:	3301      	adds	r3, #1
 8004222:	73fb      	strb	r3, [r7, #15]
 8004224:	e7f2      	b.n	800420c <_ZN7MAX72199clrScreenEv+0xc>
	}
}
 8004226:	bf00      	nop
 8004228:	3710      	adds	r7, #16
 800422a:	46bd      	mov	sp, r7
 800422c:	bd80      	pop	{r7, pc}

0800422e <_ZN7MAX721913refreshScreenENSt7__cxx1112basic_stringIcSt11char_traitsIcESaIcEEE>:

void MAX7219::refreshScreen(std::string s){
 800422e:	b580      	push	{r7, lr}
 8004230:	b086      	sub	sp, #24
 8004232:	af00      	add	r7, sp, #0
 8004234:	6078      	str	r0, [r7, #4]
 8004236:	6039      	str	r1, [r7, #0]
	bool dpFlag = false;
 8004238:	2300      	movs	r3, #0
 800423a:	75fb      	strb	r3, [r7, #23]
	uint8_t reg = 0x01;
 800423c:	2301      	movs	r3, #1
 800423e:	75bb      	strb	r3, [r7, #22]
	uint8_t digitCount = 0;
 8004240:	2300      	movs	r3, #0
 8004242:	757b      	strb	r3, [r7, #21]

	clrScreen();
 8004244:	6878      	ldr	r0, [r7, #4]
 8004246:	f7ff ffdb 	bl	8004200 <_ZN7MAX72199clrScreenEv>
	for (auto it = s.rbegin(); it != s.rend(); ++it) {
 800424a:	f107 030c 	add.w	r3, r7, #12
 800424e:	6839      	ldr	r1, [r7, #0]
 8004250:	4618      	mov	r0, r3
 8004252:	f003 fc75 	bl	8007b40 <_ZNSt7__cxx1112basic_stringIcSt11char_traitsIcESaIcEE6rbeginEv>
 8004256:	f107 0310 	add.w	r3, r7, #16
 800425a:	6839      	ldr	r1, [r7, #0]
 800425c:	4618      	mov	r0, r3
 800425e:	f003 fc74 	bl	8007b4a <_ZNSt7__cxx1112basic_stringIcSt11char_traitsIcESaIcEE4rendEv>
 8004262:	f107 0210 	add.w	r2, r7, #16
 8004266:	f107 030c 	add.w	r3, r7, #12
 800426a:	4611      	mov	r1, r2
 800426c:	4618      	mov	r0, r3
 800426e:	f000 f85c 	bl	800432a <_ZStneIN9__gnu_cxx17__normal_iteratorIPcNSt7__cxx1112basic_stringIcSt11char_traitsIcESaIcEEEEEEbRKSt16reverse_iteratorIT_ESE_>
 8004272:	4603      	mov	r3, r0
 8004274:	2b00      	cmp	r3, #0
 8004276:	d054      	beq.n	8004322 <_ZN7MAX721913refreshScreenENSt7__cxx1112basic_stringIcSt11char_traitsIcESaIcEEE+0xf4>
		if (std::isdigit(*it)) {
 8004278:	f107 030c 	add.w	r3, r7, #12
 800427c:	4618      	mov	r0, r3
 800427e:	f000 f872 	bl	8004366 <_ZNKSt16reverse_iteratorIN9__gnu_cxx17__normal_iteratorIPcNSt7__cxx1112basic_stringIcSt11char_traitsIcESaIcEEEEEEdeEv>
 8004282:	4603      	mov	r3, r0
 8004284:	781b      	ldrb	r3, [r3, #0]
 8004286:	3b30      	subs	r3, #48	; 0x30
 8004288:	2b09      	cmp	r3, #9
 800428a:	bf94      	ite	ls
 800428c:	2301      	movls	r3, #1
 800428e:	2300      	movhi	r3, #0
 8004290:	b2db      	uxtb	r3, r3
 8004292:	2b00      	cmp	r3, #0
 8004294:	bf14      	ite	ne
 8004296:	2301      	movne	r3, #1
 8004298:	2300      	moveq	r3, #0
 800429a:	b2db      	uxtb	r3, r3
 800429c:	2b00      	cmp	r3, #0
 800429e:	d02a      	beq.n	80042f6 <_ZN7MAX721913refreshScreenENSt7__cxx1112basic_stringIcSt11char_traitsIcESaIcEEE+0xc8>
	        if (digitCount < 8) {
 80042a0:	7d7b      	ldrb	r3, [r7, #21]
 80042a2:	2b07      	cmp	r3, #7
 80042a4:	d837      	bhi.n	8004316 <_ZN7MAX721913refreshScreenENSt7__cxx1112basic_stringIcSt11char_traitsIcESaIcEEE+0xe8>
	            if (dpFlag) {
 80042a6:	7dfb      	ldrb	r3, [r7, #23]
 80042a8:	2b00      	cmp	r3, #0
 80042aa:	d011      	beq.n	80042d0 <_ZN7MAX721913refreshScreenENSt7__cxx1112basic_stringIcSt11char_traitsIcESaIcEEE+0xa2>
	                max7219Send(reg, *it | 0b10000000);
 80042ac:	f107 030c 	add.w	r3, r7, #12
 80042b0:	4618      	mov	r0, r3
 80042b2:	f000 f858 	bl	8004366 <_ZNKSt16reverse_iteratorIN9__gnu_cxx17__normal_iteratorIPcNSt7__cxx1112basic_stringIcSt11char_traitsIcESaIcEEEEEEdeEv>
 80042b6:	4603      	mov	r3, r0
 80042b8:	781b      	ldrb	r3, [r3, #0]
 80042ba:	f063 037f 	orn	r3, r3, #127	; 0x7f
 80042be:	b2da      	uxtb	r2, r3
 80042c0:	7dbb      	ldrb	r3, [r7, #22]
 80042c2:	4619      	mov	r1, r3
 80042c4:	6878      	ldr	r0, [r7, #4]
 80042c6:	f7ff ff21 	bl	800410c <_ZN7MAX721911max7219SendEhh>
	                dpFlag = false;
 80042ca:	2300      	movs	r3, #0
 80042cc:	75fb      	strb	r3, [r7, #23]
 80042ce:	e00b      	b.n	80042e8 <_ZN7MAX721913refreshScreenENSt7__cxx1112basic_stringIcSt11char_traitsIcESaIcEEE+0xba>
	            } else {
	                max7219Send(reg, *it);
 80042d0:	f107 030c 	add.w	r3, r7, #12
 80042d4:	4618      	mov	r0, r3
 80042d6:	f000 f846 	bl	8004366 <_ZNKSt16reverse_iteratorIN9__gnu_cxx17__normal_iteratorIPcNSt7__cxx1112basic_stringIcSt11char_traitsIcESaIcEEEEEEdeEv>
 80042da:	4603      	mov	r3, r0
 80042dc:	781a      	ldrb	r2, [r3, #0]
 80042de:	7dbb      	ldrb	r3, [r7, #22]
 80042e0:	4619      	mov	r1, r3
 80042e2:	6878      	ldr	r0, [r7, #4]
 80042e4:	f7ff ff12 	bl	800410c <_ZN7MAX721911max7219SendEhh>
	            }
	            reg++;
 80042e8:	7dbb      	ldrb	r3, [r7, #22]
 80042ea:	3301      	adds	r3, #1
 80042ec:	75bb      	strb	r3, [r7, #22]
	            digitCount++;
 80042ee:	7d7b      	ldrb	r3, [r7, #21]
 80042f0:	3301      	adds	r3, #1
 80042f2:	757b      	strb	r3, [r7, #21]
 80042f4:	e00f      	b.n	8004316 <_ZN7MAX721913refreshScreenENSt7__cxx1112basic_stringIcSt11char_traitsIcESaIcEEE+0xe8>
	        }
	    } else if (*it == '.') {
 80042f6:	f107 030c 	add.w	r3, r7, #12
 80042fa:	4618      	mov	r0, r3
 80042fc:	f000 f833 	bl	8004366 <_ZNKSt16reverse_iteratorIN9__gnu_cxx17__normal_iteratorIPcNSt7__cxx1112basic_stringIcSt11char_traitsIcESaIcEEEEEEdeEv>
 8004300:	4603      	mov	r3, r0
 8004302:	781b      	ldrb	r3, [r3, #0]
 8004304:	2b2e      	cmp	r3, #46	; 0x2e
 8004306:	bf0c      	ite	eq
 8004308:	2301      	moveq	r3, #1
 800430a:	2300      	movne	r3, #0
 800430c:	b2db      	uxtb	r3, r3
 800430e:	2b00      	cmp	r3, #0
 8004310:	d001      	beq.n	8004316 <_ZN7MAX721913refreshScreenENSt7__cxx1112basic_stringIcSt11char_traitsIcESaIcEEE+0xe8>
	    	dpFlag = true;
 8004312:	2301      	movs	r3, #1
 8004314:	75fb      	strb	r3, [r7, #23]
	for (auto it = s.rbegin(); it != s.rend(); ++it) {
 8004316:	f107 030c 	add.w	r3, r7, #12
 800431a:	4618      	mov	r0, r3
 800431c:	f000 f816 	bl	800434c <_ZNSt16reverse_iteratorIN9__gnu_cxx17__normal_iteratorIPcNSt7__cxx1112basic_stringIcSt11char_traitsIcESaIcEEEEEEppEv>
 8004320:	e799      	b.n	8004256 <_ZN7MAX721913refreshScreenENSt7__cxx1112basic_stringIcSt11char_traitsIcESaIcEEE+0x28>
	    }
	}
}
 8004322:	bf00      	nop
 8004324:	3718      	adds	r7, #24
 8004326:	46bd      	mov	sp, r7
 8004328:	bd80      	pop	{r7, pc}

0800432a <_ZStneIN9__gnu_cxx17__normal_iteratorIPcNSt7__cxx1112basic_stringIcSt11char_traitsIcESaIcEEEEEEbRKSt16reverse_iteratorIT_ESE_>:
    operator!=(const reverse_iterator<_Iterator>& __x,
 800432a:	b580      	push	{r7, lr}
 800432c:	b082      	sub	sp, #8
 800432e:	af00      	add	r7, sp, #0
 8004330:	6078      	str	r0, [r7, #4]
 8004332:	6039      	str	r1, [r7, #0]
    { return !(__x == __y); }
 8004334:	6839      	ldr	r1, [r7, #0]
 8004336:	6878      	ldr	r0, [r7, #4]
 8004338:	f000 f82a 	bl	8004390 <_ZSteqIN9__gnu_cxx17__normal_iteratorIPcNSt7__cxx1112basic_stringIcSt11char_traitsIcESaIcEEEEEEbRKSt16reverse_iteratorIT_ESE_>
 800433c:	4603      	mov	r3, r0
 800433e:	f083 0301 	eor.w	r3, r3, #1
 8004342:	b2db      	uxtb	r3, r3
 8004344:	4618      	mov	r0, r3
 8004346:	3708      	adds	r7, #8
 8004348:	46bd      	mov	sp, r7
 800434a:	bd80      	pop	{r7, pc}

0800434c <_ZNSt16reverse_iteratorIN9__gnu_cxx17__normal_iteratorIPcNSt7__cxx1112basic_stringIcSt11char_traitsIcESaIcEEEEEEppEv>:
      operator++()
 800434c:	b580      	push	{r7, lr}
 800434e:	b082      	sub	sp, #8
 8004350:	af00      	add	r7, sp, #0
 8004352:	6078      	str	r0, [r7, #4]
	--current;
 8004354:	687b      	ldr	r3, [r7, #4]
 8004356:	4618      	mov	r0, r3
 8004358:	f000 f836 	bl	80043c8 <_ZN9__gnu_cxx17__normal_iteratorIPcNSt7__cxx1112basic_stringIcSt11char_traitsIcESaIcEEEEmmEv>
	return *this;
 800435c:	687b      	ldr	r3, [r7, #4]
      }
 800435e:	4618      	mov	r0, r3
 8004360:	3708      	adds	r7, #8
 8004362:	46bd      	mov	sp, r7
 8004364:	bd80      	pop	{r7, pc}

08004366 <_ZNKSt16reverse_iteratorIN9__gnu_cxx17__normal_iteratorIPcNSt7__cxx1112basic_stringIcSt11char_traitsIcESaIcEEEEEEdeEv>:
      operator*() const
 8004366:	b580      	push	{r7, lr}
 8004368:	b084      	sub	sp, #16
 800436a:	af00      	add	r7, sp, #0
 800436c:	6078      	str	r0, [r7, #4]
	_Iterator __tmp = current;
 800436e:	687b      	ldr	r3, [r7, #4]
 8004370:	681b      	ldr	r3, [r3, #0]
 8004372:	60fb      	str	r3, [r7, #12]
	return *--__tmp;
 8004374:	f107 030c 	add.w	r3, r7, #12
 8004378:	4618      	mov	r0, r3
 800437a:	f000 f825 	bl	80043c8 <_ZN9__gnu_cxx17__normal_iteratorIPcNSt7__cxx1112basic_stringIcSt11char_traitsIcESaIcEEEEmmEv>
 800437e:	4603      	mov	r3, r0
 8004380:	4618      	mov	r0, r3
 8004382:	f7fd ff6a 	bl	800225a <_ZNK9__gnu_cxx17__normal_iteratorIPcNSt7__cxx1112basic_stringIcSt11char_traitsIcESaIcEEEEdeEv>
 8004386:	4603      	mov	r3, r0
      }
 8004388:	4618      	mov	r0, r3
 800438a:	3710      	adds	r7, #16
 800438c:	46bd      	mov	sp, r7
 800438e:	bd80      	pop	{r7, pc}

08004390 <_ZSteqIN9__gnu_cxx17__normal_iteratorIPcNSt7__cxx1112basic_stringIcSt11char_traitsIcESaIcEEEEEEbRKSt16reverse_iteratorIT_ESE_>:
    operator==(const reverse_iterator<_Iterator>& __x,
 8004390:	b580      	push	{r7, lr}
 8004392:	b084      	sub	sp, #16
 8004394:	af00      	add	r7, sp, #0
 8004396:	6078      	str	r0, [r7, #4]
 8004398:	6039      	str	r1, [r7, #0]
    { return __x.base() == __y.base(); }
 800439a:	6878      	ldr	r0, [r7, #4]
 800439c:	f000 f823 	bl	80043e6 <_ZNKSt16reverse_iteratorIN9__gnu_cxx17__normal_iteratorIPcNSt7__cxx1112basic_stringIcSt11char_traitsIcESaIcEEEEEE4baseEv>
 80043a0:	4603      	mov	r3, r0
 80043a2:	60bb      	str	r3, [r7, #8]
 80043a4:	6838      	ldr	r0, [r7, #0]
 80043a6:	f000 f81e 	bl	80043e6 <_ZNKSt16reverse_iteratorIN9__gnu_cxx17__normal_iteratorIPcNSt7__cxx1112basic_stringIcSt11char_traitsIcESaIcEEEEEE4baseEv>
 80043aa:	4603      	mov	r3, r0
 80043ac:	60fb      	str	r3, [r7, #12]
 80043ae:	f107 020c 	add.w	r2, r7, #12
 80043b2:	f107 0308 	add.w	r3, r7, #8
 80043b6:	4611      	mov	r1, r2
 80043b8:	4618      	mov	r0, r3
 80043ba:	f000 f81f 	bl	80043fc <_ZN9__gnu_cxxeqIPcNSt7__cxx1112basic_stringIcSt11char_traitsIcESaIcEEEEEbRKNS_17__normal_iteratorIT_T0_EESD_>
 80043be:	4603      	mov	r3, r0
 80043c0:	4618      	mov	r0, r3
 80043c2:	3710      	adds	r7, #16
 80043c4:	46bd      	mov	sp, r7
 80043c6:	bd80      	pop	{r7, pc}

080043c8 <_ZN9__gnu_cxx17__normal_iteratorIPcNSt7__cxx1112basic_stringIcSt11char_traitsIcESaIcEEEEmmEv>:
      operator--() _GLIBCXX_NOEXCEPT
 80043c8:	b480      	push	{r7}
 80043ca:	b083      	sub	sp, #12
 80043cc:	af00      	add	r7, sp, #0
 80043ce:	6078      	str	r0, [r7, #4]
	--_M_current;
 80043d0:	687b      	ldr	r3, [r7, #4]
 80043d2:	681b      	ldr	r3, [r3, #0]
 80043d4:	1e5a      	subs	r2, r3, #1
 80043d6:	687b      	ldr	r3, [r7, #4]
 80043d8:	601a      	str	r2, [r3, #0]
	return *this;
 80043da:	687b      	ldr	r3, [r7, #4]
      }
 80043dc:	4618      	mov	r0, r3
 80043de:	370c      	adds	r7, #12
 80043e0:	46bd      	mov	sp, r7
 80043e2:	bc80      	pop	{r7}
 80043e4:	4770      	bx	lr

080043e6 <_ZNKSt16reverse_iteratorIN9__gnu_cxx17__normal_iteratorIPcNSt7__cxx1112basic_stringIcSt11char_traitsIcESaIcEEEEEE4baseEv>:
      base() const
 80043e6:	b480      	push	{r7}
 80043e8:	b083      	sub	sp, #12
 80043ea:	af00      	add	r7, sp, #0
 80043ec:	6078      	str	r0, [r7, #4]
      { return current; }
 80043ee:	687b      	ldr	r3, [r7, #4]
 80043f0:	681b      	ldr	r3, [r3, #0]
 80043f2:	4618      	mov	r0, r3
 80043f4:	370c      	adds	r7, #12
 80043f6:	46bd      	mov	sp, r7
 80043f8:	bc80      	pop	{r7}
 80043fa:	4770      	bx	lr

080043fc <_ZN9__gnu_cxxeqIPcNSt7__cxx1112basic_stringIcSt11char_traitsIcESaIcEEEEEbRKNS_17__normal_iteratorIT_T0_EESD_>:
    operator==(const __normal_iterator<_Iterator, _Container>& __lhs,
 80043fc:	b590      	push	{r4, r7, lr}
 80043fe:	b083      	sub	sp, #12
 8004400:	af00      	add	r7, sp, #0
 8004402:	6078      	str	r0, [r7, #4]
 8004404:	6039      	str	r1, [r7, #0]
    { return __lhs.base() == __rhs.base(); }
 8004406:	6878      	ldr	r0, [r7, #4]
 8004408:	f7fe f818 	bl	800243c <_ZNK9__gnu_cxx17__normal_iteratorIPcNSt7__cxx1112basic_stringIcSt11char_traitsIcESaIcEEEE4baseEv>
 800440c:	4603      	mov	r3, r0
 800440e:	681c      	ldr	r4, [r3, #0]
 8004410:	6838      	ldr	r0, [r7, #0]
 8004412:	f7fe f813 	bl	800243c <_ZNK9__gnu_cxx17__normal_iteratorIPcNSt7__cxx1112basic_stringIcSt11char_traitsIcESaIcEEEE4baseEv>
 8004416:	4603      	mov	r3, r0
 8004418:	681b      	ldr	r3, [r3, #0]
 800441a:	429c      	cmp	r4, r3
 800441c:	bf0c      	ite	eq
 800441e:	2301      	moveq	r3, #1
 8004420:	2300      	movne	r3, #0
 8004422:	b2db      	uxtb	r3, r3
 8004424:	4618      	mov	r0, r3
 8004426:	370c      	adds	r7, #12
 8004428:	46bd      	mov	sp, r7
 800442a:	bd90      	pop	{r4, r7, pc}

0800442c <MX_SPI1_Init>:

SPI_HandleTypeDef hspi1;

/* SPI1 init function */
void MX_SPI1_Init(void)
{
 800442c:	b508      	push	{r3, lr}

  /* USER CODE BEGIN SPI1_Init 1 */

  /* USER CODE END SPI1_Init 1 */
  hspi1.Instance = SPI1;
  hspi1.Init.Mode = SPI_MODE_MASTER;
 800442e:	f44f 7382 	mov.w	r3, #260	; 0x104
  hspi1.Instance = SPI1;
 8004432:	480e      	ldr	r0, [pc, #56]	; (800446c <MX_SPI1_Init+0x40>)
  hspi1.Init.Mode = SPI_MODE_MASTER;
 8004434:	4a0e      	ldr	r2, [pc, #56]	; (8004470 <MX_SPI1_Init+0x44>)
  hspi1.Init.Direction = SPI_DIRECTION_2LINES;
  hspi1.Init.DataSize = SPI_DATASIZE_16BIT;
  hspi1.Init.CLKPolarity = SPI_POLARITY_LOW;
  hspi1.Init.CLKPhase = SPI_PHASE_1EDGE;
  hspi1.Init.NSS = SPI_NSS_SOFT;
  hspi1.Init.BaudRatePrescaler = SPI_BAUDRATEPRESCALER_8;
 8004436:	f44f 7100 	mov.w	r1, #512	; 0x200
  hspi1.Init.Mode = SPI_MODE_MASTER;
 800443a:	e9c0 2300 	strd	r2, r3, [r0]
  hspi1.Init.DataSize = SPI_DATASIZE_16BIT;
 800443e:	2300      	movs	r3, #0
 8004440:	f44f 6200 	mov.w	r2, #2048	; 0x800
  hspi1.Init.CLKPhase = SPI_PHASE_1EDGE;
 8004444:	e9c0 3304 	strd	r3, r3, [r0, #16]
  hspi1.Init.DataSize = SPI_DATASIZE_16BIT;
 8004448:	e9c0 3202 	strd	r3, r2, [r0, #8]
  hspi1.Init.FirstBit = SPI_FIRSTBIT_MSB;
  hspi1.Init.TIMode = SPI_TIMODE_DISABLE;
 800444c:	e9c0 3308 	strd	r3, r3, [r0, #32]
  hspi1.Init.BaudRatePrescaler = SPI_BAUDRATEPRESCALER_8;
 8004450:	2210      	movs	r2, #16
  hspi1.Init.CRCCalculation = SPI_CRCCALCULATION_DISABLE;
 8004452:	6283      	str	r3, [r0, #40]	; 0x28
  hspi1.Init.CRCPolynomial = 10;
 8004454:	230a      	movs	r3, #10
  hspi1.Init.BaudRatePrescaler = SPI_BAUDRATEPRESCALER_8;
 8004456:	e9c0 1206 	strd	r1, r2, [r0, #24]
  hspi1.Init.CRCPolynomial = 10;
 800445a:	62c3      	str	r3, [r0, #44]	; 0x2c
  if (HAL_SPI_Init(&hspi1) != HAL_OK)
 800445c:	f001 fc4e 	bl	8005cfc <HAL_SPI_Init>
 8004460:	b118      	cbz	r0, 800446a <MX_SPI1_Init+0x3e>
  }
  /* USER CODE BEGIN SPI1_Init 2 */

  /* USER CODE END SPI1_Init 2 */

}
 8004462:	e8bd 4008 	ldmia.w	sp!, {r3, lr}
    Error_Handler();
 8004466:	f7ff bc5a 	b.w	8003d1e <Error_Handler>
}
 800446a:	bd08      	pop	{r3, pc}
 800446c:	2000036c 	.word	0x2000036c
 8004470:	40013000 	.word	0x40013000

08004474 <HAL_SPI_MspInit>:

void HAL_SPI_MspInit(SPI_HandleTypeDef* spiHandle)
{
 8004474:	b510      	push	{r4, lr}
 8004476:	4604      	mov	r4, r0
 8004478:	b086      	sub	sp, #24

  GPIO_InitTypeDef GPIO_InitStruct = {0};
 800447a:	2210      	movs	r2, #16
 800447c:	2100      	movs	r1, #0
 800447e:	a802      	add	r0, sp, #8
 8004480:	f003 fd48 	bl	8007f14 <memset>
  if(spiHandle->Instance==SPI1)
 8004484:	6822      	ldr	r2, [r4, #0]
 8004486:	4b11      	ldr	r3, [pc, #68]	; (80044cc <HAL_SPI_MspInit+0x58>)
 8004488:	429a      	cmp	r2, r3
 800448a:	d11d      	bne.n	80044c8 <HAL_SPI_MspInit+0x54>
  {
  /* USER CODE BEGIN SPI1_MspInit 0 */

  /* USER CODE END SPI1_MspInit 0 */
    /* SPI1 clock enable */
    __HAL_RCC_SPI1_CLK_ENABLE();
 800448c:	f503 4360 	add.w	r3, r3, #57344	; 0xe000
 8004490:	699a      	ldr	r2, [r3, #24]
    PA7     ------> SPI1_MOSI
    */
    GPIO_InitStruct.Pin = GPIO_PIN_5|GPIO_PIN_7;
    GPIO_InitStruct.Mode = GPIO_MODE_AF_PP;
    GPIO_InitStruct.Speed = GPIO_SPEED_FREQ_HIGH;
    HAL_GPIO_Init(GPIOA, &GPIO_InitStruct);
 8004492:	480f      	ldr	r0, [pc, #60]	; (80044d0 <HAL_SPI_MspInit+0x5c>)
    __HAL_RCC_SPI1_CLK_ENABLE();
 8004494:	f442 5280 	orr.w	r2, r2, #4096	; 0x1000
 8004498:	619a      	str	r2, [r3, #24]
 800449a:	699a      	ldr	r2, [r3, #24]
    HAL_GPIO_Init(GPIOA, &GPIO_InitStruct);
 800449c:	a902      	add	r1, sp, #8
    __HAL_RCC_SPI1_CLK_ENABLE();
 800449e:	f402 5280 	and.w	r2, r2, #4096	; 0x1000
 80044a2:	9200      	str	r2, [sp, #0]
 80044a4:	9a00      	ldr	r2, [sp, #0]
    __HAL_RCC_GPIOA_CLK_ENABLE();
 80044a6:	699a      	ldr	r2, [r3, #24]
 80044a8:	f042 0204 	orr.w	r2, r2, #4
 80044ac:	619a      	str	r2, [r3, #24]
 80044ae:	699b      	ldr	r3, [r3, #24]
    GPIO_InitStruct.Mode = GPIO_MODE_AF_PP;
 80044b0:	22a0      	movs	r2, #160	; 0xa0
    __HAL_RCC_GPIOA_CLK_ENABLE();
 80044b2:	f003 0304 	and.w	r3, r3, #4
 80044b6:	9301      	str	r3, [sp, #4]
 80044b8:	9b01      	ldr	r3, [sp, #4]
    GPIO_InitStruct.Mode = GPIO_MODE_AF_PP;
 80044ba:	2302      	movs	r3, #2
 80044bc:	e9cd 2302 	strd	r2, r3, [sp, #8]
    GPIO_InitStruct.Speed = GPIO_SPEED_FREQ_HIGH;
 80044c0:	2303      	movs	r3, #3
 80044c2:	9305      	str	r3, [sp, #20]
    HAL_GPIO_Init(GPIOA, &GPIO_InitStruct);
 80044c4:	f000 f96e 	bl	80047a4 <HAL_GPIO_Init>

  /* USER CODE BEGIN SPI1_MspInit 1 */

  /* USER CODE END SPI1_MspInit 1 */
  }
}
 80044c8:	b006      	add	sp, #24
 80044ca:	bd10      	pop	{r4, pc}
 80044cc:	40013000 	.word	0x40013000
 80044d0:	40010800 	.word	0x40010800

080044d4 <HAL_MspInit>:
{
  /* USER CODE BEGIN MspInit 0 */

  /* USER CODE END MspInit 0 */

  __HAL_RCC_AFIO_CLK_ENABLE();
 80044d4:	4b0a      	ldr	r3, [pc, #40]	; (8004500 <HAL_MspInit+0x2c>)
{
 80044d6:	b082      	sub	sp, #8
  __HAL_RCC_AFIO_CLK_ENABLE();
 80044d8:	699a      	ldr	r2, [r3, #24]
 80044da:	f042 0201 	orr.w	r2, r2, #1
 80044de:	619a      	str	r2, [r3, #24]
 80044e0:	699a      	ldr	r2, [r3, #24]
 80044e2:	f002 0201 	and.w	r2, r2, #1
 80044e6:	9200      	str	r2, [sp, #0]
 80044e8:	9a00      	ldr	r2, [sp, #0]
  __HAL_RCC_PWR_CLK_ENABLE();
 80044ea:	69da      	ldr	r2, [r3, #28]
 80044ec:	f042 5280 	orr.w	r2, r2, #268435456	; 0x10000000
 80044f0:	61da      	str	r2, [r3, #28]
 80044f2:	69db      	ldr	r3, [r3, #28]
 80044f4:	f003 5380 	and.w	r3, r3, #268435456	; 0x10000000
 80044f8:	9301      	str	r3, [sp, #4]
 80044fa:	9b01      	ldr	r3, [sp, #4]
  /* System interrupt init*/

  /* USER CODE BEGIN MspInit 1 */

  /* USER CODE END MspInit 1 */
}
 80044fc:	b002      	add	sp, #8
 80044fe:	4770      	bx	lr
 8004500:	40021000 	.word	0x40021000

08004504 <NMI_Handler>:
{
  /* USER CODE BEGIN NonMaskableInt_IRQn 0 */

  /* USER CODE END NonMaskableInt_IRQn 0 */
  /* USER CODE BEGIN NonMaskableInt_IRQn 1 */
  while (1)
 8004504:	e7fe      	b.n	8004504 <NMI_Handler>

08004506 <HardFault_Handler>:
void HardFault_Handler(void)
{
  /* USER CODE BEGIN HardFault_IRQn 0 */

  /* USER CODE END HardFault_IRQn 0 */
  while (1)
 8004506:	e7fe      	b.n	8004506 <HardFault_Handler>

08004508 <MemManage_Handler>:
void MemManage_Handler(void)
{
  /* USER CODE BEGIN MemoryManagement_IRQn 0 */

  /* USER CODE END MemoryManagement_IRQn 0 */
  while (1)
 8004508:	e7fe      	b.n	8004508 <MemManage_Handler>

0800450a <BusFault_Handler>:
void BusFault_Handler(void)
{
  /* USER CODE BEGIN BusFault_IRQn 0 */

  /* USER CODE END BusFault_IRQn 0 */
  while (1)
 800450a:	e7fe      	b.n	800450a <BusFault_Handler>

0800450c <UsageFault_Handler>:
void UsageFault_Handler(void)
{
  /* USER CODE BEGIN UsageFault_IRQn 0 */

  /* USER CODE END UsageFault_IRQn 0 */
  while (1)
 800450c:	e7fe      	b.n	800450c <UsageFault_Handler>

0800450e <SVC_Handler>:

  /* USER CODE END SVCall_IRQn 0 */
  /* USER CODE BEGIN SVCall_IRQn 1 */

  /* USER CODE END SVCall_IRQn 1 */
}
 800450e:	4770      	bx	lr

08004510 <DebugMon_Handler>:
 8004510:	4770      	bx	lr

08004512 <PendSV_Handler>:
 8004512:	4770      	bx	lr

08004514 <SysTick_Handler>:
void SysTick_Handler(void)
{
  /* USER CODE BEGIN SysTick_IRQn 0 */

  /* USER CODE END SysTick_IRQn 0 */
  HAL_IncTick();
 8004514:	f000 b8bc 	b.w	8004690 <HAL_IncTick>

08004518 <USB_LP_CAN1_RX0_IRQHandler>:
void USB_LP_CAN1_RX0_IRQHandler(void)
{
  /* USER CODE BEGIN USB_LP_CAN1_RX0_IRQn 0 */

  /* USER CODE END USB_LP_CAN1_RX0_IRQn 0 */
  HAL_PCD_IRQHandler(&hpcd_USB_FS);
 8004518:	4801      	ldr	r0, [pc, #4]	; (8004520 <USB_LP_CAN1_RX0_IRQHandler+0x8>)
 800451a:	f000 bac7 	b.w	8004aac <HAL_PCD_IRQHandler>
 800451e:	bf00      	nop
 8004520:	20001094 	.word	0x20001094

08004524 <_getpid>:
}

int _getpid(void)
{
  return 1;
}
 8004524:	2001      	movs	r0, #1
 8004526:	4770      	bx	lr

08004528 <_kill>:

int _kill(int pid, int sig)
{
 8004528:	b508      	push	{r3, lr}
  (void)pid;
  (void)sig;
  errno = EINVAL;
 800452a:	f003 fc83 	bl	8007e34 <__errno>
 800452e:	2316      	movs	r3, #22
 8004530:	6003      	str	r3, [r0, #0]
  return -1;
}
 8004532:	f04f 30ff 	mov.w	r0, #4294967295
 8004536:	bd08      	pop	{r3, pc}

08004538 <_exit>:

void _exit (int status)
{
 8004538:	b508      	push	{r3, lr}
  errno = EINVAL;
 800453a:	f003 fc7b 	bl	8007e34 <__errno>
 800453e:	2316      	movs	r3, #22
 8004540:	6003      	str	r3, [r0, #0]
  _kill(status, -1);
  while (1) {}    /* Make sure we hang here */
 8004542:	e7fe      	b.n	8004542 <_exit+0xa>

08004544 <_read>:
}

__attribute__((weak)) int _read(int file, char *ptr, int len)
{
 8004544:	b570      	push	{r4, r5, r6, lr}
 8004546:	460d      	mov	r5, r1
 8004548:	4614      	mov	r4, r2
  (void)file;
  int DataIdx;

  for (DataIdx = 0; DataIdx < len; DataIdx++)
 800454a:	460e      	mov	r6, r1
 800454c:	1b73      	subs	r3, r6, r5
 800454e:	429c      	cmp	r4, r3
 8004550:	dc01      	bgt.n	8004556 <_read+0x12>
  {
    *ptr++ = __io_getchar();
  }

  return len;
}
 8004552:	4620      	mov	r0, r4
 8004554:	bd70      	pop	{r4, r5, r6, pc}
    *ptr++ = __io_getchar();
 8004556:	f3af 8000 	nop.w
 800455a:	f806 0b01 	strb.w	r0, [r6], #1
  for (DataIdx = 0; DataIdx < len; DataIdx++)
 800455e:	e7f5      	b.n	800454c <_read+0x8>

08004560 <_write>:

__attribute__((weak)) int _write(int file, char *ptr, int len)
{
 8004560:	b570      	push	{r4, r5, r6, lr}
 8004562:	460d      	mov	r5, r1
 8004564:	4614      	mov	r4, r2
  (void)file;
  int DataIdx;

  for (DataIdx = 0; DataIdx < len; DataIdx++)
 8004566:	460e      	mov	r6, r1
 8004568:	1b73      	subs	r3, r6, r5
 800456a:	429c      	cmp	r4, r3
 800456c:	dc01      	bgt.n	8004572 <_write+0x12>
  {
    __io_putchar(*ptr++);
  }
  return len;
}
 800456e:	4620      	mov	r0, r4
 8004570:	bd70      	pop	{r4, r5, r6, pc}
    __io_putchar(*ptr++);
 8004572:	f816 0b01 	ldrb.w	r0, [r6], #1
 8004576:	f3af 8000 	nop.w
  for (DataIdx = 0; DataIdx < len; DataIdx++)
 800457a:	e7f5      	b.n	8004568 <_write+0x8>

0800457c <_close>:

int _close(int file)
{
  (void)file;
  return -1;
}
 800457c:	f04f 30ff 	mov.w	r0, #4294967295
 8004580:	4770      	bx	lr

08004582 <_fstat>:


int _fstat(int file, struct stat *st)
{
  (void)file;
  st->st_mode = S_IFCHR;
 8004582:	f44f 5300 	mov.w	r3, #8192	; 0x2000
  return 0;
}
 8004586:	2000      	movs	r0, #0
  st->st_mode = S_IFCHR;
 8004588:	604b      	str	r3, [r1, #4]
}
 800458a:	4770      	bx	lr

0800458c <_isatty>:

int _isatty(int file)
{
  (void)file;
  return 1;
}
 800458c:	2001      	movs	r0, #1
 800458e:	4770      	bx	lr

08004590 <_lseek>:
{
  (void)file;
  (void)ptr;
  (void)dir;
  return 0;
}
 8004590:	2000      	movs	r0, #0
 8004592:	4770      	bx	lr

08004594 <_sbrk>:
  const uint32_t stack_limit = (uint32_t)&_estack - (uint32_t)&_Min_Stack_Size;
  const uint8_t *max_heap = (uint8_t *)stack_limit;
  uint8_t *prev_heap_end;

  /* Initialize heap end at first call */
  if (NULL == __sbrk_heap_end)
 8004594:	4a0b      	ldr	r2, [pc, #44]	; (80045c4 <_sbrk+0x30>)
{
 8004596:	4603      	mov	r3, r0
  if (NULL == __sbrk_heap_end)
 8004598:	6811      	ldr	r1, [r2, #0]
{
 800459a:	b510      	push	{r4, lr}
  if (NULL == __sbrk_heap_end)
 800459c:	b909      	cbnz	r1, 80045a2 <_sbrk+0xe>
  {
    __sbrk_heap_end = &_end;
 800459e:	490a      	ldr	r1, [pc, #40]	; (80045c8 <_sbrk+0x34>)
 80045a0:	6011      	str	r1, [r2, #0]
  }

  /* Protect heap from growing into the reserved MSP stack */
  if (__sbrk_heap_end + incr > max_heap)
 80045a2:	6810      	ldr	r0, [r2, #0]
 80045a4:	4909      	ldr	r1, [pc, #36]	; (80045cc <_sbrk+0x38>)
 80045a6:	4c0a      	ldr	r4, [pc, #40]	; (80045d0 <_sbrk+0x3c>)
 80045a8:	4403      	add	r3, r0
 80045aa:	1b09      	subs	r1, r1, r4
 80045ac:	428b      	cmp	r3, r1
 80045ae:	d906      	bls.n	80045be <_sbrk+0x2a>
  {
    errno = ENOMEM;
 80045b0:	f003 fc40 	bl	8007e34 <__errno>
 80045b4:	230c      	movs	r3, #12
 80045b6:	6003      	str	r3, [r0, #0]
    return (void *)-1;
 80045b8:	f04f 30ff 	mov.w	r0, #4294967295

  prev_heap_end = __sbrk_heap_end;
  __sbrk_heap_end += incr;

  return (void *)prev_heap_end;
}
 80045bc:	bd10      	pop	{r4, pc}
  __sbrk_heap_end += incr;
 80045be:	6013      	str	r3, [r2, #0]
  return (void *)prev_heap_end;
 80045c0:	e7fc      	b.n	80045bc <_sbrk+0x28>
 80045c2:	bf00      	nop
 80045c4:	200003c4 	.word	0x200003c4
 80045c8:	200015b8 	.word	0x200015b8
 80045cc:	20005000 	.word	0x20005000
 80045d0:	00000400 	.word	0x00000400

080045d4 <SystemInit>:

  /* Configure the Vector Table location -------------------------------------*/
#if defined(USER_VECT_TAB_ADDRESS)
  SCB->VTOR = VECT_TAB_BASE_ADDRESS | VECT_TAB_OFFSET; /* Vector Table Relocation in Internal SRAM. */
#endif /* USER_VECT_TAB_ADDRESS */
}
 80045d4:	4770      	bx	lr
	...

080045d8 <Reset_Handler>:
  .weak Reset_Handler
  .type Reset_Handler, %function
Reset_Handler:

/* Call the clock system initialization function.*/
    bl  SystemInit
 80045d8:	f7ff fffc 	bl	80045d4 <SystemInit>

/* Copy the data segment initializers from flash to SRAM */
  ldr r0, =_sdata
 80045dc:	480b      	ldr	r0, [pc, #44]	; (800460c <LoopFillZerobss+0xe>)
  ldr r1, =_edata
 80045de:	490c      	ldr	r1, [pc, #48]	; (8004610 <LoopFillZerobss+0x12>)
  ldr r2, =_sidata
 80045e0:	4a0c      	ldr	r2, [pc, #48]	; (8004614 <LoopFillZerobss+0x16>)
  movs r3, #0
 80045e2:	2300      	movs	r3, #0
  b LoopCopyDataInit
 80045e4:	e002      	b.n	80045ec <LoopCopyDataInit>

080045e6 <CopyDataInit>:

CopyDataInit:
  ldr r4, [r2, r3]
 80045e6:	58d4      	ldr	r4, [r2, r3]
  str r4, [r0, r3]
 80045e8:	50c4      	str	r4, [r0, r3]
  adds r3, r3, #4
 80045ea:	3304      	adds	r3, #4

080045ec <LoopCopyDataInit>:

LoopCopyDataInit:
  adds r4, r0, r3
 80045ec:	18c4      	adds	r4, r0, r3
  cmp r4, r1
 80045ee:	428c      	cmp	r4, r1
  bcc CopyDataInit
 80045f0:	d3f9      	bcc.n	80045e6 <CopyDataInit>
  
/* Zero fill the bss segment. */
  ldr r2, =_sbss
 80045f2:	4a09      	ldr	r2, [pc, #36]	; (8004618 <LoopFillZerobss+0x1a>)
  ldr r4, =_ebss
 80045f4:	4c09      	ldr	r4, [pc, #36]	; (800461c <LoopFillZerobss+0x1e>)
  movs r3, #0
 80045f6:	2300      	movs	r3, #0
  b LoopFillZerobss
 80045f8:	e001      	b.n	80045fe <LoopFillZerobss>

080045fa <FillZerobss>:

FillZerobss:
  str  r3, [r2]
 80045fa:	6013      	str	r3, [r2, #0]
  adds r2, r2, #4
 80045fc:	3204      	adds	r2, #4

080045fe <LoopFillZerobss>:

LoopFillZerobss:
  cmp r2, r4
 80045fe:	42a2      	cmp	r2, r4
  bcc FillZerobss
 8004600:	d3fb      	bcc.n	80045fa <FillZerobss>

/* Call static constructors */
    bl __libc_init_array
 8004602:	f003 fc1d 	bl	8007e40 <__libc_init_array>
/* Call the application's entry point.*/
  bl main
 8004606:	f7ff fadf 	bl	8003bc8 <main>
  bx lr
 800460a:	4770      	bx	lr
  ldr r0, =_sdata
 800460c:	20000000 	.word	0x20000000
  ldr r1, =_edata
 8004610:	20000350 	.word	0x20000350
  ldr r2, =_sidata
 8004614:	0800ba4c 	.word	0x0800ba4c
  ldr r2, =_sbss
 8004618:	20000350 	.word	0x20000350
  ldr r4, =_ebss
 800461c:	200015b8 	.word	0x200015b8

08004620 <ADC1_2_IRQHandler>:
 * @retval : None
*/
    .section .text.Default_Handler,"ax",%progbits
Default_Handler:
Infinite_Loop:
  b Infinite_Loop
 8004620:	e7fe      	b.n	8004620 <ADC1_2_IRQHandler>
	...

08004624 <HAL_InitTick>:
  *       implementation  in user file.
  * @param TickPriority Tick interrupt priority.
  * @retval HAL status
  */
__weak HAL_StatusTypeDef HAL_InitTick(uint32_t TickPriority)
{
 8004624:	b538      	push	{r3, r4, r5, lr}
  /* Configure the SysTick to have interrupt in 1ms time basis*/
  if (HAL_SYSTICK_Config(SystemCoreClock / (1000U / uwTickFreq)) > 0U)
 8004626:	4b0e      	ldr	r3, [pc, #56]	; (8004660 <HAL_InitTick+0x3c>)
{
 8004628:	4605      	mov	r5, r0
  if (HAL_SYSTICK_Config(SystemCoreClock / (1000U / uwTickFreq)) > 0U)
 800462a:	7818      	ldrb	r0, [r3, #0]
 800462c:	f44f 737a 	mov.w	r3, #1000	; 0x3e8
 8004630:	fbb3 f3f0 	udiv	r3, r3, r0
 8004634:	4a0b      	ldr	r2, [pc, #44]	; (8004664 <HAL_InitTick+0x40>)
 8004636:	6810      	ldr	r0, [r2, #0]
 8004638:	fbb0 f0f3 	udiv	r0, r0, r3
 800463c:	f000 f89e 	bl	800477c <HAL_SYSTICK_Config>
 8004640:	4604      	mov	r4, r0
 8004642:	b958      	cbnz	r0, 800465c <HAL_InitTick+0x38>
  {
    return HAL_ERROR;
  }

  /* Configure the SysTick IRQ priority */
  if (TickPriority < (1UL << __NVIC_PRIO_BITS))
 8004644:	2d0f      	cmp	r5, #15
 8004646:	d809      	bhi.n	800465c <HAL_InitTick+0x38>
  {
    HAL_NVIC_SetPriority(SysTick_IRQn, TickPriority, 0U);
 8004648:	4602      	mov	r2, r0
 800464a:	4629      	mov	r1, r5
 800464c:	f04f 30ff 	mov.w	r0, #4294967295
 8004650:	f000 f854 	bl	80046fc <HAL_NVIC_SetPriority>
    uwTickPrio = TickPriority;
 8004654:	4620      	mov	r0, r4
 8004656:	4b04      	ldr	r3, [pc, #16]	; (8004668 <HAL_InitTick+0x44>)
 8004658:	601d      	str	r5, [r3, #0]
    return HAL_ERROR;
  }

  /* Return function status */
  return HAL_OK;
}
 800465a:	bd38      	pop	{r3, r4, r5, pc}
    return HAL_ERROR;
 800465c:	2001      	movs	r0, #1
 800465e:	e7fc      	b.n	800465a <HAL_InitTick+0x36>
 8004660:	20000004 	.word	0x20000004
 8004664:	20000000 	.word	0x20000000
 8004668:	20000008 	.word	0x20000008

0800466c <HAL_Init>:
  __HAL_FLASH_PREFETCH_BUFFER_ENABLE();
 800466c:	4a07      	ldr	r2, [pc, #28]	; (800468c <HAL_Init+0x20>)
{
 800466e:	b508      	push	{r3, lr}
  __HAL_FLASH_PREFETCH_BUFFER_ENABLE();
 8004670:	6813      	ldr	r3, [r2, #0]
  HAL_NVIC_SetPriorityGrouping(NVIC_PRIORITYGROUP_4);
 8004672:	2003      	movs	r0, #3
  __HAL_FLASH_PREFETCH_BUFFER_ENABLE();
 8004674:	f043 0310 	orr.w	r3, r3, #16
 8004678:	6013      	str	r3, [r2, #0]
  HAL_NVIC_SetPriorityGrouping(NVIC_PRIORITYGROUP_4);
 800467a:	f000 f82d 	bl	80046d8 <HAL_NVIC_SetPriorityGrouping>
  HAL_InitTick(TICK_INT_PRIORITY);
 800467e:	200f      	movs	r0, #15
 8004680:	f7ff ffd0 	bl	8004624 <HAL_InitTick>
  HAL_MspInit();
 8004684:	f7ff ff26 	bl	80044d4 <HAL_MspInit>
}
 8004688:	2000      	movs	r0, #0
 800468a:	bd08      	pop	{r3, pc}
 800468c:	40022000 	.word	0x40022000

08004690 <HAL_IncTick>:
  *      implementations in user file.
  * @retval None
  */
__weak void HAL_IncTick(void)
{
  uwTick += uwTickFreq;
 8004690:	4a03      	ldr	r2, [pc, #12]	; (80046a0 <HAL_IncTick+0x10>)
 8004692:	4b04      	ldr	r3, [pc, #16]	; (80046a4 <HAL_IncTick+0x14>)
 8004694:	6811      	ldr	r1, [r2, #0]
 8004696:	781b      	ldrb	r3, [r3, #0]
 8004698:	440b      	add	r3, r1
 800469a:	6013      	str	r3, [r2, #0]
}
 800469c:	4770      	bx	lr
 800469e:	bf00      	nop
 80046a0:	200003c8 	.word	0x200003c8
 80046a4:	20000004 	.word	0x20000004

080046a8 <HAL_GetTick>:
  *       implementations in user file.
  * @retval tick value
  */
__weak uint32_t HAL_GetTick(void)
{
  return uwTick;
 80046a8:	4b01      	ldr	r3, [pc, #4]	; (80046b0 <HAL_GetTick+0x8>)
 80046aa:	6818      	ldr	r0, [r3, #0]
}
 80046ac:	4770      	bx	lr
 80046ae:	bf00      	nop
 80046b0:	200003c8 	.word	0x200003c8

080046b4 <HAL_Delay>:
  *       implementations in user file.
  * @param Delay specifies the delay time length, in milliseconds.
  * @retval None
  */
__weak void HAL_Delay(uint32_t Delay)
{
 80046b4:	b538      	push	{r3, r4, r5, lr}
 80046b6:	4604      	mov	r4, r0
  uint32_t tickstart = HAL_GetTick();
 80046b8:	f7ff fff6 	bl	80046a8 <HAL_GetTick>
 80046bc:	4605      	mov	r5, r0
  uint32_t wait = Delay;

  /* Add a freq to guarantee minimum wait */
  if (wait < HAL_MAX_DELAY)
 80046be:	1c63      	adds	r3, r4, #1
  {
    wait += (uint32_t)(uwTickFreq);
 80046c0:	bf1e      	ittt	ne
 80046c2:	4b04      	ldrne	r3, [pc, #16]	; (80046d4 <HAL_Delay+0x20>)
 80046c4:	781b      	ldrbne	r3, [r3, #0]
 80046c6:	18e4      	addne	r4, r4, r3
  }

  while ((HAL_GetTick() - tickstart) < wait)
 80046c8:	f7ff ffee 	bl	80046a8 <HAL_GetTick>
 80046cc:	1b43      	subs	r3, r0, r5
 80046ce:	42a3      	cmp	r3, r4
 80046d0:	d3fa      	bcc.n	80046c8 <HAL_Delay+0x14>
  {
  }
}
 80046d2:	bd38      	pop	{r3, r4, r5, pc}
 80046d4:	20000004 	.word	0x20000004

080046d8 <HAL_NVIC_SetPriorityGrouping>:
__STATIC_INLINE void __NVIC_SetPriorityGrouping(uint32_t PriorityGroup)
{
  uint32_t reg_value;
  uint32_t PriorityGroupTmp = (PriorityGroup & (uint32_t)0x07UL);             /* only values 0..7 are used          */

  reg_value  =  SCB->AIRCR;                                                   /* read old register configuration    */
 80046d8:	4907      	ldr	r1, [pc, #28]	; (80046f8 <HAL_NVIC_SetPriorityGrouping+0x20>)
  reg_value &= ~((uint32_t)(SCB_AIRCR_VECTKEY_Msk | SCB_AIRCR_PRIGROUP_Msk)); /* clear bits to change               */
  reg_value  =  (reg_value                                   |
                ((uint32_t)0x5FAUL << SCB_AIRCR_VECTKEY_Pos) |
                (PriorityGroupTmp << SCB_AIRCR_PRIGROUP_Pos) );               /* Insert write key and priority group */
 80046da:	0203      	lsls	r3, r0, #8
  reg_value  =  SCB->AIRCR;                                                   /* read old register configuration    */
 80046dc:	68ca      	ldr	r2, [r1, #12]
                (PriorityGroupTmp << SCB_AIRCR_PRIGROUP_Pos) );               /* Insert write key and priority group */
 80046de:	f403 63e0 	and.w	r3, r3, #1792	; 0x700
  reg_value &= ~((uint32_t)(SCB_AIRCR_VECTKEY_Msk | SCB_AIRCR_PRIGROUP_Msk)); /* clear bits to change               */
 80046e2:	f422 62e0 	bic.w	r2, r2, #1792	; 0x700
 80046e6:	0412      	lsls	r2, r2, #16
 80046e8:	0c12      	lsrs	r2, r2, #16
                ((uint32_t)0x5FAUL << SCB_AIRCR_VECTKEY_Pos) |
 80046ea:	4313      	orrs	r3, r2
  reg_value  =  (reg_value                                   |
 80046ec:	f043 63bf 	orr.w	r3, r3, #100139008	; 0x5f80000
 80046f0:	f443 3300 	orr.w	r3, r3, #131072	; 0x20000
  SCB->AIRCR =  reg_value;
 80046f4:	60cb      	str	r3, [r1, #12]
  /* Check the parameters */
  assert_param(IS_NVIC_PRIORITY_GROUP(PriorityGroup));
  
  /* Set the PRIGROUP[10:8] bits according to the PriorityGroup parameter value */
  NVIC_SetPriorityGrouping(PriorityGroup);
}
 80046f6:	4770      	bx	lr
 80046f8:	e000ed00 	.word	0xe000ed00

080046fc <HAL_NVIC_SetPriority>:
  \details Reads the priority grouping field from the NVIC Interrupt Controller.
  \return                Priority grouping field (SCB->AIRCR [10:8] PRIGROUP field).
 */
__STATIC_INLINE uint32_t __NVIC_GetPriorityGrouping(void)
{
  return ((uint32_t)((SCB->AIRCR & SCB_AIRCR_PRIGROUP_Msk) >> SCB_AIRCR_PRIGROUP_Pos));
 80046fc:	4b16      	ldr	r3, [pc, #88]	; (8004758 <HAL_NVIC_SetPriority+0x5c>)
  *         This parameter can be a value between 0 and 15
  *         A lower priority value indicates a higher priority.          
  * @retval None
  */
void HAL_NVIC_SetPriority(IRQn_Type IRQn, uint32_t PreemptPriority, uint32_t SubPriority)
{ 
 80046fe:	b530      	push	{r4, r5, lr}
 8004700:	68dc      	ldr	r4, [r3, #12]
 8004702:	f3c4 2402 	ubfx	r4, r4, #8, #3
{
  uint32_t PriorityGroupTmp = (PriorityGroup & (uint32_t)0x07UL);   /* only values 0..7 are used          */
  uint32_t PreemptPriorityBits;
  uint32_t SubPriorityBits;

  PreemptPriorityBits = ((7UL - PriorityGroupTmp) > (uint32_t)(__NVIC_PRIO_BITS)) ? (uint32_t)(__NVIC_PRIO_BITS) : (uint32_t)(7UL - PriorityGroupTmp);
 8004706:	f1c4 0307 	rsb	r3, r4, #7
  SubPriorityBits     = ((PriorityGroupTmp + (uint32_t)(__NVIC_PRIO_BITS)) < (uint32_t)7UL) ? (uint32_t)0UL : (uint32_t)((PriorityGroupTmp - 7UL) + (uint32_t)(__NVIC_PRIO_BITS));
 800470a:	1d25      	adds	r5, r4, #4
  PreemptPriorityBits = ((7UL - PriorityGroupTmp) > (uint32_t)(__NVIC_PRIO_BITS)) ? (uint32_t)(__NVIC_PRIO_BITS) : (uint32_t)(7UL - PriorityGroupTmp);
 800470c:	2b04      	cmp	r3, #4
 800470e:	bf28      	it	cs
 8004710:	2304      	movcs	r3, #4
  SubPriorityBits     = ((PriorityGroupTmp + (uint32_t)(__NVIC_PRIO_BITS)) < (uint32_t)7UL) ? (uint32_t)0UL : (uint32_t)((PriorityGroupTmp - 7UL) + (uint32_t)(__NVIC_PRIO_BITS));
 8004712:	2d06      	cmp	r5, #6

  return (
           ((PreemptPriority & (uint32_t)((1UL << (PreemptPriorityBits)) - 1UL)) << SubPriorityBits) |
 8004714:	f04f 35ff 	mov.w	r5, #4294967295
  SubPriorityBits     = ((PriorityGroupTmp + (uint32_t)(__NVIC_PRIO_BITS)) < (uint32_t)7UL) ? (uint32_t)0UL : (uint32_t)((PriorityGroupTmp - 7UL) + (uint32_t)(__NVIC_PRIO_BITS));
 8004718:	bf98      	it	ls
 800471a:	2400      	movls	r4, #0
           ((PreemptPriority & (uint32_t)((1UL << (PreemptPriorityBits)) - 1UL)) << SubPriorityBits) |
 800471c:	fa05 f303 	lsl.w	r3, r5, r3
  SubPriorityBits     = ((PriorityGroupTmp + (uint32_t)(__NVIC_PRIO_BITS)) < (uint32_t)7UL) ? (uint32_t)0UL : (uint32_t)((PriorityGroupTmp - 7UL) + (uint32_t)(__NVIC_PRIO_BITS));
 8004720:	bf88      	it	hi
 8004722:	3c03      	subhi	r4, #3
           ((PreemptPriority & (uint32_t)((1UL << (PreemptPriorityBits)) - 1UL)) << SubPriorityBits) |
 8004724:	ea21 0303 	bic.w	r3, r1, r3
 8004728:	40a3      	lsls	r3, r4
           ((SubPriority     & (uint32_t)((1UL << (SubPriorityBits    )) - 1UL)))
 800472a:	fa05 f404 	lsl.w	r4, r5, r4
 800472e:	ea22 0204 	bic.w	r2, r2, r4
  if ((int32_t)(IRQn) >= 0)
 8004732:	2800      	cmp	r0, #0
           ((PreemptPriority & (uint32_t)((1UL << (PreemptPriorityBits)) - 1UL)) << SubPriorityBits) |
 8004734:	ea43 0302 	orr.w	r3, r3, r2
    NVIC->IP[((uint32_t)IRQn)]               = (uint8_t)((priority << (8U - __NVIC_PRIO_BITS)) & (uint32_t)0xFFUL);
 8004738:	bfac      	ite	ge
 800473a:	f100 4060 	addge.w	r0, r0, #3758096384	; 0xe0000000
    SCB->SHP[(((uint32_t)IRQn) & 0xFUL)-4UL] = (uint8_t)((priority << (8U - __NVIC_PRIO_BITS)) & (uint32_t)0xFFUL);
 800473e:	4a07      	ldrlt	r2, [pc, #28]	; (800475c <HAL_NVIC_SetPriority+0x60>)
    NVIC->IP[((uint32_t)IRQn)]               = (uint8_t)((priority << (8U - __NVIC_PRIO_BITS)) & (uint32_t)0xFFUL);
 8004740:	ea4f 1303 	mov.w	r3, r3, lsl #4
 8004744:	b2db      	uxtb	r3, r3
 8004746:	bfab      	itete	ge
 8004748:	f500 4061 	addge.w	r0, r0, #57600	; 0xe100
    SCB->SHP[(((uint32_t)IRQn) & 0xFUL)-4UL] = (uint8_t)((priority << (8U - __NVIC_PRIO_BITS)) & (uint32_t)0xFFUL);
 800474c:	f000 000f 	andlt.w	r0, r0, #15
    NVIC->IP[((uint32_t)IRQn)]               = (uint8_t)((priority << (8U - __NVIC_PRIO_BITS)) & (uint32_t)0xFFUL);
 8004750:	f880 3300 	strbge.w	r3, [r0, #768]	; 0x300
    SCB->SHP[(((uint32_t)IRQn) & 0xFUL)-4UL] = (uint8_t)((priority << (8U - __NVIC_PRIO_BITS)) & (uint32_t)0xFFUL);
 8004754:	5413      	strblt	r3, [r2, r0]
  assert_param(IS_NVIC_PREEMPTION_PRIORITY(PreemptPriority));
  
  prioritygroup = NVIC_GetPriorityGrouping();
  
  NVIC_SetPriority(IRQn, NVIC_EncodePriority(prioritygroup, PreemptPriority, SubPriority));
}
 8004756:	bd30      	pop	{r4, r5, pc}
 8004758:	e000ed00 	.word	0xe000ed00
 800475c:	e000ed14 	.word	0xe000ed14

08004760 <HAL_NVIC_EnableIRQ>:
  if ((int32_t)(IRQn) >= 0)
 8004760:	2800      	cmp	r0, #0
 8004762:	db08      	blt.n	8004776 <HAL_NVIC_EnableIRQ+0x16>
    NVIC->ISER[(((uint32_t)IRQn) >> 5UL)] = (uint32_t)(1UL << (((uint32_t)IRQn) & 0x1FUL));
 8004764:	2301      	movs	r3, #1
 8004766:	0942      	lsrs	r2, r0, #5
 8004768:	f000 001f 	and.w	r0, r0, #31
 800476c:	fa03 f000 	lsl.w	r0, r3, r0
 8004770:	4b01      	ldr	r3, [pc, #4]	; (8004778 <HAL_NVIC_EnableIRQ+0x18>)
 8004772:	f843 0022 	str.w	r0, [r3, r2, lsl #2]
  /* Check the parameters */
  assert_param(IS_NVIC_DEVICE_IRQ(IRQn));

  /* Enable interrupt */
  NVIC_EnableIRQ(IRQn);
}
 8004776:	4770      	bx	lr
 8004778:	e000e100 	.word	0xe000e100

0800477c <HAL_SYSTICK_Config>:
           function <b>SysTick_Config</b> is not included. In this case, the file <b><i>device</i>.h</b>
           must contain a vendor-specific implementation of this function.
 */
__STATIC_INLINE uint32_t SysTick_Config(uint32_t ticks)
{
  if ((ticks - 1UL) > SysTick_LOAD_RELOAD_Msk)
 800477c:	3801      	subs	r0, #1
 800477e:	f1b0 7f80 	cmp.w	r0, #16777216	; 0x1000000
 8004782:	d20b      	bcs.n	800479c <HAL_SYSTICK_Config+0x20>
  {
    return (1UL);                                                   /* Reload value impossible */
  }

  SysTick->LOAD  = (uint32_t)(ticks - 1UL);                         /* set reload register */
 8004784:	f04f 23e0 	mov.w	r3, #3758153728	; 0xe000e000
    SCB->SHP[(((uint32_t)IRQn) & 0xFUL)-4UL] = (uint8_t)((priority << (8U - __NVIC_PRIO_BITS)) & (uint32_t)0xFFUL);
 8004788:	21f0      	movs	r1, #240	; 0xf0
 800478a:	4a05      	ldr	r2, [pc, #20]	; (80047a0 <HAL_SYSTICK_Config+0x24>)
  SysTick->LOAD  = (uint32_t)(ticks - 1UL);                         /* set reload register */
 800478c:	6158      	str	r0, [r3, #20]
    SCB->SHP[(((uint32_t)IRQn) & 0xFUL)-4UL] = (uint8_t)((priority << (8U - __NVIC_PRIO_BITS)) & (uint32_t)0xFFUL);
 800478e:	f882 1023 	strb.w	r1, [r2, #35]	; 0x23
  NVIC_SetPriority (SysTick_IRQn, (1UL << __NVIC_PRIO_BITS) - 1UL); /* set Priority for Systick Interrupt */
  SysTick->VAL   = 0UL;                                             /* Load the SysTick Counter Value */
 8004792:	2000      	movs	r0, #0
  SysTick->CTRL  = SysTick_CTRL_CLKSOURCE_Msk |
 8004794:	2207      	movs	r2, #7
  SysTick->VAL   = 0UL;                                             /* Load the SysTick Counter Value */
 8004796:	6198      	str	r0, [r3, #24]
  SysTick->CTRL  = SysTick_CTRL_CLKSOURCE_Msk |
 8004798:	611a      	str	r2, [r3, #16]
                   SysTick_CTRL_TICKINT_Msk   |
                   SysTick_CTRL_ENABLE_Msk;                         /* Enable SysTick IRQ and SysTick Timer */
  return (0UL);                                                     /* Function successful */
 800479a:	4770      	bx	lr
    return (1UL);                                                   /* Reload value impossible */
 800479c:	2001      	movs	r0, #1
  *                  - 1  Function failed.
  */
uint32_t HAL_SYSTICK_Config(uint32_t TicksNumb)
{
   return SysTick_Config(TicksNumb);
}
 800479e:	4770      	bx	lr
 80047a0:	e000ed00 	.word	0xe000ed00

080047a4 <HAL_GPIO_Init>:
  * @param  GPIO_Init: pointer to a GPIO_InitTypeDef structure that contains
  *         the configuration information for the specified GPIO peripheral.
  * @retval None
  */
void HAL_GPIO_Init(GPIO_TypeDef  *GPIOx, GPIO_InitTypeDef *GPIO_Init)
{
 80047a4:	e92d 4ff7 	stmdb	sp!, {r0, r1, r2, r4, r5, r6, r7, r8, r9, sl, fp, lr}
  uint32_t position = 0x00u;
  uint32_t ioposition;
  uint32_t iocurrent;
  uint32_t temp;
  uint32_t config = 0x00u;
 80047a8:	2200      	movs	r2, #0
  uint32_t position = 0x00u;
 80047aa:	4616      	mov	r6, r2
      /*--------------------- EXTI Mode Configuration ------------------------*/
      /* Configure the External Interrupt or event for the current IO */
      if ((GPIO_Init->Mode & EXTI_MODE) == EXTI_MODE)
      {
        /* Enable AFIO Clock */
        __HAL_RCC_AFIO_CLK_ENABLE();
 80047ac:	4f64      	ldr	r7, [pc, #400]	; (8004940 <HAL_GPIO_Init+0x19c>)
 80047ae:	4b65      	ldr	r3, [pc, #404]	; (8004944 <HAL_GPIO_Init+0x1a0>)
      switch (GPIO_Init->Mode)
 80047b0:	f8df c194 	ldr.w	ip, [pc, #404]	; 8004948 <HAL_GPIO_Init+0x1a4>
 80047b4:	f8df e194 	ldr.w	lr, [pc, #404]	; 800494c <HAL_GPIO_Init+0x1a8>
  while (((GPIO_Init->Pin) >> position) != 0x00u)
 80047b8:	680d      	ldr	r5, [r1, #0]
 80047ba:	fa35 f406 	lsrs.w	r4, r5, r6
 80047be:	d102      	bne.n	80047c6 <HAL_GPIO_Init+0x22>
      }
    }

	position++;
  }
}
 80047c0:	b003      	add	sp, #12
 80047c2:	e8bd 8ff0 	ldmia.w	sp!, {r4, r5, r6, r7, r8, r9, sl, fp, pc}
    ioposition = (0x01uL << position);
 80047c6:	f04f 0801 	mov.w	r8, #1
 80047ca:	fa08 f806 	lsl.w	r8, r8, r6
    iocurrent = (uint32_t)(GPIO_Init->Pin) & ioposition;
 80047ce:	ea05 0408 	and.w	r4, r5, r8
    if (iocurrent == ioposition)
 80047d2:	ea38 0505 	bics.w	r5, r8, r5
 80047d6:	d17b      	bne.n	80048d0 <HAL_GPIO_Init+0x12c>
      switch (GPIO_Init->Mode)
 80047d8:	684d      	ldr	r5, [r1, #4]
 80047da:	2d03      	cmp	r5, #3
 80047dc:	d807      	bhi.n	80047ee <HAL_GPIO_Init+0x4a>
 80047de:	3d01      	subs	r5, #1
 80047e0:	2d02      	cmp	r5, #2
 80047e2:	f200 8088 	bhi.w	80048f6 <HAL_GPIO_Init+0x152>
 80047e6:	e8df f005 	tbb	[pc, r5]
 80047ea:	9b96      	.short	0x9b96
 80047ec:	a1          	.byte	0xa1
 80047ed:	00          	.byte	0x00
 80047ee:	2d12      	cmp	r5, #18
 80047f0:	f000 8099 	beq.w	8004926 <HAL_GPIO_Init+0x182>
 80047f4:	d86e      	bhi.n	80048d4 <HAL_GPIO_Init+0x130>
 80047f6:	2d11      	cmp	r5, #17
 80047f8:	f000 808f 	beq.w	800491a <HAL_GPIO_Init+0x176>
      configregister = (iocurrent < GPIO_PIN_8) ? &GPIOx->CRL     : &GPIOx->CRH;
 80047fc:	2cff      	cmp	r4, #255	; 0xff
 80047fe:	bf98      	it	ls
 8004800:	4682      	movls	sl, r0
      MODIFY_REG((*configregister), ((GPIO_CRL_MODE0 | GPIO_CRL_CNF0) << registeroffset), (config << registeroffset));
 8004802:	f04f 090f 	mov.w	r9, #15
      configregister = (iocurrent < GPIO_PIN_8) ? &GPIOx->CRL     : &GPIOx->CRH;
 8004806:	bf88      	it	hi
 8004808:	f100 0a04 	addhi.w	sl, r0, #4
 800480c:	ea4f 0586 	mov.w	r5, r6, lsl #2
      MODIFY_REG((*configregister), ((GPIO_CRL_MODE0 | GPIO_CRL_CNF0) << registeroffset), (config << registeroffset));
 8004810:	f8da 8000 	ldr.w	r8, [sl]
      registeroffset = (iocurrent < GPIO_PIN_8) ? (position << 2u) : ((position - 8u) << 2u);
 8004814:	bf88      	it	hi
 8004816:	3d20      	subhi	r5, #32
      MODIFY_REG((*configregister), ((GPIO_CRL_MODE0 | GPIO_CRL_CNF0) << registeroffset), (config << registeroffset));
 8004818:	fa09 fb05 	lsl.w	fp, r9, r5
 800481c:	ea28 080b 	bic.w	r8, r8, fp
 8004820:	fa02 f505 	lsl.w	r5, r2, r5
 8004824:	ea48 0505 	orr.w	r5, r8, r5
 8004828:	f8ca 5000 	str.w	r5, [sl]
      if ((GPIO_Init->Mode & EXTI_MODE) == EXTI_MODE)
 800482c:	f8d1 a004 	ldr.w	sl, [r1, #4]
 8004830:	f01a 5f80 	tst.w	sl, #268435456	; 0x10000000
 8004834:	d04c      	beq.n	80048d0 <HAL_GPIO_Init+0x12c>
        __HAL_RCC_AFIO_CLK_ENABLE();
 8004836:	69bd      	ldr	r5, [r7, #24]
 8004838:	f026 0803 	bic.w	r8, r6, #3
 800483c:	f045 0501 	orr.w	r5, r5, #1
 8004840:	61bd      	str	r5, [r7, #24]
 8004842:	69bd      	ldr	r5, [r7, #24]
 8004844:	f108 4880 	add.w	r8, r8, #1073741824	; 0x40000000
 8004848:	f005 0501 	and.w	r5, r5, #1
 800484c:	9501      	str	r5, [sp, #4]
 800484e:	f508 3880 	add.w	r8, r8, #65536	; 0x10000
        CLEAR_BIT(temp, (0x0Fu) << (4u * (position & 0x03u)));
 8004852:	f006 0b03 	and.w	fp, r6, #3
        __HAL_RCC_AFIO_CLK_ENABLE();
 8004856:	9d01      	ldr	r5, [sp, #4]
        CLEAR_BIT(temp, (0x0Fu) << (4u * (position & 0x03u)));
 8004858:	ea4f 0b8b 	mov.w	fp, fp, lsl #2
        temp = AFIO->EXTICR[position >> 2u];
 800485c:	f8d8 5008 	ldr.w	r5, [r8, #8]
        CLEAR_BIT(temp, (0x0Fu) << (4u * (position & 0x03u)));
 8004860:	fa09 f90b 	lsl.w	r9, r9, fp
 8004864:	ea25 0909 	bic.w	r9, r5, r9
        SET_BIT(temp, (GPIO_GET_INDEX(GPIOx)) << (4u * (position & 0x03u)));
 8004868:	4d39      	ldr	r5, [pc, #228]	; (8004950 <HAL_GPIO_Init+0x1ac>)
 800486a:	42a8      	cmp	r0, r5
 800486c:	d062      	beq.n	8004934 <HAL_GPIO_Init+0x190>
 800486e:	f505 6580 	add.w	r5, r5, #1024	; 0x400
 8004872:	42a8      	cmp	r0, r5
 8004874:	d060      	beq.n	8004938 <HAL_GPIO_Init+0x194>
 8004876:	f505 6580 	add.w	r5, r5, #1024	; 0x400
 800487a:	42a8      	cmp	r0, r5
 800487c:	d05e      	beq.n	800493c <HAL_GPIO_Init+0x198>
 800487e:	f505 6580 	add.w	r5, r5, #1024	; 0x400
 8004882:	42a8      	cmp	r0, r5
 8004884:	bf0c      	ite	eq
 8004886:	2503      	moveq	r5, #3
 8004888:	2504      	movne	r5, #4
 800488a:	fa05 f50b 	lsl.w	r5, r5, fp
 800488e:	ea45 0509 	orr.w	r5, r5, r9
        AFIO->EXTICR[position >> 2u] = temp;
 8004892:	f8c8 5008 	str.w	r5, [r8, #8]
          SET_BIT(EXTI->RTSR, iocurrent);
 8004896:	689d      	ldr	r5, [r3, #8]
        if ((GPIO_Init->Mode & RISING_EDGE) == RISING_EDGE)
 8004898:	f41a 1f80 	tst.w	sl, #1048576	; 0x100000
          SET_BIT(EXTI->RTSR, iocurrent);
 800489c:	bf14      	ite	ne
 800489e:	4325      	orrne	r5, r4
          CLEAR_BIT(EXTI->RTSR, iocurrent);
 80048a0:	43a5      	biceq	r5, r4
 80048a2:	609d      	str	r5, [r3, #8]
          SET_BIT(EXTI->FTSR, iocurrent);
 80048a4:	68dd      	ldr	r5, [r3, #12]
        if ((GPIO_Init->Mode & FALLING_EDGE) == FALLING_EDGE)
 80048a6:	f41a 1f00 	tst.w	sl, #2097152	; 0x200000
          SET_BIT(EXTI->FTSR, iocurrent);
 80048aa:	bf14      	ite	ne
 80048ac:	4325      	orrne	r5, r4
          CLEAR_BIT(EXTI->FTSR, iocurrent);
 80048ae:	43a5      	biceq	r5, r4
 80048b0:	60dd      	str	r5, [r3, #12]
          SET_BIT(EXTI->EMR, iocurrent);
 80048b2:	685d      	ldr	r5, [r3, #4]
        if ((GPIO_Init->Mode & GPIO_MODE_EVT) == GPIO_MODE_EVT)
 80048b4:	f41a 3f00 	tst.w	sl, #131072	; 0x20000
          SET_BIT(EXTI->EMR, iocurrent);
 80048b8:	bf14      	ite	ne
 80048ba:	4325      	orrne	r5, r4
          CLEAR_BIT(EXTI->EMR, iocurrent);
 80048bc:	43a5      	biceq	r5, r4
 80048be:	605d      	str	r5, [r3, #4]
          SET_BIT(EXTI->IMR, iocurrent);
 80048c0:	681d      	ldr	r5, [r3, #0]
        if ((GPIO_Init->Mode & GPIO_MODE_IT) == GPIO_MODE_IT)
 80048c2:	f41a 3f80 	tst.w	sl, #65536	; 0x10000
          SET_BIT(EXTI->IMR, iocurrent);
 80048c6:	bf14      	ite	ne
 80048c8:	432c      	orrne	r4, r5
          CLEAR_BIT(EXTI->IMR, iocurrent);
 80048ca:	ea25 0404 	biceq.w	r4, r5, r4
 80048ce:	601c      	str	r4, [r3, #0]
	position++;
 80048d0:	3601      	adds	r6, #1
 80048d2:	e771      	b.n	80047b8 <HAL_GPIO_Init+0x14>
      switch (GPIO_Init->Mode)
 80048d4:	f8df 907c 	ldr.w	r9, [pc, #124]	; 8004954 <HAL_GPIO_Init+0x1b0>
 80048d8:	454d      	cmp	r5, r9
 80048da:	d00c      	beq.n	80048f6 <HAL_GPIO_Init+0x152>
 80048dc:	d817      	bhi.n	800490e <HAL_GPIO_Init+0x16a>
 80048de:	f5a9 1980 	sub.w	r9, r9, #1048576	; 0x100000
 80048e2:	454d      	cmp	r5, r9
 80048e4:	d007      	beq.n	80048f6 <HAL_GPIO_Init+0x152>
 80048e6:	f509 2970 	add.w	r9, r9, #983040	; 0xf0000
 80048ea:	454d      	cmp	r5, r9
 80048ec:	d003      	beq.n	80048f6 <HAL_GPIO_Init+0x152>
 80048ee:	f5a9 1980 	sub.w	r9, r9, #1048576	; 0x100000
 80048f2:	454d      	cmp	r5, r9
 80048f4:	d182      	bne.n	80047fc <HAL_GPIO_Init+0x58>
          if (GPIO_Init->Pull == GPIO_NOPULL)
 80048f6:	688a      	ldr	r2, [r1, #8]
 80048f8:	b1d2      	cbz	r2, 8004930 <HAL_GPIO_Init+0x18c>
          else if (GPIO_Init->Pull == GPIO_PULLUP)
 80048fa:	2a01      	cmp	r2, #1
            GPIOx->BSRR = ioposition;
 80048fc:	bf08      	it	eq
 80048fe:	f8c0 8010 	streq.w	r8, [r0, #16]
            config = GPIO_CR_MODE_INPUT + GPIO_CR_CNF_INPUT_PU_PD;
 8004902:	f04f 0208 	mov.w	r2, #8
            GPIOx->BRR = ioposition;
 8004906:	bf18      	it	ne
 8004908:	f8c0 8014 	strne.w	r8, [r0, #20]
 800490c:	e776      	b.n	80047fc <HAL_GPIO_Init+0x58>
      switch (GPIO_Init->Mode)
 800490e:	4565      	cmp	r5, ip
 8004910:	d0f1      	beq.n	80048f6 <HAL_GPIO_Init+0x152>
 8004912:	4575      	cmp	r5, lr
 8004914:	e7ee      	b.n	80048f4 <HAL_GPIO_Init+0x150>
          config = GPIO_Init->Speed + GPIO_CR_CNF_GP_OUTPUT_PP;
 8004916:	68ca      	ldr	r2, [r1, #12]
          break;
 8004918:	e770      	b.n	80047fc <HAL_GPIO_Init+0x58>
          config = GPIO_Init->Speed + GPIO_CR_CNF_GP_OUTPUT_OD;
 800491a:	68ca      	ldr	r2, [r1, #12]
 800491c:	3204      	adds	r2, #4
          break;
 800491e:	e76d      	b.n	80047fc <HAL_GPIO_Init+0x58>
          config = GPIO_Init->Speed + GPIO_CR_CNF_AF_OUTPUT_PP;
 8004920:	68ca      	ldr	r2, [r1, #12]
 8004922:	3208      	adds	r2, #8
          break;
 8004924:	e76a      	b.n	80047fc <HAL_GPIO_Init+0x58>
          config = GPIO_Init->Speed + GPIO_CR_CNF_AF_OUTPUT_OD;
 8004926:	68ca      	ldr	r2, [r1, #12]
 8004928:	320c      	adds	r2, #12
          break;
 800492a:	e767      	b.n	80047fc <HAL_GPIO_Init+0x58>
      switch (GPIO_Init->Mode)
 800492c:	2200      	movs	r2, #0
 800492e:	e765      	b.n	80047fc <HAL_GPIO_Init+0x58>
            config = GPIO_CR_MODE_INPUT + GPIO_CR_CNF_INPUT_FLOATING;
 8004930:	2204      	movs	r2, #4
 8004932:	e763      	b.n	80047fc <HAL_GPIO_Init+0x58>
        SET_BIT(temp, (GPIO_GET_INDEX(GPIOx)) << (4u * (position & 0x03u)));
 8004934:	2500      	movs	r5, #0
 8004936:	e7a8      	b.n	800488a <HAL_GPIO_Init+0xe6>
 8004938:	2501      	movs	r5, #1
 800493a:	e7a6      	b.n	800488a <HAL_GPIO_Init+0xe6>
 800493c:	2502      	movs	r5, #2
 800493e:	e7a4      	b.n	800488a <HAL_GPIO_Init+0xe6>
 8004940:	40021000 	.word	0x40021000
 8004944:	40010400 	.word	0x40010400
 8004948:	10310000 	.word	0x10310000
 800494c:	10320000 	.word	0x10320000
 8004950:	40010800 	.word	0x40010800
 8004954:	10220000 	.word	0x10220000

08004958 <HAL_GPIO_WritePin>:
{
  /* Check the parameters */
  assert_param(IS_GPIO_PIN(GPIO_Pin));
  assert_param(IS_GPIO_PIN_ACTION(PinState));

  if (PinState != GPIO_PIN_RESET)
 8004958:	b10a      	cbz	r2, 800495e <HAL_GPIO_WritePin+0x6>
  {
    GPIOx->BSRR = GPIO_Pin;
  }
  else
  {
    GPIOx->BSRR = (uint32_t)GPIO_Pin << 16u;
 800495a:	6101      	str	r1, [r0, #16]
  }
}
 800495c:	4770      	bx	lr
    GPIOx->BSRR = (uint32_t)GPIO_Pin << 16u;
 800495e:	0409      	lsls	r1, r1, #16
 8004960:	e7fb      	b.n	800495a <HAL_GPIO_WritePin+0x2>

08004962 <HAL_PCD_Init>:
  *         parameters in the PCD_InitTypeDef and initialize the associated handle.
  * @param  hpcd PCD handle
  * @retval HAL status
  */
HAL_StatusTypeDef HAL_PCD_Init(PCD_HandleTypeDef *hpcd)
{
 8004962:	b5f0      	push	{r4, r5, r6, r7, lr}
  USB_OTG_GlobalTypeDef *USBx;
#endif /* defined (USB_OTG_FS) */
  uint8_t i;

  /* Check the PCD handle allocation */
  if (hpcd == NULL)
 8004964:	4604      	mov	r4, r0
{
 8004966:	b087      	sub	sp, #28
  if (hpcd == NULL)
 8004968:	b310      	cbz	r0, 80049b0 <HAL_PCD_Init+0x4e>

#if defined (USB_OTG_FS)
  USBx = hpcd->Instance;
#endif /* defined (USB_OTG_FS) */

  if (hpcd->State == HAL_PCD_STATE_RESET)
 800496a:	f890 32a9 	ldrb.w	r3, [r0, #681]	; 0x2a9
 800496e:	f003 02ff 	and.w	r2, r3, #255	; 0xff
 8004972:	b91b      	cbnz	r3, 800497c <HAL_PCD_Init+0x1a>
  {
    /* Allocate lock resource and initialize it */
    hpcd->Lock = HAL_UNLOCKED;
 8004974:	f880 22a8 	strb.w	r2, [r0, #680]	; 0x2a8

    /* Init the low level hardware */
    hpcd->MspInitCallback(hpcd);
#else
    /* Init the low level hardware : GPIO, CLOCK, NVIC... */
    HAL_PCD_MspInit(hpcd);
 8004978:	f002 fe04 	bl	8007584 <HAL_PCD_MspInit>
#endif /* (USE_HAL_PCD_REGISTER_CALLBACKS) */
  }

  hpcd->State = HAL_PCD_STATE_BUSY;
 800497c:	2303      	movs	r3, #3
    hpcd->Init.dma_enable = 0U;
  }
#endif /* defined (USB_OTG_FS) */

  /* Disable the Interrupts */
  __HAL_PCD_DISABLE(hpcd);
 800497e:	4625      	mov	r5, r4

  /*Init the Core (common init.) */
  if (USB_CoreInit(hpcd->Instance, hpcd->Init) != HAL_OK)
 8004980:	466e      	mov	r6, sp
  hpcd->State = HAL_PCD_STATE_BUSY;
 8004982:	f884 32a9 	strb.w	r3, [r4, #681]	; 0x2a9
  __HAL_PCD_DISABLE(hpcd);
 8004986:	f855 0b10 	ldr.w	r0, [r5], #16
 800498a:	f001 fad3 	bl	8005f34 <USB_DisableGlobalInt>
  if (USB_CoreInit(hpcd->Instance, hpcd->Init) != HAL_OK)
 800498e:	cd0f      	ldmia	r5!, {r0, r1, r2, r3}
 8004990:	c60f      	stmia	r6!, {r0, r1, r2, r3}
 8004992:	682b      	ldr	r3, [r5, #0]
 8004994:	1d27      	adds	r7, r4, #4
 8004996:	6033      	str	r3, [r6, #0]
 8004998:	4626      	mov	r6, r4
 800499a:	e897 000e 	ldmia.w	r7, {r1, r2, r3}
 800499e:	f856 0b10 	ldr.w	r0, [r6], #16
 80049a2:	f001 fab7 	bl	8005f14 <USB_CoreInit>
 80049a6:	4605      	mov	r5, r0
 80049a8:	b120      	cbz	r0, 80049b4 <HAL_PCD_Init+0x52>
  {
    hpcd->State = HAL_PCD_STATE_ERROR;
 80049aa:	2302      	movs	r3, #2
 80049ac:	f884 32a9 	strb.w	r3, [r4, #681]	; 0x2a9
    return HAL_ERROR;
 80049b0:	2501      	movs	r5, #1
 80049b2:	e04b      	b.n	8004a4c <HAL_PCD_Init+0xea>
    return HAL_ERROR;
  }

  /* Force Device Mode*/
  (void)USB_SetCurrentMode(hpcd->Instance, USB_DEVICE_MODE);
 80049b4:	4601      	mov	r1, r0
 80049b6:	6820      	ldr	r0, [r4, #0]
 80049b8:	f001 fac6 	bl	8005f48 <USB_SetCurrentMode>

  /* Init endpoints structures */
  for (i = 0U; i < hpcd->Init.dev_endpoints; i++)
 80049bc:	4629      	mov	r1, r5
  {
    /* Init ep structure */
    hpcd->IN_ep[i].is_in = 1U;
 80049be:	f04f 0e01 	mov.w	lr, #1
 80049c2:	2528      	movs	r5, #40	; 0x28
    hpcd->IN_ep[i].num = i;
#if defined (USB_OTG_FS)
    hpcd->IN_ep[i].tx_fifo_num = i;
#endif /* defined (USB_OTG_FS) */
    /* Control until ep is activated */
    hpcd->IN_ep[i].type = EP_TYPE_CTRL;
 80049c4:	460a      	mov	r2, r1
  for (i = 0U; i < hpcd->Init.dev_endpoints; i++)
 80049c6:	f8d4 c004 	ldr.w	ip, [r4, #4]
 80049ca:	b2c8      	uxtb	r0, r1
 80049cc:	4584      	cmp	ip, r0
 80049ce:	f101 0101 	add.w	r1, r1, #1
 80049d2:	d81b      	bhi.n	8004a0c <HAL_PCD_Init+0xaa>
 80049d4:	2300      	movs	r3, #0
    hpcd->IN_ep[i].xfer_len = 0U;
  }

  for (i = 0U; i < hpcd->Init.dev_endpoints; i++)
  {
    hpcd->OUT_ep[i].is_in = 0U;
 80049d6:	2528      	movs	r5, #40	; 0x28
 80049d8:	4619      	mov	r1, r3
 80049da:	b2d8      	uxtb	r0, r3
  for (i = 0U; i < hpcd->Init.dev_endpoints; i++)
 80049dc:	4584      	cmp	ip, r0
 80049de:	f103 0301 	add.w	r3, r3, #1
 80049e2:	d81f      	bhi.n	8004a24 <HAL_PCD_Init+0xc2>
    hpcd->OUT_ep[i].xfer_buff = 0U;
    hpcd->OUT_ep[i].xfer_len = 0U;
  }

  /* Init Device */
  if (USB_DevInit(hpcd->Instance, hpcd->Init) != HAL_OK)
 80049e4:	46ec      	mov	ip, sp
 80049e6:	4635      	mov	r5, r6
 80049e8:	cd0f      	ldmia	r5!, {r0, r1, r2, r3}
 80049ea:	e8ac 000f 	stmia.w	ip!, {r0, r1, r2, r3}
 80049ee:	682b      	ldr	r3, [r5, #0]
 80049f0:	f8cc 3000 	str.w	r3, [ip]
 80049f4:	e897 000e 	ldmia.w	r7, {r1, r2, r3}
 80049f8:	6820      	ldr	r0, [r4, #0]
 80049fa:	f001 faa7 	bl	8005f4c <USB_DevInit>
 80049fe:	2301      	movs	r3, #1
 8004a00:	4605      	mov	r5, r0
 8004a02:	b1e0      	cbz	r0, 8004a3e <HAL_PCD_Init+0xdc>
  {
    hpcd->State = HAL_PCD_STATE_ERROR;
 8004a04:	2202      	movs	r2, #2
 8004a06:	f884 22a9 	strb.w	r2, [r4, #681]	; 0x2a9
    return HAL_ERROR;
 8004a0a:	e7d1      	b.n	80049b0 <HAL_PCD_Init+0x4e>
    hpcd->IN_ep[i].is_in = 1U;
 8004a0c:	fb05 4300 	mla	r3, r5, r0, r4
    hpcd->IN_ep[i].xfer_buff = 0U;
 8004a10:	e9c3 220e 	strd	r2, r2, [r3, #56]	; 0x38
    hpcd->IN_ep[i].is_in = 1U;
 8004a14:	f883 e029 	strb.w	lr, [r3, #41]	; 0x29
    hpcd->IN_ep[i].num = i;
 8004a18:	f883 0028 	strb.w	r0, [r3, #40]	; 0x28
    hpcd->IN_ep[i].type = EP_TYPE_CTRL;
 8004a1c:	f883 202b 	strb.w	r2, [r3, #43]	; 0x2b
    hpcd->IN_ep[i].xfer_len = 0U;
 8004a20:	641a      	str	r2, [r3, #64]	; 0x40
  for (i = 0U; i < hpcd->Init.dev_endpoints; i++)
 8004a22:	e7d2      	b.n	80049ca <HAL_PCD_Init+0x68>
    hpcd->OUT_ep[i].is_in = 0U;
 8004a24:	fb05 4200 	mla	r2, r5, r0, r4
    hpcd->OUT_ep[i].xfer_buff = 0U;
 8004a28:	e9c2 115e 	strd	r1, r1, [r2, #376]	; 0x178
    hpcd->OUT_ep[i].is_in = 0U;
 8004a2c:	f882 1169 	strb.w	r1, [r2, #361]	; 0x169
    hpcd->OUT_ep[i].num = i;
 8004a30:	f882 0168 	strb.w	r0, [r2, #360]	; 0x168
    hpcd->OUT_ep[i].type = EP_TYPE_CTRL;
 8004a34:	f882 116b 	strb.w	r1, [r2, #363]	; 0x16b
    hpcd->OUT_ep[i].xfer_len = 0U;
 8004a38:	f8c2 1180 	str.w	r1, [r2, #384]	; 0x180
  for (i = 0U; i < hpcd->Init.dev_endpoints; i++)
 8004a3c:	e7cd      	b.n	80049da <HAL_PCD_Init+0x78>
  }

  hpcd->USB_Address = 0U;
 8004a3e:	f884 0024 	strb.w	r0, [r4, #36]	; 0x24
  hpcd->State = HAL_PCD_STATE_READY;
  (void)USB_DevDisconnect(hpcd->Instance);
 8004a42:	6820      	ldr	r0, [r4, #0]
  hpcd->State = HAL_PCD_STATE_READY;
 8004a44:	f884 32a9 	strb.w	r3, [r4, #681]	; 0x2a9
  (void)USB_DevDisconnect(hpcd->Instance);
 8004a48:	f001 fd38 	bl	80064bc <USB_DevDisconnect>

  return HAL_OK;
}
 8004a4c:	4628      	mov	r0, r5
 8004a4e:	b007      	add	sp, #28
 8004a50:	bdf0      	pop	{r4, r5, r6, r7, pc}

08004a52 <HAL_PCD_Start>:
  * @brief  Start the USB device
  * @param  hpcd PCD handle
  * @retval HAL status
  */
HAL_StatusTypeDef HAL_PCD_Start(PCD_HandleTypeDef *hpcd)
{
 8004a52:	b538      	push	{r3, r4, r5, lr}
  __HAL_LOCK(hpcd);
 8004a54:	f890 32a8 	ldrb.w	r3, [r0, #680]	; 0x2a8
{
 8004a58:	4604      	mov	r4, r0
  __HAL_LOCK(hpcd);
 8004a5a:	2b01      	cmp	r3, #1
 8004a5c:	d010      	beq.n	8004a80 <HAL_PCD_Start+0x2e>
 8004a5e:	2501      	movs	r5, #1
 8004a60:	f880 52a8 	strb.w	r5, [r0, #680]	; 0x2a8
  __HAL_PCD_ENABLE(hpcd);
 8004a64:	6800      	ldr	r0, [r0, #0]
 8004a66:	f001 fa5c 	bl	8005f22 <USB_EnableGlobalInt>

#if defined (USB)
  HAL_PCDEx_SetConnectionState(hpcd, 1U);
 8004a6a:	4629      	mov	r1, r5
 8004a6c:	4620      	mov	r0, r4
 8004a6e:	f002 fe94 	bl	800779a <HAL_PCDEx_SetConnectionState>
#endif /* defined (USB) */

  (void)USB_DevConnect(hpcd->Instance);
 8004a72:	6820      	ldr	r0, [r4, #0]
 8004a74:	f001 fd20 	bl	80064b8 <USB_DevConnect>
  __HAL_UNLOCK(hpcd);
 8004a78:	2000      	movs	r0, #0
 8004a7a:	f884 02a8 	strb.w	r0, [r4, #680]	; 0x2a8

  return HAL_OK;
}
 8004a7e:	bd38      	pop	{r3, r4, r5, pc}
  __HAL_LOCK(hpcd);
 8004a80:	2002      	movs	r0, #2
 8004a82:	e7fc      	b.n	8004a7e <HAL_PCD_Start+0x2c>

08004a84 <HAL_PCD_SetAddress>:
  * @param  hpcd PCD handle
  * @param  address new device address
  * @retval HAL status
  */
HAL_StatusTypeDef HAL_PCD_SetAddress(PCD_HandleTypeDef *hpcd, uint8_t address)
{
 8004a84:	b510      	push	{r4, lr}
  __HAL_LOCK(hpcd);
 8004a86:	f890 22a8 	ldrb.w	r2, [r0, #680]	; 0x2a8
{
 8004a8a:	4604      	mov	r4, r0
  __HAL_LOCK(hpcd);
 8004a8c:	2a01      	cmp	r2, #1
 8004a8e:	d00b      	beq.n	8004aa8 <HAL_PCD_SetAddress+0x24>
 8004a90:	2201      	movs	r2, #1
  hpcd->USB_Address = address;
 8004a92:	f880 1024 	strb.w	r1, [r0, #36]	; 0x24
  __HAL_LOCK(hpcd);
 8004a96:	f880 22a8 	strb.w	r2, [r0, #680]	; 0x2a8
  (void)USB_SetDevAddress(hpcd->Instance, address);
 8004a9a:	6800      	ldr	r0, [r0, #0]
 8004a9c:	f001 fd06 	bl	80064ac <USB_SetDevAddress>
  __HAL_UNLOCK(hpcd);
 8004aa0:	2000      	movs	r0, #0
 8004aa2:	f884 02a8 	strb.w	r0, [r4, #680]	; 0x2a8

  return HAL_OK;
}
 8004aa6:	bd10      	pop	{r4, pc}
  __HAL_LOCK(hpcd);
 8004aa8:	2002      	movs	r0, #2
 8004aaa:	e7fc      	b.n	8004aa6 <HAL_PCD_SetAddress+0x22>

08004aac <HAL_PCD_IRQHandler>:
{
 8004aac:	e92d 4ff0 	stmdb	sp!, {r4, r5, r6, r7, r8, r9, sl, fp, lr}
 8004ab0:	4604      	mov	r4, r0
 8004ab2:	b085      	sub	sp, #20
  uint32_t wIstr = USB_ReadInterrupts(hpcd->Instance);
 8004ab4:	6800      	ldr	r0, [r0, #0]
 8004ab6:	f001 fd03 	bl	80064c0 <USB_ReadInterrupts>
  if ((wIstr & USB_ISTR_CTR) == USB_ISTR_CTR)
 8004aba:	f410 4500 	ands.w	r5, r0, #32768	; 0x8000
 8004abe:	f000 8428 	beq.w	8005312 <HAL_PCD_IRQHandler+0x866>
      if ((wEPVal & USB_EP_CTR_TX) != 0U)
      {
        ep = &hpcd->IN_ep[epindex];

        /* clear int flag */
        PCD_CLEAR_TX_EP_CTR(hpcd->Instance, epindex);
 8004ac2:	f8df 9320 	ldr.w	r9, [pc, #800]	; 8004de4 <HAL_PCD_IRQHandler+0x338>
 8004ac6:	f8df 8320 	ldr.w	r8, [pc, #800]	; 8004de8 <HAL_PCD_IRQHandler+0x33c>
  while ((hpcd->Instance->ISTR & USB_ISTR_CTR) != 0U)
 8004aca:	6820      	ldr	r0, [r4, #0]
 8004acc:	f8b0 3044 	ldrh.w	r3, [r0, #68]	; 0x44
 8004ad0:	041f      	lsls	r7, r3, #16
 8004ad2:	d402      	bmi.n	8004ada <HAL_PCD_IRQHandler+0x2e>
}
 8004ad4:	b005      	add	sp, #20
 8004ad6:	e8bd 8ff0 	ldmia.w	sp!, {r4, r5, r6, r7, r8, r9, sl, fp, pc}
    wIstr = hpcd->Instance->ISTR;
 8004ada:	f8b0 6044 	ldrh.w	r6, [r0, #68]	; 0x44
 8004ade:	b2b1      	uxth	r1, r6
    if (epindex == 0U)
 8004ae0:	f016 060f 	ands.w	r6, r6, #15
 8004ae4:	f040 80c6 	bne.w	8004c74 <HAL_PCD_IRQHandler+0x1c8>
      if ((wIstr & USB_ISTR_DIR) == 0U)
 8004ae8:	f011 0110 	ands.w	r1, r1, #16
 8004aec:	d12b      	bne.n	8004b46 <HAL_PCD_IRQHandler+0x9a>
        PCD_CLEAR_TX_EP_CTR(hpcd->Instance, PCD_ENDP0);
 8004aee:	8803      	ldrh	r3, [r0, #0]
 8004af0:	b29b      	uxth	r3, r3
 8004af2:	ea03 0309 	and.w	r3, r3, r9
 8004af6:	f443 4300 	orr.w	r3, r3, #32768	; 0x8000
 8004afa:	8003      	strh	r3, [r0, #0]
        ep->xfer_count = PCD_GET_EP_TX_CNT(hpcd->Instance, ep->num);
 8004afc:	f8b0 3050 	ldrh.w	r3, [r0, #80]	; 0x50
 8004b00:	f894 2028 	ldrb.w	r2, [r4, #40]	; 0x28
 8004b04:	b29b      	uxth	r3, r3
 8004b06:	eb03 03c2 	add.w	r3, r3, r2, lsl #3
 8004b0a:	eb00 0043 	add.w	r0, r0, r3, lsl #1
 8004b0e:	f8b0 3404 	ldrh.w	r3, [r0, #1028]	; 0x404
        ep->xfer_buff += ep->xfer_count;
 8004b12:	6be2      	ldr	r2, [r4, #60]	; 0x3c
        ep->xfer_count = PCD_GET_EP_TX_CNT(hpcd->Instance, ep->num);
 8004b14:	f3c3 0309 	ubfx	r3, r3, #0, #10
 8004b18:	6463      	str	r3, [r4, #68]	; 0x44
        ep->xfer_buff += ep->xfer_count;
 8004b1a:	4413      	add	r3, r2
 8004b1c:	63e3      	str	r3, [r4, #60]	; 0x3c
        HAL_PCD_DataInStageCallback(hpcd, 0U);
 8004b1e:	4620      	mov	r0, r4
 8004b20:	f002 fd5f 	bl	80075e2 <HAL_PCD_DataInStageCallback>
        if ((hpcd->USB_Address > 0U) && (ep->xfer_len == 0U))
 8004b24:	f894 3024 	ldrb.w	r3, [r4, #36]	; 0x24
 8004b28:	2b00      	cmp	r3, #0
 8004b2a:	d0ce      	beq.n	8004aca <HAL_PCD_IRQHandler+0x1e>
 8004b2c:	6c22      	ldr	r2, [r4, #64]	; 0x40
 8004b2e:	2a00      	cmp	r2, #0
 8004b30:	d1cb      	bne.n	8004aca <HAL_PCD_IRQHandler+0x1e>
          hpcd->Instance->DADDR = ((uint16_t)hpcd->USB_Address | USB_DADDR_EF);
 8004b32:	f894 3024 	ldrb.w	r3, [r4, #36]	; 0x24
 8004b36:	6821      	ldr	r1, [r4, #0]
 8004b38:	f043 0380 	orr.w	r3, r3, #128	; 0x80
 8004b3c:	f8a1 304c 	strh.w	r3, [r1, #76]	; 0x4c
          hpcd->USB_Address = 0U;
 8004b40:	f884 2024 	strb.w	r2, [r4, #36]	; 0x24
 8004b44:	e7c1      	b.n	8004aca <HAL_PCD_IRQHandler+0x1e>
        wEPVal = PCD_GET_ENDPOINT(hpcd->Instance, PCD_ENDP0);
 8004b46:	8805      	ldrh	r5, [r0, #0]
 8004b48:	b2ab      	uxth	r3, r5
        if ((wEPVal & USB_EP_SETUP) != 0U)
 8004b4a:	f415 6500 	ands.w	r5, r5, #2048	; 0x800
 8004b4e:	d021      	beq.n	8004b94 <HAL_PCD_IRQHandler+0xe8>
          ep->xfer_count = PCD_GET_EP_RX_CNT(hpcd->Instance, ep->num);
 8004b50:	f8b0 3050 	ldrh.w	r3, [r0, #80]	; 0x50
 8004b54:	f894 2168 	ldrb.w	r2, [r4, #360]	; 0x168
 8004b58:	b29b      	uxth	r3, r3
 8004b5a:	eb03 03c2 	add.w	r3, r3, r2, lsl #3
 8004b5e:	eb00 0343 	add.w	r3, r0, r3, lsl #1
 8004b62:	f8b3 340c 	ldrh.w	r3, [r3, #1036]	; 0x40c
          USB_ReadPMA(hpcd->Instance, (uint8_t *)hpcd->Setup,
 8004b66:	f8b4 216e 	ldrh.w	r2, [r4, #366]	; 0x16e
 8004b6a:	f3c3 0309 	ubfx	r3, r3, #0, #10
          ep->xfer_count = PCD_GET_EP_RX_CNT(hpcd->Instance, ep->num);
 8004b6e:	f8c4 3184 	str.w	r3, [r4, #388]	; 0x184
          USB_ReadPMA(hpcd->Instance, (uint8_t *)hpcd->Setup,
 8004b72:	f504 712c 	add.w	r1, r4, #688	; 0x2b0
 8004b76:	f001 fef1 	bl	800695c <USB_ReadPMA>
          PCD_CLEAR_RX_EP_CTR(hpcd->Instance, PCD_ENDP0);
 8004b7a:	6822      	ldr	r2, [r4, #0]
          HAL_PCD_SetupStageCallback(hpcd);
 8004b7c:	4620      	mov	r0, r4
          PCD_CLEAR_RX_EP_CTR(hpcd->Instance, PCD_ENDP0);
 8004b7e:	8813      	ldrh	r3, [r2, #0]
 8004b80:	f023 0370 	bic.w	r3, r3, #112	; 0x70
 8004b84:	051b      	lsls	r3, r3, #20
 8004b86:	0d1b      	lsrs	r3, r3, #20
 8004b88:	f043 0380 	orr.w	r3, r3, #128	; 0x80
 8004b8c:	8013      	strh	r3, [r2, #0]
          HAL_PCD_SetupStageCallback(hpcd);
 8004b8e:	f002 fd19 	bl	80075c4 <HAL_PCD_SetupStageCallback>
 8004b92:	e79a      	b.n	8004aca <HAL_PCD_IRQHandler+0x1e>
        else if ((wEPVal & USB_EP_CTR_RX) != 0U)
 8004b94:	0419      	lsls	r1, r3, #16
 8004b96:	d598      	bpl.n	8004aca <HAL_PCD_IRQHandler+0x1e>
          PCD_CLEAR_RX_EP_CTR(hpcd->Instance, PCD_ENDP0);
 8004b98:	8803      	ldrh	r3, [r0, #0]
 8004b9a:	f023 0370 	bic.w	r3, r3, #112	; 0x70
 8004b9e:	051b      	lsls	r3, r3, #20
 8004ba0:	0d1b      	lsrs	r3, r3, #20
 8004ba2:	f043 0380 	orr.w	r3, r3, #128	; 0x80
 8004ba6:	8003      	strh	r3, [r0, #0]
          ep->xfer_count = PCD_GET_EP_RX_CNT(hpcd->Instance, ep->num);
 8004ba8:	f8b0 3050 	ldrh.w	r3, [r0, #80]	; 0x50
 8004bac:	f894 2168 	ldrb.w	r2, [r4, #360]	; 0x168
 8004bb0:	b29b      	uxth	r3, r3
 8004bb2:	eb03 03c2 	add.w	r3, r3, r2, lsl #3
 8004bb6:	eb00 0343 	add.w	r3, r0, r3, lsl #1
 8004bba:	f8b3 340c 	ldrh.w	r3, [r3, #1036]	; 0x40c
 8004bbe:	f3c3 0309 	ubfx	r3, r3, #0, #10
 8004bc2:	f8c4 3184 	str.w	r3, [r4, #388]	; 0x184
          if ((ep->xfer_count != 0U) && (ep->xfer_buff != 0U))
 8004bc6:	b18b      	cbz	r3, 8004bec <HAL_PCD_IRQHandler+0x140>
 8004bc8:	f8d4 117c 	ldr.w	r1, [r4, #380]	; 0x17c
 8004bcc:	b171      	cbz	r1, 8004bec <HAL_PCD_IRQHandler+0x140>
            USB_ReadPMA(hpcd->Instance, ep->xfer_buff,
 8004bce:	f8b4 216e 	ldrh.w	r2, [r4, #366]	; 0x16e
 8004bd2:	f001 fec3 	bl	800695c <USB_ReadPMA>
            ep->xfer_buff += ep->xfer_count;
 8004bd6:	f8d4 317c 	ldr.w	r3, [r4, #380]	; 0x17c
 8004bda:	f8d4 2184 	ldr.w	r2, [r4, #388]	; 0x184
            HAL_PCD_DataOutStageCallback(hpcd, 0U);
 8004bde:	4629      	mov	r1, r5
            ep->xfer_buff += ep->xfer_count;
 8004be0:	4413      	add	r3, r2
            HAL_PCD_DataOutStageCallback(hpcd, 0U);
 8004be2:	4620      	mov	r0, r4
            ep->xfer_buff += ep->xfer_count;
 8004be4:	f8c4 317c 	str.w	r3, [r4, #380]	; 0x17c
            HAL_PCD_DataOutStageCallback(hpcd, 0U);
 8004be8:	f002 fcf2 	bl	80075d0 <HAL_PCD_DataOutStageCallback>
          wEPVal = (uint16_t)PCD_GET_ENDPOINT(hpcd->Instance, PCD_ENDP0);
 8004bec:	6821      	ldr	r1, [r4, #0]
 8004bee:	880a      	ldrh	r2, [r1, #0]
 8004bf0:	b293      	uxth	r3, r2
          if (((wEPVal & USB_EP_SETUP) == 0U) && ((wEPVal & USB_EP_RX_STRX) != USB_EP_RX_VALID))
 8004bf2:	0512      	lsls	r2, r2, #20
 8004bf4:	f53f af69 	bmi.w	8004aca <HAL_PCD_IRQHandler+0x1e>
 8004bf8:	f403 5340 	and.w	r3, r3, #12288	; 0x3000
 8004bfc:	f5b3 5f40 	cmp.w	r3, #12288	; 0x3000
 8004c00:	f43f af63 	beq.w	8004aca <HAL_PCD_IRQHandler+0x1e>
            PCD_SET_EP_RX_CNT(hpcd->Instance, PCD_ENDP0, ep->maxpacket);
 8004c04:	f8b1 3050 	ldrh.w	r3, [r1, #80]	; 0x50
 8004c08:	f201 400c 	addw	r0, r1, #1036	; 0x40c
 8004c0c:	b29b      	uxth	r3, r3
 8004c0e:	5ac2      	ldrh	r2, [r0, r3]
 8004c10:	f8d4 5178 	ldr.w	r5, [r4, #376]	; 0x178
 8004c14:	f3c2 0209 	ubfx	r2, r2, #0, #10
 8004c18:	2d3e      	cmp	r5, #62	; 0x3e
 8004c1a:	52c2      	strh	r2, [r0, r3]
 8004c1c:	d90c      	bls.n	8004c38 <HAL_PCD_IRQHandler+0x18c>
 8004c1e:	5ac2      	ldrh	r2, [r0, r3]
 8004c20:	096e      	lsrs	r6, r5, #5
 8004c22:	06ef      	lsls	r7, r5, #27
 8004c24:	bf08      	it	eq
 8004c26:	f106 36ff 	addeq.w	r6, r6, #4294967295
 8004c2a:	b292      	uxth	r2, r2
 8004c2c:	ea42 2286 	orr.w	r2, r2, r6, lsl #10
 8004c30:	ea42 0208 	orr.w	r2, r2, r8
 8004c34:	b292      	uxth	r2, r2
 8004c36:	e004      	b.n	8004c42 <HAL_PCD_IRQHandler+0x196>
 8004c38:	b99d      	cbnz	r5, 8004c62 <HAL_PCD_IRQHandler+0x1b6>
 8004c3a:	5ac2      	ldrh	r2, [r0, r3]
 8004c3c:	b292      	uxth	r2, r2
 8004c3e:	f442 4200 	orr.w	r2, r2, #32768	; 0x8000
 8004c42:	52c2      	strh	r2, [r0, r3]
            PCD_SET_EP_RX_STATUS(hpcd->Instance, PCD_ENDP0, USB_EP_RX_VALID);
 8004c44:	880b      	ldrh	r3, [r1, #0]
 8004c46:	f423 4380 	bic.w	r3, r3, #16384	; 0x4000
 8004c4a:	f023 0370 	bic.w	r3, r3, #112	; 0x70
 8004c4e:	041b      	lsls	r3, r3, #16
 8004c50:	0c1b      	lsrs	r3, r3, #16
 8004c52:	f483 5340 	eor.w	r3, r3, #12288	; 0x3000
 8004c56:	f443 4300 	orr.w	r3, r3, #32768	; 0x8000
 8004c5a:	f043 0380 	orr.w	r3, r3, #128	; 0x80
 8004c5e:	800b      	strh	r3, [r1, #0]
 8004c60:	e733      	b.n	8004aca <HAL_PCD_IRQHandler+0x1e>
            PCD_SET_EP_RX_CNT(hpcd->Instance, PCD_ENDP0, ep->maxpacket);
 8004c62:	5ac2      	ldrh	r2, [r0, r3]
 8004c64:	086e      	lsrs	r6, r5, #1
 8004c66:	07ed      	lsls	r5, r5, #31
 8004c68:	bf48      	it	mi
 8004c6a:	3601      	addmi	r6, #1
 8004c6c:	b292      	uxth	r2, r2
 8004c6e:	ea42 2286 	orr.w	r2, r2, r6, lsl #10
 8004c72:	e7df      	b.n	8004c34 <HAL_PCD_IRQHandler+0x188>
      wEPVal = PCD_GET_ENDPOINT(hpcd->Instance, epindex);
 8004c74:	f830 3026 	ldrh.w	r3, [r0, r6, lsl #2]
      if ((wEPVal & USB_EP_CTR_RX) != 0U)
 8004c78:	041a      	lsls	r2, r3, #16
      wEPVal = PCD_GET_ENDPOINT(hpcd->Instance, epindex);
 8004c7a:	b29f      	uxth	r7, r3
      if ((wEPVal & USB_EP_CTR_RX) != 0U)
 8004c7c:	f140 80f4 	bpl.w	8004e68 <HAL_PCD_IRQHandler+0x3bc>
        if (ep->doublebuffer == 0U)
 8004c80:	2128      	movs	r1, #40	; 0x28
        PCD_CLEAR_RX_EP_CTR(hpcd->Instance, epindex);
 8004c82:	f830 3026 	ldrh.w	r3, [r0, r6, lsl #2]
        if (ep->doublebuffer == 0U)
 8004c86:	fb01 4106 	mla	r1, r1, r6, r4
        PCD_CLEAR_RX_EP_CTR(hpcd->Instance, epindex);
 8004c8a:	f023 0370 	bic.w	r3, r3, #112	; 0x70
 8004c8e:	051b      	lsls	r3, r3, #20
 8004c90:	0d1b      	lsrs	r3, r3, #20
 8004c92:	f043 0380 	orr.w	r3, r3, #128	; 0x80
 8004c96:	f820 3026 	strh.w	r3, [r0, r6, lsl #2]
        if (ep->doublebuffer == 0U)
 8004c9a:	f891 3174 	ldrb.w	r3, [r1, #372]	; 0x174
 8004c9e:	f500 6c80 	add.w	ip, r0, #1024	; 0x400
 8004ca2:	b9b3      	cbnz	r3, 8004cd2 <HAL_PCD_IRQHandler+0x226>
          count = (uint16_t)PCD_GET_EP_RX_CNT(hpcd->Instance, ep->num);
 8004ca4:	f8b0 3050 	ldrh.w	r3, [r0, #80]	; 0x50
 8004ca8:	f891 2168 	ldrb.w	r2, [r1, #360]	; 0x168
 8004cac:	b29b      	uxth	r3, r3
 8004cae:	3306      	adds	r3, #6
 8004cb0:	eb03 03c2 	add.w	r3, r3, r2, lsl #3
 8004cb4:	f83c 5013 	ldrh.w	r5, [ip, r3, lsl #1]
 8004cb8:	f3c5 0509 	ubfx	r5, r5, #0, #10
          if (count != 0U)
 8004cbc:	2d00      	cmp	r5, #0
 8004cbe:	f000 80b7 	beq.w	8004e30 <HAL_PCD_IRQHandler+0x384>
            USB_ReadPMA(hpcd->Instance, ep->xfer_buff, ep->pmaadress, count);
 8004cc2:	462b      	mov	r3, r5
 8004cc4:	f8b1 216e 	ldrh.w	r2, [r1, #366]	; 0x16e
                USB_ReadPMA(hpcd->Instance, ep->xfer_buff, ep->pmaaddr1, count);
 8004cc8:	f8d1 117c 	ldr.w	r1, [r1, #380]	; 0x17c
 8004ccc:	f001 fe46 	bl	800695c <USB_ReadPMA>
 8004cd0:	e0ae      	b.n	8004e30 <HAL_PCD_IRQHandler+0x384>
          if (ep->type == EP_TYPE_BULK)
 8004cd2:	f891 216b 	ldrb.w	r2, [r1, #363]	; 0x16b
          count = (uint16_t)PCD_GET_EP_RX_CNT(hpcd->Instance, ep->num);
 8004cd6:	f891 3168 	ldrb.w	r3, [r1, #360]	; 0x168
          if (ep->type == EP_TYPE_BULK)
 8004cda:	2a02      	cmp	r2, #2
 8004cdc:	f040 8086 	bne.w	8004dec <HAL_PCD_IRQHandler+0x340>

  /* Manage Buffer0 OUT */
  if ((wEPVal & USB_EP_DTOG_RX) != 0U)
  {
    /* Get count of received Data on buffer0 */
    count = (uint16_t)PCD_GET_EP_DBUF0_CNT(hpcd->Instance, ep->num);
 8004ce0:	f8b0 5050 	ldrh.w	r5, [r0, #80]	; 0x50
  if ((wEPVal & USB_EP_DTOG_RX) != 0U)
 8004ce4:	f417 4a80 	ands.w	sl, r7, #16384	; 0x4000

    if (ep->xfer_len >= count)
 8004ce8:	f8d1 2180 	ldr.w	r2, [r1, #384]	; 0x180
          count = (uint16_t)PCD_GET_EP_RX_CNT(hpcd->Instance, ep->num);
 8004cec:	ea4f 0bc3 	mov.w	fp, r3, lsl #3
    count = (uint16_t)PCD_GET_EP_DBUF0_CNT(hpcd->Instance, ep->num);
 8004cf0:	b2ad      	uxth	r5, r5
 8004cf2:	f007 0e40 	and.w	lr, r7, #64	; 0x40
  if ((wEPVal & USB_EP_DTOG_RX) != 0U)
 8004cf6:	d03b      	beq.n	8004d70 <HAL_PCD_IRQHandler+0x2c4>
    count = (uint16_t)PCD_GET_EP_DBUF0_CNT(hpcd->Instance, ep->num);
 8004cf8:	44ab      	add	fp, r5
 8004cfa:	f10b 0b02 	add.w	fp, fp, #2
 8004cfe:	f83c 501b 	ldrh.w	r5, [ip, fp, lsl #1]
 8004d02:	f3c5 0509 	ubfx	r5, r5, #0, #10
    if (ep->xfer_len >= count)
 8004d06:	4295      	cmp	r5, r2
 8004d08:	d913      	bls.n	8004d32 <HAL_PCD_IRQHandler+0x286>
 8004d0a:	2200      	movs	r2, #0
 8004d0c:	f8c1 2180 	str.w	r2, [r1, #384]	; 0x180
    }

    if (ep->xfer_len == 0U)
    {
      /* set NAK to OUT endpoint since double buffer is enabled */
      PCD_SET_EP_RX_STATUS(hpcd->Instance, ep->num, USB_EP_RX_NAK);
 8004d10:	f830 2023 	ldrh.w	r2, [r0, r3, lsl #2]
 8004d14:	f422 4280 	bic.w	r2, r2, #16384	; 0x4000
 8004d18:	f022 0270 	bic.w	r2, r2, #112	; 0x70
 8004d1c:	0412      	lsls	r2, r2, #16
 8004d1e:	0c12      	lsrs	r2, r2, #16
 8004d20:	f482 5200 	eor.w	r2, r2, #8192	; 0x2000
 8004d24:	f442 4200 	orr.w	r2, r2, #32768	; 0x8000
 8004d28:	f042 0280 	orr.w	r2, r2, #128	; 0x80
 8004d2c:	f820 2023 	strh.w	r2, [r0, r3, lsl #2]
 8004d30:	e004      	b.n	8004d3c <HAL_PCD_IRQHandler+0x290>
      ep->xfer_len -= count;
 8004d32:	1b52      	subs	r2, r2, r5
 8004d34:	f8c1 2180 	str.w	r2, [r1, #384]	; 0x180
    if (ep->xfer_len == 0U)
 8004d38:	2a00      	cmp	r2, #0
 8004d3a:	d0e9      	beq.n	8004d10 <HAL_PCD_IRQHandler+0x264>
    }

    /* Check if Buffer1 is in blocked state which requires to toggle */
    if ((wEPVal & USB_EP_DTOG_TX) != 0U)
 8004d3c:	f1be 0f00 	cmp.w	lr, #0
 8004d40:	d00d      	beq.n	8004d5e <HAL_PCD_IRQHandler+0x2b2>
    {
      PCD_FREE_USER_BUFFER(hpcd->Instance, ep->num, 0U);
 8004d42:	f830 2023 	ldrh.w	r2, [r0, r3, lsl #2]
 8004d46:	f422 42e0 	bic.w	r2, r2, #28672	; 0x7000
 8004d4a:	f022 0270 	bic.w	r2, r2, #112	; 0x70
 8004d4e:	0412      	lsls	r2, r2, #16
 8004d50:	0c12      	lsrs	r2, r2, #16
 8004d52:	f442 4200 	orr.w	r2, r2, #32768	; 0x8000
 8004d56:	f042 02c0 	orr.w	r2, r2, #192	; 0xc0
 8004d5a:	f820 2023 	strh.w	r2, [r0, r3, lsl #2]
    }

    if (count != 0U)
 8004d5e:	2d00      	cmp	r5, #0
 8004d60:	d066      	beq.n	8004e30 <HAL_PCD_IRQHandler+0x384>
    {
      USB_ReadPMA(hpcd->Instance, ep->xfer_buff, ep->pmaaddr0, count);
 8004d62:	2128      	movs	r1, #40	; 0x28
 8004d64:	fb01 4106 	mla	r1, r1, r6, r4
                USB_ReadPMA(hpcd->Instance, ep->xfer_buff, ep->pmaaddr0, count);
 8004d68:	462b      	mov	r3, r5
 8004d6a:	f8b1 2170 	ldrh.w	r2, [r1, #368]	; 0x170
 8004d6e:	e7ab      	b.n	8004cc8 <HAL_PCD_IRQHandler+0x21c>
  }
  /* Manage Buffer 1 DTOG_RX=0 */
  else
  {
    /* Get count of received data */
    count = (uint16_t)PCD_GET_EP_DBUF1_CNT(hpcd->Instance, ep->num);
 8004d70:	445d      	add	r5, fp
 8004d72:	3506      	adds	r5, #6
 8004d74:	f83c 5015 	ldrh.w	r5, [ip, r5, lsl #1]
 8004d78:	f3c5 0509 	ubfx	r5, r5, #0, #10

    if (ep->xfer_len >= count)
 8004d7c:	4295      	cmp	r5, r2
 8004d7e:	d912      	bls.n	8004da6 <HAL_PCD_IRQHandler+0x2fa>
 8004d80:	f8c1 a180 	str.w	sl, [r1, #384]	; 0x180
    }

    if (ep->xfer_len == 0U)
    {
      /* set NAK on the current endpoint */
      PCD_SET_EP_RX_STATUS(hpcd->Instance, ep->num, USB_EP_RX_NAK);
 8004d84:	f830 2023 	ldrh.w	r2, [r0, r3, lsl #2]
 8004d88:	f422 4280 	bic.w	r2, r2, #16384	; 0x4000
 8004d8c:	f022 0270 	bic.w	r2, r2, #112	; 0x70
 8004d90:	0412      	lsls	r2, r2, #16
 8004d92:	0c12      	lsrs	r2, r2, #16
 8004d94:	f482 5200 	eor.w	r2, r2, #8192	; 0x2000
 8004d98:	f442 4200 	orr.w	r2, r2, #32768	; 0x8000
 8004d9c:	f042 0280 	orr.w	r2, r2, #128	; 0x80
 8004da0:	f820 2023 	strh.w	r2, [r0, r3, lsl #2]
 8004da4:	e004      	b.n	8004db0 <HAL_PCD_IRQHandler+0x304>
      ep->xfer_len -= count;
 8004da6:	1b52      	subs	r2, r2, r5
 8004da8:	f8c1 2180 	str.w	r2, [r1, #384]	; 0x180
    if (ep->xfer_len == 0U)
 8004dac:	2a00      	cmp	r2, #0
 8004dae:	d0e9      	beq.n	8004d84 <HAL_PCD_IRQHandler+0x2d8>
    }

    /*Need to FreeUser Buffer*/
    if ((wEPVal & USB_EP_DTOG_TX) == 0U)
 8004db0:	f1be 0f00 	cmp.w	lr, #0
 8004db4:	d10d      	bne.n	8004dd2 <HAL_PCD_IRQHandler+0x326>
    {
      PCD_FREE_USER_BUFFER(hpcd->Instance, ep->num, 0U);
 8004db6:	f830 2023 	ldrh.w	r2, [r0, r3, lsl #2]
 8004dba:	f422 42e0 	bic.w	r2, r2, #28672	; 0x7000
 8004dbe:	f022 0270 	bic.w	r2, r2, #112	; 0x70
 8004dc2:	0412      	lsls	r2, r2, #16
 8004dc4:	0c12      	lsrs	r2, r2, #16
 8004dc6:	f442 4200 	orr.w	r2, r2, #32768	; 0x8000
 8004dca:	f042 02c0 	orr.w	r2, r2, #192	; 0xc0
 8004dce:	f820 2023 	strh.w	r2, [r0, r3, lsl #2]
    }

    if (count != 0U)
 8004dd2:	b36d      	cbz	r5, 8004e30 <HAL_PCD_IRQHandler+0x384>
    {
      USB_ReadPMA(hpcd->Instance, ep->xfer_buff, ep->pmaaddr1, count);
 8004dd4:	2128      	movs	r1, #40	; 0x28
 8004dd6:	fb01 4106 	mla	r1, r1, r6, r4
                USB_ReadPMA(hpcd->Instance, ep->xfer_buff, ep->pmaaddr1, count);
 8004dda:	462b      	mov	r3, r5
 8004ddc:	f8b1 2172 	ldrh.w	r2, [r1, #370]	; 0x172
 8004de0:	e772      	b.n	8004cc8 <HAL_PCD_IRQHandler+0x21c>
 8004de2:	bf00      	nop
 8004de4:	ffff8f0f 	.word	0xffff8f0f
 8004de8:	ffff8000 	.word	0xffff8000
            PCD_FREE_USER_BUFFER(hpcd->Instance, ep->num, 0U);
 8004dec:	f830 2023 	ldrh.w	r2, [r0, r3, lsl #2]
 8004df0:	f422 42e0 	bic.w	r2, r2, #28672	; 0x7000
 8004df4:	f022 0270 	bic.w	r2, r2, #112	; 0x70
 8004df8:	0412      	lsls	r2, r2, #16
 8004dfa:	0c12      	lsrs	r2, r2, #16
 8004dfc:	f442 4200 	orr.w	r2, r2, #32768	; 0x8000
 8004e00:	f042 02c0 	orr.w	r2, r2, #192	; 0xc0
 8004e04:	f820 2023 	strh.w	r2, [r0, r3, lsl #2]
            if ((PCD_GET_ENDPOINT(hpcd->Instance, ep->num) & USB_EP_DTOG_RX) != 0U)
 8004e08:	f891 3168 	ldrb.w	r3, [r1, #360]	; 0x168
 8004e0c:	f830 2023 	ldrh.w	r2, [r0, r3, lsl #2]
 8004e10:	f412 4f80 	tst.w	r2, #16384	; 0x4000
 8004e14:	ea4f 02c3 	mov.w	r2, r3, lsl #3
              count = (uint16_t)PCD_GET_EP_DBUF0_CNT(hpcd->Instance, ep->num);
 8004e18:	f8b0 3050 	ldrh.w	r3, [r0, #80]	; 0x50
 8004e1c:	b29b      	uxth	r3, r3
            if ((PCD_GET_ENDPOINT(hpcd->Instance, ep->num) & USB_EP_DTOG_RX) != 0U)
 8004e1e:	d056      	beq.n	8004ece <HAL_PCD_IRQHandler+0x422>
              count = (uint16_t)PCD_GET_EP_DBUF0_CNT(hpcd->Instance, ep->num);
 8004e20:	3302      	adds	r3, #2
 8004e22:	4413      	add	r3, r2
 8004e24:	f83c 5013 	ldrh.w	r5, [ip, r3, lsl #1]
 8004e28:	f3c5 0509 	ubfx	r5, r5, #0, #10
              if (count != 0U)
 8004e2c:	2d00      	cmp	r5, #0
 8004e2e:	d19b      	bne.n	8004d68 <HAL_PCD_IRQHandler+0x2bc>
        ep->xfer_count += count;
 8004e30:	2128      	movs	r1, #40	; 0x28
 8004e32:	4371      	muls	r1, r6
 8004e34:	1863      	adds	r3, r4, r1
 8004e36:	f8d3 2184 	ldr.w	r2, [r3, #388]	; 0x184
 8004e3a:	442a      	add	r2, r5
 8004e3c:	f8c3 2184 	str.w	r2, [r3, #388]	; 0x184
        ep->xfer_buff += count;
 8004e40:	f8d3 217c 	ldr.w	r2, [r3, #380]	; 0x17c
 8004e44:	442a      	add	r2, r5
 8004e46:	f8c3 217c 	str.w	r2, [r3, #380]	; 0x17c
        if ((ep->xfer_len == 0U) || (count < ep->maxpacket))
 8004e4a:	f8d3 2180 	ldr.w	r2, [r3, #384]	; 0x180
 8004e4e:	b11a      	cbz	r2, 8004e58 <HAL_PCD_IRQHandler+0x3ac>
 8004e50:	f8d3 3178 	ldr.w	r3, [r3, #376]	; 0x178
 8004e54:	429d      	cmp	r5, r3
 8004e56:	d243      	bcs.n	8004ee0 <HAL_PCD_IRQHandler+0x434>
          HAL_PCD_DataOutStageCallback(hpcd, ep->num);
 8004e58:	2328      	movs	r3, #40	; 0x28
 8004e5a:	fb03 4306 	mla	r3, r3, r6, r4
 8004e5e:	4620      	mov	r0, r4
 8004e60:	f893 1168 	ldrb.w	r1, [r3, #360]	; 0x168
 8004e64:	f002 fbb4 	bl	80075d0 <HAL_PCD_DataOutStageCallback>
      if ((wEPVal & USB_EP_CTR_TX) != 0U)
 8004e68:	063b      	lsls	r3, r7, #24
 8004e6a:	f57f ae2e 	bpl.w	8004aca <HAL_PCD_IRQHandler+0x1e>
 8004e6e:	f04f 0c28 	mov.w	ip, #40	; 0x28
        PCD_CLEAR_TX_EP_CTR(hpcd->Instance, epindex);
 8004e72:	6820      	ldr	r0, [r4, #0]
 8004e74:	fb0c 4506 	mla	r5, ip, r6, r4
 8004e78:	f830 3026 	ldrh.w	r3, [r0, r6, lsl #2]
 8004e7c:	b29b      	uxth	r3, r3
 8004e7e:	ea03 0309 	and.w	r3, r3, r9
 8004e82:	f443 4300 	orr.w	r3, r3, #32768	; 0x8000
 8004e86:	f820 3026 	strh.w	r3, [r0, r6, lsl #2]
        if (ep->type == EP_TYPE_ISOC)
 8004e8a:	f895 302b 	ldrb.w	r3, [r5, #43]	; 0x2b
 8004e8e:	2b01      	cmp	r3, #1
 8004e90:	d150      	bne.n	8004f34 <HAL_PCD_IRQHandler+0x488>
          ep->xfer_len = 0U;
 8004e92:	2100      	movs	r1, #0
          if (ep->doublebuffer != 0U)
 8004e94:	f895 3034 	ldrb.w	r3, [r5, #52]	; 0x34
          ep->xfer_len = 0U;
 8004e98:	6429      	str	r1, [r5, #64]	; 0x40
          if (ep->doublebuffer != 0U)
 8004e9a:	b393      	cbz	r3, 8004f02 <HAL_PCD_IRQHandler+0x456>
            if ((wEPVal & USB_EP_DTOG_TX) != 0U)
 8004e9c:	f017 0740 	ands.w	r7, r7, #64	; 0x40
 8004ea0:	f895 2029 	ldrb.w	r2, [r5, #41]	; 0x29
 8004ea4:	f895 3028 	ldrb.w	r3, [r5, #40]	; 0x28
 8004ea8:	d031      	beq.n	8004f0e <HAL_PCD_IRQHandler+0x462>
              PCD_SET_EP_DBUF0_CNT(hpcd->Instance, ep->num, ep->is_in, 0U);
 8004eaa:	bb02      	cbnz	r2, 8004eee <HAL_PCD_IRQHandler+0x442>
 8004eac:	f8b0 2050 	ldrh.w	r2, [r0, #80]	; 0x50
 8004eb0:	011b      	lsls	r3, r3, #4
 8004eb2:	b292      	uxth	r2, r2
 8004eb4:	f200 4004 	addw	r0, r0, #1028	; 0x404
              PCD_SET_EP_DBUF1_CNT(hpcd->Instance, ep->num, ep->is_in, 0U);
 8004eb8:	4410      	add	r0, r2
 8004eba:	5a1a      	ldrh	r2, [r3, r0]
 8004ebc:	f3c2 0209 	ubfx	r2, r2, #0, #10
 8004ec0:	521a      	strh	r2, [r3, r0]
 8004ec2:	5a1a      	ldrh	r2, [r3, r0]
 8004ec4:	b292      	uxth	r2, r2
 8004ec6:	f442 4200 	orr.w	r2, r2, #32768	; 0x8000
 8004eca:	521a      	strh	r2, [r3, r0]
 8004ecc:	e019      	b.n	8004f02 <HAL_PCD_IRQHandler+0x456>
              count = (uint16_t)PCD_GET_EP_DBUF1_CNT(hpcd->Instance, ep->num);
 8004ece:	3306      	adds	r3, #6
 8004ed0:	4413      	add	r3, r2
 8004ed2:	f83c 5013 	ldrh.w	r5, [ip, r3, lsl #1]
 8004ed6:	f3c5 0509 	ubfx	r5, r5, #0, #10
              if (count != 0U)
 8004eda:	2d00      	cmp	r5, #0
 8004edc:	d0a8      	beq.n	8004e30 <HAL_PCD_IRQHandler+0x384>
 8004ede:	e77c      	b.n	8004dda <HAL_PCD_IRQHandler+0x32e>
        ep = &hpcd->OUT_ep[epindex];
 8004ee0:	f501 71b4 	add.w	r1, r1, #360	; 0x168
          (void)USB_EPStartXfer(hpcd->Instance, ep);
 8004ee4:	6820      	ldr	r0, [r4, #0]
 8004ee6:	4421      	add	r1, r4
 8004ee8:	f001 fb00 	bl	80064ec <USB_EPStartXfer>
 8004eec:	e7bc      	b.n	8004e68 <HAL_PCD_IRQHandler+0x3bc>
              PCD_SET_EP_DBUF0_CNT(hpcd->Instance, ep->num, ep->is_in, 0U);
 8004eee:	2a01      	cmp	r2, #1
 8004ef0:	d107      	bne.n	8004f02 <HAL_PCD_IRQHandler+0x456>
 8004ef2:	f8b0 2050 	ldrh.w	r2, [r0, #80]	; 0x50
 8004ef6:	f200 4004 	addw	r0, r0, #1028	; 0x404
 8004efa:	b292      	uxth	r2, r2
 8004efc:	011b      	lsls	r3, r3, #4
 8004efe:	4410      	add	r0, r2
 8004f00:	5219      	strh	r1, [r3, r0]
          HAL_PCD_DataInStageCallback(hpcd, ep->num);
 8004f02:	f895 1028 	ldrb.w	r1, [r5, #40]	; 0x28
              HAL_PCD_DataInStageCallback(hpcd, ep->num);
 8004f06:	4620      	mov	r0, r4
 8004f08:	f002 fb6b 	bl	80075e2 <HAL_PCD_DataInStageCallback>
 8004f0c:	e5dd      	b.n	8004aca <HAL_PCD_IRQHandler+0x1e>
              PCD_SET_EP_DBUF1_CNT(hpcd->Instance, ep->num, ep->is_in, 0U);
 8004f0e:	b932      	cbnz	r2, 8004f1e <HAL_PCD_IRQHandler+0x472>
 8004f10:	f8b0 2050 	ldrh.w	r2, [r0, #80]	; 0x50
 8004f14:	011b      	lsls	r3, r3, #4
 8004f16:	b292      	uxth	r2, r2
 8004f18:	f200 400c 	addw	r0, r0, #1036	; 0x40c
 8004f1c:	e7cc      	b.n	8004eb8 <HAL_PCD_IRQHandler+0x40c>
 8004f1e:	2a01      	cmp	r2, #1
 8004f20:	d1ef      	bne.n	8004f02 <HAL_PCD_IRQHandler+0x456>
 8004f22:	f8b0 2050 	ldrh.w	r2, [r0, #80]	; 0x50
 8004f26:	f200 400c 	addw	r0, r0, #1036	; 0x40c
 8004f2a:	b292      	uxth	r2, r2
 8004f2c:	011b      	lsls	r3, r3, #4
 8004f2e:	4410      	add	r0, r2
 8004f30:	521f      	strh	r7, [r3, r0]
 8004f32:	e7e6      	b.n	8004f02 <HAL_PCD_IRQHandler+0x456>
            TxPctSize = (uint16_t)PCD_GET_EP_TX_CNT(hpcd->Instance, ep->num);
 8004f34:	f895 1028 	ldrb.w	r1, [r5, #40]	; 0x28
          if ((wEPVal & USB_EP_KIND) == 0U)
 8004f38:	f417 7280 	ands.w	r2, r7, #256	; 0x100
            if (ep->xfer_len > TxPctSize)
 8004f3c:	6c2b      	ldr	r3, [r5, #64]	; 0x40
            TxPctSize = (uint16_t)PCD_GET_EP_TX_CNT(hpcd->Instance, ep->num);
 8004f3e:	ea4f 0ac1 	mov.w	sl, r1, lsl #3
 8004f42:	f500 6e80 	add.w	lr, r0, #1024	; 0x400
          if ((wEPVal & USB_EP_KIND) == 0U)
 8004f46:	d11c      	bne.n	8004f82 <HAL_PCD_IRQHandler+0x4d6>
            TxPctSize = (uint16_t)PCD_GET_EP_TX_CNT(hpcd->Instance, ep->num);
 8004f48:	f8b0 7050 	ldrh.w	r7, [r0, #80]	; 0x50
 8004f4c:	b2bf      	uxth	r7, r7
 8004f4e:	44ba      	add	sl, r7
 8004f50:	f10a 0a02 	add.w	sl, sl, #2
 8004f54:	f83e 701a 	ldrh.w	r7, [lr, sl, lsl #1]
            if (ep->xfer_len > TxPctSize)
 8004f58:	f3c7 0709 	ubfx	r7, r7, #0, #10
 8004f5c:	429f      	cmp	r7, r3
 8004f5e:	d301      	bcc.n	8004f64 <HAL_PCD_IRQHandler+0x4b8>
 8004f60:	642a      	str	r2, [r5, #64]	; 0x40
 8004f62:	e7d0      	b.n	8004f06 <HAL_PCD_IRQHandler+0x45a>
              ep->xfer_len -= TxPctSize;
 8004f64:	1bdb      	subs	r3, r3, r7
 8004f66:	642b      	str	r3, [r5, #64]	; 0x40
              ep->xfer_buff += TxPctSize;
 8004f68:	6beb      	ldr	r3, [r5, #60]	; 0x3c
        ep = &hpcd->IN_ep[epindex];
 8004f6a:	fb06 cc0c 	mla	ip, r6, ip, ip
              ep->xfer_buff += TxPctSize;
 8004f6e:	443b      	add	r3, r7
 8004f70:	63eb      	str	r3, [r5, #60]	; 0x3c
              ep->xfer_count += TxPctSize;
 8004f72:	6c6b      	ldr	r3, [r5, #68]	; 0x44
              (void)USB_EPStartXfer(hpcd->Instance, ep);
 8004f74:	eb04 010c 	add.w	r1, r4, ip
              ep->xfer_count += TxPctSize;
 8004f78:	443b      	add	r3, r7
 8004f7a:	646b      	str	r3, [r5, #68]	; 0x44
              (void)USB_EPStartXfer(hpcd->Instance, ep);
 8004f7c:	f001 fab6 	bl	80064ec <USB_EPStartXfer>
 8004f80:	e5a3      	b.n	8004aca <HAL_PCD_IRQHandler+0x1e>

  /* Data Buffer0 ACK received */
  if ((wEPVal & USB_EP_DTOG_TX) != 0U)
  {
    /* multi-packet on the NON control IN endpoint */
    TxPctSize = (uint16_t)PCD_GET_EP_DBUF0_CNT(hpcd->Instance, ep->num);
 8004f82:	f8b0 2050 	ldrh.w	r2, [r0, #80]	; 0x50
  if ((wEPVal & USB_EP_DTOG_TX) != 0U)
 8004f86:	f017 0c40 	ands.w	ip, r7, #64	; 0x40
    TxPctSize = (uint16_t)PCD_GET_EP_DBUF0_CNT(hpcd->Instance, ep->num);
 8004f8a:	b292      	uxth	r2, r2
 8004f8c:	4452      	add	r2, sl
 8004f8e:	f407 4780 	and.w	r7, r7, #16384	; 0x4000
  if ((wEPVal & USB_EP_DTOG_TX) != 0U)
 8004f92:	f000 80dc 	beq.w	800514e <HAL_PCD_IRQHandler+0x6a2>
    TxPctSize = (uint16_t)PCD_GET_EP_DBUF0_CNT(hpcd->Instance, ep->num);
 8004f96:	3202      	adds	r2, #2
 8004f98:	f83e 2012 	ldrh.w	r2, [lr, r2, lsl #1]
 8004f9c:	f04f 0c28 	mov.w	ip, #40	; 0x28

    if (ep->xfer_len > TxPctSize)
 8004fa0:	f3c2 0209 	ubfx	r2, r2, #0, #10
 8004fa4:	429a      	cmp	r2, r3
    {
      ep->xfer_len -= TxPctSize;
    }
    else
    {
      ep->xfer_len = 0U;
 8004fa6:	bf28      	it	cs
 8004fa8:	2300      	movcs	r3, #0
 8004faa:	fb0c 4c06 	mla	ip, ip, r6, r4
      ep->xfer_len -= TxPctSize;
 8004fae:	bf38      	it	cc
 8004fb0:	1a9b      	subcc	r3, r3, r2
 8004fb2:	f8cc 3040 	str.w	r3, [ip, #64]	; 0x40
    }

    /* Transfer is completed */
    if (ep->xfer_len == 0U)
 8004fb6:	b2bf      	uxth	r7, r7
 8004fb8:	2b00      	cmp	r3, #0
 8004fba:	d14d      	bne.n	8005058 <HAL_PCD_IRQHandler+0x5ac>
    {
      PCD_SET_EP_DBUF0_CNT(hpcd->Instance, ep->num, ep->is_in, 0U);
 8004fbc:	f895 2029 	ldrb.w	r2, [r5, #41]	; 0x29
 8004fc0:	2a00      	cmp	r2, #0
 8004fc2:	d136      	bne.n	8005032 <HAL_PCD_IRQHandler+0x586>
 8004fc4:	f8b0 6050 	ldrh.w	r6, [r0, #80]	; 0x50
 8004fc8:	010b      	lsls	r3, r1, #4
 8004fca:	b2b2      	uxth	r2, r6
 8004fcc:	f200 4604 	addw	r6, r0, #1028	; 0x404
 8004fd0:	4416      	add	r6, r2
 8004fd2:	5af2      	ldrh	r2, [r6, r3]
 8004fd4:	f3c2 0209 	ubfx	r2, r2, #0, #10
 8004fd8:	52f2      	strh	r2, [r6, r3]
 8004fda:	5af2      	ldrh	r2, [r6, r3]
 8004fdc:	b292      	uxth	r2, r2
 8004fde:	f442 4200 	orr.w	r2, r2, #32768	; 0x8000
 8004fe2:	52f2      	strh	r2, [r6, r3]
      PCD_SET_EP_DBUF1_CNT(hpcd->Instance, ep->num, ep->is_in, 0U);
 8004fe4:	f8b0 2050 	ldrh.w	r2, [r0, #80]	; 0x50
 8004fe8:	f200 400c 	addw	r0, r0, #1036	; 0x40c
 8004fec:	b292      	uxth	r2, r2
 8004fee:	4410      	add	r0, r2
 8004ff0:	5ac2      	ldrh	r2, [r0, r3]
 8004ff2:	f3c2 0209 	ubfx	r2, r2, #0, #10
 8004ff6:	52c2      	strh	r2, [r0, r3]
 8004ff8:	5ac2      	ldrh	r2, [r0, r3]
 8004ffa:	b292      	uxth	r2, r2
 8004ffc:	f442 4200 	orr.w	r2, r2, #32768	; 0x8000
 8005000:	52c2      	strh	r2, [r0, r3]

      /* TX COMPLETE */
#if (USE_HAL_PCD_REGISTER_CALLBACKS == 1U)
      hpcd->DataInStageCallback(hpcd, ep->num);
#else
      HAL_PCD_DataInStageCallback(hpcd, ep->num);
 8005002:	4620      	mov	r0, r4
 8005004:	f002 faed 	bl	80075e2 <HAL_PCD_DataInStageCallback>
#endif /* USE_HAL_PCD_REGISTER_CALLBACKS */

      if ((wEPVal & USB_EP_DTOG_RX) != 0U)
 8005008:	2f00      	cmp	r7, #0
 800500a:	f000 80dc 	beq.w	80051c6 <HAL_PCD_IRQHandler+0x71a>
#endif /* USE_HAL_PCD_REGISTER_CALLBACKS */

      /* need to Free USB Buff */
      if ((wEPVal & USB_EP_DTOG_RX) == 0U)
      {
        PCD_FREE_USER_BUFFER(hpcd->Instance, ep->num, 1U);
 800500e:	f895 1028 	ldrb.w	r1, [r5, #40]	; 0x28
 8005012:	6822      	ldr	r2, [r4, #0]
 8005014:	f832 3021 	ldrh.w	r3, [r2, r1, lsl #2]
 8005018:	f423 43e0 	bic.w	r3, r3, #28672	; 0x7000
 800501c:	f023 0370 	bic.w	r3, r3, #112	; 0x70
 8005020:	041b      	lsls	r3, r3, #16
 8005022:	0c1b      	lsrs	r3, r3, #16
 8005024:	f443 4340 	orr.w	r3, r3, #49152	; 0xc000
 8005028:	f043 0380 	orr.w	r3, r3, #128	; 0x80
 800502c:	f822 3021 	strh.w	r3, [r2, r1, lsl #2]
 8005030:	e0c9      	b.n	80051c6 <HAL_PCD_IRQHandler+0x71a>
      PCD_SET_EP_DBUF0_CNT(hpcd->Instance, ep->num, ep->is_in, 0U);
 8005032:	2a01      	cmp	r2, #1
 8005034:	d1e5      	bne.n	8005002 <HAL_PCD_IRQHandler+0x556>
 8005036:	f8b0 6050 	ldrh.w	r6, [r0, #80]	; 0x50
 800503a:	010a      	lsls	r2, r1, #4
 800503c:	fa1f fc86 	uxth.w	ip, r6
 8005040:	f200 4604 	addw	r6, r0, #1028	; 0x404
 8005044:	4466      	add	r6, ip
 8005046:	52b3      	strh	r3, [r6, r2]
      PCD_SET_EP_DBUF1_CNT(hpcd->Instance, ep->num, ep->is_in, 0U);
 8005048:	f8b0 6050 	ldrh.w	r6, [r0, #80]	; 0x50
 800504c:	f200 400c 	addw	r0, r0, #1036	; 0x40c
 8005050:	b2b6      	uxth	r6, r6
 8005052:	4430      	add	r0, r6
 8005054:	5283      	strh	r3, [r0, r2]
 8005056:	e7d4      	b.n	8005002 <HAL_PCD_IRQHandler+0x556>
      if ((wEPVal & USB_EP_DTOG_RX) != 0U)
 8005058:	b16f      	cbz	r7, 8005076 <HAL_PCD_IRQHandler+0x5ca>
        PCD_FREE_USER_BUFFER(hpcd->Instance, ep->num, 1U);
 800505a:	f830 3021 	ldrh.w	r3, [r0, r1, lsl #2]
 800505e:	f423 43e0 	bic.w	r3, r3, #28672	; 0x7000
 8005062:	f023 0370 	bic.w	r3, r3, #112	; 0x70
 8005066:	041b      	lsls	r3, r3, #16
 8005068:	0c1b      	lsrs	r3, r3, #16
 800506a:	f443 4340 	orr.w	r3, r3, #49152	; 0xc000
 800506e:	f043 0380 	orr.w	r3, r3, #128	; 0x80
 8005072:	f820 3021 	strh.w	r3, [r0, r1, lsl #2]
      if (ep->xfer_fill_db == 1U)
 8005076:	2728      	movs	r7, #40	; 0x28
 8005078:	fb07 4706 	mla	r7, r7, r6, r4
 800507c:	f897 304c 	ldrb.w	r3, [r7, #76]	; 0x4c
 8005080:	2b01      	cmp	r3, #1
 8005082:	f040 80a0 	bne.w	80051c6 <HAL_PCD_IRQHandler+0x71a>
        ep->xfer_buff += TxPctSize;
 8005086:	6bfb      	ldr	r3, [r7, #60]	; 0x3c
        if (ep->xfer_len_db >= ep->maxpacket)
 8005088:	f8d7 e048 	ldr.w	lr, [r7, #72]	; 0x48
        ep->xfer_buff += TxPctSize;
 800508c:	eb03 0c02 	add.w	ip, r3, r2
        ep->xfer_count += TxPctSize;
 8005090:	6c7b      	ldr	r3, [r7, #68]	; 0x44
        ep->xfer_buff += TxPctSize;
 8005092:	f8c7 c03c 	str.w	ip, [r7, #60]	; 0x3c
        ep->xfer_count += TxPctSize;
 8005096:	4413      	add	r3, r2
 8005098:	647b      	str	r3, [r7, #68]	; 0x44
        if (ep->xfer_len_db >= ep->maxpacket)
 800509a:	6bbb      	ldr	r3, [r7, #56]	; 0x38
 800509c:	459e      	cmp	lr, r3
 800509e:	d32c      	bcc.n	80050fa <HAL_PCD_IRQHandler+0x64e>
          ep->xfer_len_db -= len;
 80050a0:	ebae 0203 	sub.w	r2, lr, r3
 80050a4:	64ba      	str	r2, [r7, #72]	; 0x48
        PCD_SET_EP_DBUF0_CNT(hpcd->Instance, ep->num, ep->is_in, len);
 80050a6:	f895 2029 	ldrb.w	r2, [r5, #41]	; 0x29
 80050aa:	fa1f fe83 	uxth.w	lr, r3
 80050ae:	2a00      	cmp	r2, #0
 80050b0:	d141      	bne.n	8005136 <HAL_PCD_IRQHandler+0x68a>
 80050b2:	f8b0 2050 	ldrh.w	r2, [r0, #80]	; 0x50
 80050b6:	f200 4704 	addw	r7, r0, #1028	; 0x404
 80050ba:	b292      	uxth	r2, r2
 80050bc:	443a      	add	r2, r7
 80050be:	0109      	lsls	r1, r1, #4
 80050c0:	5a57      	ldrh	r7, [r2, r1]
 80050c2:	2b3e      	cmp	r3, #62	; 0x3e
 80050c4:	f3c7 0709 	ubfx	r7, r7, #0, #10
 80050c8:	5257      	strh	r7, [r2, r1]
 80050ca:	d923      	bls.n	8005114 <HAL_PCD_IRQHandler+0x668>
 80050cc:	06df      	lsls	r7, r3, #27
 80050ce:	5a57      	ldrh	r7, [r2, r1]
 80050d0:	ea4f 1a53 	mov.w	sl, r3, lsr #5
 80050d4:	bf08      	it	eq
 80050d6:	f10a 3aff 	addeq.w	sl, sl, #4294967295
 80050da:	b2bf      	uxth	r7, r7
 80050dc:	ea47 278a 	orr.w	r7, r7, sl, lsl #10
 80050e0:	ea47 0708 	orr.w	r7, r7, r8
 80050e4:	b2bf      	uxth	r7, r7
 80050e6:	5257      	strh	r7, [r2, r1]
        USB_WritePMA(hpcd->Instance, ep->xfer_buff,  ep->pmaaddr0, (uint16_t)len);
 80050e8:	2128      	movs	r1, #40	; 0x28
 80050ea:	4673      	mov	r3, lr
 80050ec:	fb01 4606 	mla	r6, r1, r6, r4
 80050f0:	4661      	mov	r1, ip
 80050f2:	8e32      	ldrh	r2, [r6, #48]	; 0x30

        /* Set the Double buffer counter for pmabuffer1 */
        PCD_SET_EP_DBUF1_CNT(hpcd->Instance, ep->num, ep->is_in, len);

        /* Copy the user buffer to USB PMA */
        USB_WritePMA(hpcd->Instance, ep->xfer_buff,  ep->pmaaddr1, (uint16_t)len);
 80050f4:	f001 f9ea 	bl	80064cc <USB_WritePMA>
 80050f8:	e065      	b.n	80051c6 <HAL_PCD_IRQHandler+0x71a>
        else if (ep->xfer_len_db == 0U)
 80050fa:	f1be 0f00 	cmp.w	lr, #0
 80050fe:	d103      	bne.n	8005108 <HAL_PCD_IRQHandler+0x65c>
    if (ep->xfer_len > TxPctSize)
 8005100:	4613      	mov	r3, r2
          ep->xfer_fill_db = 0U;
 8005102:	f887 e04c 	strb.w	lr, [r7, #76]	; 0x4c
 8005106:	e7ce      	b.n	80050a6 <HAL_PCD_IRQHandler+0x5fa>
          ep->xfer_fill_db = 0U;
 8005108:	2300      	movs	r3, #0
 800510a:	f887 304c 	strb.w	r3, [r7, #76]	; 0x4c
          ep->xfer_len_db = 0U;
 800510e:	64bb      	str	r3, [r7, #72]	; 0x48
 8005110:	4673      	mov	r3, lr
 8005112:	e7c8      	b.n	80050a6 <HAL_PCD_IRQHandler+0x5fa>
        PCD_SET_EP_DBUF0_CNT(hpcd->Instance, ep->num, ep->is_in, len);
 8005114:	b92b      	cbnz	r3, 8005122 <HAL_PCD_IRQHandler+0x676>
 8005116:	5a53      	ldrh	r3, [r2, r1]
 8005118:	b29b      	uxth	r3, r3
 800511a:	f443 4300 	orr.w	r3, r3, #32768	; 0x8000
 800511e:	5253      	strh	r3, [r2, r1]
 8005120:	e7e2      	b.n	80050e8 <HAL_PCD_IRQHandler+0x63c>
 8005122:	085f      	lsrs	r7, r3, #1
 8005124:	07db      	lsls	r3, r3, #31
 8005126:	5a53      	ldrh	r3, [r2, r1]
 8005128:	bf48      	it	mi
 800512a:	3701      	addmi	r7, #1
 800512c:	b29b      	uxth	r3, r3
 800512e:	ea43 2387 	orr.w	r3, r3, r7, lsl #10
 8005132:	b29b      	uxth	r3, r3
 8005134:	e7f3      	b.n	800511e <HAL_PCD_IRQHandler+0x672>
 8005136:	2a01      	cmp	r2, #1
 8005138:	d1d6      	bne.n	80050e8 <HAL_PCD_IRQHandler+0x63c>
 800513a:	f8b0 3050 	ldrh.w	r3, [r0, #80]	; 0x50
 800513e:	0109      	lsls	r1, r1, #4
 8005140:	b29a      	uxth	r2, r3
 8005142:	f200 4304 	addw	r3, r0, #1028	; 0x404
 8005146:	4413      	add	r3, r2
 8005148:	f823 e001 	strh.w	lr, [r3, r1]
 800514c:	e7cc      	b.n	80050e8 <HAL_PCD_IRQHandler+0x63c>
    TxPctSize = (uint16_t)PCD_GET_EP_DBUF1_CNT(hpcd->Instance, ep->num);
 800514e:	3206      	adds	r2, #6
 8005150:	f83e 2012 	ldrh.w	r2, [lr, r2, lsl #1]
 8005154:	b2bf      	uxth	r7, r7
    if (ep->xfer_len >= TxPctSize)
 8005156:	f3c2 0209 	ubfx	r2, r2, #0, #10
 800515a:	429a      	cmp	r2, r3
      ep->xfer_len = 0U;
 800515c:	bf88      	it	hi
 800515e:	4663      	movhi	r3, ip
 8005160:	f04f 0c28 	mov.w	ip, #40	; 0x28
 8005164:	fb0c 4c06 	mla	ip, ip, r6, r4
      ep->xfer_len -= TxPctSize;
 8005168:	bf98      	it	ls
 800516a:	1a9b      	subls	r3, r3, r2
 800516c:	f8cc 3040 	str.w	r3, [ip, #64]	; 0x40
    if (ep->xfer_len == 0U)
 8005170:	2b00      	cmp	r3, #0
 8005172:	d14e      	bne.n	8005212 <HAL_PCD_IRQHandler+0x766>
      PCD_SET_EP_DBUF0_CNT(hpcd->Instance, ep->num, ep->is_in, 0U);
 8005174:	f895 2029 	ldrb.w	r2, [r5, #41]	; 0x29
 8005178:	2a00      	cmp	r2, #0
 800517a:	d137      	bne.n	80051ec <HAL_PCD_IRQHandler+0x740>
 800517c:	f8b0 6050 	ldrh.w	r6, [r0, #80]	; 0x50
 8005180:	010b      	lsls	r3, r1, #4
 8005182:	b2b2      	uxth	r2, r6
 8005184:	f200 4604 	addw	r6, r0, #1028	; 0x404
 8005188:	4416      	add	r6, r2
 800518a:	5af2      	ldrh	r2, [r6, r3]
 800518c:	f3c2 0209 	ubfx	r2, r2, #0, #10
 8005190:	52f2      	strh	r2, [r6, r3]
 8005192:	5af2      	ldrh	r2, [r6, r3]
 8005194:	b292      	uxth	r2, r2
 8005196:	f442 4200 	orr.w	r2, r2, #32768	; 0x8000
 800519a:	52f2      	strh	r2, [r6, r3]
      PCD_SET_EP_DBUF1_CNT(hpcd->Instance, ep->num, ep->is_in, 0U);
 800519c:	f8b0 2050 	ldrh.w	r2, [r0, #80]	; 0x50
 80051a0:	f200 400c 	addw	r0, r0, #1036	; 0x40c
 80051a4:	b292      	uxth	r2, r2
 80051a6:	4410      	add	r0, r2
 80051a8:	5ac2      	ldrh	r2, [r0, r3]
 80051aa:	f3c2 0209 	ubfx	r2, r2, #0, #10
 80051ae:	52c2      	strh	r2, [r0, r3]
 80051b0:	5ac2      	ldrh	r2, [r0, r3]
 80051b2:	b292      	uxth	r2, r2
 80051b4:	f442 4200 	orr.w	r2, r2, #32768	; 0x8000
 80051b8:	52c2      	strh	r2, [r0, r3]
      HAL_PCD_DataInStageCallback(hpcd, ep->num);
 80051ba:	4620      	mov	r0, r4
 80051bc:	f002 fa11 	bl	80075e2 <HAL_PCD_DataInStageCallback>
      if ((wEPVal & USB_EP_DTOG_RX) == 0U)
 80051c0:	2f00      	cmp	r7, #0
 80051c2:	f43f af24 	beq.w	800500e <HAL_PCD_IRQHandler+0x562>
      }
    }
  }

  /*enable endpoint IN*/
  PCD_SET_EP_TX_STATUS(hpcd->Instance, ep->num, USB_EP_TX_VALID);
 80051c6:	f895 1028 	ldrb.w	r1, [r5, #40]	; 0x28
 80051ca:	6822      	ldr	r2, [r4, #0]
 80051cc:	f832 3021 	ldrh.w	r3, [r2, r1, lsl #2]
 80051d0:	b29b      	uxth	r3, r3
 80051d2:	f423 43e0 	bic.w	r3, r3, #28672	; 0x7000
 80051d6:	f023 0340 	bic.w	r3, r3, #64	; 0x40
 80051da:	f083 0330 	eor.w	r3, r3, #48	; 0x30
 80051de:	f443 4300 	orr.w	r3, r3, #32768	; 0x8000
 80051e2:	f043 0380 	orr.w	r3, r3, #128	; 0x80
 80051e6:	f822 3021 	strh.w	r3, [r2, r1, lsl #2]

  return HAL_OK;
 80051ea:	e46e      	b.n	8004aca <HAL_PCD_IRQHandler+0x1e>
      PCD_SET_EP_DBUF0_CNT(hpcd->Instance, ep->num, ep->is_in, 0U);
 80051ec:	2a01      	cmp	r2, #1
 80051ee:	d1e4      	bne.n	80051ba <HAL_PCD_IRQHandler+0x70e>
 80051f0:	f8b0 6050 	ldrh.w	r6, [r0, #80]	; 0x50
 80051f4:	010a      	lsls	r2, r1, #4
 80051f6:	fa1f fc86 	uxth.w	ip, r6
 80051fa:	f200 4604 	addw	r6, r0, #1028	; 0x404
 80051fe:	4466      	add	r6, ip
 8005200:	52b3      	strh	r3, [r6, r2]
      PCD_SET_EP_DBUF1_CNT(hpcd->Instance, ep->num, ep->is_in, 0U);
 8005202:	f8b0 6050 	ldrh.w	r6, [r0, #80]	; 0x50
 8005206:	f200 400c 	addw	r0, r0, #1036	; 0x40c
 800520a:	b2b6      	uxth	r6, r6
 800520c:	4430      	add	r0, r6
 800520e:	5283      	strh	r3, [r0, r2]
 8005210:	e7d3      	b.n	80051ba <HAL_PCD_IRQHandler+0x70e>
      if ((wEPVal & USB_EP_DTOG_RX) == 0U)
 8005212:	b96f      	cbnz	r7, 8005230 <HAL_PCD_IRQHandler+0x784>
        PCD_FREE_USER_BUFFER(hpcd->Instance, ep->num, 1U);
 8005214:	f830 3021 	ldrh.w	r3, [r0, r1, lsl #2]
 8005218:	f423 43e0 	bic.w	r3, r3, #28672	; 0x7000
 800521c:	f023 0370 	bic.w	r3, r3, #112	; 0x70
 8005220:	041b      	lsls	r3, r3, #16
 8005222:	0c1b      	lsrs	r3, r3, #16
 8005224:	f443 4340 	orr.w	r3, r3, #49152	; 0xc000
 8005228:	f043 0380 	orr.w	r3, r3, #128	; 0x80
 800522c:	f820 3021 	strh.w	r3, [r0, r1, lsl #2]
      if (ep->xfer_fill_db == 1U)
 8005230:	f04f 0c28 	mov.w	ip, #40	; 0x28
 8005234:	fb0c 4c06 	mla	ip, ip, r6, r4
 8005238:	f89c 304c 	ldrb.w	r3, [ip, #76]	; 0x4c
 800523c:	2b01      	cmp	r3, #1
 800523e:	d1c2      	bne.n	80051c6 <HAL_PCD_IRQHandler+0x71a>
        ep->xfer_count += TxPctSize;
 8005240:	f8dc 3044 	ldr.w	r3, [ip, #68]	; 0x44
        ep->xfer_buff += TxPctSize;
 8005244:	f8dc 703c 	ldr.w	r7, [ip, #60]	; 0x3c
        ep->xfer_count += TxPctSize;
 8005248:	4413      	add	r3, r2
        if (ep->xfer_len_db >= ep->maxpacket)
 800524a:	f8dc e048 	ldr.w	lr, [ip, #72]	; 0x48
        ep->xfer_count += TxPctSize;
 800524e:	f8cc 3044 	str.w	r3, [ip, #68]	; 0x44
        if (ep->xfer_len_db >= ep->maxpacket)
 8005252:	f8dc 3038 	ldr.w	r3, [ip, #56]	; 0x38
        ep->xfer_buff += TxPctSize;
 8005256:	4417      	add	r7, r2
        if (ep->xfer_len_db >= ep->maxpacket)
 8005258:	459e      	cmp	lr, r3
        ep->xfer_buff += TxPctSize;
 800525a:	f8cc 703c 	str.w	r7, [ip, #60]	; 0x3c
        if (ep->xfer_len_db >= ep->maxpacket)
 800525e:	d326      	bcc.n	80052ae <HAL_PCD_IRQHandler+0x802>
          ep->xfer_len_db -= len;
 8005260:	ebae 0203 	sub.w	r2, lr, r3
 8005264:	f8cc 2048 	str.w	r2, [ip, #72]	; 0x48
        PCD_SET_EP_DBUF1_CNT(hpcd->Instance, ep->num, ep->is_in, len);
 8005268:	f895 2029 	ldrb.w	r2, [r5, #41]	; 0x29
 800526c:	fa1f fc83 	uxth.w	ip, r3
 8005270:	2a00      	cmp	r2, #0
 8005272:	d142      	bne.n	80052fa <HAL_PCD_IRQHandler+0x84e>
 8005274:	f8b0 2050 	ldrh.w	r2, [r0, #80]	; 0x50
 8005278:	f200 4e0c 	addw	lr, r0, #1036	; 0x40c
 800527c:	b292      	uxth	r2, r2
 800527e:	4472      	add	r2, lr
 8005280:	0109      	lsls	r1, r1, #4
 8005282:	f832 e001 	ldrh.w	lr, [r2, r1]
 8005286:	2b3e      	cmp	r3, #62	; 0x3e
 8005288:	f3ce 0e09 	ubfx	lr, lr, #0, #10
 800528c:	f822 e001 	strh.w	lr, [r2, r1]
 8005290:	d91b      	bls.n	80052ca <HAL_PCD_IRQHandler+0x81e>
 8005292:	ea4f 1e53 	mov.w	lr, r3, lsr #5
 8005296:	06db      	lsls	r3, r3, #27
 8005298:	5a53      	ldrh	r3, [r2, r1]
 800529a:	bf08      	it	eq
 800529c:	f10e 3eff 	addeq.w	lr, lr, #4294967295
 80052a0:	b29b      	uxth	r3, r3
 80052a2:	ea43 238e 	orr.w	r3, r3, lr, lsl #10
 80052a6:	ea43 0308 	orr.w	r3, r3, r8
 80052aa:	b29b      	uxth	r3, r3
 80052ac:	e012      	b.n	80052d4 <HAL_PCD_IRQHandler+0x828>
        else if (ep->xfer_len_db == 0U)
 80052ae:	f1be 0f00 	cmp.w	lr, #0
 80052b2:	d103      	bne.n	80052bc <HAL_PCD_IRQHandler+0x810>
    if (ep->xfer_len >= TxPctSize)
 80052b4:	4613      	mov	r3, r2
          ep->xfer_fill_db = 0U;
 80052b6:	f88c e04c 	strb.w	lr, [ip, #76]	; 0x4c
 80052ba:	e7d5      	b.n	8005268 <HAL_PCD_IRQHandler+0x7bc>
          ep->xfer_len_db = 0U;
 80052bc:	2300      	movs	r3, #0
 80052be:	f8cc 3048 	str.w	r3, [ip, #72]	; 0x48
          ep->xfer_fill_db = 0;
 80052c2:	f88c 304c 	strb.w	r3, [ip, #76]	; 0x4c
 80052c6:	4673      	mov	r3, lr
 80052c8:	e7ce      	b.n	8005268 <HAL_PCD_IRQHandler+0x7bc>
        PCD_SET_EP_DBUF1_CNT(hpcd->Instance, ep->num, ep->is_in, len);
 80052ca:	b95b      	cbnz	r3, 80052e4 <HAL_PCD_IRQHandler+0x838>
 80052cc:	5a53      	ldrh	r3, [r2, r1]
 80052ce:	b29b      	uxth	r3, r3
 80052d0:	f443 4300 	orr.w	r3, r3, #32768	; 0x8000
 80052d4:	5253      	strh	r3, [r2, r1]
        USB_WritePMA(hpcd->Instance, ep->xfer_buff,  ep->pmaaddr1, (uint16_t)len);
 80052d6:	2128      	movs	r1, #40	; 0x28
 80052d8:	fb01 4606 	mla	r6, r1, r6, r4
 80052dc:	4663      	mov	r3, ip
 80052de:	4639      	mov	r1, r7
 80052e0:	8e72      	ldrh	r2, [r6, #50]	; 0x32
 80052e2:	e707      	b.n	80050f4 <HAL_PCD_IRQHandler+0x648>
        PCD_SET_EP_DBUF1_CNT(hpcd->Instance, ep->num, ep->is_in, len);
 80052e4:	ea4f 0e53 	mov.w	lr, r3, lsr #1
 80052e8:	07db      	lsls	r3, r3, #31
 80052ea:	5a53      	ldrh	r3, [r2, r1]
 80052ec:	bf48      	it	mi
 80052ee:	f10e 0e01 	addmi.w	lr, lr, #1
 80052f2:	b29b      	uxth	r3, r3
 80052f4:	ea43 238e 	orr.w	r3, r3, lr, lsl #10
 80052f8:	e7d7      	b.n	80052aa <HAL_PCD_IRQHandler+0x7fe>
 80052fa:	2a01      	cmp	r2, #1
 80052fc:	d1eb      	bne.n	80052d6 <HAL_PCD_IRQHandler+0x82a>
 80052fe:	f8b0 3050 	ldrh.w	r3, [r0, #80]	; 0x50
 8005302:	b29a      	uxth	r2, r3
 8005304:	f200 430c 	addw	r3, r0, #1036	; 0x40c
 8005308:	4413      	add	r3, r2
 800530a:	010a      	lsls	r2, r1, #4
 800530c:	f823 c002 	strh.w	ip, [r3, r2]
 8005310:	e7e1      	b.n	80052d6 <HAL_PCD_IRQHandler+0x82a>
  if ((wIstr & USB_ISTR_RESET) == USB_ISTR_RESET)
 8005312:	0546      	lsls	r6, r0, #21
 8005314:	d512      	bpl.n	800533c <HAL_PCD_IRQHandler+0x890>
    __HAL_PCD_CLEAR_FLAG(hpcd, USB_ISTR_RESET);
 8005316:	6822      	ldr	r2, [r4, #0]
    HAL_PCD_ResetCallback(hpcd);
 8005318:	4620      	mov	r0, r4
    __HAL_PCD_CLEAR_FLAG(hpcd, USB_ISTR_RESET);
 800531a:	f8b2 3044 	ldrh.w	r3, [r2, #68]	; 0x44
 800531e:	f423 6380 	bic.w	r3, r3, #1024	; 0x400
 8005322:	041b      	lsls	r3, r3, #16
 8005324:	0c1b      	lsrs	r3, r3, #16
 8005326:	f8a2 3044 	strh.w	r3, [r2, #68]	; 0x44
    HAL_PCD_ResetCallback(hpcd);
 800532a:	f002 f966 	bl	80075fa <HAL_PCD_ResetCallback>
    (void)HAL_PCD_SetAddress(hpcd, 0U);
 800532e:	4629      	mov	r1, r5
 8005330:	4620      	mov	r0, r4
}
 8005332:	b005      	add	sp, #20
 8005334:	e8bd 4ff0 	ldmia.w	sp!, {r4, r5, r6, r7, r8, r9, sl, fp, lr}
    (void)HAL_PCD_SetAddress(hpcd, 0U);
 8005338:	f7ff bba4 	b.w	8004a84 <HAL_PCD_SetAddress>
  if ((wIstr & USB_ISTR_PMAOVR) == USB_ISTR_PMAOVR)
 800533c:	0441      	lsls	r1, r0, #17
 800533e:	d50a      	bpl.n	8005356 <HAL_PCD_IRQHandler+0x8aa>
    __HAL_PCD_CLEAR_FLAG(hpcd, USB_ISTR_PMAOVR);
 8005340:	6822      	ldr	r2, [r4, #0]
 8005342:	f8b2 3044 	ldrh.w	r3, [r2, #68]	; 0x44
 8005346:	f423 4380 	bic.w	r3, r3, #16384	; 0x4000
    __HAL_PCD_CLEAR_FLAG(hpcd, USB_ISTR_ESOF);
 800534a:	041b      	lsls	r3, r3, #16
 800534c:	0c1b      	lsrs	r3, r3, #16
 800534e:	f8a2 3044 	strh.w	r3, [r2, #68]	; 0x44
    return;
 8005352:	f7ff bbbf 	b.w	8004ad4 <HAL_PCD_IRQHandler+0x28>
  if ((wIstr & USB_ISTR_ERR) == USB_ISTR_ERR)
 8005356:	0482      	lsls	r2, r0, #18
 8005358:	d505      	bpl.n	8005366 <HAL_PCD_IRQHandler+0x8ba>
    __HAL_PCD_CLEAR_FLAG(hpcd, USB_ISTR_ERR);
 800535a:	6822      	ldr	r2, [r4, #0]
 800535c:	f8b2 3044 	ldrh.w	r3, [r2, #68]	; 0x44
 8005360:	f423 5300 	bic.w	r3, r3, #8192	; 0x2000
 8005364:	e7f1      	b.n	800534a <HAL_PCD_IRQHandler+0x89e>
  if ((wIstr & USB_ISTR_WKUP) == USB_ISTR_WKUP)
 8005366:	04c3      	lsls	r3, r0, #19
 8005368:	d519      	bpl.n	800539e <HAL_PCD_IRQHandler+0x8f2>
    hpcd->Instance->CNTR &= (uint16_t) ~(USB_CNTR_LP_MODE);
 800536a:	6822      	ldr	r2, [r4, #0]
    HAL_PCD_ResumeCallback(hpcd);
 800536c:	4620      	mov	r0, r4
    hpcd->Instance->CNTR &= (uint16_t) ~(USB_CNTR_LP_MODE);
 800536e:	f8b2 3040 	ldrh.w	r3, [r2, #64]	; 0x40
 8005372:	f023 0304 	bic.w	r3, r3, #4
 8005376:	041b      	lsls	r3, r3, #16
 8005378:	0c1b      	lsrs	r3, r3, #16
 800537a:	f8a2 3040 	strh.w	r3, [r2, #64]	; 0x40
    hpcd->Instance->CNTR &= (uint16_t) ~(USB_CNTR_FSUSP);
 800537e:	f8b2 3040 	ldrh.w	r3, [r2, #64]	; 0x40
 8005382:	f023 0308 	bic.w	r3, r3, #8
 8005386:	041b      	lsls	r3, r3, #16
 8005388:	0c1b      	lsrs	r3, r3, #16
 800538a:	f8a2 3040 	strh.w	r3, [r2, #64]	; 0x40
    HAL_PCD_ResumeCallback(hpcd);
 800538e:	f002 f957 	bl	8007640 <HAL_PCD_ResumeCallback>
    __HAL_PCD_CLEAR_FLAG(hpcd, USB_ISTR_WKUP);
 8005392:	6822      	ldr	r2, [r4, #0]
 8005394:	f8b2 3044 	ldrh.w	r3, [r2, #68]	; 0x44
 8005398:	f423 5380 	bic.w	r3, r3, #4096	; 0x1000
 800539c:	e7d5      	b.n	800534a <HAL_PCD_IRQHandler+0x89e>
  if ((wIstr & USB_ISTR_SUSP) == USB_ISTR_SUSP)
 800539e:	0507      	lsls	r7, r0, #20
 80053a0:	d548      	bpl.n	8005434 <HAL_PCD_IRQHandler+0x988>
 80053a2:	4668      	mov	r0, sp
      store_ep[i] = PCD_GET_ENDPOINT(hpcd->Instance, i);
 80053a4:	6822      	ldr	r2, [r4, #0]
 80053a6:	4606      	mov	r6, r0
 80053a8:	4611      	mov	r1, r2
 80053aa:	4613      	mov	r3, r2
 80053ac:	f102 0520 	add.w	r5, r2, #32
 80053b0:	f833 7b04 	ldrh.w	r7, [r3], #4
    for (i = 0U; i < 8U; i++)
 80053b4:	429d      	cmp	r5, r3
      store_ep[i] = PCD_GET_ENDPOINT(hpcd->Instance, i);
 80053b6:	f826 7b02 	strh.w	r7, [r6], #2
    for (i = 0U; i < 8U; i++)
 80053ba:	d1f9      	bne.n	80053b0 <HAL_PCD_IRQHandler+0x904>
    hpcd->Instance->CNTR |= (uint16_t)(USB_CNTR_FRES);
 80053bc:	f8b2 3040 	ldrh.w	r3, [r2, #64]	; 0x40
 80053c0:	b29b      	uxth	r3, r3
 80053c2:	f043 0301 	orr.w	r3, r3, #1
 80053c6:	f8a2 3040 	strh.w	r3, [r2, #64]	; 0x40
    hpcd->Instance->CNTR &= (uint16_t)(~USB_CNTR_FRES);
 80053ca:	f8b2 3040 	ldrh.w	r3, [r2, #64]	; 0x40
 80053ce:	f023 0301 	bic.w	r3, r3, #1
 80053d2:	041b      	lsls	r3, r3, #16
 80053d4:	0c1b      	lsrs	r3, r3, #16
 80053d6:	f8a2 3040 	strh.w	r3, [r2, #64]	; 0x40
    while ((hpcd->Instance->ISTR & USB_ISTR_RESET) == 0U)
 80053da:	f8b2 3044 	ldrh.w	r3, [r2, #68]	; 0x44
 80053de:	055e      	lsls	r6, r3, #21
 80053e0:	d5fb      	bpl.n	80053da <HAL_PCD_IRQHandler+0x92e>
    __HAL_PCD_CLEAR_FLAG(hpcd, USB_ISTR_RESET);
 80053e2:	f8b2 3044 	ldrh.w	r3, [r2, #68]	; 0x44
 80053e6:	f423 6380 	bic.w	r3, r3, #1024	; 0x400
 80053ea:	041b      	lsls	r3, r3, #16
 80053ec:	0c1b      	lsrs	r3, r3, #16
 80053ee:	f8a2 3044 	strh.w	r3, [r2, #68]	; 0x44
      PCD_SET_ENDPOINT(hpcd->Instance, i, store_ep[i]);
 80053f2:	f830 3b02 	ldrh.w	r3, [r0], #2
 80053f6:	f821 3b04 	strh.w	r3, [r1], #4
    for (i = 0U; i < 8U; i++)
 80053fa:	428d      	cmp	r5, r1
 80053fc:	d1f9      	bne.n	80053f2 <HAL_PCD_IRQHandler+0x946>
    hpcd->Instance->CNTR |= (uint16_t)USB_CNTR_FSUSP;
 80053fe:	f8b2 3040 	ldrh.w	r3, [r2, #64]	; 0x40
    HAL_PCD_SuspendCallback(hpcd);
 8005402:	4620      	mov	r0, r4
    hpcd->Instance->CNTR |= (uint16_t)USB_CNTR_FSUSP;
 8005404:	b29b      	uxth	r3, r3
 8005406:	f043 0308 	orr.w	r3, r3, #8
 800540a:	f8a2 3040 	strh.w	r3, [r2, #64]	; 0x40
    __HAL_PCD_CLEAR_FLAG(hpcd, USB_ISTR_SUSP);
 800540e:	f8b2 3044 	ldrh.w	r3, [r2, #68]	; 0x44
 8005412:	f423 6300 	bic.w	r3, r3, #2048	; 0x800
 8005416:	041b      	lsls	r3, r3, #16
 8005418:	0c1b      	lsrs	r3, r3, #16
 800541a:	f8a2 3044 	strh.w	r3, [r2, #68]	; 0x44
    hpcd->Instance->CNTR |= (uint16_t)USB_CNTR_LP_MODE;
 800541e:	f8b2 3040 	ldrh.w	r3, [r2, #64]	; 0x40
 8005422:	b29b      	uxth	r3, r3
 8005424:	f043 0304 	orr.w	r3, r3, #4
 8005428:	f8a2 3040 	strh.w	r3, [r2, #64]	; 0x40
    HAL_PCD_SuspendCallback(hpcd);
 800542c:	f002 f8f8 	bl	8007620 <HAL_PCD_SuspendCallback>
    return;
 8005430:	f7ff bb50 	b.w	8004ad4 <HAL_PCD_IRQHandler+0x28>
  if ((wIstr & USB_ISTR_SOF) == USB_ISTR_SOF)
 8005434:	0582      	lsls	r2, r0, #22
 8005436:	d50d      	bpl.n	8005454 <HAL_PCD_IRQHandler+0x9a8>
    __HAL_PCD_CLEAR_FLAG(hpcd, USB_ISTR_SOF);
 8005438:	6822      	ldr	r2, [r4, #0]
    HAL_PCD_SOFCallback(hpcd);
 800543a:	4620      	mov	r0, r4
    __HAL_PCD_CLEAR_FLAG(hpcd, USB_ISTR_SOF);
 800543c:	f8b2 3044 	ldrh.w	r3, [r2, #68]	; 0x44
 8005440:	f423 7300 	bic.w	r3, r3, #512	; 0x200
 8005444:	041b      	lsls	r3, r3, #16
 8005446:	0c1b      	lsrs	r3, r3, #16
 8005448:	f8a2 3044 	strh.w	r3, [r2, #68]	; 0x44
    HAL_PCD_SOFCallback(hpcd);
 800544c:	f002 f8d1 	bl	80075f2 <HAL_PCD_SOFCallback>
    return;
 8005450:	f7ff bb40 	b.w	8004ad4 <HAL_PCD_IRQHandler+0x28>
  if ((wIstr & USB_ISTR_ESOF) == USB_ISTR_ESOF)
 8005454:	05c3      	lsls	r3, r0, #23
 8005456:	f57f ab3d 	bpl.w	8004ad4 <HAL_PCD_IRQHandler+0x28>
    __HAL_PCD_CLEAR_FLAG(hpcd, USB_ISTR_ESOF);
 800545a:	6822      	ldr	r2, [r4, #0]
 800545c:	f8b2 3044 	ldrh.w	r3, [r2, #68]	; 0x44
 8005460:	f423 7380 	bic.w	r3, r3, #256	; 0x100
 8005464:	e771      	b.n	800534a <HAL_PCD_IRQHandler+0x89e>
 8005466:	bf00      	nop

08005468 <HAL_PCD_EP_Open>:
  if ((ep_addr & 0x80U) == 0x80U)
 8005468:	f011 0f80 	tst.w	r1, #128	; 0x80
{
 800546c:	b570      	push	{r4, r5, r6, lr}
 800546e:	4605      	mov	r5, r0
 8005470:	f04f 0428 	mov.w	r4, #40	; 0x28
 8005474:	f001 0007 	and.w	r0, r1, #7
  if ((ep_addr & 0x80U) == 0x80U)
 8005478:	d01a      	beq.n	80054b0 <HAL_PCD_EP_Open+0x48>
    ep->is_in = 1U;
 800547a:	2601      	movs	r6, #1
    ep = &hpcd->IN_ep[ep_addr & EP_ADDR_MSK];
 800547c:	fb00 4104 	mla	r1, r0, r4, r4
 8005480:	4429      	add	r1, r5
    ep->is_in = 1U;
 8005482:	704e      	strb	r6, [r1, #1]
  if (ep_type == EP_TYPE_BULK)
 8005484:	2b02      	cmp	r3, #2
  ep->type = ep_type;
 8005486:	70cb      	strb	r3, [r1, #3]
    ep->data_pid_start = 0U;
 8005488:	bf08      	it	eq
 800548a:	2300      	moveq	r3, #0
  ep->num = ep_addr & EP_ADDR_MSK;
 800548c:	7008      	strb	r0, [r1, #0]
    ep->data_pid_start = 0U;
 800548e:	bf08      	it	eq
 8005490:	710b      	strbeq	r3, [r1, #4]
  ep->maxpacket = ep_mps;
 8005492:	610a      	str	r2, [r1, #16]
  __HAL_LOCK(hpcd);
 8005494:	f895 32a8 	ldrb.w	r3, [r5, #680]	; 0x2a8
 8005498:	2b01      	cmp	r3, #1
 800549a:	d012      	beq.n	80054c2 <HAL_PCD_EP_Open+0x5a>
 800549c:	2301      	movs	r3, #1
  (void)USB_ActivateEndpoint(hpcd->Instance, ep);
 800549e:	6828      	ldr	r0, [r5, #0]
  __HAL_LOCK(hpcd);
 80054a0:	f885 32a8 	strb.w	r3, [r5, #680]	; 0x2a8
  (void)USB_ActivateEndpoint(hpcd->Instance, ep);
 80054a4:	f000 fd66 	bl	8005f74 <USB_ActivateEndpoint>
  __HAL_UNLOCK(hpcd);
 80054a8:	2000      	movs	r0, #0
 80054aa:	f885 02a8 	strb.w	r0, [r5, #680]	; 0x2a8
}
 80054ae:	bd70      	pop	{r4, r5, r6, pc}
    ep->is_in = 0U;
 80054b0:	2600      	movs	r6, #0
    ep = &hpcd->OUT_ep[ep_addr & EP_ADDR_MSK];
 80054b2:	4344      	muls	r4, r0
 80054b4:	f504 71b4 	add.w	r1, r4, #360	; 0x168
    ep->is_in = 0U;
 80054b8:	442c      	add	r4, r5
    ep = &hpcd->OUT_ep[ep_addr & EP_ADDR_MSK];
 80054ba:	4429      	add	r1, r5
    ep->is_in = 0U;
 80054bc:	f884 6169 	strb.w	r6, [r4, #361]	; 0x169
 80054c0:	e7e0      	b.n	8005484 <HAL_PCD_EP_Open+0x1c>
  __HAL_LOCK(hpcd);
 80054c2:	2002      	movs	r0, #2
 80054c4:	e7f3      	b.n	80054ae <HAL_PCD_EP_Open+0x46>

080054c6 <HAL_PCD_EP_Close>:
  if ((ep_addr & 0x80U) == 0x80U)
 80054c6:	f011 0f80 	tst.w	r1, #128	; 0x80
{
 80054ca:	b510      	push	{r4, lr}
 80054cc:	f04f 0328 	mov.w	r3, #40	; 0x28
 80054d0:	4604      	mov	r4, r0
 80054d2:	f001 0207 	and.w	r2, r1, #7
  if ((ep_addr & 0x80U) == 0x80U)
 80054d6:	d013      	beq.n	8005500 <HAL_PCD_EP_Close+0x3a>
    ep = &hpcd->IN_ep[ep_addr & EP_ADDR_MSK];
 80054d8:	fb02 3103 	mla	r1, r2, r3, r3
 80054dc:	4401      	add	r1, r0
    ep->is_in = 1U;
 80054de:	2001      	movs	r0, #1
 80054e0:	7048      	strb	r0, [r1, #1]
  ep->num = ep_addr & EP_ADDR_MSK;
 80054e2:	700a      	strb	r2, [r1, #0]
  __HAL_LOCK(hpcd);
 80054e4:	f894 32a8 	ldrb.w	r3, [r4, #680]	; 0x2a8
 80054e8:	2b01      	cmp	r3, #1
 80054ea:	d012      	beq.n	8005512 <HAL_PCD_EP_Close+0x4c>
 80054ec:	2301      	movs	r3, #1
  (void)USB_DeactivateEndpoint(hpcd->Instance, ep);
 80054ee:	6820      	ldr	r0, [r4, #0]
  __HAL_LOCK(hpcd);
 80054f0:	f884 32a8 	strb.w	r3, [r4, #680]	; 0x2a8
  (void)USB_DeactivateEndpoint(hpcd->Instance, ep);
 80054f4:	f000 fea0 	bl	8006238 <USB_DeactivateEndpoint>
  __HAL_UNLOCK(hpcd);
 80054f8:	2000      	movs	r0, #0
 80054fa:	f884 02a8 	strb.w	r0, [r4, #680]	; 0x2a8
}
 80054fe:	bd10      	pop	{r4, pc}
    ep = &hpcd->OUT_ep[ep_addr & EP_ADDR_MSK];
 8005500:	4353      	muls	r3, r2
 8005502:	f503 71b4 	add.w	r1, r3, #360	; 0x168
 8005506:	4401      	add	r1, r0
    ep->is_in = 0U;
 8005508:	4403      	add	r3, r0
 800550a:	2000      	movs	r0, #0
 800550c:	f883 0169 	strb.w	r0, [r3, #361]	; 0x169
 8005510:	e7e7      	b.n	80054e2 <HAL_PCD_EP_Close+0x1c>
  __HAL_LOCK(hpcd);
 8005512:	2002      	movs	r0, #2
 8005514:	e7f3      	b.n	80054fe <HAL_PCD_EP_Close+0x38>

08005516 <HAL_PCD_EP_Receive>:
{
 8005516:	b570      	push	{r4, r5, r6, lr}
 8005518:	f001 0507 	and.w	r5, r1, #7
  ep->xfer_buff = pBuf;
 800551c:	2128      	movs	r1, #40	; 0x28
  ep->xfer_count = 0U;
 800551e:	2600      	movs	r6, #0
  ep->xfer_buff = pBuf;
 8005520:	4369      	muls	r1, r5
 8005522:	1844      	adds	r4, r0, r1
  ep = &hpcd->OUT_ep[ep_addr & EP_ADDR_MSK];
 8005524:	f501 71b4 	add.w	r1, r1, #360	; 0x168
  (void)USB_EPStartXfer(hpcd->Instance, ep);
 8005528:	4401      	add	r1, r0
  ep->xfer_len = len;
 800552a:	e9c4 235f 	strd	r2, r3, [r4, #380]	; 0x17c
  ep->xfer_count = 0U;
 800552e:	f8c4 6184 	str.w	r6, [r4, #388]	; 0x184
  ep->is_in = 0U;
 8005532:	f884 6169 	strb.w	r6, [r4, #361]	; 0x169
  ep->num = ep_addr & EP_ADDR_MSK;
 8005536:	f884 5168 	strb.w	r5, [r4, #360]	; 0x168
  (void)USB_EPStartXfer(hpcd->Instance, ep);
 800553a:	6800      	ldr	r0, [r0, #0]
 800553c:	f000 ffd6 	bl	80064ec <USB_EPStartXfer>
}
 8005540:	4630      	mov	r0, r6
 8005542:	bd70      	pop	{r4, r5, r6, pc}

08005544 <HAL_PCD_EP_GetRxCount>:
  return hpcd->OUT_ep[ep_addr & EP_ADDR_MSK].xfer_count;
 8005544:	2328      	movs	r3, #40	; 0x28
 8005546:	f001 0107 	and.w	r1, r1, #7
 800554a:	fb03 0001 	mla	r0, r3, r1, r0
}
 800554e:	f8d0 0184 	ldr.w	r0, [r0, #388]	; 0x184
 8005552:	4770      	bx	lr

08005554 <HAL_PCD_EP_Transmit>:
{
 8005554:	b570      	push	{r4, r5, r6, lr}
 8005556:	f001 0507 	and.w	r5, r1, #7
  ep->xfer_buff = pBuf;
 800555a:	2128      	movs	r1, #40	; 0x28
 800555c:	fb01 0405 	mla	r4, r1, r5, r0
  ep->xfer_count = 0U;
 8005560:	2600      	movs	r6, #0
  ep->xfer_len = len;
 8005562:	e9c4 230f 	strd	r2, r3, [r4, #60]	; 0x3c
  ep->xfer_fill_db = 1U;
 8005566:	2201      	movs	r2, #1
  ep = &hpcd->IN_ep[ep_addr & EP_ADDR_MSK];
 8005568:	fb05 1101 	mla	r1, r5, r1, r1
  ep->xfer_fill_db = 1U;
 800556c:	f884 204c 	strb.w	r2, [r4, #76]	; 0x4c
  (void)USB_EPStartXfer(hpcd->Instance, ep);
 8005570:	4401      	add	r1, r0
  ep->xfer_len_db = len;
 8005572:	64a3      	str	r3, [r4, #72]	; 0x48
  ep->xfer_count = 0U;
 8005574:	6466      	str	r6, [r4, #68]	; 0x44
  ep->is_in = 1U;
 8005576:	f884 2029 	strb.w	r2, [r4, #41]	; 0x29
  ep->num = ep_addr & EP_ADDR_MSK;
 800557a:	f884 5028 	strb.w	r5, [r4, #40]	; 0x28
  (void)USB_EPStartXfer(hpcd->Instance, ep);
 800557e:	6800      	ldr	r0, [r0, #0]
 8005580:	f000 ffb4 	bl	80064ec <USB_EPStartXfer>
}
 8005584:	4630      	mov	r0, r6
 8005586:	bd70      	pop	{r4, r5, r6, pc}

08005588 <HAL_PCD_EP_SetStall>:
{
 8005588:	b538      	push	{r3, r4, r5, lr}
  if (((uint32_t)ep_addr & EP_ADDR_MSK) > hpcd->Init.dev_endpoints)
 800558a:	6843      	ldr	r3, [r0, #4]
 800558c:	f001 0507 	and.w	r5, r1, #7
 8005590:	429d      	cmp	r5, r3
{
 8005592:	4604      	mov	r4, r0
  if (((uint32_t)ep_addr & EP_ADDR_MSK) > hpcd->Init.dev_endpoints)
 8005594:	d828      	bhi.n	80055e8 <HAL_PCD_EP_SetStall+0x60>
  if ((0x80U & ep_addr) == 0x80U)
 8005596:	f011 0f80 	tst.w	r1, #128	; 0x80
 800559a:	f04f 0328 	mov.w	r3, #40	; 0x28
 800559e:	d01a      	beq.n	80055d6 <HAL_PCD_EP_SetStall+0x4e>
    ep->is_in = 1U;
 80055a0:	2201      	movs	r2, #1
    ep = &hpcd->IN_ep[ep_addr & EP_ADDR_MSK];
 80055a2:	fb05 3103 	mla	r1, r5, r3, r3
 80055a6:	4401      	add	r1, r0
    ep->is_in = 1U;
 80055a8:	704a      	strb	r2, [r1, #1]
  ep->is_stall = 1U;
 80055aa:	2301      	movs	r3, #1
  ep->num = ep_addr & EP_ADDR_MSK;
 80055ac:	700d      	strb	r5, [r1, #0]
  ep->is_stall = 1U;
 80055ae:	708b      	strb	r3, [r1, #2]
  __HAL_LOCK(hpcd);
 80055b0:	f894 22a8 	ldrb.w	r2, [r4, #680]	; 0x2a8
 80055b4:	429a      	cmp	r2, r3
 80055b6:	d019      	beq.n	80055ec <HAL_PCD_EP_SetStall+0x64>
  (void)USB_EPSetStall(hpcd->Instance, ep);
 80055b8:	6820      	ldr	r0, [r4, #0]
  __HAL_LOCK(hpcd);
 80055ba:	f884 32a8 	strb.w	r3, [r4, #680]	; 0x2a8
  (void)USB_EPSetStall(hpcd->Instance, ep);
 80055be:	f000 ff0c 	bl	80063da <USB_EPSetStall>
  if ((ep_addr & EP_ADDR_MSK) == 0U)
 80055c2:	b925      	cbnz	r5, 80055ce <HAL_PCD_EP_SetStall+0x46>
    (void)USB_EP0_OutStart(hpcd->Instance, (uint8_t *)hpcd->Setup);
 80055c4:	6820      	ldr	r0, [r4, #0]
 80055c6:	f504 712c 	add.w	r1, r4, #688	; 0x2b0
 80055ca:	f000 ff7d 	bl	80064c8 <USB_EP0_OutStart>
  __HAL_UNLOCK(hpcd);
 80055ce:	2000      	movs	r0, #0
 80055d0:	f884 02a8 	strb.w	r0, [r4, #680]	; 0x2a8
}
 80055d4:	bd38      	pop	{r3, r4, r5, pc}
    ep->is_in = 0U;
 80055d6:	2200      	movs	r2, #0
    ep = &hpcd->OUT_ep[ep_addr];
 80055d8:	434b      	muls	r3, r1
 80055da:	f503 71b4 	add.w	r1, r3, #360	; 0x168
    ep->is_in = 0U;
 80055de:	4403      	add	r3, r0
    ep = &hpcd->OUT_ep[ep_addr];
 80055e0:	4401      	add	r1, r0
    ep->is_in = 0U;
 80055e2:	f883 2169 	strb.w	r2, [r3, #361]	; 0x169
 80055e6:	e7e0      	b.n	80055aa <HAL_PCD_EP_SetStall+0x22>
    return HAL_ERROR;
 80055e8:	2001      	movs	r0, #1
 80055ea:	e7f3      	b.n	80055d4 <HAL_PCD_EP_SetStall+0x4c>
  __HAL_LOCK(hpcd);
 80055ec:	2002      	movs	r0, #2
 80055ee:	e7f1      	b.n	80055d4 <HAL_PCD_EP_SetStall+0x4c>

080055f0 <HAL_PCD_EP_ClrStall>:
{
 80055f0:	b538      	push	{r3, r4, r5, lr}
  if (((uint32_t)ep_addr & 0x0FU) > hpcd->Init.dev_endpoints)
 80055f2:	6843      	ldr	r3, [r0, #4]
 80055f4:	f001 020f 	and.w	r2, r1, #15
 80055f8:	429a      	cmp	r2, r3
{
 80055fa:	4604      	mov	r4, r0
  if (((uint32_t)ep_addr & 0x0FU) > hpcd->Init.dev_endpoints)
 80055fc:	d825      	bhi.n	800564a <HAL_PCD_EP_ClrStall+0x5a>
  if ((0x80U & ep_addr) == 0x80U)
 80055fe:	f011 0f80 	tst.w	r1, #128	; 0x80
 8005602:	f04f 0328 	mov.w	r3, #40	; 0x28
 8005606:	f001 0207 	and.w	r2, r1, #7
 800560a:	d015      	beq.n	8005638 <HAL_PCD_EP_ClrStall+0x48>
    ep = &hpcd->IN_ep[ep_addr & EP_ADDR_MSK];
 800560c:	fb02 3103 	mla	r1, r2, r3, r3
 8005610:	4401      	add	r1, r0
    ep->is_in = 1U;
 8005612:	2001      	movs	r0, #1
 8005614:	7048      	strb	r0, [r1, #1]
  ep->is_stall = 0U;
 8005616:	2500      	movs	r5, #0
  ep->num = ep_addr & EP_ADDR_MSK;
 8005618:	700a      	strb	r2, [r1, #0]
  ep->is_stall = 0U;
 800561a:	708d      	strb	r5, [r1, #2]
  __HAL_LOCK(hpcd);
 800561c:	f894 32a8 	ldrb.w	r3, [r4, #680]	; 0x2a8
 8005620:	2b01      	cmp	r3, #1
 8005622:	d014      	beq.n	800564e <HAL_PCD_EP_ClrStall+0x5e>
 8005624:	2301      	movs	r3, #1
  (void)USB_EPClearStall(hpcd->Instance, ep);
 8005626:	6820      	ldr	r0, [r4, #0]
  __HAL_LOCK(hpcd);
 8005628:	f884 32a8 	strb.w	r3, [r4, #680]	; 0x2a8
  (void)USB_EPClearStall(hpcd->Instance, ep);
 800562c:	f000 fef5 	bl	800641a <USB_EPClearStall>
  return HAL_OK;
 8005630:	4628      	mov	r0, r5
  __HAL_UNLOCK(hpcd);
 8005632:	f884 52a8 	strb.w	r5, [r4, #680]	; 0x2a8
}
 8005636:	bd38      	pop	{r3, r4, r5, pc}
    ep = &hpcd->OUT_ep[ep_addr & EP_ADDR_MSK];
 8005638:	4353      	muls	r3, r2
 800563a:	f503 71b4 	add.w	r1, r3, #360	; 0x168
 800563e:	4401      	add	r1, r0
    ep->is_in = 0U;
 8005640:	4403      	add	r3, r0
 8005642:	2000      	movs	r0, #0
 8005644:	f883 0169 	strb.w	r0, [r3, #361]	; 0x169
 8005648:	e7e5      	b.n	8005616 <HAL_PCD_EP_ClrStall+0x26>
    return HAL_ERROR;
 800564a:	2001      	movs	r0, #1
 800564c:	e7f3      	b.n	8005636 <HAL_PCD_EP_ClrStall+0x46>
  __HAL_LOCK(hpcd);
 800564e:	2002      	movs	r0, #2
 8005650:	e7f1      	b.n	8005636 <HAL_PCD_EP_ClrStall+0x46>

08005652 <HAL_PCDEx_PMAConfig>:
  * @retval HAL status
  */

HAL_StatusTypeDef  HAL_PCDEx_PMAConfig(PCD_HandleTypeDef *hpcd, uint16_t ep_addr,
                                       uint16_t ep_kind, uint32_t pmaadress)
{
 8005652:	b510      	push	{r4, lr}
 8005654:	2428      	movs	r4, #40	; 0x28
  PCD_EPTypeDef *ep;

  /* initialize ep structure*/
  if ((0x80U & ep_addr) == 0x80U)
 8005656:	f011 0f80 	tst.w	r1, #128	; 0x80
  {
    ep = &hpcd->IN_ep[ep_addr & EP_ADDR_MSK];
 800565a:	bf1b      	ittet	ne
 800565c:	f001 0107 	andne.w	r1, r1, #7
 8005660:	fb01 4104 	mlane	r1, r1, r4, r4
  }
  else
  {
    ep = &hpcd->OUT_ep[ep_addr];
 8005664:	fb04 0001 	mlaeq	r0, r4, r1, r0
    ep = &hpcd->IN_ep[ep_addr & EP_ADDR_MSK];
 8005668:	1840      	addne	r0, r0, r1
    ep = &hpcd->OUT_ep[ep_addr];
 800566a:	bf08      	it	eq
 800566c:	f500 70b4 	addeq.w	r0, r0, #360	; 0x168
  if (ep_kind == PCD_SNG_BUF)
  {
    /* Single Buffer */
    ep->doublebuffer = 0U;
    /* Configure the PMA */
    ep->pmaadress = (uint16_t)pmaadress;
 8005670:	b299      	uxth	r1, r3
  if (ep_kind == PCD_SNG_BUF)
 8005672:	b91a      	cbnz	r2, 800567c <HAL_PCDEx_PMAConfig+0x2a>
    ep->doublebuffer = 0U;
 8005674:	7302      	strb	r2, [r0, #12]
    ep->pmaadress = (uint16_t)pmaadress;
 8005676:	80c1      	strh	r1, [r0, #6]
    ep->pmaaddr1 = (uint16_t)((pmaadress & 0xFFFF0000U) >> 16);
  }
#endif /* (USE_USB_DOUBLE_BUFFER == 1U) */

  return HAL_OK;
}
 8005678:	2000      	movs	r0, #0
 800567a:	bd10      	pop	{r4, pc}
    ep->doublebuffer = 1U;
 800567c:	2201      	movs	r2, #1
    ep->pmaaddr0 = (uint16_t)(pmaadress & 0xFFFFU);
 800567e:	6083      	str	r3, [r0, #8]
    ep->doublebuffer = 1U;
 8005680:	7302      	strb	r2, [r0, #12]
    ep->pmaaddr1 = (uint16_t)((pmaadress & 0xFFFF0000U) >> 16);
 8005682:	e7f9      	b.n	8005678 <HAL_PCDEx_PMAConfig+0x26>

08005684 <HAL_RCC_OscConfig>:
  *         supported by this macro. User should request a transition to HSE Off
  *         first and then HSE On or HSE Bypass.
  * @retval HAL status
  */
HAL_StatusTypeDef HAL_RCC_OscConfig(RCC_OscInitTypeDef  *RCC_OscInitStruct)
{
 8005684:	e92d 41f3 	stmdb	sp!, {r0, r1, r4, r5, r6, r7, r8, lr}
  uint32_t tickstart;
  uint32_t pll_config;

  /* Check Null pointer */
  if (RCC_OscInitStruct == NULL)
 8005688:	4605      	mov	r5, r0
 800568a:	b338      	cbz	r0, 80056dc <HAL_RCC_OscConfig+0x58>

  /* Check the parameters */
  assert_param(IS_RCC_OSCILLATORTYPE(RCC_OscInitStruct->OscillatorType));

  /*------------------------------- HSE Configuration ------------------------*/
  if (((RCC_OscInitStruct->OscillatorType) & RCC_OSCILLATORTYPE_HSE) == RCC_OSCILLATORTYPE_HSE)
 800568c:	6803      	ldr	r3, [r0, #0]
 800568e:	07db      	lsls	r3, r3, #31
 8005690:	d410      	bmi.n	80056b4 <HAL_RCC_OscConfig+0x30>
        }
      }
    }
  }
  /*----------------------------- HSI Configuration --------------------------*/
  if (((RCC_OscInitStruct->OscillatorType) & RCC_OSCILLATORTYPE_HSI) == RCC_OSCILLATORTYPE_HSI)
 8005692:	682b      	ldr	r3, [r5, #0]
 8005694:	079f      	lsls	r7, r3, #30
 8005696:	d45e      	bmi.n	8005756 <HAL_RCC_OscConfig+0xd2>
        }
      }
    }
  }
  /*------------------------------ LSI Configuration -------------------------*/
  if (((RCC_OscInitStruct->OscillatorType) & RCC_OSCILLATORTYPE_LSI) == RCC_OSCILLATORTYPE_LSI)
 8005698:	682b      	ldr	r3, [r5, #0]
 800569a:	0719      	lsls	r1, r3, #28
 800569c:	f100 8095 	bmi.w	80057ca <HAL_RCC_OscConfig+0x146>
        }
      }
    }
  }
  /*------------------------------ LSE Configuration -------------------------*/
  if (((RCC_OscInitStruct->OscillatorType) & RCC_OSCILLATORTYPE_LSE) == RCC_OSCILLATORTYPE_LSE)
 80056a0:	682b      	ldr	r3, [r5, #0]
 80056a2:	075a      	lsls	r2, r3, #29
 80056a4:	f100 80c1 	bmi.w	800582a <HAL_RCC_OscConfig+0x1a6>

#endif /* RCC_CR_PLL2ON */
  /*-------------------------------- PLL Configuration -----------------------*/
  /* Check the parameters */
  assert_param(IS_RCC_PLL(RCC_OscInitStruct->PLL.PLLState));
  if ((RCC_OscInitStruct->PLL.PLLState) != RCC_PLL_NONE)
 80056a8:	69e8      	ldr	r0, [r5, #28]
 80056aa:	2800      	cmp	r0, #0
 80056ac:	f040 812c 	bne.w	8005908 <HAL_RCC_OscConfig+0x284>
        }
      }
    }
  }

  return HAL_OK;
 80056b0:	2000      	movs	r0, #0
 80056b2:	e029      	b.n	8005708 <HAL_RCC_OscConfig+0x84>
    if ((__HAL_RCC_GET_SYSCLK_SOURCE() == RCC_SYSCLKSOURCE_STATUS_HSE)
 80056b4:	4c90      	ldr	r4, [pc, #576]	; (80058f8 <HAL_RCC_OscConfig+0x274>)
 80056b6:	6863      	ldr	r3, [r4, #4]
 80056b8:	f003 030c 	and.w	r3, r3, #12
 80056bc:	2b04      	cmp	r3, #4
 80056be:	d007      	beq.n	80056d0 <HAL_RCC_OscConfig+0x4c>
        || ((__HAL_RCC_GET_SYSCLK_SOURCE() == RCC_SYSCLKSOURCE_STATUS_PLLCLK) && (__HAL_RCC_GET_PLL_OSCSOURCE() == RCC_PLLSOURCE_HSE)))
 80056c0:	6863      	ldr	r3, [r4, #4]
 80056c2:	f003 030c 	and.w	r3, r3, #12
 80056c6:	2b08      	cmp	r3, #8
 80056c8:	d10a      	bne.n	80056e0 <HAL_RCC_OscConfig+0x5c>
 80056ca:	6863      	ldr	r3, [r4, #4]
 80056cc:	03de      	lsls	r6, r3, #15
 80056ce:	d507      	bpl.n	80056e0 <HAL_RCC_OscConfig+0x5c>
      if ((__HAL_RCC_GET_FLAG(RCC_FLAG_HSERDY) != RESET) && (RCC_OscInitStruct->HSEState == RCC_HSE_OFF))
 80056d0:	6823      	ldr	r3, [r4, #0]
 80056d2:	039c      	lsls	r4, r3, #14
 80056d4:	d5dd      	bpl.n	8005692 <HAL_RCC_OscConfig+0xe>
 80056d6:	686b      	ldr	r3, [r5, #4]
 80056d8:	2b00      	cmp	r3, #0
 80056da:	d1da      	bne.n	8005692 <HAL_RCC_OscConfig+0xe>
          return HAL_ERROR;
 80056dc:	2001      	movs	r0, #1
 80056de:	e013      	b.n	8005708 <HAL_RCC_OscConfig+0x84>
      __HAL_RCC_HSE_CONFIG(RCC_OscInitStruct->HSEState);
 80056e0:	686b      	ldr	r3, [r5, #4]
 80056e2:	f5b3 3f80 	cmp.w	r3, #65536	; 0x10000
 80056e6:	d112      	bne.n	800570e <HAL_RCC_OscConfig+0x8a>
 80056e8:	6823      	ldr	r3, [r4, #0]
 80056ea:	f443 3380 	orr.w	r3, r3, #65536	; 0x10000
 80056ee:	6023      	str	r3, [r4, #0]
        tickstart = HAL_GetTick();
 80056f0:	f7fe ffda 	bl	80046a8 <HAL_GetTick>
 80056f4:	4606      	mov	r6, r0
        while (__HAL_RCC_GET_FLAG(RCC_FLAG_HSERDY) == RESET)
 80056f6:	6823      	ldr	r3, [r4, #0]
 80056f8:	0398      	lsls	r0, r3, #14
 80056fa:	d4ca      	bmi.n	8005692 <HAL_RCC_OscConfig+0xe>
          if ((HAL_GetTick() - tickstart) > HSE_TIMEOUT_VALUE)
 80056fc:	f7fe ffd4 	bl	80046a8 <HAL_GetTick>
 8005700:	1b80      	subs	r0, r0, r6
 8005702:	2864      	cmp	r0, #100	; 0x64
 8005704:	d9f7      	bls.n	80056f6 <HAL_RCC_OscConfig+0x72>
            return HAL_TIMEOUT;
 8005706:	2003      	movs	r0, #3
}
 8005708:	b002      	add	sp, #8
 800570a:	e8bd 81f0 	ldmia.w	sp!, {r4, r5, r6, r7, r8, pc}
      __HAL_RCC_HSE_CONFIG(RCC_OscInitStruct->HSEState);
 800570e:	b99b      	cbnz	r3, 8005738 <HAL_RCC_OscConfig+0xb4>
 8005710:	6823      	ldr	r3, [r4, #0]
 8005712:	f423 3380 	bic.w	r3, r3, #65536	; 0x10000
 8005716:	6023      	str	r3, [r4, #0]
 8005718:	6823      	ldr	r3, [r4, #0]
 800571a:	f423 2380 	bic.w	r3, r3, #262144	; 0x40000
 800571e:	6023      	str	r3, [r4, #0]
        tickstart = HAL_GetTick();
 8005720:	f7fe ffc2 	bl	80046a8 <HAL_GetTick>
 8005724:	4606      	mov	r6, r0
        while (__HAL_RCC_GET_FLAG(RCC_FLAG_HSERDY) != RESET)
 8005726:	6823      	ldr	r3, [r4, #0]
 8005728:	0399      	lsls	r1, r3, #14
 800572a:	d5b2      	bpl.n	8005692 <HAL_RCC_OscConfig+0xe>
          if ((HAL_GetTick() - tickstart) > HSE_TIMEOUT_VALUE)
 800572c:	f7fe ffbc 	bl	80046a8 <HAL_GetTick>
 8005730:	1b80      	subs	r0, r0, r6
 8005732:	2864      	cmp	r0, #100	; 0x64
 8005734:	d9f7      	bls.n	8005726 <HAL_RCC_OscConfig+0xa2>
 8005736:	e7e6      	b.n	8005706 <HAL_RCC_OscConfig+0x82>
      __HAL_RCC_HSE_CONFIG(RCC_OscInitStruct->HSEState);
 8005738:	f5b3 2fa0 	cmp.w	r3, #327680	; 0x50000
 800573c:	6823      	ldr	r3, [r4, #0]
 800573e:	d103      	bne.n	8005748 <HAL_RCC_OscConfig+0xc4>
 8005740:	f443 2380 	orr.w	r3, r3, #262144	; 0x40000
 8005744:	6023      	str	r3, [r4, #0]
 8005746:	e7cf      	b.n	80056e8 <HAL_RCC_OscConfig+0x64>
 8005748:	f423 3380 	bic.w	r3, r3, #65536	; 0x10000
 800574c:	6023      	str	r3, [r4, #0]
 800574e:	6823      	ldr	r3, [r4, #0]
 8005750:	f423 2380 	bic.w	r3, r3, #262144	; 0x40000
 8005754:	e7cb      	b.n	80056ee <HAL_RCC_OscConfig+0x6a>
    if ((__HAL_RCC_GET_SYSCLK_SOURCE() == RCC_SYSCLKSOURCE_STATUS_HSI)
 8005756:	4c68      	ldr	r4, [pc, #416]	; (80058f8 <HAL_RCC_OscConfig+0x274>)
 8005758:	6863      	ldr	r3, [r4, #4]
 800575a:	f013 0f0c 	tst.w	r3, #12
 800575e:	d007      	beq.n	8005770 <HAL_RCC_OscConfig+0xec>
        || ((__HAL_RCC_GET_SYSCLK_SOURCE() == RCC_SYSCLKSOURCE_STATUS_PLLCLK) && (__HAL_RCC_GET_PLL_OSCSOURCE() == RCC_PLLSOURCE_HSI_DIV2)))
 8005760:	6863      	ldr	r3, [r4, #4]
 8005762:	f003 030c 	and.w	r3, r3, #12
 8005766:	2b08      	cmp	r3, #8
 8005768:	d110      	bne.n	800578c <HAL_RCC_OscConfig+0x108>
 800576a:	6863      	ldr	r3, [r4, #4]
 800576c:	03da      	lsls	r2, r3, #15
 800576e:	d40d      	bmi.n	800578c <HAL_RCC_OscConfig+0x108>
      if ((__HAL_RCC_GET_FLAG(RCC_FLAG_HSIRDY) != RESET) && (RCC_OscInitStruct->HSIState != RCC_HSI_ON))
 8005770:	6823      	ldr	r3, [r4, #0]
 8005772:	079b      	lsls	r3, r3, #30
 8005774:	d502      	bpl.n	800577c <HAL_RCC_OscConfig+0xf8>
 8005776:	692b      	ldr	r3, [r5, #16]
 8005778:	2b01      	cmp	r3, #1
 800577a:	d1af      	bne.n	80056dc <HAL_RCC_OscConfig+0x58>
        __HAL_RCC_HSI_CALIBRATIONVALUE_ADJUST(RCC_OscInitStruct->HSICalibrationValue);
 800577c:	6823      	ldr	r3, [r4, #0]
 800577e:	696a      	ldr	r2, [r5, #20]
 8005780:	f023 03f8 	bic.w	r3, r3, #248	; 0xf8
 8005784:	ea43 03c2 	orr.w	r3, r3, r2, lsl #3
 8005788:	6023      	str	r3, [r4, #0]
 800578a:	e785      	b.n	8005698 <HAL_RCC_OscConfig+0x14>
      if (RCC_OscInitStruct->HSIState != RCC_HSI_OFF)
 800578c:	692a      	ldr	r2, [r5, #16]
 800578e:	4b5b      	ldr	r3, [pc, #364]	; (80058fc <HAL_RCC_OscConfig+0x278>)
 8005790:	b16a      	cbz	r2, 80057ae <HAL_RCC_OscConfig+0x12a>
        __HAL_RCC_HSI_ENABLE();
 8005792:	2201      	movs	r2, #1
 8005794:	601a      	str	r2, [r3, #0]
        tickstart = HAL_GetTick();
 8005796:	f7fe ff87 	bl	80046a8 <HAL_GetTick>
 800579a:	4606      	mov	r6, r0
        while (__HAL_RCC_GET_FLAG(RCC_FLAG_HSIRDY) == RESET)
 800579c:	6823      	ldr	r3, [r4, #0]
 800579e:	079f      	lsls	r7, r3, #30
 80057a0:	d4ec      	bmi.n	800577c <HAL_RCC_OscConfig+0xf8>
          if ((HAL_GetTick() - tickstart) > HSI_TIMEOUT_VALUE)
 80057a2:	f7fe ff81 	bl	80046a8 <HAL_GetTick>
 80057a6:	1b80      	subs	r0, r0, r6
 80057a8:	2802      	cmp	r0, #2
 80057aa:	d9f7      	bls.n	800579c <HAL_RCC_OscConfig+0x118>
 80057ac:	e7ab      	b.n	8005706 <HAL_RCC_OscConfig+0x82>
        __HAL_RCC_HSI_DISABLE();
 80057ae:	601a      	str	r2, [r3, #0]
        tickstart = HAL_GetTick();
 80057b0:	f7fe ff7a 	bl	80046a8 <HAL_GetTick>
 80057b4:	4606      	mov	r6, r0
        while (__HAL_RCC_GET_FLAG(RCC_FLAG_HSIRDY) != RESET)
 80057b6:	6823      	ldr	r3, [r4, #0]
 80057b8:	0798      	lsls	r0, r3, #30
 80057ba:	f57f af6d 	bpl.w	8005698 <HAL_RCC_OscConfig+0x14>
          if ((HAL_GetTick() - tickstart) > HSI_TIMEOUT_VALUE)
 80057be:	f7fe ff73 	bl	80046a8 <HAL_GetTick>
 80057c2:	1b80      	subs	r0, r0, r6
 80057c4:	2802      	cmp	r0, #2
 80057c6:	d9f6      	bls.n	80057b6 <HAL_RCC_OscConfig+0x132>
 80057c8:	e79d      	b.n	8005706 <HAL_RCC_OscConfig+0x82>
    if (RCC_OscInitStruct->LSIState != RCC_LSI_OFF)
 80057ca:	69aa      	ldr	r2, [r5, #24]
 80057cc:	4e4a      	ldr	r6, [pc, #296]	; (80058f8 <HAL_RCC_OscConfig+0x274>)
 80057ce:	4b4b      	ldr	r3, [pc, #300]	; (80058fc <HAL_RCC_OscConfig+0x278>)
 80057d0:	b1e2      	cbz	r2, 800580c <HAL_RCC_OscConfig+0x188>
      __HAL_RCC_LSI_ENABLE();
 80057d2:	2201      	movs	r2, #1
 80057d4:	f8c3 2480 	str.w	r2, [r3, #1152]	; 0x480
      tickstart = HAL_GetTick();
 80057d8:	f7fe ff66 	bl	80046a8 <HAL_GetTick>
 80057dc:	4604      	mov	r4, r0
      while (__HAL_RCC_GET_FLAG(RCC_FLAG_LSIRDY) == RESET)
 80057de:	6a73      	ldr	r3, [r6, #36]	; 0x24
 80057e0:	079b      	lsls	r3, r3, #30
 80057e2:	d50d      	bpl.n	8005800 <HAL_RCC_OscConfig+0x17c>
  * @param  mdelay: specifies the delay time length, in milliseconds.
  * @retval None
  */
static void RCC_Delay(uint32_t mdelay)
{
  __IO uint32_t Delay = mdelay * (SystemCoreClock / 8U / 1000U);
 80057e4:	f44f 52fa 	mov.w	r2, #8000	; 0x1f40
 80057e8:	4b45      	ldr	r3, [pc, #276]	; (8005900 <HAL_RCC_OscConfig+0x27c>)
 80057ea:	681b      	ldr	r3, [r3, #0]
 80057ec:	fbb3 f3f2 	udiv	r3, r3, r2
 80057f0:	9301      	str	r3, [sp, #4]
  do
  {
    __NOP();
 80057f2:	bf00      	nop
  }
  while (Delay --);
 80057f4:	9b01      	ldr	r3, [sp, #4]
 80057f6:	1e5a      	subs	r2, r3, #1
 80057f8:	9201      	str	r2, [sp, #4]
 80057fa:	2b00      	cmp	r3, #0
 80057fc:	d1f9      	bne.n	80057f2 <HAL_RCC_OscConfig+0x16e>
 80057fe:	e74f      	b.n	80056a0 <HAL_RCC_OscConfig+0x1c>
        if ((HAL_GetTick() - tickstart) > LSI_TIMEOUT_VALUE)
 8005800:	f7fe ff52 	bl	80046a8 <HAL_GetTick>
 8005804:	1b00      	subs	r0, r0, r4
 8005806:	2802      	cmp	r0, #2
 8005808:	d9e9      	bls.n	80057de <HAL_RCC_OscConfig+0x15a>
 800580a:	e77c      	b.n	8005706 <HAL_RCC_OscConfig+0x82>
      __HAL_RCC_LSI_DISABLE();
 800580c:	f8c3 2480 	str.w	r2, [r3, #1152]	; 0x480
      tickstart = HAL_GetTick();
 8005810:	f7fe ff4a 	bl	80046a8 <HAL_GetTick>
 8005814:	4604      	mov	r4, r0
      while (__HAL_RCC_GET_FLAG(RCC_FLAG_LSIRDY) != RESET)
 8005816:	6a73      	ldr	r3, [r6, #36]	; 0x24
 8005818:	079f      	lsls	r7, r3, #30
 800581a:	f57f af41 	bpl.w	80056a0 <HAL_RCC_OscConfig+0x1c>
        if ((HAL_GetTick() - tickstart) > LSI_TIMEOUT_VALUE)
 800581e:	f7fe ff43 	bl	80046a8 <HAL_GetTick>
 8005822:	1b00      	subs	r0, r0, r4
 8005824:	2802      	cmp	r0, #2
 8005826:	d9f6      	bls.n	8005816 <HAL_RCC_OscConfig+0x192>
 8005828:	e76d      	b.n	8005706 <HAL_RCC_OscConfig+0x82>
    if (__HAL_RCC_PWR_IS_CLK_DISABLED())
 800582a:	4c33      	ldr	r4, [pc, #204]	; (80058f8 <HAL_RCC_OscConfig+0x274>)
 800582c:	69e3      	ldr	r3, [r4, #28]
 800582e:	00d8      	lsls	r0, r3, #3
 8005830:	d424      	bmi.n	800587c <HAL_RCC_OscConfig+0x1f8>
      pwrclkchanged = SET;
 8005832:	2701      	movs	r7, #1
      __HAL_RCC_PWR_CLK_ENABLE();
 8005834:	69e3      	ldr	r3, [r4, #28]
 8005836:	f043 5380 	orr.w	r3, r3, #268435456	; 0x10000000
 800583a:	61e3      	str	r3, [r4, #28]
 800583c:	69e3      	ldr	r3, [r4, #28]
 800583e:	f003 5380 	and.w	r3, r3, #268435456	; 0x10000000
 8005842:	9300      	str	r3, [sp, #0]
 8005844:	9b00      	ldr	r3, [sp, #0]
    if (HAL_IS_BIT_CLR(PWR->CR, PWR_CR_DBP))
 8005846:	4e2f      	ldr	r6, [pc, #188]	; (8005904 <HAL_RCC_OscConfig+0x280>)
 8005848:	6833      	ldr	r3, [r6, #0]
 800584a:	05d9      	lsls	r1, r3, #23
 800584c:	d518      	bpl.n	8005880 <HAL_RCC_OscConfig+0x1fc>
    __HAL_RCC_LSE_CONFIG(RCC_OscInitStruct->LSEState);
 800584e:	68eb      	ldr	r3, [r5, #12]
 8005850:	2b01      	cmp	r3, #1
 8005852:	d126      	bne.n	80058a2 <HAL_RCC_OscConfig+0x21e>
 8005854:	6a23      	ldr	r3, [r4, #32]
 8005856:	f043 0301 	orr.w	r3, r3, #1
 800585a:	6223      	str	r3, [r4, #32]
      tickstart = HAL_GetTick();
 800585c:	f7fe ff24 	bl	80046a8 <HAL_GetTick>
        if ((HAL_GetTick() - tickstart) > RCC_LSE_TIMEOUT_VALUE)
 8005860:	f241 3888 	movw	r8, #5000	; 0x1388
      tickstart = HAL_GetTick();
 8005864:	4606      	mov	r6, r0
      while (__HAL_RCC_GET_FLAG(RCC_FLAG_LSERDY) == RESET)
 8005866:	6a23      	ldr	r3, [r4, #32]
 8005868:	079b      	lsls	r3, r3, #30
 800586a:	d53f      	bpl.n	80058ec <HAL_RCC_OscConfig+0x268>
    if (pwrclkchanged == SET)
 800586c:	2f00      	cmp	r7, #0
 800586e:	f43f af1b 	beq.w	80056a8 <HAL_RCC_OscConfig+0x24>
      __HAL_RCC_PWR_CLK_DISABLE();
 8005872:	69e3      	ldr	r3, [r4, #28]
 8005874:	f023 5380 	bic.w	r3, r3, #268435456	; 0x10000000
 8005878:	61e3      	str	r3, [r4, #28]
 800587a:	e715      	b.n	80056a8 <HAL_RCC_OscConfig+0x24>
    FlagStatus       pwrclkchanged = RESET;
 800587c:	2700      	movs	r7, #0
 800587e:	e7e2      	b.n	8005846 <HAL_RCC_OscConfig+0x1c2>
      SET_BIT(PWR->CR, PWR_CR_DBP);
 8005880:	6833      	ldr	r3, [r6, #0]
 8005882:	f443 7380 	orr.w	r3, r3, #256	; 0x100
 8005886:	6033      	str	r3, [r6, #0]
      tickstart = HAL_GetTick();
 8005888:	f7fe ff0e 	bl	80046a8 <HAL_GetTick>
 800588c:	4680      	mov	r8, r0
      while (HAL_IS_BIT_CLR(PWR->CR, PWR_CR_DBP))
 800588e:	6833      	ldr	r3, [r6, #0]
 8005890:	05da      	lsls	r2, r3, #23
 8005892:	d4dc      	bmi.n	800584e <HAL_RCC_OscConfig+0x1ca>
        if ((HAL_GetTick() - tickstart) > RCC_DBP_TIMEOUT_VALUE)
 8005894:	f7fe ff08 	bl	80046a8 <HAL_GetTick>
 8005898:	eba0 0008 	sub.w	r0, r0, r8
 800589c:	2864      	cmp	r0, #100	; 0x64
 800589e:	d9f6      	bls.n	800588e <HAL_RCC_OscConfig+0x20a>
 80058a0:	e731      	b.n	8005706 <HAL_RCC_OscConfig+0x82>
    __HAL_RCC_LSE_CONFIG(RCC_OscInitStruct->LSEState);
 80058a2:	b9ab      	cbnz	r3, 80058d0 <HAL_RCC_OscConfig+0x24c>
 80058a4:	6a23      	ldr	r3, [r4, #32]
        if ((HAL_GetTick() - tickstart) > RCC_LSE_TIMEOUT_VALUE)
 80058a6:	f241 3888 	movw	r8, #5000	; 0x1388
    __HAL_RCC_LSE_CONFIG(RCC_OscInitStruct->LSEState);
 80058aa:	f023 0301 	bic.w	r3, r3, #1
 80058ae:	6223      	str	r3, [r4, #32]
 80058b0:	6a23      	ldr	r3, [r4, #32]
 80058b2:	f023 0304 	bic.w	r3, r3, #4
 80058b6:	6223      	str	r3, [r4, #32]
      tickstart = HAL_GetTick();
 80058b8:	f7fe fef6 	bl	80046a8 <HAL_GetTick>
 80058bc:	4606      	mov	r6, r0
      while (__HAL_RCC_GET_FLAG(RCC_FLAG_LSERDY) != RESET)
 80058be:	6a23      	ldr	r3, [r4, #32]
 80058c0:	0798      	lsls	r0, r3, #30
 80058c2:	d5d3      	bpl.n	800586c <HAL_RCC_OscConfig+0x1e8>
        if ((HAL_GetTick() - tickstart) > RCC_LSE_TIMEOUT_VALUE)
 80058c4:	f7fe fef0 	bl	80046a8 <HAL_GetTick>
 80058c8:	1b80      	subs	r0, r0, r6
 80058ca:	4540      	cmp	r0, r8
 80058cc:	d9f7      	bls.n	80058be <HAL_RCC_OscConfig+0x23a>
 80058ce:	e71a      	b.n	8005706 <HAL_RCC_OscConfig+0x82>
    __HAL_RCC_LSE_CONFIG(RCC_OscInitStruct->LSEState);
 80058d0:	2b05      	cmp	r3, #5
 80058d2:	6a23      	ldr	r3, [r4, #32]
 80058d4:	d103      	bne.n	80058de <HAL_RCC_OscConfig+0x25a>
 80058d6:	f043 0304 	orr.w	r3, r3, #4
 80058da:	6223      	str	r3, [r4, #32]
 80058dc:	e7ba      	b.n	8005854 <HAL_RCC_OscConfig+0x1d0>
 80058de:	f023 0301 	bic.w	r3, r3, #1
 80058e2:	6223      	str	r3, [r4, #32]
 80058e4:	6a23      	ldr	r3, [r4, #32]
 80058e6:	f023 0304 	bic.w	r3, r3, #4
 80058ea:	e7b6      	b.n	800585a <HAL_RCC_OscConfig+0x1d6>
        if ((HAL_GetTick() - tickstart) > RCC_LSE_TIMEOUT_VALUE)
 80058ec:	f7fe fedc 	bl	80046a8 <HAL_GetTick>
 80058f0:	1b80      	subs	r0, r0, r6
 80058f2:	4540      	cmp	r0, r8
 80058f4:	d9b7      	bls.n	8005866 <HAL_RCC_OscConfig+0x1e2>
 80058f6:	e706      	b.n	8005706 <HAL_RCC_OscConfig+0x82>
 80058f8:	40021000 	.word	0x40021000
 80058fc:	42420000 	.word	0x42420000
 8005900:	20000000 	.word	0x20000000
 8005904:	40007000 	.word	0x40007000
    if (__HAL_RCC_GET_SYSCLK_SOURCE() != RCC_SYSCLKSOURCE_STATUS_PLLCLK)
 8005908:	4c2a      	ldr	r4, [pc, #168]	; (80059b4 <HAL_RCC_OscConfig+0x330>)
 800590a:	6863      	ldr	r3, [r4, #4]
 800590c:	f003 030c 	and.w	r3, r3, #12
 8005910:	2b08      	cmp	r3, #8
 8005912:	d03e      	beq.n	8005992 <HAL_RCC_OscConfig+0x30e>
      if ((RCC_OscInitStruct->PLL.PLLState) == RCC_PLL_ON)
 8005914:	2200      	movs	r2, #0
 8005916:	4b28      	ldr	r3, [pc, #160]	; (80059b8 <HAL_RCC_OscConfig+0x334>)
 8005918:	2802      	cmp	r0, #2
        __HAL_RCC_PLL_DISABLE();
 800591a:	661a      	str	r2, [r3, #96]	; 0x60
      if ((RCC_OscInitStruct->PLL.PLLState) == RCC_PLL_ON)
 800591c:	d12c      	bne.n	8005978 <HAL_RCC_OscConfig+0x2f4>
        tickstart = HAL_GetTick();
 800591e:	f7fe fec3 	bl	80046a8 <HAL_GetTick>
 8005922:	4606      	mov	r6, r0
        while (__HAL_RCC_GET_FLAG(RCC_FLAG_PLLRDY)  != RESET)
 8005924:	6823      	ldr	r3, [r4, #0]
 8005926:	0199      	lsls	r1, r3, #6
 8005928:	d420      	bmi.n	800596c <HAL_RCC_OscConfig+0x2e8>
        if (RCC_OscInitStruct->PLL.PLLSource == RCC_PLLSOURCE_HSE)
 800592a:	6a2b      	ldr	r3, [r5, #32]
 800592c:	f5b3 3f80 	cmp.w	r3, #65536	; 0x10000
 8005930:	d105      	bne.n	800593e <HAL_RCC_OscConfig+0x2ba>
          __HAL_RCC_HSE_PREDIV_CONFIG(RCC_OscInitStruct->HSEPredivValue);
 8005932:	6862      	ldr	r2, [r4, #4]
 8005934:	68a9      	ldr	r1, [r5, #8]
 8005936:	f422 3200 	bic.w	r2, r2, #131072	; 0x20000
 800593a:	430a      	orrs	r2, r1
 800593c:	6062      	str	r2, [r4, #4]
        __HAL_RCC_PLL_CONFIG(RCC_OscInitStruct->PLL.PLLSource,
 800593e:	6a69      	ldr	r1, [r5, #36]	; 0x24
 8005940:	6862      	ldr	r2, [r4, #4]
 8005942:	430b      	orrs	r3, r1
 8005944:	f422 1274 	bic.w	r2, r2, #3997696	; 0x3d0000
 8005948:	4313      	orrs	r3, r2
        __HAL_RCC_PLL_ENABLE();
 800594a:	2201      	movs	r2, #1
        __HAL_RCC_PLL_CONFIG(RCC_OscInitStruct->PLL.PLLSource,
 800594c:	6063      	str	r3, [r4, #4]
        __HAL_RCC_PLL_ENABLE();
 800594e:	4b1a      	ldr	r3, [pc, #104]	; (80059b8 <HAL_RCC_OscConfig+0x334>)
 8005950:	661a      	str	r2, [r3, #96]	; 0x60
        tickstart = HAL_GetTick();
 8005952:	f7fe fea9 	bl	80046a8 <HAL_GetTick>
 8005956:	4605      	mov	r5, r0
        while (__HAL_RCC_GET_FLAG(RCC_FLAG_PLLRDY)  == RESET)
 8005958:	6823      	ldr	r3, [r4, #0]
 800595a:	019a      	lsls	r2, r3, #6
 800595c:	f53f aea8 	bmi.w	80056b0 <HAL_RCC_OscConfig+0x2c>
          if ((HAL_GetTick() - tickstart) > PLL_TIMEOUT_VALUE)
 8005960:	f7fe fea2 	bl	80046a8 <HAL_GetTick>
 8005964:	1b40      	subs	r0, r0, r5
 8005966:	2802      	cmp	r0, #2
 8005968:	d9f6      	bls.n	8005958 <HAL_RCC_OscConfig+0x2d4>
 800596a:	e6cc      	b.n	8005706 <HAL_RCC_OscConfig+0x82>
          if ((HAL_GetTick() - tickstart) > PLL_TIMEOUT_VALUE)
 800596c:	f7fe fe9c 	bl	80046a8 <HAL_GetTick>
 8005970:	1b80      	subs	r0, r0, r6
 8005972:	2802      	cmp	r0, #2
 8005974:	d9d6      	bls.n	8005924 <HAL_RCC_OscConfig+0x2a0>
 8005976:	e6c6      	b.n	8005706 <HAL_RCC_OscConfig+0x82>
        tickstart = HAL_GetTick();
 8005978:	f7fe fe96 	bl	80046a8 <HAL_GetTick>
 800597c:	4605      	mov	r5, r0
        while (__HAL_RCC_GET_FLAG(RCC_FLAG_PLLRDY)  != RESET)
 800597e:	6823      	ldr	r3, [r4, #0]
 8005980:	019b      	lsls	r3, r3, #6
 8005982:	f57f ae95 	bpl.w	80056b0 <HAL_RCC_OscConfig+0x2c>
          if ((HAL_GetTick() - tickstart) > PLL_TIMEOUT_VALUE)
 8005986:	f7fe fe8f 	bl	80046a8 <HAL_GetTick>
 800598a:	1b40      	subs	r0, r0, r5
 800598c:	2802      	cmp	r0, #2
 800598e:	d9f6      	bls.n	800597e <HAL_RCC_OscConfig+0x2fa>
 8005990:	e6b9      	b.n	8005706 <HAL_RCC_OscConfig+0x82>
      if ((RCC_OscInitStruct->PLL.PLLState) == RCC_PLL_OFF)
 8005992:	2801      	cmp	r0, #1
 8005994:	f43f aeb8 	beq.w	8005708 <HAL_RCC_OscConfig+0x84>
        pll_config = RCC->CFGR;
 8005998:	6863      	ldr	r3, [r4, #4]
        if ((READ_BIT(pll_config, RCC_CFGR_PLLSRC) != RCC_OscInitStruct->PLL.PLLSource) ||
 800599a:	6a2a      	ldr	r2, [r5, #32]
 800599c:	f403 3180 	and.w	r1, r3, #65536	; 0x10000
 80059a0:	4291      	cmp	r1, r2
 80059a2:	f47f ae9b 	bne.w	80056dc <HAL_RCC_OscConfig+0x58>
 80059a6:	6a6a      	ldr	r2, [r5, #36]	; 0x24
            (READ_BIT(pll_config, RCC_CFGR_PLLMULL) != RCC_OscInitStruct->PLL.PLLMUL))
 80059a8:	f403 1370 	and.w	r3, r3, #3932160	; 0x3c0000
        if ((READ_BIT(pll_config, RCC_CFGR_PLLSRC) != RCC_OscInitStruct->PLL.PLLSource) ||
 80059ac:	4293      	cmp	r3, r2
 80059ae:	f43f ae7f 	beq.w	80056b0 <HAL_RCC_OscConfig+0x2c>
 80059b2:	e693      	b.n	80056dc <HAL_RCC_OscConfig+0x58>
 80059b4:	40021000 	.word	0x40021000
 80059b8:	42420000 	.word	0x42420000

080059bc <HAL_RCC_GetSysClockFreq>:
  tmpreg = RCC->CFGR;
 80059bc:	4a0d      	ldr	r2, [pc, #52]	; (80059f4 <HAL_RCC_GetSysClockFreq+0x38>)
 80059be:	6853      	ldr	r3, [r2, #4]
  switch (tmpreg & RCC_CFGR_SWS)
 80059c0:	f003 010c 	and.w	r1, r3, #12
 80059c4:	2908      	cmp	r1, #8
 80059c6:	d112      	bne.n	80059ee <HAL_RCC_GetSysClockFreq+0x32>
      pllmul = aPLLMULFactorTable[(uint32_t)(tmpreg & RCC_CFGR_PLLMULL) >> RCC_CFGR_PLLMULL_Pos];
 80059c8:	480b      	ldr	r0, [pc, #44]	; (80059f8 <HAL_RCC_GetSysClockFreq+0x3c>)
 80059ca:	f3c3 4183 	ubfx	r1, r3, #18, #4
      if ((tmpreg & RCC_CFGR_PLLSRC) != RCC_PLLSOURCE_HSI_DIV2)
 80059ce:	03db      	lsls	r3, r3, #15
      pllmul = aPLLMULFactorTable[(uint32_t)(tmpreg & RCC_CFGR_PLLMULL) >> RCC_CFGR_PLLMULL_Pos];
 80059d0:	5c40      	ldrb	r0, [r0, r1]
      if ((tmpreg & RCC_CFGR_PLLSRC) != RCC_PLLSOURCE_HSI_DIV2)
 80059d2:	d509      	bpl.n	80059e8 <HAL_RCC_GetSysClockFreq+0x2c>
        prediv = aPredivFactorTable[(uint32_t)(RCC->CFGR & RCC_CFGR_PLLXTPRE) >> RCC_CFGR_PLLXTPRE_Pos];
 80059d4:	6853      	ldr	r3, [r2, #4]
        pllclk = (uint32_t)((HSE_VALUE  * pllmul) / prediv);
 80059d6:	4a09      	ldr	r2, [pc, #36]	; (80059fc <HAL_RCC_GetSysClockFreq+0x40>)
        prediv = aPredivFactorTable[(uint32_t)(RCC->CFGR & RCC_CFGR_PLLXTPRE) >> RCC_CFGR_PLLXTPRE_Pos];
 80059d8:	f3c3 4340 	ubfx	r3, r3, #17, #1
        pllclk = (uint32_t)((HSE_VALUE  * pllmul) / prediv);
 80059dc:	4350      	muls	r0, r2
        prediv = aPredivFactorTable[(uint32_t)(RCC->CFGR & RCC_CFGR_PLLXTPRE) >> RCC_CFGR_PLLXTPRE_Pos];
 80059de:	4a08      	ldr	r2, [pc, #32]	; (8005a00 <HAL_RCC_GetSysClockFreq+0x44>)
 80059e0:	5cd3      	ldrb	r3, [r2, r3]
        pllclk = (uint32_t)((HSE_VALUE  * pllmul) / prediv);
 80059e2:	fbb0 f0f3 	udiv	r0, r0, r3
 80059e6:	4770      	bx	lr
        pllclk = (uint32_t)((HSI_VALUE >> 1) * pllmul);
 80059e8:	4b06      	ldr	r3, [pc, #24]	; (8005a04 <HAL_RCC_GetSysClockFreq+0x48>)
 80059ea:	4358      	muls	r0, r3
 80059ec:	4770      	bx	lr
      sysclockfreq = HSE_VALUE;
 80059ee:	4803      	ldr	r0, [pc, #12]	; (80059fc <HAL_RCC_GetSysClockFreq+0x40>)
}
 80059f0:	4770      	bx	lr
 80059f2:	bf00      	nop
 80059f4:	40021000 	.word	0x40021000
 80059f8:	0800b01a 	.word	0x0800b01a
 80059fc:	007a1200 	.word	0x007a1200
 8005a00:	0800b02a 	.word	0x0800b02a
 8005a04:	003d0900 	.word	0x003d0900

08005a08 <HAL_RCC_ClockConfig>:
{
 8005a08:	e92d 41f0 	stmdb	sp!, {r4, r5, r6, r7, r8, lr}
 8005a0c:	460d      	mov	r5, r1
  if (RCC_ClkInitStruct == NULL)
 8005a0e:	4604      	mov	r4, r0
 8005a10:	b910      	cbnz	r0, 8005a18 <HAL_RCC_ClockConfig+0x10>
    return HAL_ERROR;
 8005a12:	2001      	movs	r0, #1
}
 8005a14:	e8bd 81f0 	ldmia.w	sp!, {r4, r5, r6, r7, r8, pc}
  if (FLatency > __HAL_FLASH_GET_LATENCY())
 8005a18:	4a44      	ldr	r2, [pc, #272]	; (8005b2c <HAL_RCC_ClockConfig+0x124>)
 8005a1a:	6813      	ldr	r3, [r2, #0]
 8005a1c:	f003 0307 	and.w	r3, r3, #7
 8005a20:	428b      	cmp	r3, r1
 8005a22:	d328      	bcc.n	8005a76 <HAL_RCC_ClockConfig+0x6e>
if (((RCC_ClkInitStruct->ClockType) & RCC_CLOCKTYPE_HCLK) == RCC_CLOCKTYPE_HCLK)
 8005a24:	6821      	ldr	r1, [r4, #0]
 8005a26:	078e      	lsls	r6, r1, #30
 8005a28:	d430      	bmi.n	8005a8c <HAL_RCC_ClockConfig+0x84>
  if (((RCC_ClkInitStruct->ClockType) & RCC_CLOCKTYPE_SYSCLK) == RCC_CLOCKTYPE_SYSCLK)
 8005a2a:	07ca      	lsls	r2, r1, #31
 8005a2c:	d443      	bmi.n	8005ab6 <HAL_RCC_ClockConfig+0xae>
  if (FLatency < __HAL_FLASH_GET_LATENCY())
 8005a2e:	4a3f      	ldr	r2, [pc, #252]	; (8005b2c <HAL_RCC_ClockConfig+0x124>)
 8005a30:	6813      	ldr	r3, [r2, #0]
 8005a32:	f003 0307 	and.w	r3, r3, #7
 8005a36:	42ab      	cmp	r3, r5
 8005a38:	d865      	bhi.n	8005b06 <HAL_RCC_ClockConfig+0xfe>
if (((RCC_ClkInitStruct->ClockType) & RCC_CLOCKTYPE_PCLK1) == RCC_CLOCKTYPE_PCLK1)
 8005a3a:	6822      	ldr	r2, [r4, #0]
 8005a3c:	4d3c      	ldr	r5, [pc, #240]	; (8005b30 <HAL_RCC_ClockConfig+0x128>)
 8005a3e:	f012 0f04 	tst.w	r2, #4
 8005a42:	d16c      	bne.n	8005b1e <HAL_RCC_ClockConfig+0x116>
  if (((RCC_ClkInitStruct->ClockType) & RCC_CLOCKTYPE_PCLK2) == RCC_CLOCKTYPE_PCLK2)
 8005a44:	0713      	lsls	r3, r2, #28
 8005a46:	d506      	bpl.n	8005a56 <HAL_RCC_ClockConfig+0x4e>
    MODIFY_REG(RCC->CFGR, RCC_CFGR_PPRE2, ((RCC_ClkInitStruct->APB2CLKDivider) << 3));
 8005a48:	686b      	ldr	r3, [r5, #4]
 8005a4a:	6922      	ldr	r2, [r4, #16]
 8005a4c:	f423 5360 	bic.w	r3, r3, #14336	; 0x3800
 8005a50:	ea43 03c2 	orr.w	r3, r3, r2, lsl #3
 8005a54:	606b      	str	r3, [r5, #4]
  SystemCoreClock = HAL_RCC_GetSysClockFreq() >> AHBPrescTable[(RCC->CFGR & RCC_CFGR_HPRE) >> RCC_CFGR_HPRE_Pos];
 8005a56:	f7ff ffb1 	bl	80059bc <HAL_RCC_GetSysClockFreq>
 8005a5a:	686b      	ldr	r3, [r5, #4]
 8005a5c:	4a35      	ldr	r2, [pc, #212]	; (8005b34 <HAL_RCC_ClockConfig+0x12c>)
 8005a5e:	f3c3 1303 	ubfx	r3, r3, #4, #4
 8005a62:	5cd3      	ldrb	r3, [r2, r3]
 8005a64:	40d8      	lsrs	r0, r3
 8005a66:	4b34      	ldr	r3, [pc, #208]	; (8005b38 <HAL_RCC_ClockConfig+0x130>)
 8005a68:	6018      	str	r0, [r3, #0]
  HAL_InitTick(uwTickPrio);
 8005a6a:	4b34      	ldr	r3, [pc, #208]	; (8005b3c <HAL_RCC_ClockConfig+0x134>)
 8005a6c:	6818      	ldr	r0, [r3, #0]
 8005a6e:	f7fe fdd9 	bl	8004624 <HAL_InitTick>
  return HAL_OK;
 8005a72:	2000      	movs	r0, #0
 8005a74:	e7ce      	b.n	8005a14 <HAL_RCC_ClockConfig+0xc>
    __HAL_FLASH_SET_LATENCY(FLatency);
 8005a76:	6813      	ldr	r3, [r2, #0]
 8005a78:	f023 0307 	bic.w	r3, r3, #7
 8005a7c:	430b      	orrs	r3, r1
 8005a7e:	6013      	str	r3, [r2, #0]
    if (__HAL_FLASH_GET_LATENCY() != FLatency)
 8005a80:	6813      	ldr	r3, [r2, #0]
 8005a82:	f003 0307 	and.w	r3, r3, #7
 8005a86:	428b      	cmp	r3, r1
 8005a88:	d1c3      	bne.n	8005a12 <HAL_RCC_ClockConfig+0xa>
 8005a8a:	e7cb      	b.n	8005a24 <HAL_RCC_ClockConfig+0x1c>
    if (((RCC_ClkInitStruct->ClockType) & RCC_CLOCKTYPE_PCLK1) == RCC_CLOCKTYPE_PCLK1)
 8005a8c:	4b28      	ldr	r3, [pc, #160]	; (8005b30 <HAL_RCC_ClockConfig+0x128>)
 8005a8e:	f011 0f04 	tst.w	r1, #4
      MODIFY_REG(RCC->CFGR, RCC_CFGR_PPRE1, RCC_HCLK_DIV16);
 8005a92:	bf1e      	ittt	ne
 8005a94:	685a      	ldrne	r2, [r3, #4]
 8005a96:	f442 62e0 	orrne.w	r2, r2, #1792	; 0x700
 8005a9a:	605a      	strne	r2, [r3, #4]
    if (((RCC_ClkInitStruct->ClockType) & RCC_CLOCKTYPE_PCLK2) == RCC_CLOCKTYPE_PCLK2)
 8005a9c:	0708      	lsls	r0, r1, #28
      MODIFY_REG(RCC->CFGR, RCC_CFGR_PPRE2, (RCC_HCLK_DIV16 << 3));
 8005a9e:	bf42      	ittt	mi
 8005aa0:	685a      	ldrmi	r2, [r3, #4]
 8005aa2:	f442 5260 	orrmi.w	r2, r2, #14336	; 0x3800
 8005aa6:	605a      	strmi	r2, [r3, #4]
    MODIFY_REG(RCC->CFGR, RCC_CFGR_HPRE, RCC_ClkInitStruct->AHBCLKDivider);
 8005aa8:	685a      	ldr	r2, [r3, #4]
 8005aaa:	68a0      	ldr	r0, [r4, #8]
 8005aac:	f022 02f0 	bic.w	r2, r2, #240	; 0xf0
 8005ab0:	4302      	orrs	r2, r0
 8005ab2:	605a      	str	r2, [r3, #4]
 8005ab4:	e7b9      	b.n	8005a2a <HAL_RCC_ClockConfig+0x22>
    if (RCC_ClkInitStruct->SYSCLKSource == RCC_SYSCLKSOURCE_HSE)
 8005ab6:	6862      	ldr	r2, [r4, #4]
 8005ab8:	4e1d      	ldr	r6, [pc, #116]	; (8005b30 <HAL_RCC_ClockConfig+0x128>)
 8005aba:	2a01      	cmp	r2, #1
      if (__HAL_RCC_GET_FLAG(RCC_FLAG_HSERDY) == RESET)
 8005abc:	6833      	ldr	r3, [r6, #0]
    if (RCC_ClkInitStruct->SYSCLKSource == RCC_SYSCLKSOURCE_HSE)
 8005abe:	d11a      	bne.n	8005af6 <HAL_RCC_ClockConfig+0xee>
      if (__HAL_RCC_GET_FLAG(RCC_FLAG_HSERDY) == RESET)
 8005ac0:	f413 3f00 	tst.w	r3, #131072	; 0x20000
      if (__HAL_RCC_GET_FLAG(RCC_FLAG_HSIRDY) == RESET)
 8005ac4:	d0a5      	beq.n	8005a12 <HAL_RCC_ClockConfig+0xa>
    __HAL_RCC_SYSCLK_CONFIG(RCC_ClkInitStruct->SYSCLKSource);
 8005ac6:	6873      	ldr	r3, [r6, #4]
      if ((HAL_GetTick() - tickstart) > CLOCKSWITCH_TIMEOUT_VALUE)
 8005ac8:	f241 3888 	movw	r8, #5000	; 0x1388
    __HAL_RCC_SYSCLK_CONFIG(RCC_ClkInitStruct->SYSCLKSource);
 8005acc:	f023 0303 	bic.w	r3, r3, #3
 8005ad0:	4313      	orrs	r3, r2
 8005ad2:	6073      	str	r3, [r6, #4]
    tickstart = HAL_GetTick();
 8005ad4:	f7fe fde8 	bl	80046a8 <HAL_GetTick>
 8005ad8:	4607      	mov	r7, r0
    while (__HAL_RCC_GET_SYSCLK_SOURCE() != (RCC_ClkInitStruct->SYSCLKSource << RCC_CFGR_SWS_Pos))
 8005ada:	6873      	ldr	r3, [r6, #4]
 8005adc:	6862      	ldr	r2, [r4, #4]
 8005ade:	f003 030c 	and.w	r3, r3, #12
 8005ae2:	ebb3 0f82 	cmp.w	r3, r2, lsl #2
 8005ae6:	d0a2      	beq.n	8005a2e <HAL_RCC_ClockConfig+0x26>
      if ((HAL_GetTick() - tickstart) > CLOCKSWITCH_TIMEOUT_VALUE)
 8005ae8:	f7fe fdde 	bl	80046a8 <HAL_GetTick>
 8005aec:	1bc0      	subs	r0, r0, r7
 8005aee:	4540      	cmp	r0, r8
 8005af0:	d9f3      	bls.n	8005ada <HAL_RCC_ClockConfig+0xd2>
        return HAL_TIMEOUT;
 8005af2:	2003      	movs	r0, #3
 8005af4:	e78e      	b.n	8005a14 <HAL_RCC_ClockConfig+0xc>
    else if (RCC_ClkInitStruct->SYSCLKSource == RCC_SYSCLKSOURCE_PLLCLK)
 8005af6:	2a02      	cmp	r2, #2
 8005af8:	d102      	bne.n	8005b00 <HAL_RCC_ClockConfig+0xf8>
      if (__HAL_RCC_GET_FLAG(RCC_FLAG_PLLRDY) == RESET)
 8005afa:	f013 7f00 	tst.w	r3, #33554432	; 0x2000000
 8005afe:	e7e1      	b.n	8005ac4 <HAL_RCC_ClockConfig+0xbc>
      if (__HAL_RCC_GET_FLAG(RCC_FLAG_HSIRDY) == RESET)
 8005b00:	f013 0f02 	tst.w	r3, #2
 8005b04:	e7de      	b.n	8005ac4 <HAL_RCC_ClockConfig+0xbc>
    __HAL_FLASH_SET_LATENCY(FLatency);
 8005b06:	6813      	ldr	r3, [r2, #0]
 8005b08:	f023 0307 	bic.w	r3, r3, #7
 8005b0c:	432b      	orrs	r3, r5
 8005b0e:	6013      	str	r3, [r2, #0]
    if (__HAL_FLASH_GET_LATENCY() != FLatency)
 8005b10:	6813      	ldr	r3, [r2, #0]
 8005b12:	f003 0307 	and.w	r3, r3, #7
 8005b16:	42ab      	cmp	r3, r5
 8005b18:	f47f af7b 	bne.w	8005a12 <HAL_RCC_ClockConfig+0xa>
 8005b1c:	e78d      	b.n	8005a3a <HAL_RCC_ClockConfig+0x32>
    MODIFY_REG(RCC->CFGR, RCC_CFGR_PPRE1, RCC_ClkInitStruct->APB1CLKDivider);
 8005b1e:	686b      	ldr	r3, [r5, #4]
 8005b20:	68e1      	ldr	r1, [r4, #12]
 8005b22:	f423 63e0 	bic.w	r3, r3, #1792	; 0x700
 8005b26:	430b      	orrs	r3, r1
 8005b28:	606b      	str	r3, [r5, #4]
 8005b2a:	e78b      	b.n	8005a44 <HAL_RCC_ClockConfig+0x3c>
 8005b2c:	40022000 	.word	0x40022000
 8005b30:	40021000 	.word	0x40021000
 8005b34:	0800b00a 	.word	0x0800b00a
 8005b38:	20000000 	.word	0x20000000
 8005b3c:	20000008 	.word	0x20000008

08005b40 <HAL_RCCEx_PeriphCLKConfig>:

  /* Check the parameters */
  assert_param(IS_RCC_PERIPHCLOCK(PeriphClkInit->PeriphClockSelection));

  /*------------------------------- RTC/LCD Configuration ------------------------*/
  if ((((PeriphClkInit->PeriphClockSelection) & RCC_PERIPHCLK_RTC) == RCC_PERIPHCLK_RTC))
 8005b40:	6803      	ldr	r3, [r0, #0]
{
 8005b42:	e92d 41f3 	stmdb	sp!, {r0, r1, r4, r5, r6, r7, r8, lr}
  if ((((PeriphClkInit->PeriphClockSelection) & RCC_PERIPHCLK_RTC) == RCC_PERIPHCLK_RTC))
 8005b46:	07d9      	lsls	r1, r3, #31
{
 8005b48:	4605      	mov	r5, r0
  if ((((PeriphClkInit->PeriphClockSelection) & RCC_PERIPHCLK_RTC) == RCC_PERIPHCLK_RTC))
 8005b4a:	d520      	bpl.n	8005b8e <HAL_RCCEx_PeriphCLKConfig+0x4e>
    assert_param(IS_RCC_RTCCLKSOURCE(PeriphClkInit->RTCClockSelection));

    /* As soon as function is called to change RTC clock source, activation of the
       power domain is done. */
    /* Requires to enable write access to Backup Domain of necessary */
    if (__HAL_RCC_PWR_IS_CLK_DISABLED())
 8005b4c:	4c36      	ldr	r4, [pc, #216]	; (8005c28 <HAL_RCCEx_PeriphCLKConfig+0xe8>)
 8005b4e:	69e3      	ldr	r3, [r4, #28]
 8005b50:	00da      	lsls	r2, r3, #3
 8005b52:	d432      	bmi.n	8005bba <HAL_RCCEx_PeriphCLKConfig+0x7a>
    {
      __HAL_RCC_PWR_CLK_ENABLE();
      pwrclkchanged = SET;
 8005b54:	2601      	movs	r6, #1
      __HAL_RCC_PWR_CLK_ENABLE();
 8005b56:	69e3      	ldr	r3, [r4, #28]
 8005b58:	f043 5380 	orr.w	r3, r3, #268435456	; 0x10000000
 8005b5c:	61e3      	str	r3, [r4, #28]
 8005b5e:	69e3      	ldr	r3, [r4, #28]
 8005b60:	f003 5380 	and.w	r3, r3, #268435456	; 0x10000000
 8005b64:	9301      	str	r3, [sp, #4]
 8005b66:	9b01      	ldr	r3, [sp, #4]
    }

    if (HAL_IS_BIT_CLR(PWR->CR, PWR_CR_DBP))
 8005b68:	4f30      	ldr	r7, [pc, #192]	; (8005c2c <HAL_RCCEx_PeriphCLKConfig+0xec>)
 8005b6a:	683b      	ldr	r3, [r7, #0]
 8005b6c:	05db      	lsls	r3, r3, #23
 8005b6e:	d526      	bpl.n	8005bbe <HAL_RCCEx_PeriphCLKConfig+0x7e>
        }
      }
    }

    /* Reset the Backup domain only if the RTC Clock source selection is modified from reset value */
    temp_reg = (RCC->BDCR & RCC_BDCR_RTCSEL);
 8005b70:	6a23      	ldr	r3, [r4, #32]
    if ((temp_reg != 0x00000000U) && (temp_reg != (PeriphClkInit->RTCClockSelection & RCC_BDCR_RTCSEL)))
 8005b72:	f413 7340 	ands.w	r3, r3, #768	; 0x300
 8005b76:	d136      	bne.n	8005be6 <HAL_RCCEx_PeriphCLKConfig+0xa6>
            return HAL_TIMEOUT;
          }
        }
      }
    }
    __HAL_RCC_RTC_CONFIG(PeriphClkInit->RTCClockSelection);
 8005b78:	6a23      	ldr	r3, [r4, #32]
 8005b7a:	686a      	ldr	r2, [r5, #4]
 8005b7c:	f423 7340 	bic.w	r3, r3, #768	; 0x300
 8005b80:	4313      	orrs	r3, r2
 8005b82:	6223      	str	r3, [r4, #32]

    /* Require to disable power clock if necessary */
    if (pwrclkchanged == SET)
 8005b84:	b11e      	cbz	r6, 8005b8e <HAL_RCCEx_PeriphCLKConfig+0x4e>
    {
      __HAL_RCC_PWR_CLK_DISABLE();
 8005b86:	69e3      	ldr	r3, [r4, #28]
 8005b88:	f023 5380 	bic.w	r3, r3, #268435456	; 0x10000000
 8005b8c:	61e3      	str	r3, [r4, #28]
    }
  }

  /*------------------------------ ADC clock Configuration ------------------*/
  if (((PeriphClkInit->PeriphClockSelection) & RCC_PERIPHCLK_ADC) == RCC_PERIPHCLK_ADC)
 8005b8e:	6828      	ldr	r0, [r5, #0]
 8005b90:	0783      	lsls	r3, r0, #30
 8005b92:	d506      	bpl.n	8005ba2 <HAL_RCCEx_PeriphCLKConfig+0x62>
  {
    /* Check the parameters */
    assert_param(IS_RCC_ADCPLLCLK_DIV(PeriphClkInit->AdcClockSelection));

    /* Configure the ADC clock source */
    __HAL_RCC_ADC_CONFIG(PeriphClkInit->AdcClockSelection);
 8005b94:	4924      	ldr	r1, [pc, #144]	; (8005c28 <HAL_RCCEx_PeriphCLKConfig+0xe8>)
 8005b96:	68ab      	ldr	r3, [r5, #8]
 8005b98:	684a      	ldr	r2, [r1, #4]
 8005b9a:	f422 4240 	bic.w	r2, r2, #49152	; 0xc000
 8005b9e:	431a      	orrs	r2, r3
 8005ba0:	604a      	str	r2, [r1, #4]

#if defined(STM32F102x6) || defined(STM32F102xB) || defined(STM32F103x6)\
 || defined(STM32F103xB) || defined(STM32F103xE) || defined(STM32F103xG)\
 || defined(STM32F105xC) || defined(STM32F107xC)
  /*------------------------------ USB clock Configuration ------------------*/
  if (((PeriphClkInit->PeriphClockSelection) & RCC_PERIPHCLK_USB) == RCC_PERIPHCLK_USB)
 8005ba2:	f010 0010 	ands.w	r0, r0, #16
 8005ba6:	d01b      	beq.n	8005be0 <HAL_RCCEx_PeriphCLKConfig+0xa0>
  {
    /* Check the parameters */
    assert_param(IS_RCC_USBPLLCLK_DIV(PeriphClkInit->UsbClockSelection));

    /* Configure the USB clock source */
    __HAL_RCC_USB_CONFIG(PeriphClkInit->UsbClockSelection);
 8005ba8:	4a1f      	ldr	r2, [pc, #124]	; (8005c28 <HAL_RCCEx_PeriphCLKConfig+0xe8>)
 8005baa:	68e9      	ldr	r1, [r5, #12]
 8005bac:	6853      	ldr	r3, [r2, #4]
  }
#endif /* STM32F102x6 || STM32F102xB || STM32F103x6 || STM32F103xB || STM32F103xE || STM32F103xG || STM32F105xC || STM32F107xC */

  return HAL_OK;
 8005bae:	2000      	movs	r0, #0
    __HAL_RCC_USB_CONFIG(PeriphClkInit->UsbClockSelection);
 8005bb0:	f423 0380 	bic.w	r3, r3, #4194304	; 0x400000
 8005bb4:	430b      	orrs	r3, r1
 8005bb6:	6053      	str	r3, [r2, #4]
 8005bb8:	e012      	b.n	8005be0 <HAL_RCCEx_PeriphCLKConfig+0xa0>
    FlagStatus pwrclkchanged = RESET;
 8005bba:	2600      	movs	r6, #0
 8005bbc:	e7d4      	b.n	8005b68 <HAL_RCCEx_PeriphCLKConfig+0x28>
      SET_BIT(PWR->CR, PWR_CR_DBP);
 8005bbe:	683b      	ldr	r3, [r7, #0]
 8005bc0:	f443 7380 	orr.w	r3, r3, #256	; 0x100
 8005bc4:	603b      	str	r3, [r7, #0]
      tickstart = HAL_GetTick();
 8005bc6:	f7fe fd6f 	bl	80046a8 <HAL_GetTick>
 8005bca:	4680      	mov	r8, r0
      while (HAL_IS_BIT_CLR(PWR->CR, PWR_CR_DBP))
 8005bcc:	683b      	ldr	r3, [r7, #0]
 8005bce:	05d8      	lsls	r0, r3, #23
 8005bd0:	d4ce      	bmi.n	8005b70 <HAL_RCCEx_PeriphCLKConfig+0x30>
        if ((HAL_GetTick() - tickstart) > RCC_DBP_TIMEOUT_VALUE)
 8005bd2:	f7fe fd69 	bl	80046a8 <HAL_GetTick>
 8005bd6:	eba0 0008 	sub.w	r0, r0, r8
 8005bda:	2864      	cmp	r0, #100	; 0x64
 8005bdc:	d9f6      	bls.n	8005bcc <HAL_RCCEx_PeriphCLKConfig+0x8c>
          return HAL_TIMEOUT;
 8005bde:	2003      	movs	r0, #3
}
 8005be0:	b002      	add	sp, #8
 8005be2:	e8bd 81f0 	ldmia.w	sp!, {r4, r5, r6, r7, r8, pc}
    if ((temp_reg != 0x00000000U) && (temp_reg != (PeriphClkInit->RTCClockSelection & RCC_BDCR_RTCSEL)))
 8005be6:	686a      	ldr	r2, [r5, #4]
 8005be8:	f402 7240 	and.w	r2, r2, #768	; 0x300
 8005bec:	429a      	cmp	r2, r3
 8005bee:	d0c3      	beq.n	8005b78 <HAL_RCCEx_PeriphCLKConfig+0x38>
      __HAL_RCC_BACKUPRESET_FORCE();
 8005bf0:	2001      	movs	r0, #1
 8005bf2:	4a0f      	ldr	r2, [pc, #60]	; (8005c30 <HAL_RCCEx_PeriphCLKConfig+0xf0>)
      temp_reg = (RCC->BDCR & ~(RCC_BDCR_RTCSEL));
 8005bf4:	6a23      	ldr	r3, [r4, #32]
      __HAL_RCC_BACKUPRESET_FORCE();
 8005bf6:	f8c2 0440 	str.w	r0, [r2, #1088]	; 0x440
      __HAL_RCC_BACKUPRESET_RELEASE();
 8005bfa:	2000      	movs	r0, #0
      temp_reg = (RCC->BDCR & ~(RCC_BDCR_RTCSEL));
 8005bfc:	f423 7140 	bic.w	r1, r3, #768	; 0x300
      __HAL_RCC_BACKUPRESET_RELEASE();
 8005c00:	f8c2 0440 	str.w	r0, [r2, #1088]	; 0x440
      RCC->BDCR = temp_reg;
 8005c04:	6221      	str	r1, [r4, #32]
      if (HAL_IS_BIT_SET(temp_reg, RCC_BDCR_LSEON))
 8005c06:	07d9      	lsls	r1, r3, #31
 8005c08:	d5b6      	bpl.n	8005b78 <HAL_RCCEx_PeriphCLKConfig+0x38>
        tickstart = HAL_GetTick();
 8005c0a:	f7fe fd4d 	bl	80046a8 <HAL_GetTick>
          if ((HAL_GetTick() - tickstart) > RCC_LSE_TIMEOUT_VALUE)
 8005c0e:	f241 3888 	movw	r8, #5000	; 0x1388
        tickstart = HAL_GetTick();
 8005c12:	4607      	mov	r7, r0
        while (__HAL_RCC_GET_FLAG(RCC_FLAG_LSERDY) == RESET)
 8005c14:	6a23      	ldr	r3, [r4, #32]
 8005c16:	079a      	lsls	r2, r3, #30
 8005c18:	d4ae      	bmi.n	8005b78 <HAL_RCCEx_PeriphCLKConfig+0x38>
          if ((HAL_GetTick() - tickstart) > RCC_LSE_TIMEOUT_VALUE)
 8005c1a:	f7fe fd45 	bl	80046a8 <HAL_GetTick>
 8005c1e:	1bc0      	subs	r0, r0, r7
 8005c20:	4540      	cmp	r0, r8
 8005c22:	d9f7      	bls.n	8005c14 <HAL_RCCEx_PeriphCLKConfig+0xd4>
 8005c24:	e7db      	b.n	8005bde <HAL_RCCEx_PeriphCLKConfig+0x9e>
 8005c26:	bf00      	nop
 8005c28:	40021000 	.word	0x40021000
 8005c2c:	40007000 	.word	0x40007000
 8005c30:	42420000 	.word	0x42420000

08005c34 <SPI_WaitFlagStateUntilTimeout.constprop.0>:
  * @param  State flag state to check
  * @param  Timeout Timeout duration
  * @param  Tickstart tick start value
  * @retval HAL status
  */
static HAL_StatusTypeDef SPI_WaitFlagStateUntilTimeout(SPI_HandleTypeDef *hspi, uint32_t Flag, FlagStatus State,
 8005c34:	e92d 41f3 	stmdb	sp!, {r0, r1, r4, r5, r6, r7, r8, lr}
 8005c38:	461c      	mov	r4, r3
 8005c3a:	4616      	mov	r6, r2
 8005c3c:	460f      	mov	r7, r1
 8005c3e:	4605      	mov	r5, r0
  __IO uint32_t count;
  uint32_t tmp_timeout;
  uint32_t tmp_tickstart;

  /* Adjust Timeout value  in case of end of transfer */
  tmp_timeout   = Timeout - (HAL_GetTick() - Tickstart);
 8005c40:	f7fe fd32 	bl	80046a8 <HAL_GetTick>
 8005c44:	4434      	add	r4, r6
 8005c46:	1a24      	subs	r4, r4, r0
  tmp_tickstart = HAL_GetTick();
 8005c48:	f7fe fd2e 	bl	80046a8 <HAL_GetTick>
 8005c4c:	4680      	mov	r8, r0

  /* Calculate Timeout based on a software loop to avoid blocking issue if Systick is disabled */
  count = tmp_timeout * ((SystemCoreClock * 32U) >> 20U);
 8005c4e:	4b23      	ldr	r3, [pc, #140]	; (8005cdc <SPI_WaitFlagStateUntilTimeout.constprop.0+0xa8>)
 8005c50:	681b      	ldr	r3, [r3, #0]
 8005c52:	f3c3 33cb 	ubfx	r3, r3, #15, #12
 8005c56:	4363      	muls	r3, r4

  while ((__HAL_SPI_GET_FLAG(hspi, Flag) ? SET : RESET) != State)
 8005c58:	682a      	ldr	r2, [r5, #0]
      /* If Systick is disabled or not incremented, deactivate timeout to go in disable loop procedure */
      if (count == 0U)
      {
        tmp_timeout = 0U;
      }
      count--;
 8005c5a:	9301      	str	r3, [sp, #4]
  while ((__HAL_SPI_GET_FLAG(hspi, Flag) ? SET : RESET) != State)
 8005c5c:	6893      	ldr	r3, [r2, #8]
 8005c5e:	ea37 0303 	bics.w	r3, r7, r3
 8005c62:	d001      	beq.n	8005c68 <SPI_WaitFlagStateUntilTimeout.constprop.0+0x34>
    }
  }

  return HAL_OK;
 8005c64:	2000      	movs	r0, #0
 8005c66:	e02e      	b.n	8005cc6 <SPI_WaitFlagStateUntilTimeout.constprop.0+0x92>
    if (Timeout != HAL_MAX_DELAY)
 8005c68:	1c73      	adds	r3, r6, #1
 8005c6a:	d0f7      	beq.n	8005c5c <SPI_WaitFlagStateUntilTimeout.constprop.0+0x28>
      if (((HAL_GetTick() - tmp_tickstart) >= tmp_timeout) || (tmp_timeout == 0U))
 8005c6c:	f7fe fd1c 	bl	80046a8 <HAL_GetTick>
 8005c70:	eba0 0008 	sub.w	r0, r0, r8
 8005c74:	42a0      	cmp	r0, r4
 8005c76:	d329      	bcc.n	8005ccc <SPI_WaitFlagStateUntilTimeout.constprop.0+0x98>
        __HAL_SPI_DISABLE_IT(hspi, (SPI_IT_TXE | SPI_IT_RXNE | SPI_IT_ERR));
 8005c78:	682b      	ldr	r3, [r5, #0]
 8005c7a:	685a      	ldr	r2, [r3, #4]
 8005c7c:	f022 02e0 	bic.w	r2, r2, #224	; 0xe0
 8005c80:	605a      	str	r2, [r3, #4]
        if ((hspi->Init.Mode == SPI_MODE_MASTER) && ((hspi->Init.Direction == SPI_DIRECTION_1LINE)
 8005c82:	686a      	ldr	r2, [r5, #4]
 8005c84:	f5b2 7f82 	cmp.w	r2, #260	; 0x104
 8005c88:	d10a      	bne.n	8005ca0 <SPI_WaitFlagStateUntilTimeout.constprop.0+0x6c>
 8005c8a:	68aa      	ldr	r2, [r5, #8]
 8005c8c:	f5b2 4f00 	cmp.w	r2, #32768	; 0x8000
 8005c90:	d002      	beq.n	8005c98 <SPI_WaitFlagStateUntilTimeout.constprop.0+0x64>
                                                     || (hspi->Init.Direction == SPI_DIRECTION_2LINES_RXONLY)))
 8005c92:	f5b2 6f80 	cmp.w	r2, #1024	; 0x400
 8005c96:	d103      	bne.n	8005ca0 <SPI_WaitFlagStateUntilTimeout.constprop.0+0x6c>
          __HAL_SPI_DISABLE(hspi);
 8005c98:	681a      	ldr	r2, [r3, #0]
 8005c9a:	f022 0240 	bic.w	r2, r2, #64	; 0x40
 8005c9e:	601a      	str	r2, [r3, #0]
        if (hspi->Init.CRCCalculation == SPI_CRCCALCULATION_ENABLE)
 8005ca0:	6aaa      	ldr	r2, [r5, #40]	; 0x28
 8005ca2:	f5b2 5f00 	cmp.w	r2, #8192	; 0x2000
 8005ca6:	d107      	bne.n	8005cb8 <SPI_WaitFlagStateUntilTimeout.constprop.0+0x84>
          SPI_RESET_CRC(hspi);
 8005ca8:	681a      	ldr	r2, [r3, #0]
 8005caa:	f422 5200 	bic.w	r2, r2, #8192	; 0x2000
 8005cae:	601a      	str	r2, [r3, #0]
 8005cb0:	681a      	ldr	r2, [r3, #0]
 8005cb2:	f442 5200 	orr.w	r2, r2, #8192	; 0x2000
 8005cb6:	601a      	str	r2, [r3, #0]
        hspi->State = HAL_SPI_STATE_READY;
 8005cb8:	2301      	movs	r3, #1
 8005cba:	f885 3051 	strb.w	r3, [r5, #81]	; 0x51
        __HAL_UNLOCK(hspi);
 8005cbe:	2300      	movs	r3, #0
        return HAL_TIMEOUT;
 8005cc0:	2003      	movs	r0, #3
        __HAL_UNLOCK(hspi);
 8005cc2:	f885 3050 	strb.w	r3, [r5, #80]	; 0x50
}
 8005cc6:	b002      	add	sp, #8
 8005cc8:	e8bd 81f0 	ldmia.w	sp!, {r4, r5, r6, r7, r8, pc}
      if (count == 0U)
 8005ccc:	9b01      	ldr	r3, [sp, #4]
        tmp_timeout = 0U;
 8005cce:	2b00      	cmp	r3, #0
      count--;
 8005cd0:	9b01      	ldr	r3, [sp, #4]
        tmp_timeout = 0U;
 8005cd2:	bf08      	it	eq
 8005cd4:	2400      	moveq	r4, #0
      count--;
 8005cd6:	3b01      	subs	r3, #1
 8005cd8:	e7be      	b.n	8005c58 <SPI_WaitFlagStateUntilTimeout.constprop.0+0x24>
 8005cda:	bf00      	nop
 8005cdc:	20000000 	.word	0x20000000

08005ce0 <SPI_EndRxTxTransaction>:
  * @param  Timeout Timeout duration
  * @param  Tickstart tick start value
  * @retval HAL status
  */
static HAL_StatusTypeDef SPI_EndRxTxTransaction(SPI_HandleTypeDef *hspi, uint32_t Timeout, uint32_t Tickstart)
{
 8005ce0:	b510      	push	{r4, lr}
 8005ce2:	4613      	mov	r3, r2
  /* Control the BSY flag */
  if (SPI_WaitFlagStateUntilTimeout(hspi, SPI_FLAG_BSY, RESET, Timeout, Tickstart) != HAL_OK)
 8005ce4:	460a      	mov	r2, r1
 8005ce6:	2180      	movs	r1, #128	; 0x80
{
 8005ce8:	4604      	mov	r4, r0
  if (SPI_WaitFlagStateUntilTimeout(hspi, SPI_FLAG_BSY, RESET, Timeout, Tickstart) != HAL_OK)
 8005cea:	f7ff ffa3 	bl	8005c34 <SPI_WaitFlagStateUntilTimeout.constprop.0>
 8005cee:	b120      	cbz	r0, 8005cfa <SPI_EndRxTxTransaction+0x1a>
  {
    SET_BIT(hspi->ErrorCode, HAL_SPI_ERROR_FLAG);
    return HAL_TIMEOUT;
 8005cf0:	2003      	movs	r0, #3
    SET_BIT(hspi->ErrorCode, HAL_SPI_ERROR_FLAG);
 8005cf2:	6d63      	ldr	r3, [r4, #84]	; 0x54
 8005cf4:	f043 0320 	orr.w	r3, r3, #32
 8005cf8:	6563      	str	r3, [r4, #84]	; 0x54
  }
  return HAL_OK;
}
 8005cfa:	bd10      	pop	{r4, pc}

08005cfc <HAL_SPI_Init>:
{
 8005cfc:	b510      	push	{r4, lr}
  if (hspi == NULL)
 8005cfe:	4604      	mov	r4, r0
 8005d00:	2800      	cmp	r0, #0
 8005d02:	d051      	beq.n	8005da8 <HAL_SPI_Init+0xac>
  if (hspi->Init.TIMode == SPI_TIMODE_DISABLE)
 8005d04:	6a43      	ldr	r3, [r0, #36]	; 0x24
 8005d06:	2b00      	cmp	r3, #0
 8005d08:	d14a      	bne.n	8005da0 <HAL_SPI_Init+0xa4>
    if (hspi->Init.Mode == SPI_MODE_MASTER)
 8005d0a:	6842      	ldr	r2, [r0, #4]
 8005d0c:	f5b2 7f82 	cmp.w	r2, #260	; 0x104
 8005d10:	d000      	beq.n	8005d14 <HAL_SPI_Init+0x18>
      hspi->Init.BaudRatePrescaler = SPI_BAUDRATEPRESCALER_2;
 8005d12:	61c3      	str	r3, [r0, #28]
  hspi->Init.CRCCalculation = SPI_CRCCALCULATION_DISABLE;
 8005d14:	2300      	movs	r3, #0
 8005d16:	62a3      	str	r3, [r4, #40]	; 0x28
  if (hspi->State == HAL_SPI_STATE_RESET)
 8005d18:	f894 3051 	ldrb.w	r3, [r4, #81]	; 0x51
 8005d1c:	f003 02ff 	and.w	r2, r3, #255	; 0xff
 8005d20:	b923      	cbnz	r3, 8005d2c <HAL_SPI_Init+0x30>
    HAL_SPI_MspInit(hspi);
 8005d22:	4620      	mov	r0, r4
    hspi->Lock = HAL_UNLOCKED;
 8005d24:	f884 2050 	strb.w	r2, [r4, #80]	; 0x50
    HAL_SPI_MspInit(hspi);
 8005d28:	f7fe fba4 	bl	8004474 <HAL_SPI_MspInit>
  hspi->State = HAL_SPI_STATE_BUSY;
 8005d2c:	2302      	movs	r3, #2
  __HAL_SPI_DISABLE(hspi);
 8005d2e:	6822      	ldr	r2, [r4, #0]
  hspi->State = HAL_SPI_STATE_BUSY;
 8005d30:	f884 3051 	strb.w	r3, [r4, #81]	; 0x51
  __HAL_SPI_DISABLE(hspi);
 8005d34:	6813      	ldr	r3, [r2, #0]
  WRITE_REG(hspi->Instance->CR1, ((hspi->Init.Mode & (SPI_CR1_MSTR | SPI_CR1_SSI)) |
 8005d36:	68a0      	ldr	r0, [r4, #8]
  __HAL_SPI_DISABLE(hspi);
 8005d38:	f023 0340 	bic.w	r3, r3, #64	; 0x40
 8005d3c:	6013      	str	r3, [r2, #0]
  WRITE_REG(hspi->Instance->CR1, ((hspi->Init.Mode & (SPI_CR1_MSTR | SPI_CR1_SSI)) |
 8005d3e:	6863      	ldr	r3, [r4, #4]
 8005d40:	f400 4004 	and.w	r0, r0, #33792	; 0x8400
 8005d44:	f403 7382 	and.w	r3, r3, #260	; 0x104
 8005d48:	4303      	orrs	r3, r0
 8005d4a:	68e0      	ldr	r0, [r4, #12]
 8005d4c:	69a1      	ldr	r1, [r4, #24]
 8005d4e:	f400 6000 	and.w	r0, r0, #2048	; 0x800
 8005d52:	4303      	orrs	r3, r0
 8005d54:	6920      	ldr	r0, [r4, #16]
 8005d56:	f000 0002 	and.w	r0, r0, #2
 8005d5a:	4303      	orrs	r3, r0
 8005d5c:	6960      	ldr	r0, [r4, #20]
 8005d5e:	f000 0001 	and.w	r0, r0, #1
 8005d62:	4303      	orrs	r3, r0
 8005d64:	f401 7000 	and.w	r0, r1, #512	; 0x200
 8005d68:	4303      	orrs	r3, r0
 8005d6a:	69e0      	ldr	r0, [r4, #28]
  WRITE_REG(hspi->Instance->CR2, ((hspi->Init.NSS >> 16U) & SPI_CR2_SSOE));
 8005d6c:	0c09      	lsrs	r1, r1, #16
  WRITE_REG(hspi->Instance->CR1, ((hspi->Init.Mode & (SPI_CR1_MSTR | SPI_CR1_SSI)) |
 8005d6e:	f000 0038 	and.w	r0, r0, #56	; 0x38
 8005d72:	4303      	orrs	r3, r0
 8005d74:	6a20      	ldr	r0, [r4, #32]
  WRITE_REG(hspi->Instance->CR2, ((hspi->Init.NSS >> 16U) & SPI_CR2_SSOE));
 8005d76:	f001 0104 	and.w	r1, r1, #4
  WRITE_REG(hspi->Instance->CR1, ((hspi->Init.Mode & (SPI_CR1_MSTR | SPI_CR1_SSI)) |
 8005d7a:	f000 0080 	and.w	r0, r0, #128	; 0x80
 8005d7e:	4303      	orrs	r3, r0
 8005d80:	6aa0      	ldr	r0, [r4, #40]	; 0x28
 8005d82:	f400 5000 	and.w	r0, r0, #8192	; 0x2000
 8005d86:	4303      	orrs	r3, r0
 8005d88:	6013      	str	r3, [r2, #0]
  WRITE_REG(hspi->Instance->CR2, ((hspi->Init.NSS >> 16U) & SPI_CR2_SSOE));
 8005d8a:	6051      	str	r1, [r2, #4]
  CLEAR_BIT(hspi->Instance->I2SCFGR, SPI_I2SCFGR_I2SMOD);
 8005d8c:	69d3      	ldr	r3, [r2, #28]
  hspi->ErrorCode = HAL_SPI_ERROR_NONE;
 8005d8e:	2000      	movs	r0, #0
  CLEAR_BIT(hspi->Instance->I2SCFGR, SPI_I2SCFGR_I2SMOD);
 8005d90:	f423 6300 	bic.w	r3, r3, #2048	; 0x800
 8005d94:	61d3      	str	r3, [r2, #28]
  hspi->State     = HAL_SPI_STATE_READY;
 8005d96:	2301      	movs	r3, #1
  hspi->ErrorCode = HAL_SPI_ERROR_NONE;
 8005d98:	6560      	str	r0, [r4, #84]	; 0x54
  hspi->State     = HAL_SPI_STATE_READY;
 8005d9a:	f884 3051 	strb.w	r3, [r4, #81]	; 0x51
}
 8005d9e:	bd10      	pop	{r4, pc}
    hspi->Init.CLKPolarity = SPI_POLARITY_LOW;
 8005da0:	2300      	movs	r3, #0
    hspi->Init.CLKPhase    = SPI_PHASE_1EDGE;
 8005da2:	e9c0 3304 	strd	r3, r3, [r0, #16]
 8005da6:	e7b5      	b.n	8005d14 <HAL_SPI_Init+0x18>
    return HAL_ERROR;
 8005da8:	2001      	movs	r0, #1
 8005daa:	e7f8      	b.n	8005d9e <HAL_SPI_Init+0xa2>

08005dac <HAL_SPI_Transmit>:
{
 8005dac:	e92d 43f7 	stmdb	sp!, {r0, r1, r2, r4, r5, r6, r7, r8, r9, lr}
 8005db0:	461e      	mov	r6, r3
  __HAL_LOCK(hspi);
 8005db2:	f890 3050 	ldrb.w	r3, [r0, #80]	; 0x50
{
 8005db6:	4604      	mov	r4, r0
  __HAL_LOCK(hspi);
 8005db8:	2b01      	cmp	r3, #1
{
 8005dba:	460d      	mov	r5, r1
 8005dbc:	4617      	mov	r7, r2
  __HAL_LOCK(hspi);
 8005dbe:	f000 80a6 	beq.w	8005f0e <HAL_SPI_Transmit+0x162>
 8005dc2:	2301      	movs	r3, #1
 8005dc4:	f880 3050 	strb.w	r3, [r0, #80]	; 0x50
  tickstart = HAL_GetTick();
 8005dc8:	f7fe fc6e 	bl	80046a8 <HAL_GetTick>
  if (hspi->State != HAL_SPI_STATE_READY)
 8005dcc:	f894 3051 	ldrb.w	r3, [r4, #81]	; 0x51
  tickstart = HAL_GetTick();
 8005dd0:	4681      	mov	r9, r0
  if (hspi->State != HAL_SPI_STATE_READY)
 8005dd2:	2b01      	cmp	r3, #1
 8005dd4:	fa5f f883 	uxtb.w	r8, r3
 8005dd8:	f040 8096 	bne.w	8005f08 <HAL_SPI_Transmit+0x15c>
  if ((pData == NULL) || (Size == 0U))
 8005ddc:	2d00      	cmp	r5, #0
 8005dde:	d063      	beq.n	8005ea8 <HAL_SPI_Transmit+0xfc>
 8005de0:	2f00      	cmp	r7, #0
 8005de2:	d061      	beq.n	8005ea8 <HAL_SPI_Transmit+0xfc>
  hspi->State       = HAL_SPI_STATE_BUSY_TX;
 8005de4:	2303      	movs	r3, #3
 8005de6:	f884 3051 	strb.w	r3, [r4, #81]	; 0x51
  hspi->ErrorCode   = HAL_SPI_ERROR_NONE;
 8005dea:	2300      	movs	r3, #0
  if (hspi->Init.Direction == SPI_DIRECTION_1LINE)
 8005dec:	68a2      	ldr	r2, [r4, #8]
  hspi->ErrorCode   = HAL_SPI_ERROR_NONE;
 8005dee:	6563      	str	r3, [r4, #84]	; 0x54
  if (hspi->Init.Direction == SPI_DIRECTION_1LINE)
 8005df0:	f5b2 4f00 	cmp.w	r2, #32768	; 0x8000
  hspi->RxISR       = NULL;
 8005df4:	e9c4 3310 	strd	r3, r3, [r4, #64]	; 0x40
  hspi->TxXferCount = Size;
 8005df8:	86e7      	strh	r7, [r4, #54]	; 0x36
  hspi->pRxBuffPtr  = (uint8_t *)NULL;
 8005dfa:	63a3      	str	r3, [r4, #56]	; 0x38
  hspi->RxXferSize  = 0U;
 8005dfc:	87a3      	strh	r3, [r4, #60]	; 0x3c
  hspi->RxXferCount = 0U;
 8005dfe:	87e3      	strh	r3, [r4, #62]	; 0x3e
  hspi->pTxBuffPtr  = (uint8_t *)pData;
 8005e00:	6325      	str	r5, [r4, #48]	; 0x30
    __HAL_SPI_DISABLE(hspi);
 8005e02:	6823      	ldr	r3, [r4, #0]
  hspi->TxXferSize  = Size;
 8005e04:	86a7      	strh	r7, [r4, #52]	; 0x34
  if (hspi->Init.Direction == SPI_DIRECTION_1LINE)
 8005e06:	d107      	bne.n	8005e18 <HAL_SPI_Transmit+0x6c>
    __HAL_SPI_DISABLE(hspi);
 8005e08:	681a      	ldr	r2, [r3, #0]
 8005e0a:	f022 0240 	bic.w	r2, r2, #64	; 0x40
 8005e0e:	601a      	str	r2, [r3, #0]
    SPI_1LINE_TX(hspi);
 8005e10:	681a      	ldr	r2, [r3, #0]
 8005e12:	f442 4280 	orr.w	r2, r2, #16384	; 0x4000
 8005e16:	601a      	str	r2, [r3, #0]
  if ((hspi->Instance->CR1 & SPI_CR1_SPE) != SPI_CR1_SPE)
 8005e18:	681a      	ldr	r2, [r3, #0]
    if ((hspi->Init.Mode == SPI_MODE_SLAVE) || (initial_TxXferCount == 0x01U))
 8005e1a:	6861      	ldr	r1, [r4, #4]
  if ((hspi->Instance->CR1 & SPI_CR1_SPE) != SPI_CR1_SPE)
 8005e1c:	0652      	lsls	r2, r2, #25
    __HAL_SPI_ENABLE(hspi);
 8005e1e:	bf5e      	ittt	pl
 8005e20:	681a      	ldrpl	r2, [r3, #0]
 8005e22:	f042 0240 	orrpl.w	r2, r2, #64	; 0x40
 8005e26:	601a      	strpl	r2, [r3, #0]
  if (hspi->Init.DataSize == SPI_DATASIZE_16BIT)
 8005e28:	68e2      	ldr	r2, [r4, #12]
 8005e2a:	f5b2 6f00 	cmp.w	r2, #2048	; 0x800
 8005e2e:	d145      	bne.n	8005ebc <HAL_SPI_Transmit+0x110>
    if ((hspi->Init.Mode == SPI_MODE_SLAVE) || (initial_TxXferCount == 0x01U))
 8005e30:	b109      	cbz	r1, 8005e36 <HAL_SPI_Transmit+0x8a>
 8005e32:	2f01      	cmp	r7, #1
 8005e34:	d107      	bne.n	8005e46 <HAL_SPI_Transmit+0x9a>
      hspi->Instance->DR = *((uint16_t *)hspi->pTxBuffPtr);
 8005e36:	f835 2b02 	ldrh.w	r2, [r5], #2
 8005e3a:	60da      	str	r2, [r3, #12]
      hspi->pTxBuffPtr += sizeof(uint16_t);
 8005e3c:	6325      	str	r5, [r4, #48]	; 0x30
        hspi->TxXferCount--;
 8005e3e:	8ee3      	ldrh	r3, [r4, #54]	; 0x36
 8005e40:	3b01      	subs	r3, #1
 8005e42:	b29b      	uxth	r3, r3
 8005e44:	86e3      	strh	r3, [r4, #54]	; 0x36
    while (hspi->TxXferCount > 0U)
 8005e46:	8ee3      	ldrh	r3, [r4, #54]	; 0x36
 8005e48:	b29b      	uxth	r3, r3
 8005e4a:	b9b3      	cbnz	r3, 8005e7a <HAL_SPI_Transmit+0xce>
  if (SPI_EndRxTxTransaction(hspi, Timeout, tickstart) != HAL_OK)
 8005e4c:	464a      	mov	r2, r9
 8005e4e:	4631      	mov	r1, r6
 8005e50:	4620      	mov	r0, r4
 8005e52:	f7ff ff45 	bl	8005ce0 <SPI_EndRxTxTransaction>
 8005e56:	2800      	cmp	r0, #0
 8005e58:	d153      	bne.n	8005f02 <HAL_SPI_Transmit+0x156>
  if (hspi->Init.Direction == SPI_DIRECTION_2LINES)
 8005e5a:	68a3      	ldr	r3, [r4, #8]
 8005e5c:	b933      	cbnz	r3, 8005e6c <HAL_SPI_Transmit+0xc0>
    __HAL_SPI_CLEAR_OVRFLAG(hspi);
 8005e5e:	9301      	str	r3, [sp, #4]
 8005e60:	6823      	ldr	r3, [r4, #0]
 8005e62:	68da      	ldr	r2, [r3, #12]
 8005e64:	9201      	str	r2, [sp, #4]
 8005e66:	689b      	ldr	r3, [r3, #8]
 8005e68:	9301      	str	r3, [sp, #4]
 8005e6a:	9b01      	ldr	r3, [sp, #4]
  if (hspi->ErrorCode != HAL_SPI_ERROR_NONE)
 8005e6c:	6d63      	ldr	r3, [r4, #84]	; 0x54
 8005e6e:	b9db      	cbnz	r3, 8005ea8 <HAL_SPI_Transmit+0xfc>
    hspi->State = HAL_SPI_STATE_READY;
 8005e70:	2201      	movs	r2, #1
  HAL_StatusTypeDef errorcode = HAL_OK;
 8005e72:	4698      	mov	r8, r3
    hspi->State = HAL_SPI_STATE_READY;
 8005e74:	f884 2051 	strb.w	r2, [r4, #81]	; 0x51
 8005e78:	e016      	b.n	8005ea8 <HAL_SPI_Transmit+0xfc>
      if (__HAL_SPI_GET_FLAG(hspi, SPI_FLAG_TXE))
 8005e7a:	6822      	ldr	r2, [r4, #0]
 8005e7c:	6893      	ldr	r3, [r2, #8]
 8005e7e:	0798      	lsls	r0, r3, #30
 8005e80:	d505      	bpl.n	8005e8e <HAL_SPI_Transmit+0xe2>
        hspi->Instance->DR = *((uint16_t *)hspi->pTxBuffPtr);
 8005e82:	6b23      	ldr	r3, [r4, #48]	; 0x30
 8005e84:	f833 1b02 	ldrh.w	r1, [r3], #2
 8005e88:	60d1      	str	r1, [r2, #12]
        hspi->pTxBuffPtr += sizeof(uint16_t);
 8005e8a:	6323      	str	r3, [r4, #48]	; 0x30
 8005e8c:	e7d7      	b.n	8005e3e <HAL_SPI_Transmit+0x92>
        if ((((HAL_GetTick() - tickstart) >=  Timeout) && (Timeout != HAL_MAX_DELAY)) || (Timeout == 0U))
 8005e8e:	f7fe fc0b 	bl	80046a8 <HAL_GetTick>
 8005e92:	eba0 0009 	sub.w	r0, r0, r9
 8005e96:	42b0      	cmp	r0, r6
 8005e98:	d30d      	bcc.n	8005eb6 <HAL_SPI_Transmit+0x10a>
 8005e9a:	1c71      	adds	r1, r6, #1
 8005e9c:	d0d3      	beq.n	8005e46 <HAL_SPI_Transmit+0x9a>
          hspi->State = HAL_SPI_STATE_READY;
 8005e9e:	2301      	movs	r3, #1
          errorcode = HAL_TIMEOUT;
 8005ea0:	f04f 0803 	mov.w	r8, #3
          hspi->State = HAL_SPI_STATE_READY;
 8005ea4:	f884 3051 	strb.w	r3, [r4, #81]	; 0x51
  __HAL_UNLOCK(hspi);
 8005ea8:	2300      	movs	r3, #0
 8005eaa:	f884 3050 	strb.w	r3, [r4, #80]	; 0x50
}
 8005eae:	4640      	mov	r0, r8
 8005eb0:	b003      	add	sp, #12
 8005eb2:	e8bd 83f0 	ldmia.w	sp!, {r4, r5, r6, r7, r8, r9, pc}
        if ((((HAL_GetTick() - tickstart) >=  Timeout) && (Timeout != HAL_MAX_DELAY)) || (Timeout == 0U))
 8005eb6:	2e00      	cmp	r6, #0
 8005eb8:	d1c5      	bne.n	8005e46 <HAL_SPI_Transmit+0x9a>
 8005eba:	e7f0      	b.n	8005e9e <HAL_SPI_Transmit+0xf2>
    if ((hspi->Init.Mode == SPI_MODE_SLAVE) || (initial_TxXferCount == 0x01U))
 8005ebc:	b109      	cbz	r1, 8005ec2 <HAL_SPI_Transmit+0x116>
 8005ebe:	2f01      	cmp	r7, #1
 8005ec0:	d108      	bne.n	8005ed4 <HAL_SPI_Transmit+0x128>
      *((__IO uint8_t *)&hspi->Instance->DR) = (*hspi->pTxBuffPtr);
 8005ec2:	782a      	ldrb	r2, [r5, #0]
        *((__IO uint8_t *)&hspi->Instance->DR) = (*hspi->pTxBuffPtr);
 8005ec4:	731a      	strb	r2, [r3, #12]
        hspi->pTxBuffPtr += sizeof(uint8_t);
 8005ec6:	6b23      	ldr	r3, [r4, #48]	; 0x30
 8005ec8:	3301      	adds	r3, #1
 8005eca:	6323      	str	r3, [r4, #48]	; 0x30
        hspi->TxXferCount--;
 8005ecc:	8ee3      	ldrh	r3, [r4, #54]	; 0x36
 8005ece:	3b01      	subs	r3, #1
 8005ed0:	b29b      	uxth	r3, r3
 8005ed2:	86e3      	strh	r3, [r4, #54]	; 0x36
    while (hspi->TxXferCount > 0U)
 8005ed4:	8ee3      	ldrh	r3, [r4, #54]	; 0x36
 8005ed6:	b29b      	uxth	r3, r3
 8005ed8:	2b00      	cmp	r3, #0
 8005eda:	d0b7      	beq.n	8005e4c <HAL_SPI_Transmit+0xa0>
      if (__HAL_SPI_GET_FLAG(hspi, SPI_FLAG_TXE))
 8005edc:	6823      	ldr	r3, [r4, #0]
 8005ede:	689a      	ldr	r2, [r3, #8]
 8005ee0:	0792      	lsls	r2, r2, #30
 8005ee2:	d502      	bpl.n	8005eea <HAL_SPI_Transmit+0x13e>
        *((__IO uint8_t *)&hspi->Instance->DR) = (*hspi->pTxBuffPtr);
 8005ee4:	6b22      	ldr	r2, [r4, #48]	; 0x30
 8005ee6:	7812      	ldrb	r2, [r2, #0]
 8005ee8:	e7ec      	b.n	8005ec4 <HAL_SPI_Transmit+0x118>
        if ((((HAL_GetTick() - tickstart) >=  Timeout) && (Timeout != HAL_MAX_DELAY)) || (Timeout == 0U))
 8005eea:	f7fe fbdd 	bl	80046a8 <HAL_GetTick>
 8005eee:	eba0 0009 	sub.w	r0, r0, r9
 8005ef2:	42b0      	cmp	r0, r6
 8005ef4:	d302      	bcc.n	8005efc <HAL_SPI_Transmit+0x150>
 8005ef6:	1c73      	adds	r3, r6, #1
 8005ef8:	d0ec      	beq.n	8005ed4 <HAL_SPI_Transmit+0x128>
 8005efa:	e7d0      	b.n	8005e9e <HAL_SPI_Transmit+0xf2>
 8005efc:	2e00      	cmp	r6, #0
 8005efe:	d1e9      	bne.n	8005ed4 <HAL_SPI_Transmit+0x128>
 8005f00:	e7cd      	b.n	8005e9e <HAL_SPI_Transmit+0xf2>
    hspi->ErrorCode = HAL_SPI_ERROR_FLAG;
 8005f02:	2320      	movs	r3, #32
 8005f04:	6563      	str	r3, [r4, #84]	; 0x54
 8005f06:	e7a8      	b.n	8005e5a <HAL_SPI_Transmit+0xae>
    errorcode = HAL_BUSY;
 8005f08:	f04f 0802 	mov.w	r8, #2
 8005f0c:	e7cc      	b.n	8005ea8 <HAL_SPI_Transmit+0xfc>
  __HAL_LOCK(hspi);
 8005f0e:	f04f 0802 	mov.w	r8, #2
 8005f12:	e7cc      	b.n	8005eae <HAL_SPI_Transmit+0x102>

08005f14 <USB_CoreInit>:
  * @param  cfg pointer to a USB_CfgTypeDef structure that contains
  *         the configuration information for the specified USBx peripheral.
  * @retval HAL status
  */
HAL_StatusTypeDef USB_CoreInit(USB_TypeDef *USBx, USB_CfgTypeDef cfg)
{
 8005f14:	b084      	sub	sp, #16
 8005f16:	a801      	add	r0, sp, #4
 8005f18:	e880 000e 	stmia.w	r0, {r1, r2, r3}
              only by USB OTG FS peripheral.
            - This function is added to ensure compatibility across platforms.
   */

  return HAL_OK;
}
 8005f1c:	b004      	add	sp, #16
 8005f1e:	2000      	movs	r0, #0
 8005f20:	4770      	bx	lr

08005f22 <USB_EnableGlobalInt>:
  *         Enables the controller's Global Int in the AHB Config reg
  * @param  USBx Selected device
  * @retval HAL status
  */
HAL_StatusTypeDef USB_EnableGlobalInt(USB_TypeDef *USBx)
{
 8005f22:	4603      	mov	r3, r0
                   USB_CNTR_SUSPM | USB_CNTR_ERRM |
                   USB_CNTR_SOFM | USB_CNTR_ESOFM |
                   USB_CNTR_RESETM;

  /* Set interrupt mask */
  USBx->CNTR = (uint16_t)winterruptmask;
 8005f24:	f44f 423f 	mov.w	r2, #48896	; 0xbf00
  USBx->ISTR = 0U;
 8005f28:	2000      	movs	r0, #0
 8005f2a:	f8a3 0044 	strh.w	r0, [r3, #68]	; 0x44
  USBx->CNTR = (uint16_t)winterruptmask;
 8005f2e:	f8a3 2040 	strh.w	r2, [r3, #64]	; 0x40

  return HAL_OK;
}
 8005f32:	4770      	bx	lr

08005f34 <USB_DisableGlobalInt>:
                   USB_CNTR_SUSPM | USB_CNTR_ERRM |
                   USB_CNTR_SOFM | USB_CNTR_ESOFM |
                   USB_CNTR_RESETM;

  /* Clear interrupt mask */
  USBx->CNTR &= (uint16_t)(~winterruptmask);
 8005f34:	f8b0 3040 	ldrh.w	r3, [r0, #64]	; 0x40
 8005f38:	f423 537c 	bic.w	r3, r3, #16128	; 0x3f00
 8005f3c:	045b      	lsls	r3, r3, #17
 8005f3e:	0c5b      	lsrs	r3, r3, #17
 8005f40:	f8a0 3040 	strh.w	r3, [r0, #64]	; 0x40

  return HAL_OK;
}
 8005f44:	2000      	movs	r0, #0
 8005f46:	4770      	bx	lr

08005f48 <USB_SetCurrentMode>:
  /* NOTE : - This function is not required by USB Device FS peripheral, it is used
              only by USB OTG FS peripheral.
            - This function is added to ensure compatibility across platforms.
   */
  return HAL_OK;
}
 8005f48:	2000      	movs	r0, #0
 8005f4a:	4770      	bx	lr

08005f4c <USB_DevInit>:
  * @param  cfg  pointer to a USB_CfgTypeDef structure that contains
  *         the configuration information for the specified USBx peripheral.
  * @retval HAL status
  */
HAL_StatusTypeDef USB_DevInit(USB_TypeDef *USBx, USB_CfgTypeDef cfg)
{
 8005f4c:	b084      	sub	sp, #16
 8005f4e:	b510      	push	{r4, lr}
 8005f50:	4604      	mov	r4, r0
 8005f52:	a803      	add	r0, sp, #12
 8005f54:	e880 000e 	stmia.w	r0, {r1, r2, r3}
  /* Init Device */
  /* CNTR_FRES = 1 */
  USBx->CNTR = (uint16_t)USB_CNTR_FRES;

  /* CNTR_FRES = 0 */
  USBx->CNTR = 0U;
 8005f58:	2000      	movs	r0, #0
  USBx->CNTR = (uint16_t)USB_CNTR_FRES;
 8005f5a:	2301      	movs	r3, #1
 8005f5c:	f8a4 3040 	strh.w	r3, [r4, #64]	; 0x40
  USBx->CNTR = 0U;
 8005f60:	f8a4 0040 	strh.w	r0, [r4, #64]	; 0x40

  /* Clear pending interrupts */
  USBx->ISTR = 0U;
 8005f64:	f8a4 0044 	strh.w	r0, [r4, #68]	; 0x44

  /*Set Btable Address*/
  USBx->BTABLE = BTABLE_ADDRESS;
 8005f68:	f8a4 0050 	strh.w	r0, [r4, #80]	; 0x50

  return HAL_OK;
}
 8005f6c:	e8bd 4010 	ldmia.w	sp!, {r4, lr}
 8005f70:	b004      	add	sp, #16
 8005f72:	4770      	bx	lr

08005f74 <USB_ActivateEndpoint>:
  * @param  USBx Selected device
  * @param  ep pointer to endpoint structure
  * @retval HAL status
  */
HAL_StatusTypeDef USB_ActivateEndpoint(USB_TypeDef *USBx, USB_EPTypeDef *ep)
{
 8005f74:	b5f0      	push	{r4, r5, r6, r7, lr}
  HAL_StatusTypeDef ret = HAL_OK;
  uint16_t wEpRegVal;

  wEpRegVal = PCD_GET_ENDPOINT(USBx, ep->num) & USB_EP_T_MASK;
 8005f76:	780a      	ldrb	r2, [r1, #0]

  /* initialize Endpoint */
  switch (ep->type)
 8005f78:	78ce      	ldrb	r6, [r1, #3]
  wEpRegVal = PCD_GET_ENDPOINT(USBx, ep->num) & USB_EP_T_MASK;
 8005f7a:	f830 4022 	ldrh.w	r4, [r0, r2, lsl #2]
{
 8005f7e:	4603      	mov	r3, r0
  wEpRegVal = PCD_GET_ENDPOINT(USBx, ep->num) & USB_EP_T_MASK;
 8005f80:	f424 44ec 	bic.w	r4, r4, #30208	; 0x7600
 8005f84:	f024 0470 	bic.w	r4, r4, #112	; 0x70
 8005f88:	0424      	lsls	r4, r4, #16
 8005f8a:	0c24      	lsrs	r4, r4, #16
  switch (ep->type)
 8005f8c:	2e03      	cmp	r6, #3
 8005f8e:	d84c      	bhi.n	800602a <USB_ActivateEndpoint+0xb6>
 8005f90:	e8df f006 	tbb	[pc, r6]
 8005f94:	44464802 	.word	0x44464802
  HAL_StatusTypeDef ret = HAL_OK;
 8005f98:	4630      	mov	r0, r6
  {
    case EP_TYPE_CTRL:
      wEpRegVal |= USB_EP_CONTROL;
 8005f9a:	f444 7400 	orr.w	r4, r4, #512	; 0x200
    default:
      ret = HAL_ERROR;
      break;
  }

  PCD_SET_ENDPOINT(USBx, ep->num, (wEpRegVal | USB_EP_CTR_RX | USB_EP_CTR_TX));
 8005f9e:	f248 0780 	movw	r7, #32896	; 0x8080
 8005fa2:	433c      	orrs	r4, r7
 8005fa4:	f823 4022 	strh.w	r4, [r3, r2, lsl #2]

  PCD_SET_EP_ADDRESS(USBx, ep->num, ep->num);
 8005fa8:	f833 4022 	ldrh.w	r4, [r3, r2, lsl #2]
 8005fac:	f8df c27c 	ldr.w	ip, [pc, #636]	; 800622c <USB_ActivateEndpoint+0x2b8>
 8005fb0:	b2a4      	uxth	r4, r4
 8005fb2:	ea04 040c 	and.w	r4, r4, ip
 8005fb6:	4314      	orrs	r4, r2
 8005fb8:	433c      	orrs	r4, r7
 8005fba:	f823 4022 	strh.w	r4, [r3, r2, lsl #2]

  if (ep->doublebuffer == 0U)
 8005fbe:	7b0c      	ldrb	r4, [r1, #12]
 8005fc0:	eb03 1e02 	add.w	lr, r3, r2, lsl #4
 8005fc4:	2c00      	cmp	r4, #0
 8005fc6:	f040 808b 	bne.w	80060e0 <USB_ActivateEndpoint+0x16c>
  {
    if (ep->is_in != 0U)
    {
      /*Set the endpoint Transmit buffer address */
      PCD_SET_EP_TX_ADDRESS(USBx, ep->num, ep->pmaadress);
 8005fca:	88cd      	ldrh	r5, [r1, #6]
    if (ep->is_in != 0U)
 8005fcc:	784c      	ldrb	r4, [r1, #1]
      PCD_SET_EP_TX_ADDRESS(USBx, ep->num, ep->pmaadress);
 8005fce:	086d      	lsrs	r5, r5, #1
 8005fd0:	006d      	lsls	r5, r5, #1
    if (ep->is_in != 0U)
 8005fd2:	b364      	cbz	r4, 800602e <USB_ActivateEndpoint+0xba>
      PCD_SET_EP_TX_ADDRESS(USBx, ep->num, ep->pmaadress);
 8005fd4:	f8b3 4050 	ldrh.w	r4, [r3, #80]	; 0x50
 8005fd8:	b2a4      	uxth	r4, r4
 8005fda:	4474      	add	r4, lr
 8005fdc:	f8a4 5400 	strh.w	r5, [r4, #1024]	; 0x400
      PCD_CLEAR_TX_DTOG(USBx, ep->num);
 8005fe0:	f833 1022 	ldrh.w	r1, [r3, r2, lsl #2]
 8005fe4:	064f      	lsls	r7, r1, #25
 8005fe6:	d50a      	bpl.n	8005ffe <USB_ActivateEndpoint+0x8a>
 8005fe8:	f833 5022 	ldrh.w	r5, [r3, r2, lsl #2]
 8005fec:	b2ad      	uxth	r5, r5
 8005fee:	ea05 050c 	and.w	r5, r5, ip
 8005ff2:	f445 4500 	orr.w	r5, r5, #32768	; 0x8000
 8005ff6:	f045 05c0 	orr.w	r5, r5, #192	; 0xc0
 8005ffa:	f823 5022 	strh.w	r5, [r3, r2, lsl #2]

      if (ep->type != EP_TYPE_ISOC)
      {
        /* Configure NAK status for the Endpoint */
        PCD_SET_EP_TX_STATUS(USBx, ep->num, USB_EP_TX_NAK);
 8005ffe:	f833 1022 	ldrh.w	r1, [r3, r2, lsl #2]
 8006002:	4c8b      	ldr	r4, [pc, #556]	; (8006230 <USB_ActivateEndpoint+0x2bc>)
 8006004:	b289      	uxth	r1, r1
      if (ep->type != EP_TYPE_ISOC)
 8006006:	2e01      	cmp	r6, #1
        PCD_SET_EP_TX_STATUS(USBx, ep->num, USB_EP_TX_NAK);
 8006008:	ea01 0104 	and.w	r1, r1, r4
      if (ep->type != EP_TYPE_ISOC)
 800600c:	d001      	beq.n	8006012 <USB_ActivateEndpoint+0x9e>
        PCD_SET_EP_TX_STATUS(USBx, ep->num, USB_EP_TX_NAK);
 800600e:	f081 0120 	eor.w	r1, r1, #32
      {
        /* Configure TX Endpoint to disabled state */
        PCD_SET_EP_TX_STATUS(USBx, ep->num, USB_EP_TX_DIS);
      }

      PCD_SET_EP_RX_STATUS(USBx, ep->num, USB_EP_RX_DIS);
 8006012:	f441 4100 	orr.w	r1, r1, #32768	; 0x8000
 8006016:	f041 0180 	orr.w	r1, r1, #128	; 0x80
 800601a:	e0bf      	b.n	800619c <USB_ActivateEndpoint+0x228>
      wEpRegVal |= USB_EP_INTERRUPT;
 800601c:	f444 64c0 	orr.w	r4, r4, #1536	; 0x600
  HAL_StatusTypeDef ret = HAL_OK;
 8006020:	2000      	movs	r0, #0
      break;
 8006022:	e7bc      	b.n	8005f9e <USB_ActivateEndpoint+0x2a>
      wEpRegVal |= USB_EP_ISOCHRONOUS;
 8006024:	f444 6480 	orr.w	r4, r4, #1024	; 0x400
      break;
 8006028:	e7fa      	b.n	8006020 <USB_ActivateEndpoint+0xac>
  switch (ep->type)
 800602a:	2001      	movs	r0, #1
 800602c:	e7b7      	b.n	8005f9e <USB_ActivateEndpoint+0x2a>
      PCD_SET_EP_RX_ADDRESS(USBx, ep->num, ep->pmaadress);
 800602e:	f8b3 4050 	ldrh.w	r4, [r3, #80]	; 0x50
 8006032:	b2a4      	uxth	r4, r4
 8006034:	4474      	add	r4, lr
 8006036:	f8a4 5408 	strh.w	r5, [r4, #1032]	; 0x408
      PCD_SET_EP_RX_CNT(USBx, ep->num, ep->maxpacket);
 800603a:	f8b3 4050 	ldrh.w	r4, [r3, #80]	; 0x50
 800603e:	b2a4      	uxth	r4, r4
 8006040:	4474      	add	r4, lr
 8006042:	f8b4 540c 	ldrh.w	r5, [r4, #1036]	; 0x40c
 8006046:	f3c5 0509 	ubfx	r5, r5, #0, #10
 800604a:	f8a4 540c 	strh.w	r5, [r4, #1036]	; 0x40c
 800604e:	690d      	ldr	r5, [r1, #16]
 8006050:	2d3e      	cmp	r5, #62	; 0x3e
 8006052:	d92f      	bls.n	80060b4 <USB_ActivateEndpoint+0x140>
 8006054:	f8b4 140c 	ldrh.w	r1, [r4, #1036]	; 0x40c
 8006058:	096e      	lsrs	r6, r5, #5
 800605a:	06ed      	lsls	r5, r5, #27
 800605c:	bf08      	it	eq
 800605e:	f106 36ff 	addeq.w	r6, r6, #4294967295
 8006062:	b289      	uxth	r1, r1
 8006064:	ea41 2186 	orr.w	r1, r1, r6, lsl #10
 8006068:	ea6f 4141 	mvn.w	r1, r1, lsl #17
 800606c:	ea6f 4151 	mvn.w	r1, r1, lsr #17
 8006070:	b289      	uxth	r1, r1
 8006072:	f8a4 140c 	strh.w	r1, [r4, #1036]	; 0x40c
      PCD_CLEAR_RX_DTOG(USBx, ep->num);
 8006076:	f833 1022 	ldrh.w	r1, [r3, r2, lsl #2]
 800607a:	044f      	lsls	r7, r1, #17
 800607c:	d50d      	bpl.n	800609a <USB_ActivateEndpoint+0x126>
 800607e:	f833 1022 	ldrh.w	r1, [r3, r2, lsl #2]
 8006082:	f421 41e0 	bic.w	r1, r1, #28672	; 0x7000
 8006086:	f021 0170 	bic.w	r1, r1, #112	; 0x70
 800608a:	0409      	lsls	r1, r1, #16
 800608c:	0c09      	lsrs	r1, r1, #16
 800608e:	f441 4140 	orr.w	r1, r1, #49152	; 0xc000
 8006092:	f041 0180 	orr.w	r1, r1, #128	; 0x80
 8006096:	f823 1022 	strh.w	r1, [r3, r2, lsl #2]
      if (ep->num == 0U)
 800609a:	4c66      	ldr	r4, [pc, #408]	; (8006234 <USB_ActivateEndpoint+0x2c0>)
 800609c:	b9ca      	cbnz	r2, 80060d2 <USB_ActivateEndpoint+0x15e>
        PCD_SET_EP_RX_STATUS(USBx, ep->num, USB_EP_RX_VALID);
 800609e:	8819      	ldrh	r1, [r3, #0]
 80060a0:	b289      	uxth	r1, r1
 80060a2:	4021      	ands	r1, r4
 80060a4:	f481 5140 	eor.w	r1, r1, #12288	; 0x3000
 80060a8:	f441 4100 	orr.w	r1, r1, #32768	; 0x8000
 80060ac:	f041 0180 	orr.w	r1, r1, #128	; 0x80
 80060b0:	8019      	strh	r1, [r3, #0]
    }
  }
#endif /* (USE_USB_DOUBLE_BUFFER == 1U) */

  return ret;
}
 80060b2:	bdf0      	pop	{r4, r5, r6, r7, pc}
      PCD_SET_EP_RX_CNT(USBx, ep->num, ep->maxpacket);
 80060b4:	b915      	cbnz	r5, 80060bc <USB_ActivateEndpoint+0x148>
 80060b6:	f8b4 140c 	ldrh.w	r1, [r4, #1036]	; 0x40c
 80060ba:	e7d5      	b.n	8006068 <USB_ActivateEndpoint+0xf4>
 80060bc:	07e9      	lsls	r1, r5, #31
 80060be:	f8b4 140c 	ldrh.w	r1, [r4, #1036]	; 0x40c
 80060c2:	ea4f 0655 	mov.w	r6, r5, lsr #1
 80060c6:	bf48      	it	mi
 80060c8:	3601      	addmi	r6, #1
 80060ca:	b289      	uxth	r1, r1
 80060cc:	ea41 2186 	orr.w	r1, r1, r6, lsl #10
 80060d0:	e7ce      	b.n	8006070 <USB_ActivateEndpoint+0xfc>
        PCD_SET_EP_RX_STATUS(USBx, ep->num, USB_EP_RX_NAK);
 80060d2:	f833 1022 	ldrh.w	r1, [r3, r2, lsl #2]
 80060d6:	b289      	uxth	r1, r1
 80060d8:	4021      	ands	r1, r4
 80060da:	f481 5100 	eor.w	r1, r1, #8192	; 0x2000
 80060de:	e798      	b.n	8006012 <USB_ActivateEndpoint+0x9e>
    if (ep->type == EP_TYPE_BULK)
 80060e0:	2e02      	cmp	r6, #2
      PCD_SET_BULK_EP_DBUF(USBx, ep->num);
 80060e2:	f833 5022 	ldrh.w	r5, [r3, r2, lsl #2]
    if (ep->type == EP_TYPE_BULK)
 80060e6:	d15c      	bne.n	80061a2 <USB_ActivateEndpoint+0x22e>
      PCD_SET_BULK_EP_DBUF(USBx, ep->num);
 80060e8:	b2ad      	uxth	r5, r5
 80060ea:	ea05 050c 	and.w	r5, r5, ip
 80060ee:	f445 4501 	orr.w	r5, r5, #33024	; 0x8100
 80060f2:	f045 0580 	orr.w	r5, r5, #128	; 0x80
      PCD_CLEAR_EP_KIND(USBx, ep->num);
 80060f6:	f823 5022 	strh.w	r5, [r3, r2, lsl #2]
    PCD_SET_EP_DBUF_ADDR(USBx, ep->num, ep->pmaaddr0, ep->pmaaddr1);
 80060fa:	f8b3 4050 	ldrh.w	r4, [r3, #80]	; 0x50
 80060fe:	890d      	ldrh	r5, [r1, #8]
 8006100:	b2a4      	uxth	r4, r4
 8006102:	086d      	lsrs	r5, r5, #1
 8006104:	4474      	add	r4, lr
 8006106:	006d      	lsls	r5, r5, #1
 8006108:	f8a4 5400 	strh.w	r5, [r4, #1024]	; 0x400
 800610c:	894d      	ldrh	r5, [r1, #10]
 800610e:	f8b3 4050 	ldrh.w	r4, [r3, #80]	; 0x50
 8006112:	086d      	lsrs	r5, r5, #1
 8006114:	b2a4      	uxth	r4, r4
 8006116:	4474      	add	r4, lr
 8006118:	006d      	lsls	r5, r5, #1
 800611a:	f8a4 5408 	strh.w	r5, [r4, #1032]	; 0x408
    if (ep->is_in == 0U)
 800611e:	7849      	ldrb	r1, [r1, #1]
 8006120:	2900      	cmp	r1, #0
 8006122:	d146      	bne.n	80061b2 <USB_ActivateEndpoint+0x23e>
      PCD_CLEAR_RX_DTOG(USBx, ep->num);
 8006124:	f833 1022 	ldrh.w	r1, [r3, r2, lsl #2]
 8006128:	044e      	lsls	r6, r1, #17
 800612a:	d50d      	bpl.n	8006148 <USB_ActivateEndpoint+0x1d4>
 800612c:	f833 1022 	ldrh.w	r1, [r3, r2, lsl #2]
 8006130:	f421 41e0 	bic.w	r1, r1, #28672	; 0x7000
 8006134:	f021 0170 	bic.w	r1, r1, #112	; 0x70
 8006138:	0409      	lsls	r1, r1, #16
 800613a:	0c09      	lsrs	r1, r1, #16
 800613c:	f441 4140 	orr.w	r1, r1, #49152	; 0xc000
 8006140:	f041 0180 	orr.w	r1, r1, #128	; 0x80
 8006144:	f823 1022 	strh.w	r1, [r3, r2, lsl #2]
      PCD_CLEAR_TX_DTOG(USBx, ep->num);
 8006148:	f833 1022 	ldrh.w	r1, [r3, r2, lsl #2]
 800614c:	064d      	lsls	r5, r1, #25
 800614e:	d50d      	bpl.n	800616c <USB_ActivateEndpoint+0x1f8>
 8006150:	f833 1022 	ldrh.w	r1, [r3, r2, lsl #2]
 8006154:	f421 41e0 	bic.w	r1, r1, #28672	; 0x7000
 8006158:	f021 0170 	bic.w	r1, r1, #112	; 0x70
 800615c:	0409      	lsls	r1, r1, #16
 800615e:	0c09      	lsrs	r1, r1, #16
 8006160:	f441 4100 	orr.w	r1, r1, #32768	; 0x8000
 8006164:	f041 01c0 	orr.w	r1, r1, #192	; 0xc0
 8006168:	f823 1022 	strh.w	r1, [r3, r2, lsl #2]
      PCD_SET_EP_RX_STATUS(USBx, ep->num, USB_EP_RX_VALID);
 800616c:	f248 0480 	movw	r4, #32896	; 0x8080
 8006170:	f833 1022 	ldrh.w	r1, [r3, r2, lsl #2]
 8006174:	f421 4180 	bic.w	r1, r1, #16384	; 0x4000
 8006178:	f021 0170 	bic.w	r1, r1, #112	; 0x70
 800617c:	0409      	lsls	r1, r1, #16
 800617e:	0c09      	lsrs	r1, r1, #16
 8006180:	f481 5140 	eor.w	r1, r1, #12288	; 0x3000
 8006184:	4321      	orrs	r1, r4
 8006186:	f823 1022 	strh.w	r1, [r3, r2, lsl #2]
      PCD_SET_EP_TX_STATUS(USBx, ep->num, USB_EP_TX_DIS);
 800618a:	f833 1022 	ldrh.w	r1, [r3, r2, lsl #2]
 800618e:	f421 41e0 	bic.w	r1, r1, #28672	; 0x7000
 8006192:	f021 0140 	bic.w	r1, r1, #64	; 0x40
 8006196:	0409      	lsls	r1, r1, #16
 8006198:	0c09      	lsrs	r1, r1, #16
 800619a:	4321      	orrs	r1, r4
      PCD_SET_EP_RX_STATUS(USBx, ep->num, USB_EP_RX_DIS);
 800619c:	f823 1022 	strh.w	r1, [r3, r2, lsl #2]
 80061a0:	e787      	b.n	80060b2 <USB_ActivateEndpoint+0x13e>
      PCD_CLEAR_EP_KIND(USBx, ep->num);
 80061a2:	f425 45e2 	bic.w	r5, r5, #28928	; 0x7100
 80061a6:	f025 0570 	bic.w	r5, r5, #112	; 0x70
 80061aa:	042d      	lsls	r5, r5, #16
 80061ac:	0c2d      	lsrs	r5, r5, #16
 80061ae:	433d      	orrs	r5, r7
 80061b0:	e7a1      	b.n	80060f6 <USB_ActivateEndpoint+0x182>
      PCD_CLEAR_RX_DTOG(USBx, ep->num);
 80061b2:	f833 1022 	ldrh.w	r1, [r3, r2, lsl #2]
 80061b6:	044c      	lsls	r4, r1, #17
 80061b8:	d50d      	bpl.n	80061d6 <USB_ActivateEndpoint+0x262>
 80061ba:	f833 1022 	ldrh.w	r1, [r3, r2, lsl #2]
 80061be:	f421 41e0 	bic.w	r1, r1, #28672	; 0x7000
 80061c2:	f021 0170 	bic.w	r1, r1, #112	; 0x70
 80061c6:	0409      	lsls	r1, r1, #16
 80061c8:	0c09      	lsrs	r1, r1, #16
 80061ca:	f441 4140 	orr.w	r1, r1, #49152	; 0xc000
 80061ce:	f041 0180 	orr.w	r1, r1, #128	; 0x80
 80061d2:	f823 1022 	strh.w	r1, [r3, r2, lsl #2]
      PCD_CLEAR_TX_DTOG(USBx, ep->num);
 80061d6:	f833 1022 	ldrh.w	r1, [r3, r2, lsl #2]
 80061da:	0649      	lsls	r1, r1, #25
 80061dc:	d50d      	bpl.n	80061fa <USB_ActivateEndpoint+0x286>
 80061de:	f833 1022 	ldrh.w	r1, [r3, r2, lsl #2]
 80061e2:	f421 41e0 	bic.w	r1, r1, #28672	; 0x7000
 80061e6:	f021 0170 	bic.w	r1, r1, #112	; 0x70
 80061ea:	0409      	lsls	r1, r1, #16
 80061ec:	0c09      	lsrs	r1, r1, #16
 80061ee:	f441 4100 	orr.w	r1, r1, #32768	; 0x8000
 80061f2:	f041 01c0 	orr.w	r1, r1, #192	; 0xc0
 80061f6:	f823 1022 	strh.w	r1, [r3, r2, lsl #2]
        PCD_SET_EP_TX_STATUS(USBx, ep->num, USB_EP_TX_NAK);
 80061fa:	f833 1022 	ldrh.w	r1, [r3, r2, lsl #2]
 80061fe:	4c0c      	ldr	r4, [pc, #48]	; (8006230 <USB_ActivateEndpoint+0x2bc>)
 8006200:	b289      	uxth	r1, r1
 8006202:	4021      	ands	r1, r4
      if (ep->type != EP_TYPE_ISOC)
 8006204:	2e01      	cmp	r6, #1
        PCD_SET_EP_TX_STATUS(USBx, ep->num, USB_EP_TX_NAK);
 8006206:	bf18      	it	ne
 8006208:	f081 0120 	eorne.w	r1, r1, #32
        PCD_SET_EP_TX_STATUS(USBx, ep->num, USB_EP_TX_DIS);
 800620c:	f441 4100 	orr.w	r1, r1, #32768	; 0x8000
 8006210:	f041 0180 	orr.w	r1, r1, #128	; 0x80
 8006214:	f823 1022 	strh.w	r1, [r3, r2, lsl #2]
      PCD_SET_EP_RX_STATUS(USBx, ep->num, USB_EP_RX_DIS);
 8006218:	f833 1022 	ldrh.w	r1, [r3, r2, lsl #2]
 800621c:	f421 4180 	bic.w	r1, r1, #16384	; 0x4000
 8006220:	f021 0170 	bic.w	r1, r1, #112	; 0x70
 8006224:	0409      	lsls	r1, r1, #16
 8006226:	0c09      	lsrs	r1, r1, #16
 8006228:	e6f3      	b.n	8006012 <USB_ActivateEndpoint+0x9e>
 800622a:	bf00      	nop
 800622c:	ffff8f8f 	.word	0xffff8f8f
 8006230:	ffff8fbf 	.word	0xffff8fbf
 8006234:	ffffbf8f 	.word	0xffffbf8f

08006238 <USB_DeactivateEndpoint>:
  */
HAL_StatusTypeDef USB_DeactivateEndpoint(USB_TypeDef *USBx, USB_EPTypeDef *ep)
{
  if (ep->doublebuffer == 0U)
  {
    if (ep->is_in != 0U)
 8006238:	784a      	ldrb	r2, [r1, #1]
    {
      PCD_CLEAR_TX_DTOG(USBx, ep->num);
 800623a:	780b      	ldrb	r3, [r1, #0]
  if (ep->doublebuffer == 0U)
 800623c:	7b09      	ldrb	r1, [r1, #12]
 800623e:	bbd9      	cbnz	r1, 80062b8 <USB_DeactivateEndpoint+0x80>
    if (ep->is_in != 0U)
 8006240:	b30a      	cbz	r2, 8006286 <USB_DeactivateEndpoint+0x4e>
      PCD_CLEAR_TX_DTOG(USBx, ep->num);
 8006242:	f830 2023 	ldrh.w	r2, [r0, r3, lsl #2]
 8006246:	0651      	lsls	r1, r2, #25
 8006248:	d50d      	bpl.n	8006266 <USB_DeactivateEndpoint+0x2e>
 800624a:	f830 2023 	ldrh.w	r2, [r0, r3, lsl #2]
 800624e:	f422 42e0 	bic.w	r2, r2, #28672	; 0x7000
 8006252:	f022 0270 	bic.w	r2, r2, #112	; 0x70
 8006256:	0412      	lsls	r2, r2, #16
 8006258:	0c12      	lsrs	r2, r2, #16
 800625a:	f442 4200 	orr.w	r2, r2, #32768	; 0x8000
 800625e:	f042 02c0 	orr.w	r2, r2, #192	; 0xc0
 8006262:	f820 2023 	strh.w	r2, [r0, r3, lsl #2]

      /* Configure DISABLE status for the Endpoint */
      PCD_SET_EP_TX_STATUS(USBx, ep->num, USB_EP_TX_DIS);
 8006266:	f830 2023 	ldrh.w	r2, [r0, r3, lsl #2]
 800626a:	f422 42e0 	bic.w	r2, r2, #28672	; 0x7000
 800626e:	f022 0240 	bic.w	r2, r2, #64	; 0x40
    else
    {
      PCD_CLEAR_RX_DTOG(USBx, ep->num);

      /* Configure DISABLE status for the Endpoint */
      PCD_SET_EP_RX_STATUS(USBx, ep->num, USB_EP_RX_DIS);
 8006272:	0412      	lsls	r2, r2, #16
 8006274:	0c12      	lsrs	r2, r2, #16
 8006276:	f442 4200 	orr.w	r2, r2, #32768	; 0x8000
 800627a:	f042 0280 	orr.w	r2, r2, #128	; 0x80
      PCD_CLEAR_TX_DTOG(USBx, ep->num);
      PCD_RX_DTOG(USBx, ep->num);

      /* Configure DISABLE status for the Endpoint*/
      PCD_SET_EP_TX_STATUS(USBx, ep->num, USB_EP_TX_DIS);
      PCD_SET_EP_RX_STATUS(USBx, ep->num, USB_EP_RX_DIS);
 800627e:	f820 2023 	strh.w	r2, [r0, r3, lsl #2]
    }
  }
#endif /* (USE_USB_DOUBLE_BUFFER == 1U) */

  return HAL_OK;
}
 8006282:	2000      	movs	r0, #0
 8006284:	4770      	bx	lr
      PCD_CLEAR_RX_DTOG(USBx, ep->num);
 8006286:	f830 2023 	ldrh.w	r2, [r0, r3, lsl #2]
 800628a:	0452      	lsls	r2, r2, #17
 800628c:	d50d      	bpl.n	80062aa <USB_DeactivateEndpoint+0x72>
 800628e:	f830 2023 	ldrh.w	r2, [r0, r3, lsl #2]
 8006292:	f422 42e0 	bic.w	r2, r2, #28672	; 0x7000
 8006296:	f022 0270 	bic.w	r2, r2, #112	; 0x70
 800629a:	0412      	lsls	r2, r2, #16
 800629c:	0c12      	lsrs	r2, r2, #16
 800629e:	f442 4240 	orr.w	r2, r2, #49152	; 0xc000
 80062a2:	f042 0280 	orr.w	r2, r2, #128	; 0x80
 80062a6:	f820 2023 	strh.w	r2, [r0, r3, lsl #2]
      PCD_SET_EP_RX_STATUS(USBx, ep->num, USB_EP_RX_DIS);
 80062aa:	f830 2023 	ldrh.w	r2, [r0, r3, lsl #2]
 80062ae:	f422 4280 	bic.w	r2, r2, #16384	; 0x4000
 80062b2:	f022 0270 	bic.w	r2, r2, #112	; 0x70
 80062b6:	e7dc      	b.n	8006272 <USB_DeactivateEndpoint+0x3a>
    if (ep->is_in == 0U)
 80062b8:	2a00      	cmp	r2, #0
 80062ba:	d148      	bne.n	800634e <USB_DeactivateEndpoint+0x116>
      PCD_CLEAR_RX_DTOG(USBx, ep->num);
 80062bc:	f830 2023 	ldrh.w	r2, [r0, r3, lsl #2]
 80062c0:	0451      	lsls	r1, r2, #17
 80062c2:	d50d      	bpl.n	80062e0 <USB_DeactivateEndpoint+0xa8>
 80062c4:	f830 2023 	ldrh.w	r2, [r0, r3, lsl #2]
 80062c8:	f422 42e0 	bic.w	r2, r2, #28672	; 0x7000
 80062cc:	f022 0270 	bic.w	r2, r2, #112	; 0x70
 80062d0:	0412      	lsls	r2, r2, #16
 80062d2:	0c12      	lsrs	r2, r2, #16
 80062d4:	f442 4240 	orr.w	r2, r2, #49152	; 0xc000
 80062d8:	f042 0280 	orr.w	r2, r2, #128	; 0x80
 80062dc:	f820 2023 	strh.w	r2, [r0, r3, lsl #2]
      PCD_CLEAR_TX_DTOG(USBx, ep->num);
 80062e0:	f830 2023 	ldrh.w	r2, [r0, r3, lsl #2]
 80062e4:	0652      	lsls	r2, r2, #25
 80062e6:	d50d      	bpl.n	8006304 <USB_DeactivateEndpoint+0xcc>
 80062e8:	f830 2023 	ldrh.w	r2, [r0, r3, lsl #2]
 80062ec:	f422 42e0 	bic.w	r2, r2, #28672	; 0x7000
 80062f0:	f022 0270 	bic.w	r2, r2, #112	; 0x70
 80062f4:	0412      	lsls	r2, r2, #16
 80062f6:	0c12      	lsrs	r2, r2, #16
 80062f8:	f442 4200 	orr.w	r2, r2, #32768	; 0x8000
 80062fc:	f042 02c0 	orr.w	r2, r2, #192	; 0xc0
 8006300:	f820 2023 	strh.w	r2, [r0, r3, lsl #2]
      PCD_SET_EP_RX_STATUS(USBx, ep->num, USB_EP_RX_DIS);
 8006304:	f248 0180 	movw	r1, #32896	; 0x8080
      PCD_TX_DTOG(USBx, ep->num);
 8006308:	f830 2023 	ldrh.w	r2, [r0, r3, lsl #2]
 800630c:	f422 42e0 	bic.w	r2, r2, #28672	; 0x7000
 8006310:	f022 0270 	bic.w	r2, r2, #112	; 0x70
 8006314:	0412      	lsls	r2, r2, #16
 8006316:	0c12      	lsrs	r2, r2, #16
 8006318:	f442 4200 	orr.w	r2, r2, #32768	; 0x8000
 800631c:	f042 02c0 	orr.w	r2, r2, #192	; 0xc0
 8006320:	f820 2023 	strh.w	r2, [r0, r3, lsl #2]
      PCD_SET_EP_RX_STATUS(USBx, ep->num, USB_EP_RX_DIS);
 8006324:	f830 2023 	ldrh.w	r2, [r0, r3, lsl #2]
 8006328:	f422 4280 	bic.w	r2, r2, #16384	; 0x4000
 800632c:	f022 0270 	bic.w	r2, r2, #112	; 0x70
 8006330:	0412      	lsls	r2, r2, #16
 8006332:	0c12      	lsrs	r2, r2, #16
 8006334:	430a      	orrs	r2, r1
 8006336:	f820 2023 	strh.w	r2, [r0, r3, lsl #2]
      PCD_SET_EP_TX_STATUS(USBx, ep->num, USB_EP_TX_DIS);
 800633a:	f830 2023 	ldrh.w	r2, [r0, r3, lsl #2]
 800633e:	f422 42e0 	bic.w	r2, r2, #28672	; 0x7000
 8006342:	f022 0240 	bic.w	r2, r2, #64	; 0x40
      PCD_SET_EP_RX_STATUS(USBx, ep->num, USB_EP_RX_DIS);
 8006346:	0412      	lsls	r2, r2, #16
 8006348:	0c12      	lsrs	r2, r2, #16
 800634a:	430a      	orrs	r2, r1
 800634c:	e797      	b.n	800627e <USB_DeactivateEndpoint+0x46>
      PCD_CLEAR_RX_DTOG(USBx, ep->num);
 800634e:	f830 2023 	ldrh.w	r2, [r0, r3, lsl #2]
 8006352:	0451      	lsls	r1, r2, #17
 8006354:	d50d      	bpl.n	8006372 <USB_DeactivateEndpoint+0x13a>
 8006356:	f830 2023 	ldrh.w	r2, [r0, r3, lsl #2]
 800635a:	f422 42e0 	bic.w	r2, r2, #28672	; 0x7000
 800635e:	f022 0270 	bic.w	r2, r2, #112	; 0x70
 8006362:	0412      	lsls	r2, r2, #16
 8006364:	0c12      	lsrs	r2, r2, #16
 8006366:	f442 4240 	orr.w	r2, r2, #49152	; 0xc000
 800636a:	f042 0280 	orr.w	r2, r2, #128	; 0x80
 800636e:	f820 2023 	strh.w	r2, [r0, r3, lsl #2]
      PCD_CLEAR_TX_DTOG(USBx, ep->num);
 8006372:	f830 2023 	ldrh.w	r2, [r0, r3, lsl #2]
 8006376:	0652      	lsls	r2, r2, #25
 8006378:	d50d      	bpl.n	8006396 <USB_DeactivateEndpoint+0x15e>
 800637a:	f830 2023 	ldrh.w	r2, [r0, r3, lsl #2]
 800637e:	f422 42e0 	bic.w	r2, r2, #28672	; 0x7000
 8006382:	f022 0270 	bic.w	r2, r2, #112	; 0x70
 8006386:	0412      	lsls	r2, r2, #16
 8006388:	0c12      	lsrs	r2, r2, #16
 800638a:	f442 4200 	orr.w	r2, r2, #32768	; 0x8000
 800638e:	f042 02c0 	orr.w	r2, r2, #192	; 0xc0
 8006392:	f820 2023 	strh.w	r2, [r0, r3, lsl #2]
      PCD_SET_EP_TX_STATUS(USBx, ep->num, USB_EP_TX_DIS);
 8006396:	f248 0180 	movw	r1, #32896	; 0x8080
      PCD_RX_DTOG(USBx, ep->num);
 800639a:	f830 2023 	ldrh.w	r2, [r0, r3, lsl #2]
 800639e:	f422 42e0 	bic.w	r2, r2, #28672	; 0x7000
 80063a2:	f022 0270 	bic.w	r2, r2, #112	; 0x70
 80063a6:	0412      	lsls	r2, r2, #16
 80063a8:	0c12      	lsrs	r2, r2, #16
 80063aa:	f442 4240 	orr.w	r2, r2, #49152	; 0xc000
 80063ae:	f042 0280 	orr.w	r2, r2, #128	; 0x80
 80063b2:	f820 2023 	strh.w	r2, [r0, r3, lsl #2]
      PCD_SET_EP_TX_STATUS(USBx, ep->num, USB_EP_TX_DIS);
 80063b6:	f830 2023 	ldrh.w	r2, [r0, r3, lsl #2]
 80063ba:	f422 42e0 	bic.w	r2, r2, #28672	; 0x7000
 80063be:	f022 0240 	bic.w	r2, r2, #64	; 0x40
 80063c2:	0412      	lsls	r2, r2, #16
 80063c4:	0c12      	lsrs	r2, r2, #16
 80063c6:	430a      	orrs	r2, r1
 80063c8:	f820 2023 	strh.w	r2, [r0, r3, lsl #2]
      PCD_SET_EP_RX_STATUS(USBx, ep->num, USB_EP_RX_DIS);
 80063cc:	f830 2023 	ldrh.w	r2, [r0, r3, lsl #2]
 80063d0:	f422 4280 	bic.w	r2, r2, #16384	; 0x4000
 80063d4:	f022 0270 	bic.w	r2, r2, #112	; 0x70
 80063d8:	e7b5      	b.n	8006346 <USB_DeactivateEndpoint+0x10e>

080063da <USB_EPSetStall>:
  * @param  ep pointer to endpoint structure
  * @retval HAL status
  */
HAL_StatusTypeDef USB_EPSetStall(USB_TypeDef *USBx, USB_EPTypeDef *ep)
{
  if (ep->is_in != 0U)
 80063da:	784b      	ldrb	r3, [r1, #1]
  {
    PCD_SET_EP_TX_STATUS(USBx, ep->num, USB_EP_TX_STALL);
 80063dc:	780a      	ldrb	r2, [r1, #0]
  if (ep->is_in != 0U)
 80063de:	b18b      	cbz	r3, 8006404 <USB_EPSetStall+0x2a>
    PCD_SET_EP_TX_STATUS(USBx, ep->num, USB_EP_TX_STALL);
 80063e0:	f830 3022 	ldrh.w	r3, [r0, r2, lsl #2]
 80063e4:	f423 43e0 	bic.w	r3, r3, #28672	; 0x7000
 80063e8:	f023 0340 	bic.w	r3, r3, #64	; 0x40
 80063ec:	041b      	lsls	r3, r3, #16
 80063ee:	0c1b      	lsrs	r3, r3, #16
 80063f0:	f083 0310 	eor.w	r3, r3, #16
  }
  else
  {
    PCD_SET_EP_RX_STATUS(USBx, ep->num, USB_EP_RX_STALL);
 80063f4:	f443 4300 	orr.w	r3, r3, #32768	; 0x8000
 80063f8:	f043 0380 	orr.w	r3, r3, #128	; 0x80
 80063fc:	f820 3022 	strh.w	r3, [r0, r2, lsl #2]
  }

  return HAL_OK;
}
 8006400:	2000      	movs	r0, #0
 8006402:	4770      	bx	lr
    PCD_SET_EP_RX_STATUS(USBx, ep->num, USB_EP_RX_STALL);
 8006404:	f830 3022 	ldrh.w	r3, [r0, r2, lsl #2]
 8006408:	f423 4380 	bic.w	r3, r3, #16384	; 0x4000
 800640c:	f023 0370 	bic.w	r3, r3, #112	; 0x70
 8006410:	041b      	lsls	r3, r3, #16
 8006412:	0c1b      	lsrs	r3, r3, #16
 8006414:	f483 5380 	eor.w	r3, r3, #4096	; 0x1000
 8006418:	e7ec      	b.n	80063f4 <USB_EPSetStall+0x1a>

0800641a <USB_EPClearStall>:
  * @param  ep pointer to endpoint structure
  * @retval HAL status
  */
HAL_StatusTypeDef USB_EPClearStall(USB_TypeDef *USBx, USB_EPTypeDef *ep)
{
  if (ep->doublebuffer == 0U)
 800641a:	7b0b      	ldrb	r3, [r1, #12]
 800641c:	bb3b      	cbnz	r3, 800646e <USB_EPClearStall+0x54>
  {
    if (ep->is_in != 0U)
 800641e:	784b      	ldrb	r3, [r1, #1]
    {
      PCD_CLEAR_TX_DTOG(USBx, ep->num);
 8006420:	780a      	ldrb	r2, [r1, #0]
    if (ep->is_in != 0U)
 8006422:	b333      	cbz	r3, 8006472 <USB_EPClearStall+0x58>
      PCD_CLEAR_TX_DTOG(USBx, ep->num);
 8006424:	f830 3022 	ldrh.w	r3, [r0, r2, lsl #2]
 8006428:	065b      	lsls	r3, r3, #25
 800642a:	d50d      	bpl.n	8006448 <USB_EPClearStall+0x2e>
 800642c:	f830 3022 	ldrh.w	r3, [r0, r2, lsl #2]
 8006430:	f423 43e0 	bic.w	r3, r3, #28672	; 0x7000
 8006434:	f023 0370 	bic.w	r3, r3, #112	; 0x70
 8006438:	041b      	lsls	r3, r3, #16
 800643a:	0c1b      	lsrs	r3, r3, #16
 800643c:	f443 4300 	orr.w	r3, r3, #32768	; 0x8000
 8006440:	f043 03c0 	orr.w	r3, r3, #192	; 0xc0
 8006444:	f820 3022 	strh.w	r3, [r0, r2, lsl #2]

      if (ep->type != EP_TYPE_ISOC)
 8006448:	78cb      	ldrb	r3, [r1, #3]
 800644a:	2b01      	cmp	r3, #1
 800644c:	d00f      	beq.n	800646e <USB_EPClearStall+0x54>
      {
        /* Configure NAK status for the Endpoint */
        PCD_SET_EP_TX_STATUS(USBx, ep->num, USB_EP_TX_NAK);
 800644e:	f830 3022 	ldrh.w	r3, [r0, r2, lsl #2]
 8006452:	f423 43e0 	bic.w	r3, r3, #28672	; 0x7000
 8006456:	f023 0340 	bic.w	r3, r3, #64	; 0x40
 800645a:	041b      	lsls	r3, r3, #16
 800645c:	0c1b      	lsrs	r3, r3, #16
 800645e:	f083 0320 	eor.w	r3, r3, #32
    else
    {
      PCD_CLEAR_RX_DTOG(USBx, ep->num);

      /* Configure VALID status for the Endpoint */
      PCD_SET_EP_RX_STATUS(USBx, ep->num, USB_EP_RX_VALID);
 8006462:	f443 4300 	orr.w	r3, r3, #32768	; 0x8000
 8006466:	f043 0380 	orr.w	r3, r3, #128	; 0x80
 800646a:	f820 3022 	strh.w	r3, [r0, r2, lsl #2]
    }
  }

  return HAL_OK;
}
 800646e:	2000      	movs	r0, #0
 8006470:	4770      	bx	lr
      PCD_CLEAR_RX_DTOG(USBx, ep->num);
 8006472:	f830 3022 	ldrh.w	r3, [r0, r2, lsl #2]
 8006476:	045b      	lsls	r3, r3, #17
 8006478:	d50d      	bpl.n	8006496 <USB_EPClearStall+0x7c>
 800647a:	f830 3022 	ldrh.w	r3, [r0, r2, lsl #2]
 800647e:	f423 43e0 	bic.w	r3, r3, #28672	; 0x7000
 8006482:	f023 0370 	bic.w	r3, r3, #112	; 0x70
 8006486:	041b      	lsls	r3, r3, #16
 8006488:	0c1b      	lsrs	r3, r3, #16
 800648a:	f443 4340 	orr.w	r3, r3, #49152	; 0xc000
 800648e:	f043 0380 	orr.w	r3, r3, #128	; 0x80
 8006492:	f820 3022 	strh.w	r3, [r0, r2, lsl #2]
      PCD_SET_EP_RX_STATUS(USBx, ep->num, USB_EP_RX_VALID);
 8006496:	f830 3022 	ldrh.w	r3, [r0, r2, lsl #2]
 800649a:	f423 4380 	bic.w	r3, r3, #16384	; 0x4000
 800649e:	f023 0370 	bic.w	r3, r3, #112	; 0x70
 80064a2:	041b      	lsls	r3, r3, #16
 80064a4:	0c1b      	lsrs	r3, r3, #16
 80064a6:	f483 5340 	eor.w	r3, r3, #12288	; 0x3000
 80064aa:	e7da      	b.n	8006462 <USB_EPClearStall+0x48>

080064ac <USB_SetDevAddress>:
  *          This parameter can be a value from 0 to 255
  * @retval HAL status
  */
HAL_StatusTypeDef  USB_SetDevAddress(USB_TypeDef *USBx, uint8_t address)
{
  if (address == 0U)
 80064ac:	b911      	cbnz	r1, 80064b4 <USB_SetDevAddress+0x8>
  {
    /* set device address and enable function */
    USBx->DADDR = (uint16_t)USB_DADDR_EF;
 80064ae:	2380      	movs	r3, #128	; 0x80
 80064b0:	f8a0 304c 	strh.w	r3, [r0, #76]	; 0x4c
  }

  return HAL_OK;
}
 80064b4:	2000      	movs	r0, #0
 80064b6:	4770      	bx	lr

080064b8 <USB_DevConnect>:
 80064b8:	2000      	movs	r0, #0
 80064ba:	4770      	bx	lr

080064bc <USB_DevDisconnect>:
 80064bc:	2000      	movs	r0, #0
 80064be:	4770      	bx	lr

080064c0 <USB_ReadInterrupts>:
  */
uint32_t USB_ReadInterrupts(USB_TypeDef const *USBx)
{
  uint32_t tmpreg;

  tmpreg = USBx->ISTR;
 80064c0:	f8b0 0044 	ldrh.w	r0, [r0, #68]	; 0x44
  return tmpreg;
}
 80064c4:	b280      	uxth	r0, r0
 80064c6:	4770      	bx	lr

080064c8 <USB_EP0_OutStart>:
  /* NOTE : - This function is not required by USB Device FS peripheral, it is used
              only by USB OTG FS peripheral.
            - This function is added to ensure compatibility across platforms.
   */
  return HAL_OK;
}
 80064c8:	2000      	movs	r0, #0
 80064ca:	4770      	bx	lr

080064cc <USB_WritePMA>:
  uint32_t count;
  uint16_t WrVal;
  __IO uint16_t *pdwVal;
  uint8_t *pBuf = pbUsrBuf;

  pdwVal = (__IO uint16_t *)(BaseAddr + 0x400U + ((uint32_t)wPMABufAddr * PMA_ACCESS));
 80064cc:	eb00 0242 	add.w	r2, r0, r2, lsl #1
  uint32_t n = ((uint32_t)wNBytes + 1U) >> 1;
 80064d0:	3301      	adds	r3, #1
  pdwVal = (__IO uint16_t *)(BaseAddr + 0x400U + ((uint32_t)wPMABufAddr * PMA_ACCESS));
 80064d2:	f502 6280 	add.w	r2, r2, #1024	; 0x400
  uint32_t n = ((uint32_t)wNBytes + 1U) >> 1;
 80064d6:	085b      	lsrs	r3, r3, #1
 80064d8:	eb02 0383 	add.w	r3, r2, r3, lsl #2

  for (count = n; count != 0U; count--)
 80064dc:	4293      	cmp	r3, r2
 80064de:	d100      	bne.n	80064e2 <USB_WritePMA+0x16>
#endif /* PMA_ACCESS */

    pBuf++;
    pBuf++;
  }
}
 80064e0:	4770      	bx	lr
    WrVal |= (uint16_t)pBuf[1] << 8;
 80064e2:	f831 0b02 	ldrh.w	r0, [r1], #2
    *pdwVal = (WrVal & 0xFFFFU);
 80064e6:	f822 0b04 	strh.w	r0, [r2], #4
  for (count = n; count != 0U; count--)
 80064ea:	e7f7      	b.n	80064dc <USB_WritePMA+0x10>

080064ec <USB_EPStartXfer>:
{
 80064ec:	e92d 41f0 	stmdb	sp!, {r4, r5, r6, r7, r8, lr}
 80064f0:	460c      	mov	r4, r1
  if (ep->is_in == 1U)
 80064f2:	7849      	ldrb	r1, [r1, #1]
{
 80064f4:	4605      	mov	r5, r0
  if (ep->is_in == 1U)
 80064f6:	2901      	cmp	r1, #1
    if (ep->doublebuffer == 0U)
 80064f8:	7b22      	ldrb	r2, [r4, #12]
  if (ep->is_in == 1U)
 80064fa:	f040 811e 	bne.w	800673a <USB_EPStartXfer+0x24e>
    if (ep->xfer_len > ep->maxpacket)
 80064fe:	f8d4 e010 	ldr.w	lr, [r4, #16]
 8006502:	69a6      	ldr	r6, [r4, #24]
      USB_WritePMA(USBx, ep->xfer_buff, ep->pmaadress, (uint16_t)len);
 8006504:	6961      	ldr	r1, [r4, #20]
 8006506:	4576      	cmp	r6, lr
 8006508:	bf28      	it	cs
 800650a:	4676      	movcs	r6, lr
    if (ep->doublebuffer == 0U)
 800650c:	bb0a      	cbnz	r2, 8006552 <USB_EPStartXfer+0x66>
      USB_WritePMA(USBx, ep->xfer_buff, ep->pmaadress, (uint16_t)len);
 800650e:	b2b6      	uxth	r6, r6
 8006510:	88e2      	ldrh	r2, [r4, #6]
 8006512:	4633      	mov	r3, r6
 8006514:	f7ff ffda 	bl	80064cc <USB_WritePMA>
      PCD_SET_EP_TX_CNT(USBx, ep->num, len);
 8006518:	f8b5 2050 	ldrh.w	r2, [r5, #80]	; 0x50
 800651c:	7821      	ldrb	r1, [r4, #0]
 800651e:	b290      	uxth	r0, r2
 8006520:	f205 4204 	addw	r2, r5, #1028	; 0x404
 8006524:	0109      	lsls	r1, r1, #4
 8006526:	4402      	add	r2, r0
 8006528:	528e      	strh	r6, [r1, r2]
    PCD_SET_EP_TX_STATUS(USBx, ep->num, USB_EP_TX_VALID);
 800652a:	7822      	ldrb	r2, [r4, #0]
 800652c:	f835 3022 	ldrh.w	r3, [r5, r2, lsl #2]
 8006530:	f423 43e0 	bic.w	r3, r3, #28672	; 0x7000
 8006534:	f023 0340 	bic.w	r3, r3, #64	; 0x40
 8006538:	041b      	lsls	r3, r3, #16
 800653a:	0c1b      	lsrs	r3, r3, #16
 800653c:	f083 0330 	eor.w	r3, r3, #48	; 0x30
  return HAL_OK;
 8006540:	2000      	movs	r0, #0
    PCD_SET_EP_RX_STATUS(USBx, ep->num, USB_EP_RX_VALID);
 8006542:	f443 4300 	orr.w	r3, r3, #32768	; 0x8000
 8006546:	f043 0380 	orr.w	r3, r3, #128	; 0x80
 800654a:	f825 3022 	strh.w	r3, [r5, r2, lsl #2]
}
 800654e:	e8bd 81f0 	ldmia.w	sp!, {r4, r5, r6, r7, r8, pc}
      if (ep->type == EP_TYPE_BULK)
 8006552:	78e2      	ldrb	r2, [r4, #3]
          PCD_SET_BULK_EP_DBUF(USBx, ep->num);
 8006554:	7827      	ldrb	r7, [r4, #0]
      if (ep->type == EP_TYPE_BULK)
 8006556:	2a02      	cmp	r2, #2
        if (ep->xfer_len_db > ep->maxpacket)
 8006558:	6a23      	ldr	r3, [r4, #32]
            PCD_SET_EP_DBUF1_CNT(USBx, ep->num, ep->is_in, len);
 800655a:	ea4f 1c07 	mov.w	ip, r7, lsl #4
      if (ep->type == EP_TYPE_BULK)
 800655e:	f040 80d6 	bne.w	800670e <USB_EPStartXfer+0x222>
        if (ep->xfer_len_db > ep->maxpacket)
 8006562:	459e      	cmp	lr, r3
          PCD_SET_BULK_EP_DBUF(USBx, ep->num);
 8006564:	f830 2027 	ldrh.w	r2, [r0, r7, lsl #2]
        if (ep->xfer_len_db > ep->maxpacket)
 8006568:	f080 80ba 	bcs.w	80066e0 <USB_EPStartXfer+0x1f4>
          PCD_SET_BULK_EP_DBUF(USBx, ep->num);
 800656c:	f422 42e0 	bic.w	r2, r2, #28672	; 0x7000
 8006570:	f022 0270 	bic.w	r2, r2, #112	; 0x70
 8006574:	0412      	lsls	r2, r2, #16
 8006576:	0c12      	lsrs	r2, r2, #16
 8006578:	f442 4201 	orr.w	r2, r2, #33024	; 0x8100
 800657c:	f042 0280 	orr.w	r2, r2, #128	; 0x80
 8006580:	f820 2027 	strh.w	r2, [r0, r7, lsl #2]
          if ((PCD_GET_ENDPOINT(USBx, ep->num) & USB_EP_DTOG_TX) != 0U)
 8006584:	f830 8027 	ldrh.w	r8, [r0, r7, lsl #2]
            PCD_SET_EP_DBUF1_CNT(USBx, ep->num, ep->is_in, len);
 8006588:	f8b0 2050 	ldrh.w	r2, [r0, #80]	; 0x50
          ep->xfer_len_db -= len;
 800658c:	1b9b      	subs	r3, r3, r6
          if ((PCD_GET_ENDPOINT(USBx, ep->num) & USB_EP_DTOG_TX) != 0U)
 800658e:	f018 0840 	ands.w	r8, r8, #64	; 0x40
          ep->xfer_len_db -= len;
 8006592:	6223      	str	r3, [r4, #32]
            PCD_SET_EP_DBUF1_CNT(USBx, ep->num, ep->is_in, len);
 8006594:	b297      	uxth	r7, r2
      USB_WritePMA(USBx, ep->xfer_buff, ep->pmaadress, (uint16_t)len);
 8006596:	b2b3      	uxth	r3, r6
          if ((PCD_GET_ENDPOINT(USBx, ep->num) & USB_EP_DTOG_TX) != 0U)
 8006598:	d052      	beq.n	8006640 <USB_EPStartXfer+0x154>
            PCD_SET_EP_DBUF1_CNT(USBx, ep->num, ep->is_in, len);
 800659a:	f200 420c 	addw	r2, r0, #1036	; 0x40c
 800659e:	443a      	add	r2, r7
 80065a0:	f822 300c 	strh.w	r3, [r2, ip]
            USB_WritePMA(USBx, ep->xfer_buff, pmabuffer, (uint16_t)len);
 80065a4:	8962      	ldrh	r2, [r4, #10]
 80065a6:	f7ff ff91 	bl	80064cc <USB_WritePMA>
            if (ep->xfer_len_db > ep->maxpacket)
 80065aa:	6a27      	ldr	r7, [r4, #32]
 80065ac:	6923      	ldr	r3, [r4, #16]
            ep->xfer_buff += len;
 80065ae:	6961      	ldr	r1, [r4, #20]
            if (ep->xfer_len_db > ep->maxpacket)
 80065b0:	429f      	cmp	r7, r3
              ep->xfer_len_db -= len;
 80065b2:	bf8a      	itet	hi
 80065b4:	1bbb      	subhi	r3, r7, r6
              ep->xfer_len_db = 0U;
 80065b6:	2300      	movls	r3, #0
 80065b8:	4637      	movhi	r7, r6
            PCD_SET_EP_DBUF0_CNT(USBx, ep->num, ep->is_in, len);
 80065ba:	7862      	ldrb	r2, [r4, #1]
            ep->xfer_buff += len;
 80065bc:	4431      	add	r1, r6
 80065be:	6223      	str	r3, [r4, #32]
 80065c0:	6161      	str	r1, [r4, #20]
            PCD_SET_EP_DBUF0_CNT(USBx, ep->num, ep->is_in, len);
 80065c2:	b2bb      	uxth	r3, r7
 80065c4:	bb82      	cbnz	r2, 8006628 <USB_EPStartXfer+0x13c>
 80065c6:	f8b5 0050 	ldrh.w	r0, [r5, #80]	; 0x50
 80065ca:	7826      	ldrb	r6, [r4, #0]
 80065cc:	b282      	uxth	r2, r0
 80065ce:	f205 4004 	addw	r0, r5, #1028	; 0x404
 80065d2:	0136      	lsls	r6, r6, #4
 80065d4:	4410      	add	r0, r2
 80065d6:	5a32      	ldrh	r2, [r6, r0]
 80065d8:	2f3e      	cmp	r7, #62	; 0x3e
 80065da:	f3c2 0209 	ubfx	r2, r2, #0, #10
 80065de:	5232      	strh	r2, [r6, r0]
 80065e0:	d914      	bls.n	800660c <USB_EPStartXfer+0x120>
 80065e2:	06fa      	lsls	r2, r7, #27
 80065e4:	5a32      	ldrh	r2, [r6, r0]
 80065e6:	ea4f 1c57 	mov.w	ip, r7, lsr #5
 80065ea:	bf08      	it	eq
 80065ec:	f10c 3cff 	addeq.w	ip, ip, #4294967295
 80065f0:	b292      	uxth	r2, r2
 80065f2:	ea42 228c 	orr.w	r2, r2, ip, lsl #10
 80065f6:	ea6f 4242 	mvn.w	r2, r2, lsl #17
 80065fa:	ea6f 4252 	mvn.w	r2, r2, lsr #17
 80065fe:	b292      	uxth	r2, r2
 8006600:	5232      	strh	r2, [r6, r0]
            USB_WritePMA(USBx, ep->xfer_buff, pmabuffer, (uint16_t)len);
 8006602:	8922      	ldrh	r2, [r4, #8]
            USB_WritePMA(USBx, ep->xfer_buff, pmabuffer, (uint16_t)len);
 8006604:	4628      	mov	r0, r5
          USB_WritePMA(USBx, ep->xfer_buff, pmabuffer, (uint16_t)len);
 8006606:	f7ff ff61 	bl	80064cc <USB_WritePMA>
 800660a:	e78e      	b.n	800652a <USB_EPStartXfer+0x3e>
            PCD_SET_EP_DBUF0_CNT(USBx, ep->num, ep->is_in, len);
 800660c:	b90f      	cbnz	r7, 8006612 <USB_EPStartXfer+0x126>
 800660e:	5a32      	ldrh	r2, [r6, r0]
 8006610:	e7f1      	b.n	80065f6 <USB_EPStartXfer+0x10a>
 8006612:	5a32      	ldrh	r2, [r6, r0]
 8006614:	ea4f 0c57 	mov.w	ip, r7, lsr #1
 8006618:	07ff      	lsls	r7, r7, #31
 800661a:	bf48      	it	mi
 800661c:	f10c 0c01 	addmi.w	ip, ip, #1
 8006620:	b292      	uxth	r2, r2
 8006622:	ea42 228c 	orr.w	r2, r2, ip, lsl #10
 8006626:	e7ea      	b.n	80065fe <USB_EPStartXfer+0x112>
 8006628:	2a01      	cmp	r2, #1
 800662a:	d1ea      	bne.n	8006602 <USB_EPStartXfer+0x116>
 800662c:	f8b5 2050 	ldrh.w	r2, [r5, #80]	; 0x50
 8006630:	7820      	ldrb	r0, [r4, #0]
 8006632:	b296      	uxth	r6, r2
 8006634:	f205 4204 	addw	r2, r5, #1028	; 0x404
 8006638:	0100      	lsls	r0, r0, #4
 800663a:	4432      	add	r2, r6
 800663c:	5283      	strh	r3, [r0, r2]
 800663e:	e7e0      	b.n	8006602 <USB_EPStartXfer+0x116>
            PCD_SET_EP_DBUF0_CNT(USBx, ep->num, ep->is_in, len);
 8006640:	f200 4204 	addw	r2, r0, #1028	; 0x404
 8006644:	443a      	add	r2, r7
 8006646:	f822 300c 	strh.w	r3, [r2, ip]
            USB_WritePMA(USBx, ep->xfer_buff, pmabuffer, (uint16_t)len);
 800664a:	8922      	ldrh	r2, [r4, #8]
 800664c:	f7ff ff3e 	bl	80064cc <USB_WritePMA>
            if (ep->xfer_len_db > ep->maxpacket)
 8006650:	6a27      	ldr	r7, [r4, #32]
 8006652:	6923      	ldr	r3, [r4, #16]
            ep->xfer_buff += len;
 8006654:	6961      	ldr	r1, [r4, #20]
            if (ep->xfer_len_db > ep->maxpacket)
 8006656:	429f      	cmp	r7, r3
              ep->xfer_len_db -= len;
 8006658:	bf8a      	itet	hi
 800665a:	1bbb      	subhi	r3, r7, r6
              ep->xfer_len_db = 0U;
 800665c:	4643      	movls	r3, r8
 800665e:	4637      	movhi	r7, r6
            PCD_SET_EP_DBUF1_CNT(USBx, ep->num, ep->is_in, len);
 8006660:	7862      	ldrb	r2, [r4, #1]
            ep->xfer_buff += len;
 8006662:	4431      	add	r1, r6
 8006664:	6223      	str	r3, [r4, #32]
 8006666:	6161      	str	r1, [r4, #20]
            PCD_SET_EP_DBUF1_CNT(USBx, ep->num, ep->is_in, len);
 8006668:	b2bb      	uxth	r3, r7
 800666a:	bb6a      	cbnz	r2, 80066c8 <USB_EPStartXfer+0x1dc>
 800666c:	f8b5 0050 	ldrh.w	r0, [r5, #80]	; 0x50
 8006670:	7826      	ldrb	r6, [r4, #0]
 8006672:	b282      	uxth	r2, r0
 8006674:	f205 400c 	addw	r0, r5, #1036	; 0x40c
 8006678:	0136      	lsls	r6, r6, #4
 800667a:	4410      	add	r0, r2
 800667c:	5a32      	ldrh	r2, [r6, r0]
 800667e:	2f3e      	cmp	r7, #62	; 0x3e
 8006680:	f3c2 0209 	ubfx	r2, r2, #0, #10
 8006684:	5232      	strh	r2, [r6, r0]
 8006686:	d911      	bls.n	80066ac <USB_EPStartXfer+0x1c0>
 8006688:	06fa      	lsls	r2, r7, #27
 800668a:	5a32      	ldrh	r2, [r6, r0]
 800668c:	ea4f 1c57 	mov.w	ip, r7, lsr #5
 8006690:	bf08      	it	eq
 8006692:	f10c 3cff 	addeq.w	ip, ip, #4294967295
 8006696:	b292      	uxth	r2, r2
 8006698:	ea42 228c 	orr.w	r2, r2, ip, lsl #10
 800669c:	ea6f 4242 	mvn.w	r2, r2, lsl #17
 80066a0:	ea6f 4252 	mvn.w	r2, r2, lsr #17
 80066a4:	b292      	uxth	r2, r2
 80066a6:	5232      	strh	r2, [r6, r0]
            USB_WritePMA(USBx, ep->xfer_buff, pmabuffer, (uint16_t)len);
 80066a8:	8962      	ldrh	r2, [r4, #10]
 80066aa:	e7ab      	b.n	8006604 <USB_EPStartXfer+0x118>
            PCD_SET_EP_DBUF1_CNT(USBx, ep->num, ep->is_in, len);
 80066ac:	b90f      	cbnz	r7, 80066b2 <USB_EPStartXfer+0x1c6>
 80066ae:	5a32      	ldrh	r2, [r6, r0]
 80066b0:	e7f4      	b.n	800669c <USB_EPStartXfer+0x1b0>
 80066b2:	5a32      	ldrh	r2, [r6, r0]
 80066b4:	ea4f 0c57 	mov.w	ip, r7, lsr #1
 80066b8:	07ff      	lsls	r7, r7, #31
 80066ba:	bf48      	it	mi
 80066bc:	f10c 0c01 	addmi.w	ip, ip, #1
 80066c0:	b292      	uxth	r2, r2
 80066c2:	ea42 228c 	orr.w	r2, r2, ip, lsl #10
 80066c6:	e7ed      	b.n	80066a4 <USB_EPStartXfer+0x1b8>
 80066c8:	2a01      	cmp	r2, #1
 80066ca:	d1ed      	bne.n	80066a8 <USB_EPStartXfer+0x1bc>
 80066cc:	f8b5 2050 	ldrh.w	r2, [r5, #80]	; 0x50
 80066d0:	7820      	ldrb	r0, [r4, #0]
 80066d2:	b296      	uxth	r6, r2
 80066d4:	f205 420c 	addw	r2, r5, #1036	; 0x40c
 80066d8:	0100      	lsls	r0, r0, #4
 80066da:	4432      	add	r2, r6
 80066dc:	5283      	strh	r3, [r0, r2]
 80066de:	e7e3      	b.n	80066a8 <USB_EPStartXfer+0x1bc>
          PCD_CLEAR_BULK_EP_DBUF(USBx, ep->num);
 80066e0:	f422 42e2 	bic.w	r2, r2, #28928	; 0x7100
 80066e4:	f022 0270 	bic.w	r2, r2, #112	; 0x70
 80066e8:	0412      	lsls	r2, r2, #16
 80066ea:	0c12      	lsrs	r2, r2, #16
 80066ec:	f442 4200 	orr.w	r2, r2, #32768	; 0x8000
 80066f0:	f042 0280 	orr.w	r2, r2, #128	; 0x80
 80066f4:	f820 2027 	strh.w	r2, [r0, r7, lsl #2]
          PCD_SET_EP_TX_CNT(USBx, ep->num, len);
 80066f8:	f8b0 2050 	ldrh.w	r2, [r0, #80]	; 0x50
 80066fc:	b29b      	uxth	r3, r3
 80066fe:	b296      	uxth	r6, r2
 8006700:	f200 4204 	addw	r2, r0, #1028	; 0x404
 8006704:	4432      	add	r2, r6
          PCD_SET_EP_DBUF0_CNT(USBx, ep->num, ep->is_in, len);
 8006706:	f822 300c 	strh.w	r3, [r2, ip]
          USB_WritePMA(USBx, ep->xfer_buff, pmabuffer, (uint16_t)len);
 800670a:	8922      	ldrh	r2, [r4, #8]
 800670c:	e77b      	b.n	8006606 <USB_EPStartXfer+0x11a>
        if ((PCD_GET_ENDPOINT(USBx, ep->num) & USB_EP_DTOG_TX) != 0U)
 800670e:	f830 2027 	ldrh.w	r2, [r0, r7, lsl #2]
        ep->xfer_len_db -= len;
 8006712:	1b9b      	subs	r3, r3, r6
        if ((PCD_GET_ENDPOINT(USBx, ep->num) & USB_EP_DTOG_TX) != 0U)
 8006714:	f012 0f40 	tst.w	r2, #64	; 0x40
          PCD_SET_EP_DBUF1_CNT(USBx, ep->num, ep->is_in, len);
 8006718:	f8b0 2050 	ldrh.w	r2, [r0, #80]	; 0x50
        ep->xfer_len_db -= len;
 800671c:	6223      	str	r3, [r4, #32]
      USB_WritePMA(USBx, ep->xfer_buff, ep->pmaadress, (uint16_t)len);
 800671e:	b2b3      	uxth	r3, r6
          PCD_SET_EP_DBUF1_CNT(USBx, ep->num, ep->is_in, len);
 8006720:	b296      	uxth	r6, r2
        if ((PCD_GET_ENDPOINT(USBx, ep->num) & USB_EP_DTOG_TX) != 0U)
 8006722:	d006      	beq.n	8006732 <USB_EPStartXfer+0x246>
          PCD_SET_EP_DBUF1_CNT(USBx, ep->num, ep->is_in, len);
 8006724:	f200 420c 	addw	r2, r0, #1036	; 0x40c
 8006728:	4432      	add	r2, r6
 800672a:	f822 300c 	strh.w	r3, [r2, ip]
          USB_WritePMA(USBx, ep->xfer_buff, pmabuffer, (uint16_t)len);
 800672e:	8962      	ldrh	r2, [r4, #10]
 8006730:	e769      	b.n	8006606 <USB_EPStartXfer+0x11a>
          PCD_SET_EP_DBUF0_CNT(USBx, ep->num, ep->is_in, len);
 8006732:	f200 4204 	addw	r2, r0, #1028	; 0x404
 8006736:	4432      	add	r2, r6
 8006738:	e7e5      	b.n	8006706 <USB_EPStartXfer+0x21a>
    if (ep->doublebuffer == 0U)
 800673a:	2a00      	cmp	r2, #0
 800673c:	d131      	bne.n	80067a2 <USB_EPStartXfer+0x2b6>
      if (ep->xfer_len > ep->maxpacket)
 800673e:	69a0      	ldr	r0, [r4, #24]
 8006740:	6923      	ldr	r3, [r4, #16]
      PCD_SET_EP_RX_CNT(USBx, ep->num, len);
 8006742:	7821      	ldrb	r1, [r4, #0]
      if (ep->xfer_len > ep->maxpacket)
 8006744:	4298      	cmp	r0, r3
        ep->xfer_len -= len;
 8006746:	bf84      	itt	hi
 8006748:	1ac2      	subhi	r2, r0, r3
 800674a:	4618      	movhi	r0, r3
 800674c:	61a2      	str	r2, [r4, #24]
      PCD_SET_EP_RX_CNT(USBx, ep->num, len);
 800674e:	f8b5 2050 	ldrh.w	r2, [r5, #80]	; 0x50
 8006752:	0109      	lsls	r1, r1, #4
 8006754:	b293      	uxth	r3, r2
 8006756:	f205 420c 	addw	r2, r5, #1036	; 0x40c
 800675a:	441a      	add	r2, r3
 800675c:	5a8b      	ldrh	r3, [r1, r2]
 800675e:	283e      	cmp	r0, #62	; 0x3e
 8006760:	f3c3 0309 	ubfx	r3, r3, #0, #10
 8006764:	528b      	strh	r3, [r1, r2]
 8006766:	d90d      	bls.n	8006784 <USB_EPStartXfer+0x298>
 8006768:	5a8b      	ldrh	r3, [r1, r2]
 800676a:	0946      	lsrs	r6, r0, #5
 800676c:	06c0      	lsls	r0, r0, #27
 800676e:	bf08      	it	eq
 8006770:	f106 36ff 	addeq.w	r6, r6, #4294967295
 8006774:	b29b      	uxth	r3, r3
 8006776:	ea43 2386 	orr.w	r3, r3, r6, lsl #10
        PCD_SET_EP_DBUF_CNT(USBx, ep->num, ep->is_in, len);
 800677a:	ea6f 4343 	mvn.w	r3, r3, lsl #17
 800677e:	ea6f 4353 	mvn.w	r3, r3, lsr #17
 8006782:	e00b      	b.n	800679c <USB_EPStartXfer+0x2b0>
      PCD_SET_EP_RX_CNT(USBx, ep->num, len);
 8006784:	b908      	cbnz	r0, 800678a <USB_EPStartXfer+0x29e>
        PCD_SET_EP_DBUF_CNT(USBx, ep->num, ep->is_in, len);
 8006786:	5a53      	ldrh	r3, [r2, r1]
 8006788:	e7f7      	b.n	800677a <USB_EPStartXfer+0x28e>
      PCD_SET_EP_RX_CNT(USBx, ep->num, len);
 800678a:	07c3      	lsls	r3, r0, #31
 800678c:	5a8b      	ldrh	r3, [r1, r2]
 800678e:	ea4f 0650 	mov.w	r6, r0, lsr #1
 8006792:	bf48      	it	mi
 8006794:	3601      	addmi	r6, #1
 8006796:	b29b      	uxth	r3, r3
 8006798:	ea43 2386 	orr.w	r3, r3, r6, lsl #10
        PCD_SET_EP_DBUF_CNT(USBx, ep->num, ep->is_in, len);
 800679c:	b29b      	uxth	r3, r3
 800679e:	5253      	strh	r3, [r2, r1]
 80067a0:	e06a      	b.n	8006878 <USB_EPStartXfer+0x38c>
      if (ep->type == EP_TYPE_BULK)
 80067a2:	78e3      	ldrb	r3, [r4, #3]
 80067a4:	2b02      	cmp	r3, #2
 80067a6:	d17c      	bne.n	80068a2 <USB_EPStartXfer+0x3b6>
        PCD_SET_EP_DBUF_CNT(USBx, ep->num, ep->is_in, ep->maxpacket);
 80067a8:	2900      	cmp	r1, #0
 80067aa:	d14b      	bne.n	8006844 <USB_EPStartXfer+0x358>
 80067ac:	f8b0 1050 	ldrh.w	r1, [r0, #80]	; 0x50
 80067b0:	7820      	ldrb	r0, [r4, #0]
 80067b2:	b28b      	uxth	r3, r1
 80067b4:	f205 4104 	addw	r1, r5, #1028	; 0x404
 80067b8:	0100      	lsls	r0, r0, #4
 80067ba:	4419      	add	r1, r3
 80067bc:	5a43      	ldrh	r3, [r0, r1]
 80067be:	f3c3 0309 	ubfx	r3, r3, #0, #10
 80067c2:	5243      	strh	r3, [r0, r1]
 80067c4:	6923      	ldr	r3, [r4, #16]
 80067c6:	2b3e      	cmp	r3, #62	; 0x3e
 80067c8:	d920      	bls.n	800680c <USB_EPStartXfer+0x320>
 80067ca:	5a42      	ldrh	r2, [r0, r1]
 80067cc:	095e      	lsrs	r6, r3, #5
 80067ce:	06df      	lsls	r7, r3, #27
 80067d0:	bf08      	it	eq
 80067d2:	f106 36ff 	addeq.w	r6, r6, #4294967295
 80067d6:	b292      	uxth	r2, r2
 80067d8:	ea42 2286 	orr.w	r2, r2, r6, lsl #10
 80067dc:	ea6f 4242 	mvn.w	r2, r2, lsl #17
 80067e0:	ea6f 4252 	mvn.w	r2, r2, lsr #17
 80067e4:	b292      	uxth	r2, r2
 80067e6:	5242      	strh	r2, [r0, r1]
 80067e8:	f8b5 1050 	ldrh.w	r1, [r5, #80]	; 0x50
 80067ec:	7822      	ldrb	r2, [r4, #0]
 80067ee:	f205 400c 	addw	r0, r5, #1036	; 0x40c
 80067f2:	b289      	uxth	r1, r1
 80067f4:	0112      	lsls	r2, r2, #4
 80067f6:	4401      	add	r1, r0
 80067f8:	5a50      	ldrh	r0, [r2, r1]
 80067fa:	2b3e      	cmp	r3, #62	; 0x3e
 80067fc:	f3c0 0009 	ubfx	r0, r0, #0, #10
 8006800:	5250      	strh	r0, [r2, r1]
 8006802:	d810      	bhi.n	8006826 <USB_EPStartXfer+0x33a>
 8006804:	2b00      	cmp	r3, #0
 8006806:	d143      	bne.n	8006890 <USB_EPStartXfer+0x3a4>
 8006808:	5a53      	ldrh	r3, [r2, r1]
 800680a:	e015      	b.n	8006838 <USB_EPStartXfer+0x34c>
 800680c:	b90b      	cbnz	r3, 8006812 <USB_EPStartXfer+0x326>
 800680e:	5a42      	ldrh	r2, [r0, r1]
 8006810:	e7e4      	b.n	80067dc <USB_EPStartXfer+0x2f0>
 8006812:	07da      	lsls	r2, r3, #31
 8006814:	5a42      	ldrh	r2, [r0, r1]
 8006816:	ea4f 0653 	mov.w	r6, r3, lsr #1
 800681a:	bf48      	it	mi
 800681c:	3601      	addmi	r6, #1
 800681e:	b292      	uxth	r2, r2
 8006820:	ea42 2286 	orr.w	r2, r2, r6, lsl #10
 8006824:	e7de      	b.n	80067e4 <USB_EPStartXfer+0x2f8>
 8006826:	0958      	lsrs	r0, r3, #5
 8006828:	06df      	lsls	r7, r3, #27
 800682a:	5a53      	ldrh	r3, [r2, r1]
 800682c:	bf08      	it	eq
 800682e:	f100 30ff 	addeq.w	r0, r0, #4294967295
 8006832:	b29b      	uxth	r3, r3
 8006834:	ea43 2380 	orr.w	r3, r3, r0, lsl #10
 8006838:	ea6f 4343 	mvn.w	r3, r3, lsl #17
 800683c:	ea6f 4353 	mvn.w	r3, r3, lsr #17
 8006840:	b29b      	uxth	r3, r3
 8006842:	5253      	strh	r3, [r2, r1]
        if (ep->xfer_count != 0U)
 8006844:	69e3      	ldr	r3, [r4, #28]
 8006846:	b1bb      	cbz	r3, 8006878 <USB_EPStartXfer+0x38c>
          wEPVal = PCD_GET_ENDPOINT(USBx, ep->num);
 8006848:	f244 0340 	movw	r3, #16448	; 0x4040
 800684c:	7822      	ldrb	r2, [r4, #0]
 800684e:	f835 1022 	ldrh.w	r1, [r5, r2, lsl #2]
          if ((((wEPVal & USB_EP_DTOG_RX) != 0U) && ((wEPVal & USB_EP_DTOG_TX) != 0U)) ||
 8006852:	ea03 0001 	and.w	r0, r3, r1
 8006856:	438b      	bics	r3, r1
 8006858:	d000      	beq.n	800685c <USB_EPStartXfer+0x370>
 800685a:	b968      	cbnz	r0, 8006878 <USB_EPStartXfer+0x38c>
            PCD_FREE_USER_BUFFER(USBx, ep->num, 0U);
 800685c:	f835 3022 	ldrh.w	r3, [r5, r2, lsl #2]
 8006860:	f423 43e0 	bic.w	r3, r3, #28672	; 0x7000
 8006864:	f023 0370 	bic.w	r3, r3, #112	; 0x70
 8006868:	041b      	lsls	r3, r3, #16
 800686a:	0c1b      	lsrs	r3, r3, #16
 800686c:	f443 4300 	orr.w	r3, r3, #32768	; 0x8000
 8006870:	f043 03c0 	orr.w	r3, r3, #192	; 0xc0
 8006874:	f825 3022 	strh.w	r3, [r5, r2, lsl #2]
    PCD_SET_EP_RX_STATUS(USBx, ep->num, USB_EP_RX_VALID);
 8006878:	7822      	ldrb	r2, [r4, #0]
 800687a:	f835 3022 	ldrh.w	r3, [r5, r2, lsl #2]
 800687e:	f423 4380 	bic.w	r3, r3, #16384	; 0x4000
 8006882:	f023 0370 	bic.w	r3, r3, #112	; 0x70
 8006886:	041b      	lsls	r3, r3, #16
 8006888:	0c1b      	lsrs	r3, r3, #16
 800688a:	f483 5340 	eor.w	r3, r3, #12288	; 0x3000
 800688e:	e657      	b.n	8006540 <USB_EPStartXfer+0x54>
        PCD_SET_EP_DBUF_CNT(USBx, ep->num, ep->is_in, ep->maxpacket);
 8006890:	0858      	lsrs	r0, r3, #1
 8006892:	07de      	lsls	r6, r3, #31
 8006894:	5a53      	ldrh	r3, [r2, r1]
 8006896:	bf48      	it	mi
 8006898:	3001      	addmi	r0, #1
 800689a:	b29b      	uxth	r3, r3
 800689c:	ea43 2380 	orr.w	r3, r3, r0, lsl #10
 80068a0:	e7ce      	b.n	8006840 <USB_EPStartXfer+0x354>
      else if (ep->type == EP_TYPE_ISOC)
 80068a2:	2b01      	cmp	r3, #1
 80068a4:	d158      	bne.n	8006958 <USB_EPStartXfer+0x46c>
        if (ep->xfer_len > ep->maxpacket)
 80068a6:	69a3      	ldr	r3, [r4, #24]
 80068a8:	6922      	ldr	r2, [r4, #16]
 80068aa:	4293      	cmp	r3, r2
          ep->xfer_len = 0U;
 80068ac:	bf94      	ite	ls
 80068ae:	2000      	movls	r0, #0
          ep->xfer_len -= len;
 80068b0:	1a98      	subhi	r0, r3, r2
 80068b2:	61a0      	str	r0, [r4, #24]
 80068b4:	bf88      	it	hi
 80068b6:	4613      	movhi	r3, r2
        PCD_SET_EP_DBUF_CNT(USBx, ep->num, ep->is_in, len);
 80068b8:	2900      	cmp	r1, #0
 80068ba:	d1dd      	bne.n	8006878 <USB_EPStartXfer+0x38c>
 80068bc:	f8b5 1050 	ldrh.w	r1, [r5, #80]	; 0x50
 80068c0:	7820      	ldrb	r0, [r4, #0]
 80068c2:	b28a      	uxth	r2, r1
 80068c4:	f205 4104 	addw	r1, r5, #1028	; 0x404
 80068c8:	0100      	lsls	r0, r0, #4
 80068ca:	4411      	add	r1, r2
 80068cc:	5a42      	ldrh	r2, [r0, r1]
 80068ce:	2b3e      	cmp	r3, #62	; 0x3e
 80068d0:	f3c2 0209 	ubfx	r2, r2, #0, #10
 80068d4:	5242      	strh	r2, [r0, r1]
 80068d6:	d929      	bls.n	800692c <USB_EPStartXfer+0x440>
 80068d8:	06da      	lsls	r2, r3, #27
 80068da:	5a42      	ldrh	r2, [r0, r1]
 80068dc:	ea4f 1653 	mov.w	r6, r3, lsr #5
 80068e0:	bf08      	it	eq
 80068e2:	f106 36ff 	addeq.w	r6, r6, #4294967295
 80068e6:	b292      	uxth	r2, r2
 80068e8:	ea42 2286 	orr.w	r2, r2, r6, lsl #10
 80068ec:	ea6f 4242 	mvn.w	r2, r2, lsl #17
 80068f0:	ea6f 4252 	mvn.w	r2, r2, lsr #17
 80068f4:	b292      	uxth	r2, r2
 80068f6:	5242      	strh	r2, [r0, r1]
 80068f8:	f8b5 1050 	ldrh.w	r1, [r5, #80]	; 0x50
 80068fc:	7822      	ldrb	r2, [r4, #0]
 80068fe:	f205 400c 	addw	r0, r5, #1036	; 0x40c
 8006902:	b289      	uxth	r1, r1
 8006904:	0112      	lsls	r2, r2, #4
 8006906:	4401      	add	r1, r0
 8006908:	5a50      	ldrh	r0, [r2, r1]
 800690a:	2b3e      	cmp	r3, #62	; 0x3e
 800690c:	f3c0 0009 	ubfx	r0, r0, #0, #10
 8006910:	5250      	strh	r0, [r2, r1]
 8006912:	d817      	bhi.n	8006944 <USB_EPStartXfer+0x458>
 8006914:	2b00      	cmp	r3, #0
 8006916:	f43f af36 	beq.w	8006786 <USB_EPStartXfer+0x29a>
 800691a:	0858      	lsrs	r0, r3, #1
 800691c:	07db      	lsls	r3, r3, #31
 800691e:	5a53      	ldrh	r3, [r2, r1]
 8006920:	bf48      	it	mi
 8006922:	3001      	addmi	r0, #1
 8006924:	b29b      	uxth	r3, r3
 8006926:	ea43 2380 	orr.w	r3, r3, r0, lsl #10
 800692a:	e737      	b.n	800679c <USB_EPStartXfer+0x2b0>
 800692c:	b90b      	cbnz	r3, 8006932 <USB_EPStartXfer+0x446>
 800692e:	5a42      	ldrh	r2, [r0, r1]
 8006930:	e7dc      	b.n	80068ec <USB_EPStartXfer+0x400>
 8006932:	5a42      	ldrh	r2, [r0, r1]
 8006934:	085e      	lsrs	r6, r3, #1
 8006936:	07df      	lsls	r7, r3, #31
 8006938:	bf48      	it	mi
 800693a:	3601      	addmi	r6, #1
 800693c:	b292      	uxth	r2, r2
 800693e:	ea42 2286 	orr.w	r2, r2, r6, lsl #10
 8006942:	e7d7      	b.n	80068f4 <USB_EPStartXfer+0x408>
 8006944:	0958      	lsrs	r0, r3, #5
 8006946:	06de      	lsls	r6, r3, #27
 8006948:	5a53      	ldrh	r3, [r2, r1]
 800694a:	bf08      	it	eq
 800694c:	f100 30ff 	addeq.w	r0, r0, #4294967295
 8006950:	b29b      	uxth	r3, r3
 8006952:	ea43 2380 	orr.w	r3, r3, r0, lsl #10
 8006956:	e710      	b.n	800677a <USB_EPStartXfer+0x28e>
        return HAL_ERROR;
 8006958:	2001      	movs	r0, #1
 800695a:	e5f8      	b.n	800654e <USB_EPStartXfer+0x62>

0800695c <USB_ReadPMA>:
  uint32_t count;
  uint32_t RdVal;
  __IO uint16_t *pdwVal;
  uint8_t *pBuf = pbUsrBuf;

  pdwVal = (__IO uint16_t *)(BaseAddr + 0x400U + ((uint32_t)wPMABufAddr * PMA_ACCESS));
 800695c:	eb00 0242 	add.w	r2, r0, r2, lsl #1
{
 8006960:	b5f0      	push	{r4, r5, r6, r7, lr}
  pdwVal = (__IO uint16_t *)(BaseAddr + 0x400U + ((uint32_t)wPMABufAddr * PMA_ACCESS));
 8006962:	f502 6280 	add.w	r2, r2, #1024	; 0x400
  uint32_t n = (uint32_t)wNBytes >> 1;
 8006966:	085d      	lsrs	r5, r3, #1

  for (count = n; count != 0U; count--)
 8006968:	460c      	mov	r4, r1
  pdwVal = (__IO uint16_t *)(BaseAddr + 0x400U + ((uint32_t)wPMABufAddr * PMA_ACCESS));
 800696a:	4617      	mov	r7, r2
  for (count = n; count != 0U; count--)
 800696c:	462e      	mov	r6, r5
 800696e:	3402      	adds	r4, #2
 8006970:	b936      	cbnz	r6, 8006980 <USB_ReadPMA+0x24>
#if PMA_ACCESS > 1U
    pdwVal++;
#endif /* PMA_ACCESS */
  }

  if ((wNBytes % 2U) != 0U)
 8006972:	07db      	lsls	r3, r3, #31
  {
    RdVal = *pdwVal;
 8006974:	bf44      	itt	mi
 8006976:	f832 3025 	ldrhmi.w	r3, [r2, r5, lsl #2]
    *pBuf = (uint8_t)((RdVal >> 0) & 0xFFU);
 800697a:	f801 3015 	strbmi.w	r3, [r1, r5, lsl #1]
  }
}
 800697e:	bdf0      	pop	{r4, r5, r6, r7, pc}
    RdVal = *(__IO uint16_t *)pdwVal;
 8006980:	f837 0b04 	ldrh.w	r0, [r7], #4
  for (count = n; count != 0U; count--)
 8006984:	3e01      	subs	r6, #1
    RdVal = *(__IO uint16_t *)pdwVal;
 8006986:	b280      	uxth	r0, r0
    *pBuf = (uint8_t)((RdVal >> 0) & 0xFFU);
 8006988:	f804 0c02 	strb.w	r0, [r4, #-2]
    *pBuf = (uint8_t)((RdVal >> 8) & 0xFFU);
 800698c:	0a00      	lsrs	r0, r0, #8
 800698e:	f804 0c01 	strb.w	r0, [r4, #-1]
  for (count = n; count != 0U; count--)
 8006992:	e7ec      	b.n	800696e <USB_ReadPMA+0x12>

08006994 <USBD_CDC_EP0_RxReady>:
  */
static uint8_t  USBD_CDC_EP0_RxReady(USBD_HandleTypeDef *pdev)
{
  USBD_CDC_HandleTypeDef   *hcdc = (USBD_CDC_HandleTypeDef *) pdev->pClassData;

  if ((pdev->pUserData != NULL) && (hcdc->CmdOpCode != 0xFFU))
 8006994:	f8d0 32bc 	ldr.w	r3, [r0, #700]	; 0x2bc
{
 8006998:	b510      	push	{r4, lr}
  if ((pdev->pUserData != NULL) && (hcdc->CmdOpCode != 0xFFU))
 800699a:	b16b      	cbz	r3, 80069b8 <USBD_CDC_EP0_RxReady+0x24>
  USBD_CDC_HandleTypeDef   *hcdc = (USBD_CDC_HandleTypeDef *) pdev->pClassData;
 800699c:	f8d0 42b8 	ldr.w	r4, [r0, #696]	; 0x2b8
  if ((pdev->pUserData != NULL) && (hcdc->CmdOpCode != 0xFFU))
 80069a0:	f894 0200 	ldrb.w	r0, [r4, #512]	; 0x200
 80069a4:	28ff      	cmp	r0, #255	; 0xff
 80069a6:	d007      	beq.n	80069b8 <USBD_CDC_EP0_RxReady+0x24>
  {
    ((USBD_CDC_ItfTypeDef *)pdev->pUserData)->Control(hcdc->CmdOpCode,
 80069a8:	689b      	ldr	r3, [r3, #8]
 80069aa:	4621      	mov	r1, r4
 80069ac:	f894 2201 	ldrb.w	r2, [r4, #513]	; 0x201
 80069b0:	4798      	blx	r3
                                                      (uint8_t *)(void *)hcdc->data,
                                                      (uint16_t)hcdc->CmdLength);
    hcdc->CmdOpCode = 0xFFU;
 80069b2:	23ff      	movs	r3, #255	; 0xff
 80069b4:	f884 3200 	strb.w	r3, [r4, #512]	; 0x200

  }
  return USBD_OK;
}
 80069b8:	2000      	movs	r0, #0
 80069ba:	bd10      	pop	{r4, pc}

080069bc <USBD_CDC_GetFSCfgDesc>:
  * @param  length : pointer data length
  * @retval pointer to descriptor buffer
  */
static uint8_t  *USBD_CDC_GetFSCfgDesc(uint16_t *length)
{
  *length = sizeof(USBD_CDC_CfgFSDesc);
 80069bc:	2343      	movs	r3, #67	; 0x43
 80069be:	8003      	strh	r3, [r0, #0]
  return USBD_CDC_CfgFSDesc;
}
 80069c0:	4800      	ldr	r0, [pc, #0]	; (80069c4 <USBD_CDC_GetFSCfgDesc+0x8>)
 80069c2:	4770      	bx	lr
 80069c4:	20000044 	.word	0x20000044

080069c8 <USBD_CDC_GetHSCfgDesc>:
  * @param  length : pointer data length
  * @retval pointer to descriptor buffer
  */
static uint8_t  *USBD_CDC_GetHSCfgDesc(uint16_t *length)
{
  *length = sizeof(USBD_CDC_CfgHSDesc);
 80069c8:	2343      	movs	r3, #67	; 0x43
 80069ca:	8003      	strh	r3, [r0, #0]
  return USBD_CDC_CfgHSDesc;
}
 80069cc:	4800      	ldr	r0, [pc, #0]	; (80069d0 <USBD_CDC_GetHSCfgDesc+0x8>)
 80069ce:	4770      	bx	lr
 80069d0:	20000088 	.word	0x20000088

080069d4 <USBD_CDC_GetOtherSpeedCfgDesc>:
  * @param  length : pointer data length
  * @retval pointer to descriptor buffer
  */
static uint8_t  *USBD_CDC_GetOtherSpeedCfgDesc(uint16_t *length)
{
  *length = sizeof(USBD_CDC_OtherSpeedCfgDesc);
 80069d4:	2343      	movs	r3, #67	; 0x43
 80069d6:	8003      	strh	r3, [r0, #0]
  return USBD_CDC_OtherSpeedCfgDesc;
}
 80069d8:	4800      	ldr	r0, [pc, #0]	; (80069dc <USBD_CDC_GetOtherSpeedCfgDesc+0x8>)
 80069da:	4770      	bx	lr
 80069dc:	200000d8 	.word	0x200000d8

080069e0 <USBD_CDC_GetDeviceQualifierDescriptor>:
* @param  length : pointer data length
* @retval pointer to descriptor buffer
*/
uint8_t  *USBD_CDC_GetDeviceQualifierDescriptor(uint16_t *length)
{
  *length = sizeof(USBD_CDC_DeviceQualifierDesc);
 80069e0:	230a      	movs	r3, #10
 80069e2:	8003      	strh	r3, [r0, #0]
  return USBD_CDC_DeviceQualifierDesc;
}
 80069e4:	4800      	ldr	r0, [pc, #0]	; (80069e8 <USBD_CDC_GetDeviceQualifierDescriptor+0x8>)
 80069e6:	4770      	bx	lr
 80069e8:	200000cc 	.word	0x200000cc

080069ec <USBD_CDC_DataOut>:
{
 80069ec:	b538      	push	{r3, r4, r5, lr}
 80069ee:	4604      	mov	r4, r0
  USBD_CDC_HandleTypeDef   *hcdc = (USBD_CDC_HandleTypeDef *) pdev->pClassData;
 80069f0:	f8d0 52b8 	ldr.w	r5, [r0, #696]	; 0x2b8
  hcdc->RxLength = USBD_LL_GetRxDataSize(pdev, epnum);
 80069f4:	f000 fec7 	bl	8007786 <USBD_LL_GetRxDataSize>
  if (pdev->pClassData != NULL)
 80069f8:	f8d4 32b8 	ldr.w	r3, [r4, #696]	; 0x2b8
  hcdc->RxLength = USBD_LL_GetRxDataSize(pdev, epnum);
 80069fc:	f8c5 020c 	str.w	r0, [r5, #524]	; 0x20c
  if (pdev->pClassData != NULL)
 8006a00:	b14b      	cbz	r3, 8006a16 <USBD_CDC_DataOut+0x2a>
    ((USBD_CDC_ItfTypeDef *)pdev->pUserData)->Receive(hcdc->RxBuffer, &hcdc->RxLength);
 8006a02:	f8d4 32bc 	ldr.w	r3, [r4, #700]	; 0x2bc
 8006a06:	f8d5 0204 	ldr.w	r0, [r5, #516]	; 0x204
 8006a0a:	68db      	ldr	r3, [r3, #12]
 8006a0c:	f505 7103 	add.w	r1, r5, #524	; 0x20c
 8006a10:	4798      	blx	r3
    return USBD_OK;
 8006a12:	2000      	movs	r0, #0
}
 8006a14:	bd38      	pop	{r3, r4, r5, pc}
    return USBD_FAIL;
 8006a16:	2002      	movs	r0, #2
 8006a18:	e7fc      	b.n	8006a14 <USBD_CDC_DataOut+0x28>

08006a1a <USBD_CDC_DataIn>:
{
 8006a1a:	b5f8      	push	{r3, r4, r5, r6, r7, lr}
  USBD_CDC_HandleTypeDef *hcdc = (USBD_CDC_HandleTypeDef *)pdev->pClassData;
 8006a1c:	f8d0 62b8 	ldr.w	r6, [r0, #696]	; 0x2b8
  if (pdev->pClassData != NULL)
 8006a20:	b1d6      	cbz	r6, 8006a58 <USBD_CDC_DataIn+0x3e>
    if ((pdev->ep_in[epnum].total_length > 0U) && ((pdev->ep_in[epnum].total_length % hpcd->IN_ep[epnum].maxpacket) == 0U))
 8006a22:	2214      	movs	r2, #20
 8006a24:	fb02 0201 	mla	r2, r2, r1, r0
 8006a28:	69d4      	ldr	r4, [r2, #28]
 8006a2a:	b18c      	cbz	r4, 8006a50 <USBD_CDC_DataIn+0x36>
 8006a2c:	2728      	movs	r7, #40	; 0x28
 8006a2e:	f8d0 32c0 	ldr.w	r3, [r0, #704]	; 0x2c0
 8006a32:	fb07 3501 	mla	r5, r7, r1, r3
 8006a36:	6bab      	ldr	r3, [r5, #56]	; 0x38
 8006a38:	fbb4 f5f3 	udiv	r5, r4, r3
 8006a3c:	fb03 4415 	mls	r4, r3, r5, r4
 8006a40:	b934      	cbnz	r4, 8006a50 <USBD_CDC_DataIn+0x36>
      pdev->ep_in[epnum].total_length = 0U;
 8006a42:	61d4      	str	r4, [r2, #28]
      USBD_LL_Transmit(pdev, epnum, NULL, 0U);
 8006a44:	4623      	mov	r3, r4
 8006a46:	4622      	mov	r2, r4
 8006a48:	f000 fe8b 	bl	8007762 <USBD_LL_Transmit>
    return USBD_OK;
 8006a4c:	4620      	mov	r0, r4
}
 8006a4e:	bdf8      	pop	{r3, r4, r5, r6, r7, pc}
      hcdc->TxState = 0U;
 8006a50:	2000      	movs	r0, #0
 8006a52:	f8c6 0214 	str.w	r0, [r6, #532]	; 0x214
 8006a56:	e7fa      	b.n	8006a4e <USBD_CDC_DataIn+0x34>
    return USBD_FAIL;
 8006a58:	2002      	movs	r0, #2
 8006a5a:	e7f8      	b.n	8006a4e <USBD_CDC_DataIn+0x34>

08006a5c <USBD_CDC_Setup>:
{
 8006a5c:	e92d 43f7 	stmdb	sp!, {r0, r1, r2, r4, r5, r6, r7, r8, r9, lr}
  uint8_t ifalt = 0U;
 8006a60:	f04f 0800 	mov.w	r8, #0
  switch (req->bmRequest & USB_REQ_TYPE_MASK)
 8006a64:	780a      	ldrb	r2, [r1, #0]
{
 8006a66:	4605      	mov	r5, r0
  switch (req->bmRequest & USB_REQ_TYPE_MASK)
 8006a68:	f012 0460 	ands.w	r4, r2, #96	; 0x60
{
 8006a6c:	460e      	mov	r6, r1
  USBD_CDC_HandleTypeDef   *hcdc = (USBD_CDC_HandleTypeDef *) pdev->pClassData;
 8006a6e:	f8d0 72b8 	ldr.w	r7, [r0, #696]	; 0x2b8
  uint8_t ifalt = 0U;
 8006a72:	f88d 8005 	strb.w	r8, [sp, #5]
  uint16_t status_info = 0U;
 8006a76:	f8ad 8006 	strh.w	r8, [sp, #6]
  switch (req->bmRequest & USB_REQ_TYPE_MASK)
 8006a7a:	d028      	beq.n	8006ace <USBD_CDC_Setup+0x72>
 8006a7c:	2c20      	cmp	r4, #32
 8006a7e:	d142      	bne.n	8006b06 <USBD_CDC_Setup+0xaa>
      if (req->wLength)
 8006a80:	88cc      	ldrh	r4, [r1, #6]
          ((USBD_CDC_ItfTypeDef *)pdev->pUserData)->Control(req->bRequest,
 8006a82:	784b      	ldrb	r3, [r1, #1]
      if (req->wLength)
 8006a84:	b1e4      	cbz	r4, 8006ac0 <USBD_CDC_Setup+0x64>
        if (req->bmRequest & 0x80U)
 8006a86:	0612      	lsls	r2, r2, #24
 8006a88:	d511      	bpl.n	8006aae <USBD_CDC_Setup+0x52>
          ((USBD_CDC_ItfTypeDef *)pdev->pUserData)->Control(req->bRequest,
 8006a8a:	f8d0 22bc 	ldr.w	r2, [r0, #700]	; 0x2bc
 8006a8e:	4639      	mov	r1, r7
 8006a90:	f8d2 9008 	ldr.w	r9, [r2, #8]
 8006a94:	4618      	mov	r0, r3
 8006a96:	4622      	mov	r2, r4
 8006a98:	47c8      	blx	r9
          USBD_CtlSendData(pdev, (uint8_t *)(void *)hcdc->data, req->wLength);
 8006a9a:	4639      	mov	r1, r7
 8006a9c:	4628      	mov	r0, r5
 8006a9e:	88f2      	ldrh	r2, [r6, #6]
 8006aa0:	f000 fc4b 	bl	800733a <USBD_CtlSendData>
  uint8_t ret = USBD_OK;
 8006aa4:	4644      	mov	r4, r8
}
 8006aa6:	4620      	mov	r0, r4
 8006aa8:	b003      	add	sp, #12
 8006aaa:	e8bd 83f0 	ldmia.w	sp!, {r4, r5, r6, r7, r8, r9, pc}
          USBD_CtlPrepareRx(pdev, (uint8_t *)(void *)hcdc->data, req->wLength);
 8006aae:	4622      	mov	r2, r4
 8006ab0:	4639      	mov	r1, r7
          hcdc->CmdOpCode = req->bRequest;
 8006ab2:	f887 3200 	strb.w	r3, [r7, #512]	; 0x200
          hcdc->CmdLength = (uint8_t)req->wLength;
 8006ab6:	f887 4201 	strb.w	r4, [r7, #513]	; 0x201
          USBD_CtlPrepareRx(pdev, (uint8_t *)(void *)hcdc->data, req->wLength);
 8006aba:	f000 fc53 	bl	8007364 <USBD_CtlPrepareRx>
 8006abe:	e7f1      	b.n	8006aa4 <USBD_CDC_Setup+0x48>
        ((USBD_CDC_ItfTypeDef *)pdev->pUserData)->Control(req->bRequest,
 8006ac0:	f8d0 22bc 	ldr.w	r2, [r0, #700]	; 0x2bc
 8006ac4:	4618      	mov	r0, r3
 8006ac6:	6895      	ldr	r5, [r2, #8]
 8006ac8:	4622      	mov	r2, r4
 8006aca:	47a8      	blx	r5
 8006acc:	e7eb      	b.n	8006aa6 <USBD_CDC_Setup+0x4a>
      switch (req->bRequest)
 8006ace:	784b      	ldrb	r3, [r1, #1]
 8006ad0:	2b0a      	cmp	r3, #10
 8006ad2:	d00c      	beq.n	8006aee <USBD_CDC_Setup+0x92>
 8006ad4:	2b0b      	cmp	r3, #11
 8006ad6:	d012      	beq.n	8006afe <USBD_CDC_Setup+0xa2>
 8006ad8:	b9ab      	cbnz	r3, 8006b06 <USBD_CDC_Setup+0xaa>
          if (pdev->dev_state == USBD_STATE_CONFIGURED)
 8006ada:	f890 329c 	ldrb.w	r3, [r0, #668]	; 0x29c
 8006ade:	2b03      	cmp	r3, #3
 8006ae0:	d111      	bne.n	8006b06 <USBD_CDC_Setup+0xaa>
            USBD_CtlSendData(pdev, (uint8_t *)(void *)&status_info, 2U);
 8006ae2:	2202      	movs	r2, #2
 8006ae4:	f10d 0106 	add.w	r1, sp, #6
            USBD_CtlSendData(pdev, &ifalt, 1U);
 8006ae8:	f000 fc27 	bl	800733a <USBD_CtlSendData>
 8006aec:	e7db      	b.n	8006aa6 <USBD_CDC_Setup+0x4a>
          if (pdev->dev_state == USBD_STATE_CONFIGURED)
 8006aee:	f890 329c 	ldrb.w	r3, [r0, #668]	; 0x29c
 8006af2:	2b03      	cmp	r3, #3
 8006af4:	d107      	bne.n	8006b06 <USBD_CDC_Setup+0xaa>
            USBD_CtlSendData(pdev, &ifalt, 1U);
 8006af6:	2201      	movs	r2, #1
 8006af8:	f10d 0105 	add.w	r1, sp, #5
 8006afc:	e7f4      	b.n	8006ae8 <USBD_CDC_Setup+0x8c>
          if (pdev->dev_state != USBD_STATE_CONFIGURED)
 8006afe:	f890 329c 	ldrb.w	r3, [r0, #668]	; 0x29c
 8006b02:	2b03      	cmp	r3, #3
 8006b04:	d0cf      	beq.n	8006aa6 <USBD_CDC_Setup+0x4a>
          USBD_CtlError(pdev, req);
 8006b06:	4631      	mov	r1, r6
 8006b08:	4628      	mov	r0, r5
 8006b0a:	f000 fbef 	bl	80072ec <USBD_CtlError>
          ret = USBD_FAIL;
 8006b0e:	2402      	movs	r4, #2
 8006b10:	e7c9      	b.n	8006aa6 <USBD_CDC_Setup+0x4a>

08006b12 <USBD_CDC_DeInit>:
{
 8006b12:	b538      	push	{r3, r4, r5, lr}
 8006b14:	4604      	mov	r4, r0
  pdev->ep_in[CDC_IN_EP & 0xFU].is_used = 0U;
 8006b16:	2500      	movs	r5, #0
  USBD_LL_CloseEP(pdev, CDC_IN_EP);
 8006b18:	2181      	movs	r1, #129	; 0x81
 8006b1a:	f000 fdec 	bl	80076f6 <USBD_LL_CloseEP>
  USBD_LL_CloseEP(pdev, CDC_OUT_EP);
 8006b1e:	2101      	movs	r1, #1
 8006b20:	4620      	mov	r0, r4
  pdev->ep_in[CDC_IN_EP & 0xFU].is_used = 0U;
 8006b22:	62e5      	str	r5, [r4, #44]	; 0x2c
  USBD_LL_CloseEP(pdev, CDC_OUT_EP);
 8006b24:	f000 fde7 	bl	80076f6 <USBD_LL_CloseEP>
  USBD_LL_CloseEP(pdev, CDC_CMD_EP);
 8006b28:	2182      	movs	r1, #130	; 0x82
 8006b2a:	4620      	mov	r0, r4
  pdev->ep_out[CDC_OUT_EP & 0xFU].is_used = 0U;
 8006b2c:	f8c4 516c 	str.w	r5, [r4, #364]	; 0x16c
  USBD_LL_CloseEP(pdev, CDC_CMD_EP);
 8006b30:	f000 fde1 	bl	80076f6 <USBD_LL_CloseEP>
  if (pdev->pClassData != NULL)
 8006b34:	f8d4 32b8 	ldr.w	r3, [r4, #696]	; 0x2b8
  pdev->ep_in[CDC_CMD_EP & 0xFU].is_used = 0U;
 8006b38:	6425      	str	r5, [r4, #64]	; 0x40
  if (pdev->pClassData != NULL)
 8006b3a:	b14b      	cbz	r3, 8006b50 <USBD_CDC_DeInit+0x3e>
    ((USBD_CDC_ItfTypeDef *)pdev->pUserData)->DeInit();
 8006b3c:	f8d4 32bc 	ldr.w	r3, [r4, #700]	; 0x2bc
 8006b40:	685b      	ldr	r3, [r3, #4]
 8006b42:	4798      	blx	r3
    USBD_free(pdev->pClassData);
 8006b44:	f8d4 02b8 	ldr.w	r0, [r4, #696]	; 0x2b8
 8006b48:	f000 fe26 	bl	8007798 <USBD_static_free>
    pdev->pClassData = NULL;
 8006b4c:	f8c4 52b8 	str.w	r5, [r4, #696]	; 0x2b8
}
 8006b50:	2000      	movs	r0, #0
 8006b52:	bd38      	pop	{r3, r4, r5, pc}

08006b54 <USBD_CDC_Init>:
{
 8006b54:	e92d 41f0 	stmdb	sp!, {r4, r5, r6, r7, r8, lr}
  if (pdev->dev_speed == USBD_SPEED_HIGH)
 8006b58:	7c03      	ldrb	r3, [r0, #16]
{
 8006b5a:	4604      	mov	r4, r0
  if (pdev->dev_speed == USBD_SPEED_HIGH)
 8006b5c:	bbbb      	cbnz	r3, 8006bce <USBD_CDC_Init+0x7a>
    USBD_LL_OpenEP(pdev, CDC_IN_EP, USBD_EP_TYPE_BULK,
 8006b5e:	f44f 7300 	mov.w	r3, #512	; 0x200
 8006b62:	2202      	movs	r2, #2
 8006b64:	2181      	movs	r1, #129	; 0x81
    pdev->ep_in[CDC_IN_EP & 0xFU].is_used = 1U;
 8006b66:	2501      	movs	r5, #1
    USBD_LL_OpenEP(pdev, CDC_IN_EP, USBD_EP_TYPE_BULK,
 8006b68:	f000 fdb9 	bl	80076de <USBD_LL_OpenEP>
    USBD_LL_OpenEP(pdev, CDC_OUT_EP, USBD_EP_TYPE_BULK,
 8006b6c:	f44f 7300 	mov.w	r3, #512	; 0x200
    pdev->ep_in[CDC_IN_EP & 0xFU].is_used = 1U;
 8006b70:	62e5      	str	r5, [r4, #44]	; 0x2c
  pdev->ep_in[CDC_CMD_EP & 0xFU].is_used = 1U;
 8006b72:	2701      	movs	r7, #1
    USBD_LL_OpenEP(pdev, CDC_OUT_EP, USBD_EP_TYPE_BULK,
 8006b74:	4629      	mov	r1, r5
 8006b76:	2202      	movs	r2, #2
 8006b78:	4620      	mov	r0, r4
 8006b7a:	f000 fdb0 	bl	80076de <USBD_LL_OpenEP>
  USBD_LL_OpenEP(pdev, CDC_CMD_EP, USBD_EP_TYPE_INTR, CDC_CMD_PACKET_SIZE);
 8006b7e:	2308      	movs	r3, #8
 8006b80:	2203      	movs	r2, #3
 8006b82:	2182      	movs	r1, #130	; 0x82
    pdev->ep_out[CDC_OUT_EP & 0xFU].is_used = 1U;
 8006b84:	f8c4 516c 	str.w	r5, [r4, #364]	; 0x16c
  USBD_LL_OpenEP(pdev, CDC_CMD_EP, USBD_EP_TYPE_INTR, CDC_CMD_PACKET_SIZE);
 8006b88:	4620      	mov	r0, r4
 8006b8a:	f000 fda8 	bl	80076de <USBD_LL_OpenEP>
  pdev->pClassData = USBD_malloc(sizeof(USBD_CDC_HandleTypeDef));
 8006b8e:	f44f 7007 	mov.w	r0, #540	; 0x21c
  pdev->ep_in[CDC_CMD_EP & 0xFU].is_used = 1U;
 8006b92:	6427      	str	r7, [r4, #64]	; 0x40
  pdev->pClassData = USBD_malloc(sizeof(USBD_CDC_HandleTypeDef));
 8006b94:	f000 fdfc 	bl	8007790 <USBD_static_malloc>
 8006b98:	4605      	mov	r5, r0
 8006b9a:	f8c4 02b8 	str.w	r0, [r4, #696]	; 0x2b8
  if (pdev->pClassData == NULL)
 8006b9e:	b340      	cbz	r0, 8006bf2 <USBD_CDC_Init+0x9e>
    hcdc->TxState = 0U;
 8006ba0:	f04f 0800 	mov.w	r8, #0
    ((USBD_CDC_ItfTypeDef *)pdev->pUserData)->Init();
 8006ba4:	f8d4 32bc 	ldr.w	r3, [r4, #700]	; 0x2bc
 8006ba8:	681b      	ldr	r3, [r3, #0]
 8006baa:	4798      	blx	r3
    hcdc->TxState = 0U;
 8006bac:	f8c5 8214 	str.w	r8, [r5, #532]	; 0x214
    hcdc->RxState = 0U;
 8006bb0:	f8c5 8218 	str.w	r8, [r5, #536]	; 0x218
    if (pdev->dev_speed == USBD_SPEED_HIGH)
 8006bb4:	7c26      	ldrb	r6, [r4, #16]
 8006bb6:	b99e      	cbnz	r6, 8006be0 <USBD_CDC_Init+0x8c>
      USBD_LL_PrepareReceive(pdev, CDC_OUT_EP, hcdc->RxBuffer,
 8006bb8:	f44f 7300 	mov.w	r3, #512	; 0x200
 8006bbc:	4639      	mov	r1, r7
 8006bbe:	4620      	mov	r0, r4
 8006bc0:	f8d5 2204 	ldr.w	r2, [r5, #516]	; 0x204
 8006bc4:	f000 fdd6 	bl	8007774 <USBD_LL_PrepareReceive>
}
 8006bc8:	4630      	mov	r0, r6
 8006bca:	e8bd 81f0 	ldmia.w	sp!, {r4, r5, r6, r7, r8, pc}
    pdev->ep_in[CDC_IN_EP & 0xFU].is_used = 1U;
 8006bce:	2501      	movs	r5, #1
    USBD_LL_OpenEP(pdev, CDC_IN_EP, USBD_EP_TYPE_BULK,
 8006bd0:	2340      	movs	r3, #64	; 0x40
 8006bd2:	2202      	movs	r2, #2
 8006bd4:	2181      	movs	r1, #129	; 0x81
 8006bd6:	f000 fd82 	bl	80076de <USBD_LL_OpenEP>
    USBD_LL_OpenEP(pdev, CDC_OUT_EP, USBD_EP_TYPE_BULK,
 8006bda:	2340      	movs	r3, #64	; 0x40
    pdev->ep_in[CDC_IN_EP & 0xFU].is_used = 1U;
 8006bdc:	62e5      	str	r5, [r4, #44]	; 0x2c
    USBD_LL_OpenEP(pdev, CDC_OUT_EP, USBD_EP_TYPE_BULK,
 8006bde:	e7c8      	b.n	8006b72 <USBD_CDC_Init+0x1e>
      USBD_LL_PrepareReceive(pdev, CDC_OUT_EP, hcdc->RxBuffer,
 8006be0:	2340      	movs	r3, #64	; 0x40
 8006be2:	4639      	mov	r1, r7
 8006be4:	4620      	mov	r0, r4
 8006be6:	f8d5 2204 	ldr.w	r2, [r5, #516]	; 0x204
 8006bea:	f000 fdc3 	bl	8007774 <USBD_LL_PrepareReceive>
  uint8_t ret = 0U;
 8006bee:	4646      	mov	r6, r8
 8006bf0:	e7ea      	b.n	8006bc8 <USBD_CDC_Init+0x74>
    ret = 1U;
 8006bf2:	463e      	mov	r6, r7
 8006bf4:	e7e8      	b.n	8006bc8 <USBD_CDC_Init+0x74>

08006bf6 <USBD_CDC_RegisterInterface>:
uint8_t  USBD_CDC_RegisterInterface(USBD_HandleTypeDef   *pdev,
                                    USBD_CDC_ItfTypeDef *fops)
{
  uint8_t  ret = USBD_FAIL;

  if (fops != NULL)
 8006bf6:	b119      	cbz	r1, 8006c00 <USBD_CDC_RegisterInterface+0xa>
  {
    pdev->pUserData = fops;
 8006bf8:	f8c0 12bc 	str.w	r1, [r0, #700]	; 0x2bc
    ret = USBD_OK;
 8006bfc:	2000      	movs	r0, #0
 8006bfe:	4770      	bx	lr
  uint8_t  ret = USBD_FAIL;
 8006c00:	2002      	movs	r0, #2
  }

  return ret;
}
 8006c02:	4770      	bx	lr

08006c04 <USBD_CDC_SetTxBuffer>:
  */
uint8_t  USBD_CDC_SetTxBuffer(USBD_HandleTypeDef   *pdev,
                              uint8_t  *pbuff,
                              uint16_t length)
{
  USBD_CDC_HandleTypeDef   *hcdc = (USBD_CDC_HandleTypeDef *) pdev->pClassData;
 8006c04:	f8d0 32b8 	ldr.w	r3, [r0, #696]	; 0x2b8

  hcdc->TxBuffer = pbuff;
  hcdc->TxLength = length;

  return USBD_OK;
}
 8006c08:	2000      	movs	r0, #0
  hcdc->TxBuffer = pbuff;
 8006c0a:	f8c3 1208 	str.w	r1, [r3, #520]	; 0x208
  hcdc->TxLength = length;
 8006c0e:	f8c3 2210 	str.w	r2, [r3, #528]	; 0x210
}
 8006c12:	4770      	bx	lr

08006c14 <USBD_CDC_SetRxBuffer>:
uint8_t  USBD_CDC_SetRxBuffer(USBD_HandleTypeDef   *pdev,
                              uint8_t  *pbuff)
{
  USBD_CDC_HandleTypeDef   *hcdc = (USBD_CDC_HandleTypeDef *) pdev->pClassData;

  hcdc->RxBuffer = pbuff;
 8006c14:	f8d0 32b8 	ldr.w	r3, [r0, #696]	; 0x2b8

  return USBD_OK;
}
 8006c18:	2000      	movs	r0, #0
  hcdc->RxBuffer = pbuff;
 8006c1a:	f8c3 1204 	str.w	r1, [r3, #516]	; 0x204
}
 8006c1e:	4770      	bx	lr

08006c20 <USBD_CDC_TransmitPacket>:
  * @param  pdev: device instance
  * @retval status
  */
uint8_t  USBD_CDC_TransmitPacket(USBD_HandleTypeDef *pdev)
{
  USBD_CDC_HandleTypeDef   *hcdc = (USBD_CDC_HandleTypeDef *) pdev->pClassData;
 8006c20:	f8d0 22b8 	ldr.w	r2, [r0, #696]	; 0x2b8
{
 8006c24:	b510      	push	{r4, lr}

  if (pdev->pClassData != NULL)
 8006c26:	b182      	cbz	r2, 8006c4a <USBD_CDC_TransmitPacket+0x2a>
  {
    if (hcdc->TxState == 0U)
 8006c28:	f8d2 4214 	ldr.w	r4, [r2, #532]	; 0x214
 8006c2c:	2301      	movs	r3, #1
 8006c2e:	b974      	cbnz	r4, 8006c4e <USBD_CDC_TransmitPacket+0x2e>
    {
      /* Tx Transfer in progress */
      hcdc->TxState = 1U;
 8006c30:	f8c2 3214 	str.w	r3, [r2, #532]	; 0x214

      /* Update the packet total length */
      pdev->ep_in[CDC_IN_EP & 0xFU].total_length = hcdc->TxLength;
 8006c34:	f8d2 3210 	ldr.w	r3, [r2, #528]	; 0x210

      /* Transmit next packet */
      USBD_LL_Transmit(pdev, CDC_IN_EP, hcdc->TxBuffer,
 8006c38:	2181      	movs	r1, #129	; 0x81
      pdev->ep_in[CDC_IN_EP & 0xFU].total_length = hcdc->TxLength;
 8006c3a:	6303      	str	r3, [r0, #48]	; 0x30
      USBD_LL_Transmit(pdev, CDC_IN_EP, hcdc->TxBuffer,
 8006c3c:	f8d2 2208 	ldr.w	r2, [r2, #520]	; 0x208
 8006c40:	b29b      	uxth	r3, r3
 8006c42:	f000 fd8e 	bl	8007762 <USBD_LL_Transmit>
                       (uint16_t)hcdc->TxLength);

      return USBD_OK;
 8006c46:	4620      	mov	r0, r4
  }
  else
  {
    return USBD_FAIL;
  }
}
 8006c48:	bd10      	pop	{r4, pc}
    return USBD_FAIL;
 8006c4a:	2002      	movs	r0, #2
 8006c4c:	e7fc      	b.n	8006c48 <USBD_CDC_TransmitPacket+0x28>
      return USBD_BUSY;
 8006c4e:	4618      	mov	r0, r3
 8006c50:	e7fa      	b.n	8006c48 <USBD_CDC_TransmitPacket+0x28>

08006c52 <USBD_CDC_ReceivePacket>:
  * @param  pdev: device instance
  * @retval status
  */
uint8_t  USBD_CDC_ReceivePacket(USBD_HandleTypeDef *pdev)
{
  USBD_CDC_HandleTypeDef   *hcdc = (USBD_CDC_HandleTypeDef *) pdev->pClassData;
 8006c52:	f8d0 22b8 	ldr.w	r2, [r0, #696]	; 0x2b8
{
 8006c56:	b510      	push	{r4, lr}

  /* Suspend or Resume USB Out process */
  if (pdev->pClassData != NULL)
 8006c58:	b182      	cbz	r2, 8006c7c <USBD_CDC_ReceivePacket+0x2a>
  {
    if (pdev->dev_speed == USBD_SPEED_HIGH)
 8006c5a:	7c04      	ldrb	r4, [r0, #16]
    {
      /* Prepare Out endpoint to receive next packet */
      USBD_LL_PrepareReceive(pdev,
 8006c5c:	f8d2 2204 	ldr.w	r2, [r2, #516]	; 0x204
    if (pdev->dev_speed == USBD_SPEED_HIGH)
 8006c60:	b934      	cbnz	r4, 8006c70 <USBD_CDC_ReceivePacket+0x1e>
      USBD_LL_PrepareReceive(pdev,
 8006c62:	f44f 7300 	mov.w	r3, #512	; 0x200
 8006c66:	2101      	movs	r1, #1
 8006c68:	f000 fd84 	bl	8007774 <USBD_LL_PrepareReceive>
  }
  else
  {
    return USBD_FAIL;
  }
}
 8006c6c:	4620      	mov	r0, r4
 8006c6e:	bd10      	pop	{r4, pc}
      USBD_LL_PrepareReceive(pdev,
 8006c70:	2340      	movs	r3, #64	; 0x40
 8006c72:	2101      	movs	r1, #1
 8006c74:	f000 fd7e 	bl	8007774 <USBD_LL_PrepareReceive>
    return USBD_OK;
 8006c78:	2400      	movs	r4, #0
 8006c7a:	e7f7      	b.n	8006c6c <USBD_CDC_ReceivePacket+0x1a>
    return USBD_FAIL;
 8006c7c:	2402      	movs	r4, #2
 8006c7e:	e7f5      	b.n	8006c6c <USBD_CDC_ReceivePacket+0x1a>

08006c80 <USBD_Init>:
* @param  id: Low level core index
* @retval None
*/
USBD_StatusTypeDef USBD_Init(USBD_HandleTypeDef *pdev,
                             USBD_DescriptorsTypeDef *pdesc, uint8_t id)
{
 8006c80:	b508      	push	{r3, lr}
  /* Check whether the USB Host handle is valid */
  if (pdev == NULL)
 8006c82:	b180      	cbz	r0, 8006ca6 <USBD_Init+0x26>
#endif
    return USBD_FAIL;
  }

  /* Unlink previous class*/
  if (pdev->pClass != NULL)
 8006c84:	f8d0 32b4 	ldr.w	r3, [r0, #692]	; 0x2b4
 8006c88:	b113      	cbz	r3, 8006c90 <USBD_Init+0x10>
  {
    pdev->pClass = NULL;
 8006c8a:	2300      	movs	r3, #0
 8006c8c:	f8c0 32b4 	str.w	r3, [r0, #692]	; 0x2b4
  }

  /* Assign USBD Descriptors */
  if (pdesc != NULL)
 8006c90:	b109      	cbz	r1, 8006c96 <USBD_Init+0x16>
  {
    pdev->pDesc = pdesc;
 8006c92:	f8c0 12b0 	str.w	r1, [r0, #688]	; 0x2b0
  }

  /* Set Device initial State */
  pdev->dev_state = USBD_STATE_DEFAULT;
 8006c96:	2301      	movs	r3, #1
  pdev->id = id;
 8006c98:	7002      	strb	r2, [r0, #0]
  pdev->dev_state = USBD_STATE_DEFAULT;
 8006c9a:	f880 329c 	strb.w	r3, [r0, #668]	; 0x29c
  /* Initialize low level driver */
  USBD_LL_Init(pdev);
 8006c9e:	f000 fcd3 	bl	8007648 <USBD_LL_Init>

  return USBD_OK;
 8006ca2:	2000      	movs	r0, #0
}
 8006ca4:	bd08      	pop	{r3, pc}
    return USBD_FAIL;
 8006ca6:	2002      	movs	r0, #2
 8006ca8:	e7fc      	b.n	8006ca4 <USBD_Init+0x24>

08006caa <USBD_RegisterClass>:
  * @retval USBD Status
  */
USBD_StatusTypeDef  USBD_RegisterClass(USBD_HandleTypeDef *pdev, USBD_ClassTypeDef *pclass)
{
  USBD_StatusTypeDef status = USBD_OK;
  if (pclass != NULL)
 8006caa:	b119      	cbz	r1, 8006cb4 <USBD_RegisterClass+0xa>
  {
    /* link the class to the USB Device handle */
    pdev->pClass = pclass;
 8006cac:	f8c0 12b4 	str.w	r1, [r0, #692]	; 0x2b4
    status = USBD_OK;
 8006cb0:	2000      	movs	r0, #0
 8006cb2:	4770      	bx	lr
  else
  {
#if (USBD_DEBUG_LEVEL > 1U)
    USBD_ErrLog("Invalid Class handle");
#endif
    status = USBD_FAIL;
 8006cb4:	2002      	movs	r0, #2
  }

  return status;
}
 8006cb6:	4770      	bx	lr

08006cb8 <USBD_Start>:
  *         Start the USB Device Core.
  * @param  pdev: Device Handle
  * @retval USBD Status
  */
USBD_StatusTypeDef  USBD_Start(USBD_HandleTypeDef *pdev)
{
 8006cb8:	b508      	push	{r3, lr}
  /* Start the low level driver  */
  USBD_LL_Start(pdev);
 8006cba:	f000 fd07 	bl	80076cc <USBD_LL_Start>

  return USBD_OK;
}
 8006cbe:	2000      	movs	r0, #0
 8006cc0:	bd08      	pop	{r3, pc}

08006cc2 <USBD_SetClassConfig>:
* @param  cfgidx: configuration index
* @retval status
*/

USBD_StatusTypeDef USBD_SetClassConfig(USBD_HandleTypeDef  *pdev, uint8_t cfgidx)
{
 8006cc2:	b508      	push	{r3, lr}
  USBD_StatusTypeDef ret = USBD_FAIL;

  if (pdev->pClass != NULL)
 8006cc4:	f8d0 32b4 	ldr.w	r3, [r0, #692]	; 0x2b4
 8006cc8:	b90b      	cbnz	r3, 8006cce <USBD_SetClassConfig+0xc>
  USBD_StatusTypeDef ret = USBD_FAIL;
 8006cca:	2002      	movs	r0, #2
      ret = USBD_OK;
    }
  }

  return ret;
}
 8006ccc:	bd08      	pop	{r3, pc}
    if (pdev->pClass->Init(pdev, cfgidx) == 0U)
 8006cce:	681b      	ldr	r3, [r3, #0]
 8006cd0:	4798      	blx	r3
 8006cd2:	2800      	cmp	r0, #0
 8006cd4:	d0fa      	beq.n	8006ccc <USBD_SetClassConfig+0xa>
 8006cd6:	e7f8      	b.n	8006cca <USBD_SetClassConfig+0x8>

08006cd8 <USBD_ClrClassConfig>:
* @param  pdev: device instance
* @param  cfgidx: configuration index
* @retval status: USBD_StatusTypeDef
*/
USBD_StatusTypeDef USBD_ClrClassConfig(USBD_HandleTypeDef  *pdev, uint8_t cfgidx)
{
 8006cd8:	b508      	push	{r3, lr}
  /* Clear configuration  and De-initialize the Class process*/
  pdev->pClass->DeInit(pdev, cfgidx);
 8006cda:	f8d0 32b4 	ldr.w	r3, [r0, #692]	; 0x2b4
 8006cde:	685b      	ldr	r3, [r3, #4]
 8006ce0:	4798      	blx	r3

  return USBD_OK;
}
 8006ce2:	2000      	movs	r0, #0
 8006ce4:	bd08      	pop	{r3, pc}

08006ce6 <USBD_LL_SetupStage>:
*         Handle the setup stage
* @param  pdev: device instance
* @retval status
*/
USBD_StatusTypeDef USBD_LL_SetupStage(USBD_HandleTypeDef *pdev, uint8_t *psetup)
{
 8006ce6:	b538      	push	{r3, r4, r5, lr}
  USBD_ParseSetupRequest(&pdev->request, psetup);
 8006ce8:	f500 752a 	add.w	r5, r0, #680	; 0x2a8
{
 8006cec:	4604      	mov	r4, r0
  USBD_ParseSetupRequest(&pdev->request, psetup);
 8006cee:	4628      	mov	r0, r5
 8006cf0:	f000 fae8 	bl	80072c4 <USBD_ParseSetupRequest>

  pdev->ep0_state = USBD_EP0_SETUP;
 8006cf4:	2301      	movs	r3, #1

  pdev->ep0_data_len = pdev->request.wLength;

  switch (pdev->request.bmRequest & 0x1FU)
 8006cf6:	f894 12a8 	ldrb.w	r1, [r4, #680]	; 0x2a8
  pdev->ep0_state = USBD_EP0_SETUP;
 8006cfa:	f8c4 3294 	str.w	r3, [r4, #660]	; 0x294
  pdev->ep0_data_len = pdev->request.wLength;
 8006cfe:	f8b4 32ae 	ldrh.w	r3, [r4, #686]	; 0x2ae
 8006d02:	f8c4 3298 	str.w	r3, [r4, #664]	; 0x298
  switch (pdev->request.bmRequest & 0x1FU)
 8006d06:	f001 031f 	and.w	r3, r1, #31
 8006d0a:	2b01      	cmp	r3, #1
 8006d0c:	d008      	beq.n	8006d20 <USBD_LL_SetupStage+0x3a>
 8006d0e:	2b02      	cmp	r3, #2
 8006d10:	d00b      	beq.n	8006d2a <USBD_LL_SetupStage+0x44>
 8006d12:	b97b      	cbnz	r3, 8006d34 <USBD_LL_SetupStage+0x4e>
  {
    case USB_REQ_RECIPIENT_DEVICE:
      USBD_StdDevReq(pdev, &pdev->request);
 8006d14:	4629      	mov	r1, r5
 8006d16:	4620      	mov	r0, r4
 8006d18:	f000 f8fc 	bl	8006f14 <USBD_StdDevReq>
      USBD_LL_StallEP(pdev, (pdev->request.bmRequest & 0x80U));
      break;
  }

  return USBD_OK;
}
 8006d1c:	2000      	movs	r0, #0
 8006d1e:	bd38      	pop	{r3, r4, r5, pc}
      USBD_StdItfReq(pdev, &pdev->request);
 8006d20:	4629      	mov	r1, r5
 8006d22:	4620      	mov	r0, r4
 8006d24:	f000 fa20 	bl	8007168 <USBD_StdItfReq>
      break;
 8006d28:	e7f8      	b.n	8006d1c <USBD_LL_SetupStage+0x36>
      USBD_StdEPReq(pdev, &pdev->request);
 8006d2a:	4629      	mov	r1, r5
 8006d2c:	4620      	mov	r0, r4
 8006d2e:	f000 fa3f 	bl	80071b0 <USBD_StdEPReq>
      break;
 8006d32:	e7f3      	b.n	8006d1c <USBD_LL_SetupStage+0x36>
      USBD_LL_StallEP(pdev, (pdev->request.bmRequest & 0x80U));
 8006d34:	4620      	mov	r0, r4
 8006d36:	f001 0180 	and.w	r1, r1, #128	; 0x80
 8006d3a:	f000 fce5 	bl	8007708 <USBD_LL_StallEP>
      break;
 8006d3e:	e7ed      	b.n	8006d1c <USBD_LL_SetupStage+0x36>

08006d40 <USBD_LL_DataOutStage>:
* @param  epnum: endpoint index
* @retval status
*/
USBD_StatusTypeDef USBD_LL_DataOutStage(USBD_HandleTypeDef *pdev,
                                        uint8_t epnum, uint8_t *pdata)
{
 8006d40:	b5f8      	push	{r3, r4, r5, r6, r7, lr}
 8006d42:	4604      	mov	r4, r0
 8006d44:	4617      	mov	r7, r2
  USBD_EndpointTypeDef *pep;

  if (epnum == 0U)
 8006d46:	460d      	mov	r5, r1
 8006d48:	bb39      	cbnz	r1, 8006d9a <USBD_LL_DataOutStage+0x5a>
  {
    pep = &pdev->ep_out[0];

    if (pdev->ep0_state == USBD_EP0_DATA_OUT)
 8006d4a:	f8d0 3294 	ldr.w	r3, [r0, #660]	; 0x294
 8006d4e:	2b03      	cmp	r3, #3
 8006d50:	d11c      	bne.n	8006d8c <USBD_LL_DataOutStage+0x4c>
    {
      if (pep->rem_length > pep->maxpacket)
 8006d52:	e9d0 6258 	ldrd	r6, r2, [r0, #352]	; 0x160
 8006d56:	4296      	cmp	r6, r2
 8006d58:	d90b      	bls.n	8006d72 <USBD_LL_DataOutStage+0x32>
      {
        pep->rem_length -= pep->maxpacket;
 8006d5a:	1ab6      	subs	r6, r6, r2

        USBD_CtlContinueRx(pdev, pdata,
 8006d5c:	42b2      	cmp	r2, r6
 8006d5e:	4639      	mov	r1, r7
        pep->rem_length -= pep->maxpacket;
 8006d60:	f8c0 6160 	str.w	r6, [r0, #352]	; 0x160
        USBD_CtlContinueRx(pdev, pdata,
 8006d64:	bf8c      	ite	hi
 8006d66:	b2b2      	uxthhi	r2, r6
 8006d68:	b292      	uxthls	r2, r2
 8006d6a:	f000 fb08 	bl	800737e <USBD_CtlContinueRx>
    /* should never be in this condition */
    return USBD_FAIL;
  }

  return USBD_OK;
}
 8006d6e:	4628      	mov	r0, r5
 8006d70:	bdf8      	pop	{r3, r4, r5, r6, r7, pc}
        if ((pdev->pClass->EP0_RxReady != NULL) &&
 8006d72:	f8d0 32b4 	ldr.w	r3, [r0, #692]	; 0x2b4
 8006d76:	691b      	ldr	r3, [r3, #16]
 8006d78:	b123      	cbz	r3, 8006d84 <USBD_LL_DataOutStage+0x44>
 8006d7a:	f890 229c 	ldrb.w	r2, [r0, #668]	; 0x29c
 8006d7e:	2a03      	cmp	r2, #3
 8006d80:	d100      	bne.n	8006d84 <USBD_LL_DataOutStage+0x44>
          pdev->pClass->EP0_RxReady(pdev);
 8006d82:	4798      	blx	r3
        USBD_CtlSendStatus(pdev);
 8006d84:	4620      	mov	r0, r4
 8006d86:	f000 fb02 	bl	800738e <USBD_CtlSendStatus>
 8006d8a:	e7f0      	b.n	8006d6e <USBD_LL_DataOutStage+0x2e>
      if (pdev->ep0_state == USBD_EP0_STATUS_OUT)
 8006d8c:	2b05      	cmp	r3, #5
 8006d8e:	d1ee      	bne.n	8006d6e <USBD_LL_DataOutStage+0x2e>
        pdev->ep0_state = USBD_EP0_IDLE;
 8006d90:	f8c4 1294 	str.w	r1, [r4, #660]	; 0x294
        USBD_LL_StallEP(pdev, 0U);
 8006d94:	f000 fcb8 	bl	8007708 <USBD_LL_StallEP>
 8006d98:	e7e9      	b.n	8006d6e <USBD_LL_DataOutStage+0x2e>
  else if ((pdev->pClass->DataOut != NULL) &&
 8006d9a:	f8d0 32b4 	ldr.w	r3, [r0, #692]	; 0x2b4
 8006d9e:	699b      	ldr	r3, [r3, #24]
 8006da0:	b133      	cbz	r3, 8006db0 <USBD_LL_DataOutStage+0x70>
 8006da2:	f890 229c 	ldrb.w	r2, [r0, #668]	; 0x29c
 8006da6:	2a03      	cmp	r2, #3
 8006da8:	d102      	bne.n	8006db0 <USBD_LL_DataOutStage+0x70>
    pdev->pClass->DataOut(pdev, epnum);
 8006daa:	4798      	blx	r3
  return USBD_OK;
 8006dac:	2500      	movs	r5, #0
    pdev->pClass->DataOut(pdev, epnum);
 8006dae:	e7de      	b.n	8006d6e <USBD_LL_DataOutStage+0x2e>
    return USBD_FAIL;
 8006db0:	2502      	movs	r5, #2
 8006db2:	e7dc      	b.n	8006d6e <USBD_LL_DataOutStage+0x2e>

08006db4 <USBD_LL_DataInStage>:
* @param  epnum: endpoint index
* @retval status
*/
USBD_StatusTypeDef USBD_LL_DataInStage(USBD_HandleTypeDef *pdev,
                                       uint8_t epnum, uint8_t *pdata)
{
 8006db4:	b5f8      	push	{r3, r4, r5, r6, r7, lr}
 8006db6:	4604      	mov	r4, r0
 8006db8:	4617      	mov	r7, r2
  USBD_EndpointTypeDef *pep;

  if (epnum == 0U)
 8006dba:	460d      	mov	r5, r1
 8006dbc:	2900      	cmp	r1, #0
 8006dbe:	d147      	bne.n	8006e50 <USBD_LL_DataInStage+0x9c>
  {
    pep = &pdev->ep_in[0];

    if (pdev->ep0_state == USBD_EP0_DATA_IN)
 8006dc0:	f8d0 3294 	ldr.w	r3, [r0, #660]	; 0x294
 8006dc4:	2b02      	cmp	r3, #2
 8006dc6:	d13c      	bne.n	8006e42 <USBD_LL_DataInStage+0x8e>
    {
      if (pep->rem_length > pep->maxpacket)
 8006dc8:	e9d0 6308 	ldrd	r6, r3, [r0, #32]
 8006dcc:	429e      	cmp	r6, r3
 8006dce:	d914      	bls.n	8006dfa <USBD_LL_DataInStage+0x46>
      {
        pep->rem_length -= pep->maxpacket;
 8006dd0:	1af3      	subs	r3, r6, r3

        USBD_CtlContinueSendData(pdev, pdata, (uint16_t)pep->rem_length);
 8006dd2:	4639      	mov	r1, r7
        pep->rem_length -= pep->maxpacket;
 8006dd4:	6203      	str	r3, [r0, #32]
        USBD_CtlContinueSendData(pdev, pdata, (uint16_t)pep->rem_length);
 8006dd6:	b29a      	uxth	r2, r3
 8006dd8:	f000 fabc 	bl	8007354 <USBD_CtlContinueSendData>
        {
          USBD_CtlContinueSendData(pdev, NULL, 0U);
          pdev->ep0_data_len = 0U;

          /* Prepare endpoint for premature end of transfer */
          USBD_LL_PrepareReceive(pdev, 0U, NULL, 0U);
 8006ddc:	462b      	mov	r3, r5
 8006dde:	462a      	mov	r2, r5
 8006de0:	4629      	mov	r1, r5
 8006de2:	4620      	mov	r0, r4
 8006de4:	f000 fcc6 	bl	8007774 <USBD_LL_PrepareReceive>
      {
        USBD_LL_StallEP(pdev, 0x80U);
      }
    }

    if (pdev->dev_test_mode == 1U)
 8006de8:	f894 32a0 	ldrb.w	r3, [r4, #672]	; 0x2a0
 8006dec:	2b01      	cmp	r3, #1
 8006dee:	d102      	bne.n	8006df6 <USBD_LL_DataInStage+0x42>
    {
      USBD_RunTestMode(pdev);
      pdev->dev_test_mode = 0U;
 8006df0:	2300      	movs	r3, #0
 8006df2:	f884 32a0 	strb.w	r3, [r4, #672]	; 0x2a0
    /* should never be in this condition */
    return USBD_FAIL;
  }

  return USBD_OK;
}
 8006df6:	4628      	mov	r0, r5
 8006df8:	bdf8      	pop	{r3, r4, r5, r6, r7, pc}
        if ((pep->total_length % pep->maxpacket == 0U) &&
 8006dfa:	69c2      	ldr	r2, [r0, #28]
 8006dfc:	fbb2 f6f3 	udiv	r6, r2, r3
 8006e00:	fb03 2616 	mls	r6, r3, r6, r2
 8006e04:	b95e      	cbnz	r6, 8006e1e <USBD_LL_DataInStage+0x6a>
 8006e06:	4293      	cmp	r3, r2
 8006e08:	d809      	bhi.n	8006e1e <USBD_LL_DataInStage+0x6a>
            (pep->total_length >= pep->maxpacket) &&
 8006e0a:	f8d0 3298 	ldr.w	r3, [r0, #664]	; 0x298
 8006e0e:	429a      	cmp	r2, r3
 8006e10:	d205      	bcs.n	8006e1e <USBD_LL_DataInStage+0x6a>
          USBD_CtlContinueSendData(pdev, NULL, 0U);
 8006e12:	460a      	mov	r2, r1
 8006e14:	f000 fa9e 	bl	8007354 <USBD_CtlContinueSendData>
          pdev->ep0_data_len = 0U;
 8006e18:	f8c4 5298 	str.w	r5, [r4, #664]	; 0x298
 8006e1c:	e7de      	b.n	8006ddc <USBD_LL_DataInStage+0x28>
          if ((pdev->pClass->EP0_TxSent != NULL) &&
 8006e1e:	f8d4 32b4 	ldr.w	r3, [r4, #692]	; 0x2b4
 8006e22:	68db      	ldr	r3, [r3, #12]
 8006e24:	b12b      	cbz	r3, 8006e32 <USBD_LL_DataInStage+0x7e>
 8006e26:	f894 229c 	ldrb.w	r2, [r4, #668]	; 0x29c
 8006e2a:	2a03      	cmp	r2, #3
 8006e2c:	d101      	bne.n	8006e32 <USBD_LL_DataInStage+0x7e>
            pdev->pClass->EP0_TxSent(pdev);
 8006e2e:	4620      	mov	r0, r4
 8006e30:	4798      	blx	r3
          USBD_LL_StallEP(pdev, 0x80U);
 8006e32:	2180      	movs	r1, #128	; 0x80
 8006e34:	4620      	mov	r0, r4
 8006e36:	f000 fc67 	bl	8007708 <USBD_LL_StallEP>
          USBD_CtlReceiveStatus(pdev);
 8006e3a:	4620      	mov	r0, r4
 8006e3c:	f000 fab2 	bl	80073a4 <USBD_CtlReceiveStatus>
 8006e40:	e7d2      	b.n	8006de8 <USBD_LL_DataInStage+0x34>
      if ((pdev->ep0_state == USBD_EP0_STATUS_IN) ||
 8006e42:	f033 0304 	bics.w	r3, r3, #4
 8006e46:	d1cf      	bne.n	8006de8 <USBD_LL_DataInStage+0x34>
        USBD_LL_StallEP(pdev, 0x80U);
 8006e48:	2180      	movs	r1, #128	; 0x80
 8006e4a:	f000 fc5d 	bl	8007708 <USBD_LL_StallEP>
 8006e4e:	e7cb      	b.n	8006de8 <USBD_LL_DataInStage+0x34>
  else if ((pdev->pClass->DataIn != NULL) &&
 8006e50:	f8d0 32b4 	ldr.w	r3, [r0, #692]	; 0x2b4
 8006e54:	695b      	ldr	r3, [r3, #20]
 8006e56:	b133      	cbz	r3, 8006e66 <USBD_LL_DataInStage+0xb2>
 8006e58:	f890 229c 	ldrb.w	r2, [r0, #668]	; 0x29c
 8006e5c:	2a03      	cmp	r2, #3
 8006e5e:	d102      	bne.n	8006e66 <USBD_LL_DataInStage+0xb2>
    pdev->pClass->DataIn(pdev, epnum);
 8006e60:	4798      	blx	r3
  return USBD_OK;
 8006e62:	2500      	movs	r5, #0
    pdev->pClass->DataIn(pdev, epnum);
 8006e64:	e7c7      	b.n	8006df6 <USBD_LL_DataInStage+0x42>
    return USBD_FAIL;
 8006e66:	2502      	movs	r5, #2
 8006e68:	e7c5      	b.n	8006df6 <USBD_LL_DataInStage+0x42>

08006e6a <USBD_LL_Reset>:
*/

USBD_StatusTypeDef USBD_LL_Reset(USBD_HandleTypeDef *pdev)
{
  /* Open EP0 OUT */
  USBD_LL_OpenEP(pdev, 0x00U, USBD_EP_TYPE_CTRL, USB_MAX_EP0_SIZE);
 8006e6a:	2200      	movs	r2, #0
{
 8006e6c:	b570      	push	{r4, r5, r6, lr}
 8006e6e:	4604      	mov	r4, r0
  pdev->ep_out[0x00U & 0xFU].is_used = 1U;
 8006e70:	2501      	movs	r5, #1

  pdev->ep_out[0].maxpacket = USB_MAX_EP0_SIZE;
 8006e72:	2640      	movs	r6, #64	; 0x40
  USBD_LL_OpenEP(pdev, 0x00U, USBD_EP_TYPE_CTRL, USB_MAX_EP0_SIZE);
 8006e74:	4611      	mov	r1, r2
 8006e76:	2340      	movs	r3, #64	; 0x40
 8006e78:	f000 fc31 	bl	80076de <USBD_LL_OpenEP>

  /* Open EP0 IN */
  USBD_LL_OpenEP(pdev, 0x80U, USBD_EP_TYPE_CTRL, USB_MAX_EP0_SIZE);
 8006e7c:	4633      	mov	r3, r6
 8006e7e:	2180      	movs	r1, #128	; 0x80
 8006e80:	2200      	movs	r2, #0
 8006e82:	4620      	mov	r0, r4
  pdev->ep_out[0x00U & 0xFU].is_used = 1U;
 8006e84:	f8c4 5158 	str.w	r5, [r4, #344]	; 0x158
  pdev->ep_out[0].maxpacket = USB_MAX_EP0_SIZE;
 8006e88:	f8c4 6164 	str.w	r6, [r4, #356]	; 0x164
  USBD_LL_OpenEP(pdev, 0x80U, USBD_EP_TYPE_CTRL, USB_MAX_EP0_SIZE);
 8006e8c:	f000 fc27 	bl	80076de <USBD_LL_OpenEP>

  pdev->ep_in[0].maxpacket = USB_MAX_EP0_SIZE;

  /* Upon Reset call user call back */
  pdev->dev_state = USBD_STATE_DEFAULT;
  pdev->ep0_state = USBD_EP0_IDLE;
 8006e90:	2100      	movs	r1, #0
  pdev->dev_config = 0U;
  pdev->dev_remote_wakeup = 0U;

  if (pdev->pClassData)
 8006e92:	f8d4 32b8 	ldr.w	r3, [r4, #696]	; 0x2b8
  pdev->ep_in[0x80U & 0xFU].is_used = 1U;
 8006e96:	61a5      	str	r5, [r4, #24]
  pdev->ep_in[0].maxpacket = USB_MAX_EP0_SIZE;
 8006e98:	6266      	str	r6, [r4, #36]	; 0x24
  pdev->dev_state = USBD_STATE_DEFAULT;
 8006e9a:	f884 529c 	strb.w	r5, [r4, #668]	; 0x29c
  pdev->ep0_state = USBD_EP0_IDLE;
 8006e9e:	f8c4 1294 	str.w	r1, [r4, #660]	; 0x294
  pdev->dev_config = 0U;
 8006ea2:	6061      	str	r1, [r4, #4]
  pdev->dev_remote_wakeup = 0U;
 8006ea4:	f8c4 12a4 	str.w	r1, [r4, #676]	; 0x2a4
  if (pdev->pClassData)
 8006ea8:	b123      	cbz	r3, 8006eb4 <USBD_LL_Reset+0x4a>
  {
    pdev->pClass->DeInit(pdev, (uint8_t)pdev->dev_config);
 8006eaa:	f8d4 32b4 	ldr.w	r3, [r4, #692]	; 0x2b4
 8006eae:	4620      	mov	r0, r4
 8006eb0:	685b      	ldr	r3, [r3, #4]
 8006eb2:	4798      	blx	r3
  }

  return USBD_OK;
}
 8006eb4:	2000      	movs	r0, #0
 8006eb6:	bd70      	pop	{r4, r5, r6, pc}

08006eb8 <USBD_LL_SetSpeed>:
* @retval status
*/
USBD_StatusTypeDef USBD_LL_SetSpeed(USBD_HandleTypeDef *pdev,
                                    USBD_SpeedTypeDef speed)
{
  pdev->dev_speed = speed;
 8006eb8:	7401      	strb	r1, [r0, #16]

  return USBD_OK;
}
 8006eba:	2000      	movs	r0, #0
 8006ebc:	4770      	bx	lr

08006ebe <USBD_LL_Suspend>:
* @retval status
*/

USBD_StatusTypeDef USBD_LL_Suspend(USBD_HandleTypeDef *pdev)
{
  pdev->dev_old_state =  pdev->dev_state;
 8006ebe:	f890 329c 	ldrb.w	r3, [r0, #668]	; 0x29c
 8006ec2:	f880 329d 	strb.w	r3, [r0, #669]	; 0x29d
  pdev->dev_state  = USBD_STATE_SUSPENDED;
 8006ec6:	2304      	movs	r3, #4
 8006ec8:	f880 329c 	strb.w	r3, [r0, #668]	; 0x29c

  return USBD_OK;
}
 8006ecc:	2000      	movs	r0, #0
 8006ece:	4770      	bx	lr

08006ed0 <USBD_LL_Resume>:
* @retval status
*/

USBD_StatusTypeDef USBD_LL_Resume(USBD_HandleTypeDef *pdev)
{
  if (pdev->dev_state == USBD_STATE_SUSPENDED)
 8006ed0:	f890 329c 	ldrb.w	r3, [r0, #668]	; 0x29c
 8006ed4:	2b04      	cmp	r3, #4
  {
    pdev->dev_state = pdev->dev_old_state;
 8006ed6:	bf04      	itt	eq
 8006ed8:	f890 329d 	ldrbeq.w	r3, [r0, #669]	; 0x29d
 8006edc:	f880 329c 	strbeq.w	r3, [r0, #668]	; 0x29c
  }

  return USBD_OK;
}
 8006ee0:	2000      	movs	r0, #0
 8006ee2:	4770      	bx	lr

08006ee4 <USBD_LL_SOF>:
* @param  pdev: device instance
* @retval status
*/

USBD_StatusTypeDef USBD_LL_SOF(USBD_HandleTypeDef *pdev)
{
 8006ee4:	b508      	push	{r3, lr}
  if (pdev->dev_state == USBD_STATE_CONFIGURED)
 8006ee6:	f890 229c 	ldrb.w	r2, [r0, #668]	; 0x29c
 8006eea:	2a03      	cmp	r2, #3
 8006eec:	d104      	bne.n	8006ef8 <USBD_LL_SOF+0x14>
  {
    if (pdev->pClass->SOF != NULL)
 8006eee:	f8d0 32b4 	ldr.w	r3, [r0, #692]	; 0x2b4
 8006ef2:	69db      	ldr	r3, [r3, #28]
 8006ef4:	b103      	cbz	r3, 8006ef8 <USBD_LL_SOF+0x14>
    {
      pdev->pClass->SOF(pdev);
 8006ef6:	4798      	blx	r3
    }
  }

  return USBD_OK;
}
 8006ef8:	2000      	movs	r0, #0
 8006efa:	bd08      	pop	{r3, pc}

08006efc <USBD_CtlError.constprop.0>:
* @param  pdev: device instance
* @param  req: usb request
* @retval None
*/

void USBD_CtlError(USBD_HandleTypeDef *pdev,
 8006efc:	b510      	push	{r4, lr}
 8006efe:	4604      	mov	r4, r0
                   USBD_SetupReqTypedef *req)
{
  USBD_LL_StallEP(pdev, 0x80U);
 8006f00:	2180      	movs	r1, #128	; 0x80
 8006f02:	f000 fc01 	bl	8007708 <USBD_LL_StallEP>
  USBD_LL_StallEP(pdev, 0U);
 8006f06:	4620      	mov	r0, r4
}
 8006f08:	e8bd 4010 	ldmia.w	sp!, {r4, lr}
  USBD_LL_StallEP(pdev, 0U);
 8006f0c:	2100      	movs	r1, #0
 8006f0e:	f000 bbfb 	b.w	8007708 <USBD_LL_StallEP>
	...

08006f14 <USBD_StdDevReq>:
{
 8006f14:	b537      	push	{r0, r1, r2, r4, r5, lr}
 8006f16:	780b      	ldrb	r3, [r1, #0]
 8006f18:	4604      	mov	r4, r0
  switch (req->bmRequest & USB_REQ_TYPE_MASK)
 8006f1a:	f003 0360 	and.w	r3, r3, #96	; 0x60
 8006f1e:	2b20      	cmp	r3, #32
{
 8006f20:	460d      	mov	r5, r1
  switch (req->bmRequest & USB_REQ_TYPE_MASK)
 8006f22:	d012      	beq.n	8006f4a <USBD_StdDevReq+0x36>
 8006f24:	2b40      	cmp	r3, #64	; 0x40
 8006f26:	d010      	beq.n	8006f4a <USBD_StdDevReq+0x36>
 8006f28:	2b00      	cmp	r3, #0
 8006f2a:	d151      	bne.n	8006fd0 <USBD_StdDevReq+0xbc>
      switch (req->bRequest)
 8006f2c:	784b      	ldrb	r3, [r1, #1]
 8006f2e:	2b09      	cmp	r3, #9
 8006f30:	d84e      	bhi.n	8006fd0 <USBD_StdDevReq+0xbc>
 8006f32:	e8df f013 	tbh	[pc, r3, lsl #1]
 8006f36:	00ee      	.short	0x00ee
 8006f38:	004d010a 	.word	0x004d010a
 8006f3c:	004d0103 	.word	0x004d0103
 8006f40:	00130087 	.word	0x00130087
 8006f44:	00d6004d 	.word	0x00d6004d
 8006f48:	00a3      	.short	0x00a3
      pdev->pClass->Setup(pdev, req);
 8006f4a:	f8d4 32b4 	ldr.w	r3, [r4, #692]	; 0x2b4
 8006f4e:	4629      	mov	r1, r5
 8006f50:	4620      	mov	r0, r4
 8006f52:	689b      	ldr	r3, [r3, #8]
 8006f54:	4798      	blx	r3
}
 8006f56:	2000      	movs	r0, #0
 8006f58:	b003      	add	sp, #12
 8006f5a:	bd30      	pop	{r4, r5, pc}
  uint16_t len = 0U;
 8006f5c:	2300      	movs	r3, #0
 8006f5e:	f8ad 3006 	strh.w	r3, [sp, #6]
  switch (req->wValue >> 8)
 8006f62:	884b      	ldrh	r3, [r1, #2]
 8006f64:	0a1a      	lsrs	r2, r3, #8
 8006f66:	3a01      	subs	r2, #1
 8006f68:	2a06      	cmp	r2, #6
 8006f6a:	d831      	bhi.n	8006fd0 <USBD_StdDevReq+0xbc>
 8006f6c:	e8df f002 	tbb	[pc, r2]
 8006f70:	30231604 	.word	0x30231604
 8006f74:	4830      	.short	0x4830
 8006f76:	52          	.byte	0x52
 8006f77:	00          	.byte	0x00
      pbuf = pdev->pDesc->GetDeviceDescriptor(pdev->dev_speed, &len);
 8006f78:	f8d0 32b0 	ldr.w	r3, [r0, #688]	; 0x2b0
 8006f7c:	681b      	ldr	r3, [r3, #0]
            pbuf = pdev->pDesc->GetInterfaceStrDescriptor(pdev->dev_speed, &len);
 8006f7e:	7c20      	ldrb	r0, [r4, #16]
 8006f80:	f10d 0106 	add.w	r1, sp, #6
 8006f84:	4798      	blx	r3
    if ((len != 0U) && (req->wLength != 0U))
 8006f86:	f8bd 2006 	ldrh.w	r2, [sp, #6]
 8006f8a:	2a00      	cmp	r2, #0
 8006f8c:	d056      	beq.n	800703c <USBD_StdDevReq+0x128>
 8006f8e:	88eb      	ldrh	r3, [r5, #6]
 8006f90:	2b00      	cmp	r3, #0
 8006f92:	d14a      	bne.n	800702a <USBD_StdDevReq+0x116>
        USBD_CtlSendStatus(pdev);
 8006f94:	4620      	mov	r0, r4
 8006f96:	f000 f9fa 	bl	800738e <USBD_CtlSendStatus>
 8006f9a:	e7dc      	b.n	8006f56 <USBD_StdDevReq+0x42>
      if (pdev->dev_speed == USBD_SPEED_HIGH)
 8006f9c:	7c02      	ldrb	r2, [r0, #16]
      pdev->pClass->Setup(pdev, req);
 8006f9e:	f8d0 32b4 	ldr.w	r3, [r0, #692]	; 0x2b4
      if (pdev->dev_speed == USBD_SPEED_HIGH)
 8006fa2:	b932      	cbnz	r2, 8006fb2 <USBD_StdDevReq+0x9e>
        pbuf = pdev->pClass->GetHSConfigDescriptor(&len);
 8006fa4:	6a9b      	ldr	r3, [r3, #40]	; 0x28
        pbuf = pdev->pClass->GetFSConfigDescriptor(&len);
 8006fa6:	f10d 0006 	add.w	r0, sp, #6
 8006faa:	4798      	blx	r3
        pbuf[1] = USB_DESC_TYPE_CONFIGURATION;
 8006fac:	2302      	movs	r3, #2
        pbuf[1] = USB_DESC_TYPE_OTHER_SPEED_CONFIGURATION;
 8006fae:	7043      	strb	r3, [r0, #1]
  if (err != 0U)
 8006fb0:	e7e9      	b.n	8006f86 <USBD_StdDevReq+0x72>
        pbuf = pdev->pClass->GetFSConfigDescriptor(&len);
 8006fb2:	6adb      	ldr	r3, [r3, #44]	; 0x2c
 8006fb4:	e7f7      	b.n	8006fa6 <USBD_StdDevReq+0x92>
      switch ((uint8_t)(req->wValue))
 8006fb6:	b2db      	uxtb	r3, r3
 8006fb8:	2b05      	cmp	r3, #5
 8006fba:	d809      	bhi.n	8006fd0 <USBD_StdDevReq+0xbc>
 8006fbc:	e8df f003 	tbb	[pc, r3]
 8006fc0:	14100c03 	.word	0x14100c03
 8006fc4:	1c18      	.short	0x1c18
          if (pdev->pDesc->GetLangIDStrDescriptor != NULL)
 8006fc6:	f8d0 32b0 	ldr.w	r3, [r0, #688]	; 0x2b0
 8006fca:	685b      	ldr	r3, [r3, #4]
          if (pdev->pDesc->GetInterfaceStrDescriptor != NULL)
 8006fcc:	2b00      	cmp	r3, #0
 8006fce:	d1d6      	bne.n	8006f7e <USBD_StdDevReq+0x6a>
        USBD_CtlError(pdev, req);
 8006fd0:	4620      	mov	r0, r4
 8006fd2:	f7ff ff93 	bl	8006efc <USBD_CtlError.constprop.0>
        break;
 8006fd6:	e7be      	b.n	8006f56 <USBD_StdDevReq+0x42>
          if (pdev->pDesc->GetManufacturerStrDescriptor != NULL)
 8006fd8:	f8d0 32b0 	ldr.w	r3, [r0, #688]	; 0x2b0
 8006fdc:	689b      	ldr	r3, [r3, #8]
 8006fde:	e7f5      	b.n	8006fcc <USBD_StdDevReq+0xb8>
          if (pdev->pDesc->GetProductStrDescriptor != NULL)
 8006fe0:	f8d0 32b0 	ldr.w	r3, [r0, #688]	; 0x2b0
 8006fe4:	68db      	ldr	r3, [r3, #12]
 8006fe6:	e7f1      	b.n	8006fcc <USBD_StdDevReq+0xb8>
          if (pdev->pDesc->GetSerialStrDescriptor != NULL)
 8006fe8:	f8d0 32b0 	ldr.w	r3, [r0, #688]	; 0x2b0
 8006fec:	691b      	ldr	r3, [r3, #16]
 8006fee:	e7ed      	b.n	8006fcc <USBD_StdDevReq+0xb8>
          if (pdev->pDesc->GetConfigurationStrDescriptor != NULL)
 8006ff0:	f8d0 32b0 	ldr.w	r3, [r0, #688]	; 0x2b0
 8006ff4:	695b      	ldr	r3, [r3, #20]
 8006ff6:	e7e9      	b.n	8006fcc <USBD_StdDevReq+0xb8>
          if (pdev->pDesc->GetInterfaceStrDescriptor != NULL)
 8006ff8:	f8d0 32b0 	ldr.w	r3, [r0, #688]	; 0x2b0
 8006ffc:	699b      	ldr	r3, [r3, #24]
 8006ffe:	e7e5      	b.n	8006fcc <USBD_StdDevReq+0xb8>
      if (pdev->dev_speed == USBD_SPEED_HIGH)
 8007000:	7c03      	ldrb	r3, [r0, #16]
 8007002:	2b00      	cmp	r3, #0
 8007004:	d1e4      	bne.n	8006fd0 <USBD_StdDevReq+0xbc>
        pbuf = pdev->pClass->GetDeviceQualifierDescriptor(&len);
 8007006:	f8d0 32b4 	ldr.w	r3, [r0, #692]	; 0x2b4
 800700a:	f10d 0006 	add.w	r0, sp, #6
 800700e:	6b5b      	ldr	r3, [r3, #52]	; 0x34
 8007010:	4798      	blx	r3
 8007012:	e7b8      	b.n	8006f86 <USBD_StdDevReq+0x72>
      if (pdev->dev_speed == USBD_SPEED_HIGH)
 8007014:	7c03      	ldrb	r3, [r0, #16]
 8007016:	2b00      	cmp	r3, #0
 8007018:	d1da      	bne.n	8006fd0 <USBD_StdDevReq+0xbc>
        pbuf = pdev->pClass->GetOtherSpeedConfigDescriptor(&len);
 800701a:	f8d0 32b4 	ldr.w	r3, [r0, #692]	; 0x2b4
 800701e:	f10d 0006 	add.w	r0, sp, #6
 8007022:	6b1b      	ldr	r3, [r3, #48]	; 0x30
 8007024:	4798      	blx	r3
        pbuf[1] = USB_DESC_TYPE_OTHER_SPEED_CONFIGURATION;
 8007026:	2307      	movs	r3, #7
 8007028:	e7c1      	b.n	8006fae <USBD_StdDevReq+0x9a>
      len = MIN(len, req->wLength);
 800702a:	429a      	cmp	r2, r3
 800702c:	bf28      	it	cs
 800702e:	461a      	movcs	r2, r3
      (void)USBD_CtlSendData(pdev, pbuf, len);
 8007030:	4601      	mov	r1, r0
 8007032:	4620      	mov	r0, r4
      len = MIN(len, req->wLength);
 8007034:	f8ad 2006 	strh.w	r2, [sp, #6]
      (void)USBD_CtlSendData(pdev, pbuf, len);
 8007038:	f000 f97f 	bl	800733a <USBD_CtlSendData>
    if (req->wLength == 0U)
 800703c:	88eb      	ldrh	r3, [r5, #6]
 800703e:	2b00      	cmp	r3, #0
 8007040:	d189      	bne.n	8006f56 <USBD_StdDevReq+0x42>
 8007042:	e7a7      	b.n	8006f94 <USBD_StdDevReq+0x80>
  if ((req->wIndex == 0U) && (req->wLength == 0U) && (req->wValue < 128U))
 8007044:	888b      	ldrh	r3, [r1, #4]
 8007046:	2b00      	cmp	r3, #0
 8007048:	d1c2      	bne.n	8006fd0 <USBD_StdDevReq+0xbc>
 800704a:	88cb      	ldrh	r3, [r1, #6]
 800704c:	2b00      	cmp	r3, #0
 800704e:	d1bf      	bne.n	8006fd0 <USBD_StdDevReq+0xbc>
 8007050:	884d      	ldrh	r5, [r1, #2]
 8007052:	2d7f      	cmp	r5, #127	; 0x7f
 8007054:	d8bc      	bhi.n	8006fd0 <USBD_StdDevReq+0xbc>
    if (pdev->dev_state == USBD_STATE_CONFIGURED)
 8007056:	f890 329c 	ldrb.w	r3, [r0, #668]	; 0x29c
 800705a:	2b03      	cmp	r3, #3
 800705c:	d0b8      	beq.n	8006fd0 <USBD_StdDevReq+0xbc>
    dev_addr = (uint8_t)(req->wValue) & 0x7FU;
 800705e:	b2e9      	uxtb	r1, r5
      pdev->dev_address = dev_addr;
 8007060:	f880 129e 	strb.w	r1, [r0, #670]	; 0x29e
      USBD_LL_SetUSBAddress(pdev, dev_addr);
 8007064:	f000 fb74 	bl	8007750 <USBD_LL_SetUSBAddress>
      USBD_CtlSendStatus(pdev);
 8007068:	4620      	mov	r0, r4
 800706a:	f000 f990 	bl	800738e <USBD_CtlSendStatus>
      if (dev_addr != 0U)
 800706e:	b11d      	cbz	r5, 8007078 <USBD_StdDevReq+0x164>
        pdev->dev_state = USBD_STATE_ADDRESSED;
 8007070:	2302      	movs	r3, #2
        pdev->dev_state = USBD_STATE_DEFAULT;
 8007072:	f884 329c 	strb.w	r3, [r4, #668]	; 0x29c
 8007076:	e76e      	b.n	8006f56 <USBD_StdDevReq+0x42>
 8007078:	2301      	movs	r3, #1
 800707a:	e7fa      	b.n	8007072 <USBD_StdDevReq+0x15e>
  cfgidx = (uint8_t)(req->wValue);
 800707c:	7889      	ldrb	r1, [r1, #2]
 800707e:	4d39      	ldr	r5, [pc, #228]	; (8007164 <USBD_StdDevReq+0x250>)
  if (cfgidx > USBD_MAX_NUM_CONFIGURATION)
 8007080:	2901      	cmp	r1, #1
  cfgidx = (uint8_t)(req->wValue);
 8007082:	7029      	strb	r1, [r5, #0]
  if (cfgidx > USBD_MAX_NUM_CONFIGURATION)
 8007084:	d8a4      	bhi.n	8006fd0 <USBD_StdDevReq+0xbc>
    switch (pdev->dev_state)
 8007086:	f890 329c 	ldrb.w	r3, [r0, #668]	; 0x29c
 800708a:	2b02      	cmp	r3, #2
 800708c:	d008      	beq.n	80070a0 <USBD_StdDevReq+0x18c>
 800708e:	2b03      	cmp	r3, #3
 8007090:	d015      	beq.n	80070be <USBD_StdDevReq+0x1aa>
        USBD_CtlError(pdev, req);
 8007092:	f7ff ff33 	bl	8006efc <USBD_CtlError.constprop.0>
        USBD_ClrClassConfig(pdev, cfgidx);
 8007096:	4620      	mov	r0, r4
 8007098:	7829      	ldrb	r1, [r5, #0]
 800709a:	f7ff fe1d 	bl	8006cd8 <USBD_ClrClassConfig>
        break;
 800709e:	e75a      	b.n	8006f56 <USBD_StdDevReq+0x42>
        if (cfgidx)
 80070a0:	2900      	cmp	r1, #0
 80070a2:	f43f af77 	beq.w	8006f94 <USBD_StdDevReq+0x80>
          pdev->dev_config = cfgidx;
 80070a6:	2101      	movs	r1, #1
          pdev->dev_state = USBD_STATE_CONFIGURED;
 80070a8:	2303      	movs	r3, #3
          pdev->dev_config = cfgidx;
 80070aa:	6041      	str	r1, [r0, #4]
          pdev->dev_state = USBD_STATE_CONFIGURED;
 80070ac:	f880 329c 	strb.w	r3, [r0, #668]	; 0x29c
          if (USBD_SetClassConfig(pdev, cfgidx) == USBD_FAIL)
 80070b0:	4620      	mov	r0, r4
 80070b2:	f7ff fe06 	bl	8006cc2 <USBD_SetClassConfig>
 80070b6:	2802      	cmp	r0, #2
 80070b8:	f47f af6c 	bne.w	8006f94 <USBD_StdDevReq+0x80>
 80070bc:	e788      	b.n	8006fd0 <USBD_StdDevReq+0xbc>
        if (cfgidx == 0U)
 80070be:	b931      	cbnz	r1, 80070ce <USBD_StdDevReq+0x1ba>
          pdev->dev_state = USBD_STATE_ADDRESSED;
 80070c0:	2302      	movs	r3, #2
          pdev->dev_config = cfgidx;
 80070c2:	6041      	str	r1, [r0, #4]
          pdev->dev_state = USBD_STATE_ADDRESSED;
 80070c4:	f880 329c 	strb.w	r3, [r0, #668]	; 0x29c
          USBD_ClrClassConfig(pdev, cfgidx);
 80070c8:	f7ff fe06 	bl	8006cd8 <USBD_ClrClassConfig>
          USBD_CtlSendStatus(pdev);
 80070cc:	e762      	b.n	8006f94 <USBD_StdDevReq+0x80>
        else if (cfgidx != pdev->dev_config)
 80070ce:	6841      	ldr	r1, [r0, #4]
 80070d0:	2901      	cmp	r1, #1
 80070d2:	f43f af5f 	beq.w	8006f94 <USBD_StdDevReq+0x80>
          USBD_ClrClassConfig(pdev, (uint8_t)pdev->dev_config);
 80070d6:	b2c9      	uxtb	r1, r1
 80070d8:	f7ff fdfe 	bl	8006cd8 <USBD_ClrClassConfig>
          pdev->dev_config = cfgidx;
 80070dc:	7829      	ldrb	r1, [r5, #0]
 80070de:	6061      	str	r1, [r4, #4]
 80070e0:	e7e6      	b.n	80070b0 <USBD_StdDevReq+0x19c>
  if (req->wLength != 1U)
 80070e2:	88ca      	ldrh	r2, [r1, #6]
 80070e4:	2a01      	cmp	r2, #1
 80070e6:	f47f af73 	bne.w	8006fd0 <USBD_StdDevReq+0xbc>
    switch (pdev->dev_state)
 80070ea:	f890 329c 	ldrb.w	r3, [r0, #668]	; 0x29c
 80070ee:	2b02      	cmp	r3, #2
 80070f0:	d80a      	bhi.n	8007108 <USBD_StdDevReq+0x1f4>
 80070f2:	2b00      	cmp	r3, #0
 80070f4:	f43f af6c 	beq.w	8006fd0 <USBD_StdDevReq+0xbc>
        pdev->dev_default_config = 0U;
 80070f8:	4601      	mov	r1, r0
 80070fa:	2300      	movs	r3, #0
 80070fc:	f841 3f08 	str.w	r3, [r1, #8]!
      USBD_CtlSendData(pdev, (uint8_t *)(void *)&pdev->dev_config_status, 2U);
 8007100:	4620      	mov	r0, r4
 8007102:	f000 f91a 	bl	800733a <USBD_CtlSendData>
      break;
 8007106:	e726      	b.n	8006f56 <USBD_StdDevReq+0x42>
    switch (pdev->dev_state)
 8007108:	2b03      	cmp	r3, #3
 800710a:	f47f af61 	bne.w	8006fd0 <USBD_StdDevReq+0xbc>
        USBD_CtlSendData(pdev, (uint8_t *)(void *)&pdev->dev_config, 1U);
 800710e:	1d01      	adds	r1, r0, #4
 8007110:	e7f6      	b.n	8007100 <USBD_StdDevReq+0x1ec>
  switch (pdev->dev_state)
 8007112:	f890 329c 	ldrb.w	r3, [r0, #668]	; 0x29c
 8007116:	3b01      	subs	r3, #1
 8007118:	2b02      	cmp	r3, #2
 800711a:	f63f af59 	bhi.w	8006fd0 <USBD_StdDevReq+0xbc>
      if (req->wLength != 0x2U)
 800711e:	88cb      	ldrh	r3, [r1, #6]
 8007120:	2b02      	cmp	r3, #2
 8007122:	f47f af55 	bne.w	8006fd0 <USBD_StdDevReq+0xbc>
      pdev->dev_config_status = USB_CONFIG_SELF_POWERED;
 8007126:	2301      	movs	r3, #1
 8007128:	60c3      	str	r3, [r0, #12]
      if (pdev->dev_remote_wakeup)
 800712a:	f8d0 32a4 	ldr.w	r3, [r0, #676]	; 0x2a4
 800712e:	b10b      	cbz	r3, 8007134 <USBD_StdDevReq+0x220>
        pdev->dev_config_status |= USB_CONFIG_REMOTE_WAKEUP;
 8007130:	2303      	movs	r3, #3
 8007132:	60c3      	str	r3, [r0, #12]
      USBD_CtlSendData(pdev, (uint8_t *)(void *)&pdev->dev_config_status, 2U);
 8007134:	2202      	movs	r2, #2
 8007136:	f104 010c 	add.w	r1, r4, #12
 800713a:	e7e1      	b.n	8007100 <USBD_StdDevReq+0x1ec>
  if (req->wValue == USB_FEATURE_REMOTE_WAKEUP)
 800713c:	884b      	ldrh	r3, [r1, #2]
 800713e:	2b01      	cmp	r3, #1
 8007140:	f47f af09 	bne.w	8006f56 <USBD_StdDevReq+0x42>
        pdev->dev_remote_wakeup = 0U;
 8007144:	f8c4 32a4 	str.w	r3, [r4, #676]	; 0x2a4
 8007148:	e724      	b.n	8006f94 <USBD_StdDevReq+0x80>
  switch (pdev->dev_state)
 800714a:	f890 329c 	ldrb.w	r3, [r0, #668]	; 0x29c
 800714e:	3b01      	subs	r3, #1
 8007150:	2b02      	cmp	r3, #2
 8007152:	f63f af3d 	bhi.w	8006fd0 <USBD_StdDevReq+0xbc>
      if (req->wValue == USB_FEATURE_REMOTE_WAKEUP)
 8007156:	884b      	ldrh	r3, [r1, #2]
 8007158:	2b01      	cmp	r3, #1
 800715a:	f47f aefc 	bne.w	8006f56 <USBD_StdDevReq+0x42>
        pdev->dev_remote_wakeup = 0U;
 800715e:	2300      	movs	r3, #0
 8007160:	e7f0      	b.n	8007144 <USBD_StdDevReq+0x230>
 8007162:	bf00      	nop
 8007164:	200003cc 	.word	0x200003cc

08007168 <USBD_StdItfReq>:
{
 8007168:	b538      	push	{r3, r4, r5, lr}
  switch (req->bmRequest & USB_REQ_TYPE_MASK)
 800716a:	780b      	ldrb	r3, [r1, #0]
{
 800716c:	4604      	mov	r4, r0
  switch (req->bmRequest & USB_REQ_TYPE_MASK)
 800716e:	f003 0260 	and.w	r2, r3, #96	; 0x60
 8007172:	2a40      	cmp	r2, #64	; 0x40
{
 8007174:	460d      	mov	r5, r1
  switch (req->bmRequest & USB_REQ_TYPE_MASK)
 8007176:	d001      	beq.n	800717c <USBD_StdItfReq+0x14>
 8007178:	065b      	lsls	r3, r3, #25
 800717a:	d415      	bmi.n	80071a8 <USBD_StdItfReq+0x40>
      switch (pdev->dev_state)
 800717c:	f894 329c 	ldrb.w	r3, [r4, #668]	; 0x29c
 8007180:	3b01      	subs	r3, #1
 8007182:	2b02      	cmp	r3, #2
 8007184:	d810      	bhi.n	80071a8 <USBD_StdItfReq+0x40>
          if (LOBYTE(req->wIndex) <= USBD_MAX_NUM_INTERFACES)
 8007186:	792b      	ldrb	r3, [r5, #4]
 8007188:	2b01      	cmp	r3, #1
 800718a:	d80d      	bhi.n	80071a8 <USBD_StdItfReq+0x40>
            ret = (USBD_StatusTypeDef)pdev->pClass->Setup(pdev, req);
 800718c:	f8d4 32b4 	ldr.w	r3, [r4, #692]	; 0x2b4
 8007190:	4629      	mov	r1, r5
 8007192:	689b      	ldr	r3, [r3, #8]
 8007194:	4620      	mov	r0, r4
 8007196:	4798      	blx	r3
            if ((req->wLength == 0U) && (ret == USBD_OK))
 8007198:	88eb      	ldrh	r3, [r5, #6]
 800719a:	b91b      	cbnz	r3, 80071a4 <USBD_StdItfReq+0x3c>
 800719c:	b910      	cbnz	r0, 80071a4 <USBD_StdItfReq+0x3c>
              USBD_CtlSendStatus(pdev);
 800719e:	4620      	mov	r0, r4
 80071a0:	f000 f8f5 	bl	800738e <USBD_CtlSendStatus>
}
 80071a4:	2000      	movs	r0, #0
 80071a6:	bd38      	pop	{r3, r4, r5, pc}
          USBD_CtlError(pdev, req);
 80071a8:	4620      	mov	r0, r4
 80071aa:	f7ff fea7 	bl	8006efc <USBD_CtlError.constprop.0>
          break;
 80071ae:	e7f9      	b.n	80071a4 <USBD_StdItfReq+0x3c>

080071b0 <USBD_StdEPReq>:
{
 80071b0:	b538      	push	{r3, r4, r5, lr}
 80071b2:	780a      	ldrb	r2, [r1, #0]
 80071b4:	4604      	mov	r4, r0
  switch (req->bmRequest & USB_REQ_TYPE_MASK)
 80071b6:	f002 0260 	and.w	r2, r2, #96	; 0x60
 80071ba:	2a20      	cmp	r2, #32
{
 80071bc:	460b      	mov	r3, r1
  switch (req->bmRequest & USB_REQ_TYPE_MASK)
 80071be:	d027      	beq.n	8007210 <USBD_StdEPReq+0x60>
 80071c0:	2a40      	cmp	r2, #64	; 0x40
 80071c2:	d025      	beq.n	8007210 <USBD_StdEPReq+0x60>
 80071c4:	bb92      	cbnz	r2, 800722c <USBD_StdEPReq+0x7c>
      switch (req->bRequest)
 80071c6:	785a      	ldrb	r2, [r3, #1]
  ep_addr  = LOBYTE(req->wIndex);
 80071c8:	888d      	ldrh	r5, [r1, #4]
 80071ca:	2a01      	cmp	r2, #1
 80071cc:	7909      	ldrb	r1, [r1, #4]
      switch (req->bRequest)
 80071ce:	d03d      	beq.n	800724c <USBD_StdEPReq+0x9c>
 80071d0:	2a03      	cmp	r2, #3
 80071d2:	d025      	beq.n	8007220 <USBD_StdEPReq+0x70>
 80071d4:	bb52      	cbnz	r2, 800722c <USBD_StdEPReq+0x7c>
          switch (pdev->dev_state)
 80071d6:	f890 329c 	ldrb.w	r3, [r0, #668]	; 0x29c
 80071da:	2b02      	cmp	r3, #2
 80071dc:	d04d      	beq.n	800727a <USBD_StdEPReq+0xca>
 80071de:	2b03      	cmp	r3, #3
 80071e0:	d124      	bne.n	800722c <USBD_StdEPReq+0x7c>
              if ((ep_addr & 0x80U) == 0x80U)
 80071e2:	2214      	movs	r2, #20
                if (pdev->ep_in[ep_addr & 0xFU].is_used == 0U)
 80071e4:	f001 030f 	and.w	r3, r1, #15
              if ((ep_addr & 0x80U) == 0x80U)
 80071e8:	f015 0f80 	tst.w	r5, #128	; 0x80
                if (pdev->ep_in[ep_addr & 0xFU].is_used == 0U)
 80071ec:	fb02 0303 	mla	r3, r2, r3, r0
              if ((ep_addr & 0x80U) == 0x80U)
 80071f0:	d054      	beq.n	800729c <USBD_StdEPReq+0xec>
                if (pdev->ep_in[ep_addr & 0xFU].is_used == 0U)
 80071f2:	699b      	ldr	r3, [r3, #24]
 80071f4:	b1d3      	cbz	r3, 800722c <USBD_StdEPReq+0x7c>
              pep = ((ep_addr & 0x80U) == 0x80U) ? &pdev->ep_in[ep_addr & 0x7FU] : \
 80071f6:	2314      	movs	r3, #20
 80071f8:	f001 057f 	and.w	r5, r1, #127	; 0x7f
 80071fc:	fb05 3303 	mla	r3, r5, r3, r3
 8007200:	18c5      	adds	r5, r0, r3
              if ((ep_addr == 0x00U) || (ep_addr == 0x80U))
 8007202:	f011 037f 	ands.w	r3, r1, #127	; 0x7f
 8007206:	d155      	bne.n	80072b4 <USBD_StdEPReq+0x104>
                pep->status = 0x0001U;
 8007208:	602b      	str	r3, [r5, #0]
              USBD_CtlSendData(pdev, (uint8_t *)(void *)&pep->status, 2U);
 800720a:	2202      	movs	r2, #2
 800720c:	4629      	mov	r1, r5
 800720e:	e041      	b.n	8007294 <USBD_StdEPReq+0xe4>
      pdev->pClass->Setup(pdev, req);
 8007210:	f8d4 22b4 	ldr.w	r2, [r4, #692]	; 0x2b4
 8007214:	4619      	mov	r1, r3
 8007216:	4620      	mov	r0, r4
 8007218:	6892      	ldr	r2, [r2, #8]
 800721a:	4790      	blx	r2
}
 800721c:	2000      	movs	r0, #0
 800721e:	bd38      	pop	{r3, r4, r5, pc}
          switch (pdev->dev_state)
 8007220:	f890 229c 	ldrb.w	r2, [r0, #668]	; 0x29c
 8007224:	2a02      	cmp	r2, #2
 8007226:	d01f      	beq.n	8007268 <USBD_StdEPReq+0xb8>
 8007228:	2a03      	cmp	r2, #3
 800722a:	d003      	beq.n	8007234 <USBD_StdEPReq+0x84>
              USBD_CtlError(pdev, req);
 800722c:	4620      	mov	r0, r4
 800722e:	f7ff fe65 	bl	8006efc <USBD_CtlError.constprop.0>
              break;
 8007232:	e7f3      	b.n	800721c <USBD_StdEPReq+0x6c>
              if (req->wValue == USB_FEATURE_EP_HALT)
 8007234:	885a      	ldrh	r2, [r3, #2]
 8007236:	b92a      	cbnz	r2, 8007244 <USBD_StdEPReq+0x94>
                if ((ep_addr != 0x00U) &&
 8007238:	064a      	lsls	r2, r1, #25
 800723a:	d003      	beq.n	8007244 <USBD_StdEPReq+0x94>
                    (ep_addr != 0x80U) && (req->wLength == 0x00U))
 800723c:	88db      	ldrh	r3, [r3, #6]
 800723e:	b90b      	cbnz	r3, 8007244 <USBD_StdEPReq+0x94>
                  USBD_LL_StallEP(pdev, ep_addr);
 8007240:	f000 fa62 	bl	8007708 <USBD_LL_StallEP>
              USBD_CtlSendStatus(pdev);
 8007244:	4620      	mov	r0, r4
 8007246:	f000 f8a2 	bl	800738e <USBD_CtlSendStatus>
              break;
 800724a:	e7e7      	b.n	800721c <USBD_StdEPReq+0x6c>
          switch (pdev->dev_state)
 800724c:	f890 229c 	ldrb.w	r2, [r0, #668]	; 0x29c
 8007250:	2a02      	cmp	r2, #2
 8007252:	d009      	beq.n	8007268 <USBD_StdEPReq+0xb8>
 8007254:	2a03      	cmp	r2, #3
 8007256:	d1e9      	bne.n	800722c <USBD_StdEPReq+0x7c>
              if (req->wValue == USB_FEATURE_EP_HALT)
 8007258:	885b      	ldrh	r3, [r3, #2]
 800725a:	2b00      	cmp	r3, #0
 800725c:	d1de      	bne.n	800721c <USBD_StdEPReq+0x6c>
                if ((ep_addr & 0x7FU) != 0x00U)
 800725e:	064d      	lsls	r5, r1, #25
 8007260:	d0f0      	beq.n	8007244 <USBD_StdEPReq+0x94>
                  USBD_LL_ClearStallEP(pdev, ep_addr);
 8007262:	f000 fa5a 	bl	800771a <USBD_LL_ClearStallEP>
 8007266:	e7ed      	b.n	8007244 <USBD_StdEPReq+0x94>
              if ((ep_addr != 0x00U) && (ep_addr != 0x80U))
 8007268:	064b      	lsls	r3, r1, #25
 800726a:	d0df      	beq.n	800722c <USBD_StdEPReq+0x7c>
                USBD_LL_StallEP(pdev, ep_addr);
 800726c:	f000 fa4c 	bl	8007708 <USBD_LL_StallEP>
                USBD_LL_StallEP(pdev, 0x80U);
 8007270:	2180      	movs	r1, #128	; 0x80
 8007272:	4620      	mov	r0, r4
 8007274:	f000 fa48 	bl	8007708 <USBD_LL_StallEP>
 8007278:	e7d0      	b.n	800721c <USBD_StdEPReq+0x6c>
              if ((ep_addr != 0x00U) && (ep_addr != 0x80U))
 800727a:	064a      	lsls	r2, r1, #25
 800727c:	d1d6      	bne.n	800722c <USBD_StdEPReq+0x7c>
              pep = ((ep_addr & 0x80U) == 0x80U) ? &pdev->ep_in[ep_addr & 0x7FU] : \
 800727e:	062b      	lsls	r3, r5, #24
              pep->status = 0x0000U;
 8007280:	f04f 0300 	mov.w	r3, #0
              USBD_CtlSendData(pdev, (uint8_t *)(void *)&pep->status, 2U);
 8007284:	f04f 0202 	mov.w	r2, #2
              pep = ((ep_addr & 0x80U) == 0x80U) ? &pdev->ep_in[ep_addr & 0x7FU] : \
 8007288:	bf4c      	ite	mi
 800728a:	f100 0114 	addmi.w	r1, r0, #20
 800728e:	f500 71aa 	addpl.w	r1, r0, #340	; 0x154
              pep->status = 0x0000U;
 8007292:	600b      	str	r3, [r1, #0]
              USBD_CtlSendData(pdev, (uint8_t *)(void *)&pep->status, 2U);
 8007294:	4620      	mov	r0, r4
 8007296:	f000 f850 	bl	800733a <USBD_CtlSendData>
              break;
 800729a:	e7bf      	b.n	800721c <USBD_StdEPReq+0x6c>
                if (pdev->ep_out[ep_addr & 0xFU].is_used == 0U)
 800729c:	f8d3 3158 	ldr.w	r3, [r3, #344]	; 0x158
 80072a0:	2b00      	cmp	r3, #0
 80072a2:	d0c3      	beq.n	800722c <USBD_StdEPReq+0x7c>
              pep = ((ep_addr & 0x80U) == 0x80U) ? &pdev->ep_in[ep_addr & 0x7FU] : \
 80072a4:	2314      	movs	r3, #20
                    &pdev->ep_out[ep_addr & 0x7FU];
 80072a6:	f001 057f 	and.w	r5, r1, #127	; 0x7f
              pep = ((ep_addr & 0x80U) == 0x80U) ? &pdev->ep_in[ep_addr & 0x7FU] : \
 80072aa:	fb03 0505 	mla	r5, r3, r5, r0
 80072ae:	f505 75aa 	add.w	r5, r5, #340	; 0x154
 80072b2:	e7a6      	b.n	8007202 <USBD_StdEPReq+0x52>
              else if (USBD_LL_IsStallEP(pdev, ep_addr))
 80072b4:	4620      	mov	r0, r4
 80072b6:	f000 fa39 	bl	800772c <USBD_LL_IsStallEP>
 80072ba:	b108      	cbz	r0, 80072c0 <USBD_StdEPReq+0x110>
                pep->status = 0x0001U;
 80072bc:	2301      	movs	r3, #1
 80072be:	e7a3      	b.n	8007208 <USBD_StdEPReq+0x58>
                pep->status = 0x0000U;
 80072c0:	6028      	str	r0, [r5, #0]
 80072c2:	e7a2      	b.n	800720a <USBD_StdEPReq+0x5a>

080072c4 <USBD_ParseSetupRequest>:
  req->bmRequest = *(uint8_t *)(pdata);
 80072c4:	780b      	ldrb	r3, [r1, #0]
 80072c6:	7003      	strb	r3, [r0, #0]
  req->bRequest = *(uint8_t *)(pdata + 1U);
 80072c8:	784b      	ldrb	r3, [r1, #1]
 80072ca:	7043      	strb	r3, [r0, #1]
  req->wValue = SWAPBYTE(pdata + 2U);
 80072cc:	78ca      	ldrb	r2, [r1, #3]
 80072ce:	788b      	ldrb	r3, [r1, #2]
 80072d0:	eb03 2302 	add.w	r3, r3, r2, lsl #8
 80072d4:	8043      	strh	r3, [r0, #2]
  req->wIndex = SWAPBYTE(pdata + 4U);
 80072d6:	794a      	ldrb	r2, [r1, #5]
 80072d8:	790b      	ldrb	r3, [r1, #4]
 80072da:	eb03 2302 	add.w	r3, r3, r2, lsl #8
 80072de:	8083      	strh	r3, [r0, #4]
  req->wLength = SWAPBYTE(pdata + 6U);
 80072e0:	79ca      	ldrb	r2, [r1, #7]
 80072e2:	798b      	ldrb	r3, [r1, #6]
 80072e4:	eb03 2302 	add.w	r3, r3, r2, lsl #8
 80072e8:	80c3      	strh	r3, [r0, #6]
}
 80072ea:	4770      	bx	lr

080072ec <USBD_CtlError>:
{
 80072ec:	b510      	push	{r4, lr}
 80072ee:	4604      	mov	r4, r0
  USBD_LL_StallEP(pdev, 0x80U);
 80072f0:	2180      	movs	r1, #128	; 0x80
 80072f2:	f000 fa09 	bl	8007708 <USBD_LL_StallEP>
  USBD_LL_StallEP(pdev, 0U);
 80072f6:	4620      	mov	r0, r4
}
 80072f8:	e8bd 4010 	ldmia.w	sp!, {r4, lr}
  USBD_LL_StallEP(pdev, 0U);
 80072fc:	2100      	movs	r1, #0
 80072fe:	f000 ba03 	b.w	8007708 <USBD_LL_StallEP>

08007302 <USBD_GetString>:
  * @param  unicode : Formatted string buffer (unicode)
  * @param  len : descriptor length
  * @retval None
  */
void USBD_GetString(uint8_t *desc, uint8_t *unicode, uint16_t *len)
{
 8007302:	b530      	push	{r4, r5, lr}
  uint8_t idx = 0U;

  if (desc != NULL)
 8007304:	b188      	cbz	r0, 800732a <USBD_GetString+0x28>
 8007306:	2400      	movs	r4, #0
 8007308:	3801      	subs	r0, #1
  */
static uint8_t USBD_GetLen(uint8_t *buf)
{
  uint8_t  len = 0U;

  while (*buf != '\0')
 800730a:	4623      	mov	r3, r4
 800730c:	3401      	adds	r4, #1
 800730e:	5d05      	ldrb	r5, [r0, r4]
 8007310:	2d00      	cmp	r5, #0
 8007312:	d1fa      	bne.n	800730a <USBD_GetString+0x8>
    *len = (uint16_t)USBD_GetLen(desc) * 2U + 2U;
 8007314:	b2db      	uxtb	r3, r3
 8007316:	3301      	adds	r3, #1
 8007318:	005b      	lsls	r3, r3, #1
 800731a:	8013      	strh	r3, [r2, #0]
    unicode[idx++] = *(uint8_t *)(void *)len;
 800731c:	700b      	strb	r3, [r1, #0]
    unicode[idx++] = USB_DESC_TYPE_STRING;
 800731e:	2303      	movs	r3, #3
 8007320:	704b      	strb	r3, [r1, #1]
 8007322:	2302      	movs	r3, #2
    while (*desc != '\0')
 8007324:	f810 4f01 	ldrb.w	r4, [r0, #1]!
 8007328:	b904      	cbnz	r4, 800732c <USBD_GetString+0x2a>
}
 800732a:	bd30      	pop	{r4, r5, pc}
      unicode[idx++] = *desc++;
 800732c:	1c5a      	adds	r2, r3, #1
 800732e:	54cc      	strb	r4, [r1, r3]
 8007330:	b2d2      	uxtb	r2, r2
      unicode[idx++] =  0U;
 8007332:	3302      	adds	r3, #2
 8007334:	b2db      	uxtb	r3, r3
 8007336:	548d      	strb	r5, [r1, r2]
 8007338:	e7f4      	b.n	8007324 <USBD_GetString+0x22>

0800733a <USBD_CtlSendData>:
* @param  len: length of data to be sent
* @retval status
*/
USBD_StatusTypeDef USBD_CtlSendData(USBD_HandleTypeDef *pdev,
                                    uint8_t *pbuf, uint16_t len)
{
 800733a:	4613      	mov	r3, r2
  /* Set EP0 State */
  pdev->ep0_state = USBD_EP0_DATA_IN;
 800733c:	2202      	movs	r2, #2
{
 800733e:	b510      	push	{r4, lr}
  pdev->ep_in[0].total_length = len;
  pdev->ep_in[0].rem_length   = len;
 8007340:	e9c0 3307 	strd	r3, r3, [r0, #28]
  pdev->ep0_state = USBD_EP0_DATA_IN;
 8007344:	f8c0 2294 	str.w	r2, [r0, #660]	; 0x294

  /* Start the transfer */
  USBD_LL_Transmit(pdev, 0x00U, pbuf, len);
 8007348:	460a      	mov	r2, r1
 800734a:	2100      	movs	r1, #0
 800734c:	f000 fa09 	bl	8007762 <USBD_LL_Transmit>

  return USBD_OK;
}
 8007350:	2000      	movs	r0, #0
 8007352:	bd10      	pop	{r4, pc}

08007354 <USBD_CtlContinueSendData>:
* @param  len: length of data to be sent
* @retval status
*/
USBD_StatusTypeDef USBD_CtlContinueSendData(USBD_HandleTypeDef *pdev,
                                            uint8_t *pbuf, uint16_t len)
{
 8007354:	b508      	push	{r3, lr}
 8007356:	4613      	mov	r3, r2
  /* Start the next transfer */
  USBD_LL_Transmit(pdev, 0x00U, pbuf, len);
 8007358:	460a      	mov	r2, r1
 800735a:	2100      	movs	r1, #0
 800735c:	f000 fa01 	bl	8007762 <USBD_LL_Transmit>

  return USBD_OK;
}
 8007360:	2000      	movs	r0, #0
 8007362:	bd08      	pop	{r3, pc}

08007364 <USBD_CtlPrepareRx>:
* @param  len: length of data to be received
* @retval status
*/
USBD_StatusTypeDef USBD_CtlPrepareRx(USBD_HandleTypeDef *pdev,
                                     uint8_t *pbuf, uint16_t len)
{
 8007364:	4613      	mov	r3, r2
  /* Set EP0 State */
  pdev->ep0_state = USBD_EP0_DATA_OUT;
 8007366:	2203      	movs	r2, #3
{
 8007368:	b510      	push	{r4, lr}
  pdev->ep_out[0].total_length = len;
  pdev->ep_out[0].rem_length   = len;
 800736a:	e9c0 3357 	strd	r3, r3, [r0, #348]	; 0x15c
  pdev->ep0_state = USBD_EP0_DATA_OUT;
 800736e:	f8c0 2294 	str.w	r2, [r0, #660]	; 0x294

  /* Start the transfer */
  USBD_LL_PrepareReceive(pdev, 0U, pbuf, len);
 8007372:	460a      	mov	r2, r1
 8007374:	2100      	movs	r1, #0
 8007376:	f000 f9fd 	bl	8007774 <USBD_LL_PrepareReceive>

  return USBD_OK;
}
 800737a:	2000      	movs	r0, #0
 800737c:	bd10      	pop	{r4, pc}

0800737e <USBD_CtlContinueRx>:
* @param  len: length of data to be received
* @retval status
*/
USBD_StatusTypeDef USBD_CtlContinueRx(USBD_HandleTypeDef *pdev,
                                      uint8_t *pbuf, uint16_t len)
{
 800737e:	b508      	push	{r3, lr}
 8007380:	4613      	mov	r3, r2
  USBD_LL_PrepareReceive(pdev, 0U, pbuf, len);
 8007382:	460a      	mov	r2, r1
 8007384:	2100      	movs	r1, #0
 8007386:	f000 f9f5 	bl	8007774 <USBD_LL_PrepareReceive>

  return USBD_OK;
}
 800738a:	2000      	movs	r0, #0
 800738c:	bd08      	pop	{r3, pc}

0800738e <USBD_CtlSendStatus>:
*         send zero lzngth packet on the ctl pipe
* @param  pdev: device instance
* @retval status
*/
USBD_StatusTypeDef USBD_CtlSendStatus(USBD_HandleTypeDef *pdev)
{
 800738e:	b508      	push	{r3, lr}
  /* Set EP0 State */
  pdev->ep0_state = USBD_EP0_STATUS_IN;
 8007390:	2304      	movs	r3, #4
 8007392:	f8c0 3294 	str.w	r3, [r0, #660]	; 0x294

  /* Start the transfer */
  USBD_LL_Transmit(pdev, 0x00U, NULL, 0U);
 8007396:	2300      	movs	r3, #0
 8007398:	461a      	mov	r2, r3
 800739a:	4619      	mov	r1, r3
 800739c:	f000 f9e1 	bl	8007762 <USBD_LL_Transmit>

  return USBD_OK;
}
 80073a0:	2000      	movs	r0, #0
 80073a2:	bd08      	pop	{r3, pc}

080073a4 <USBD_CtlReceiveStatus>:
*         receive zero lzngth packet on the ctl pipe
* @param  pdev: device instance
* @retval status
*/
USBD_StatusTypeDef USBD_CtlReceiveStatus(USBD_HandleTypeDef *pdev)
{
 80073a4:	b508      	push	{r3, lr}
  /* Set EP0 State */
  pdev->ep0_state = USBD_EP0_STATUS_OUT;
 80073a6:	2305      	movs	r3, #5
 80073a8:	f8c0 3294 	str.w	r3, [r0, #660]	; 0x294

  /* Start the transfer */
  USBD_LL_PrepareReceive(pdev, 0U, NULL, 0U);
 80073ac:	2300      	movs	r3, #0
 80073ae:	461a      	mov	r2, r3
 80073b0:	4619      	mov	r1, r3
 80073b2:	f000 f9df 	bl	8007774 <USBD_LL_PrepareReceive>

  return USBD_OK;
}
 80073b6:	2000      	movs	r0, #0
 80073b8:	bd08      	pop	{r3, pc}
	...

080073bc <MX_USB_DEVICE_Init>:
/**
  * Init USB device Library, add supported class and start the library
  * @retval None
  */
void MX_USB_DEVICE_Init(void)
{
 80073bc:	b508      	push	{r3, lr}
  /* USER CODE BEGIN USB_DEVICE_Init_PreTreatment */

  /* USER CODE END USB_DEVICE_Init_PreTreatment */

  /* Init Device Library, add supported class and start the library. */
  if (USBD_Init(&hUsbDeviceFS, &FS_Desc, DEVICE_FS) != USBD_OK)
 80073be:	2200      	movs	r2, #0
 80073c0:	490e      	ldr	r1, [pc, #56]	; (80073fc <MX_USB_DEVICE_Init+0x40>)
 80073c2:	480f      	ldr	r0, [pc, #60]	; (8007400 <MX_USB_DEVICE_Init+0x44>)
 80073c4:	f7ff fc5c 	bl	8006c80 <USBD_Init>
 80073c8:	b108      	cbz	r0, 80073ce <MX_USB_DEVICE_Init+0x12>
  {
    Error_Handler();
 80073ca:	f7fc fca8 	bl	8003d1e <Error_Handler>
  }
  if (USBD_RegisterClass(&hUsbDeviceFS, &USBD_CDC) != USBD_OK)
 80073ce:	490d      	ldr	r1, [pc, #52]	; (8007404 <MX_USB_DEVICE_Init+0x48>)
 80073d0:	480b      	ldr	r0, [pc, #44]	; (8007400 <MX_USB_DEVICE_Init+0x44>)
 80073d2:	f7ff fc6a 	bl	8006caa <USBD_RegisterClass>
 80073d6:	b108      	cbz	r0, 80073dc <MX_USB_DEVICE_Init+0x20>
  {
    Error_Handler();
 80073d8:	f7fc fca1 	bl	8003d1e <Error_Handler>
  }
  if (USBD_CDC_RegisterInterface(&hUsbDeviceFS, &USBD_Interface_fops_FS) != USBD_OK)
 80073dc:	490a      	ldr	r1, [pc, #40]	; (8007408 <MX_USB_DEVICE_Init+0x4c>)
 80073de:	4808      	ldr	r0, [pc, #32]	; (8007400 <MX_USB_DEVICE_Init+0x44>)
 80073e0:	f7ff fc09 	bl	8006bf6 <USBD_CDC_RegisterInterface>
 80073e4:	b108      	cbz	r0, 80073ea <MX_USB_DEVICE_Init+0x2e>
  {
    Error_Handler();
 80073e6:	f7fc fc9a 	bl	8003d1e <Error_Handler>
  }
  if (USBD_Start(&hUsbDeviceFS) != USBD_OK)
 80073ea:	4805      	ldr	r0, [pc, #20]	; (8007400 <MX_USB_DEVICE_Init+0x44>)
 80073ec:	f7ff fc64 	bl	8006cb8 <USBD_Start>
 80073f0:	b118      	cbz	r0, 80073fa <MX_USB_DEVICE_Init+0x3e>
  }

  /* USER CODE BEGIN USB_DEVICE_Init_PostTreatment */

  /* USER CODE END USB_DEVICE_Init_PostTreatment */
}
 80073f2:	e8bd 4008 	ldmia.w	sp!, {r3, lr}
    Error_Handler();
 80073f6:	f7fc bc92 	b.w	8003d1e <Error_Handler>
}
 80073fa:	bd08      	pop	{r3, pc}
 80073fc:	2000012c 	.word	0x2000012c
 8007400:	200003d0 	.word	0x200003d0
 8007404:	2000000c 	.word	0x2000000c
 8007408:	2000011c 	.word	0x2000011c

0800740c <CDC_DeInit_FS>:
static int8_t CDC_DeInit_FS(void)
{
  /* USER CODE BEGIN 4 */
  return (USBD_OK);
  /* USER CODE END 4 */
}
 800740c:	2000      	movs	r0, #0
 800740e:	4770      	bx	lr

08007410 <CDC_Control_FS>:
    break;
  }

  return (USBD_OK);
  /* USER CODE END 5 */
}
 8007410:	2000      	movs	r0, #0
 8007412:	4770      	bx	lr

08007414 <CDC_Receive_FS>:
  * @param  Buf: Buffer of data to be received
  * @param  Len: Number of data received (in bytes)
  * @retval Result of the operation: USBD_OK if all operations are OK else USBD_FAIL
  */
static int8_t CDC_Receive_FS(uint8_t* Buf, uint32_t *Len)
{
 8007414:	b510      	push	{r4, lr}
  /* USER CODE BEGIN 6 */
  USBD_CDC_SetRxBuffer(&hUsbDeviceFS, &Buf[0]);
 8007416:	4c05      	ldr	r4, [pc, #20]	; (800742c <CDC_Receive_FS+0x18>)
{
 8007418:	4601      	mov	r1, r0
  USBD_CDC_SetRxBuffer(&hUsbDeviceFS, &Buf[0]);
 800741a:	4620      	mov	r0, r4
 800741c:	f7ff fbfa 	bl	8006c14 <USBD_CDC_SetRxBuffer>
  USBD_CDC_ReceivePacket(&hUsbDeviceFS);
 8007420:	4620      	mov	r0, r4
 8007422:	f7ff fc16 	bl	8006c52 <USBD_CDC_ReceivePacket>
  return (USBD_OK);
  /* USER CODE END 6 */
}
 8007426:	2000      	movs	r0, #0
 8007428:	bd10      	pop	{r4, pc}
 800742a:	bf00      	nop
 800742c:	200003d0 	.word	0x200003d0

08007430 <CDC_Init_FS>:
{
 8007430:	b510      	push	{r4, lr}
  USBD_CDC_SetTxBuffer(&hUsbDeviceFS, UserTxBufferFS, 0);
 8007432:	4c06      	ldr	r4, [pc, #24]	; (800744c <CDC_Init_FS+0x1c>)
 8007434:	2200      	movs	r2, #0
 8007436:	4620      	mov	r0, r4
 8007438:	4905      	ldr	r1, [pc, #20]	; (8007450 <CDC_Init_FS+0x20>)
 800743a:	f7ff fbe3 	bl	8006c04 <USBD_CDC_SetTxBuffer>
  USBD_CDC_SetRxBuffer(&hUsbDeviceFS, UserRxBufferFS);
 800743e:	4620      	mov	r0, r4
 8007440:	4904      	ldr	r1, [pc, #16]	; (8007454 <CDC_Init_FS+0x24>)
 8007442:	f7ff fbe7 	bl	8006c14 <USBD_CDC_SetRxBuffer>
}
 8007446:	2000      	movs	r0, #0
 8007448:	bd10      	pop	{r4, pc}
 800744a:	bf00      	nop
 800744c:	200003d0 	.word	0x200003d0
 8007450:	20000a94 	.word	0x20000a94
 8007454:	20000694 	.word	0x20000694

08007458 <CDC_Transmit_FS>:
  * @param  Buf: Buffer of data to be sent
  * @param  Len: Number of data to be sent (in bytes)
  * @retval USBD_OK if all operations are OK else USBD_FAIL or USBD_BUSY
  */
uint8_t CDC_Transmit_FS(uint8_t* Buf, uint16_t Len)
{
 8007458:	b510      	push	{r4, lr}
  uint8_t result = USBD_OK;
  /* USER CODE BEGIN 7 */
  USBD_CDC_HandleTypeDef *hcdc = (USBD_CDC_HandleTypeDef*)hUsbDeviceFS.pClassData;
 800745a:	4c09      	ldr	r4, [pc, #36]	; (8007480 <CDC_Transmit_FS+0x28>)
{
 800745c:	460a      	mov	r2, r1
  USBD_CDC_HandleTypeDef *hcdc = (USBD_CDC_HandleTypeDef*)hUsbDeviceFS.pClassData;
 800745e:	f8d4 32b8 	ldr.w	r3, [r4, #696]	; 0x2b8
  if (hcdc->TxState != 0){
 8007462:	f8d3 3214 	ldr.w	r3, [r3, #532]	; 0x214
 8007466:	b943      	cbnz	r3, 800747a <CDC_Transmit_FS+0x22>
    return USBD_BUSY;
  }
  USBD_CDC_SetTxBuffer(&hUsbDeviceFS, Buf, Len);
 8007468:	4601      	mov	r1, r0
 800746a:	4620      	mov	r0, r4
 800746c:	f7ff fbca 	bl	8006c04 <USBD_CDC_SetTxBuffer>
  result = USBD_CDC_TransmitPacket(&hUsbDeviceFS);
 8007470:	4620      	mov	r0, r4
  /* USER CODE END 7 */
  return result;
}
 8007472:	e8bd 4010 	ldmia.w	sp!, {r4, lr}
  result = USBD_CDC_TransmitPacket(&hUsbDeviceFS);
 8007476:	f7ff bbd3 	b.w	8006c20 <USBD_CDC_TransmitPacket>
}
 800747a:	2001      	movs	r0, #1
 800747c:	bd10      	pop	{r4, pc}
 800747e:	bf00      	nop
 8007480:	200003d0 	.word	0x200003d0

08007484 <USBD_FS_DeviceDescriptor>:
  * @retval Pointer to descriptor buffer
  */
uint8_t * USBD_FS_DeviceDescriptor(USBD_SpeedTypeDef speed, uint16_t *length)
{
  UNUSED(speed);
  *length = sizeof(USBD_FS_DeviceDesc);
 8007484:	2312      	movs	r3, #18
  return USBD_FS_DeviceDesc;
}
 8007486:	4801      	ldr	r0, [pc, #4]	; (800748c <USBD_FS_DeviceDescriptor+0x8>)
  *length = sizeof(USBD_FS_DeviceDesc);
 8007488:	800b      	strh	r3, [r1, #0]
}
 800748a:	4770      	bx	lr
 800748c:	20000148 	.word	0x20000148

08007490 <USBD_FS_LangIDStrDescriptor>:
  * @retval Pointer to descriptor buffer
  */
uint8_t * USBD_FS_LangIDStrDescriptor(USBD_SpeedTypeDef speed, uint16_t *length)
{
  UNUSED(speed);
  *length = sizeof(USBD_LangIDDesc);
 8007490:	2304      	movs	r3, #4
  return USBD_LangIDDesc;
}
 8007492:	4801      	ldr	r0, [pc, #4]	; (8007498 <USBD_FS_LangIDStrDescriptor+0x8>)
  *length = sizeof(USBD_LangIDDesc);
 8007494:	800b      	strh	r3, [r1, #0]
}
 8007496:	4770      	bx	lr
 8007498:	2000015c 	.word	0x2000015c

0800749c <IntToUnicode>:
  * @param  pbuf: pointer to the buffer
  * @param  len: buffer length
  * @retval None
  */
static void IntToUnicode(uint32_t value, uint8_t * pbuf, uint8_t len)
{
 800749c:	2300      	movs	r3, #0
 800749e:	b570      	push	{r4, r5, r6, lr}
      pbuf[2 * idx] = (value >> 28) + 'A' - 10;
    }

    value = value << 4;

    pbuf[2 * idx + 1] = 0;
 80074a0:	461e      	mov	r6, r3
 80074a2:	1c4d      	adds	r5, r1, #1
      pbuf[2 * idx] = (value >> 28) + '0';
 80074a4:	0f04      	lsrs	r4, r0, #28
    if (((value >> 28)) < 0xA)
 80074a6:	f1b0 4f20 	cmp.w	r0, #2684354560	; 0xa0000000
      pbuf[2 * idx] = (value >> 28) + '0';
 80074aa:	bf34      	ite	cc
 80074ac:	3430      	addcc	r4, #48	; 0x30
      pbuf[2 * idx] = (value >> 28) + 'A' - 10;
 80074ae:	3437      	addcs	r4, #55	; 0x37
 80074b0:	f801 4013 	strb.w	r4, [r1, r3, lsl #1]
    pbuf[2 * idx + 1] = 0;
 80074b4:	f805 6013 	strb.w	r6, [r5, r3, lsl #1]
  for (idx = 0; idx < len; idx++)
 80074b8:	3301      	adds	r3, #1
 80074ba:	b2dc      	uxtb	r4, r3
 80074bc:	42a2      	cmp	r2, r4
    value = value << 4;
 80074be:	ea4f 1000 	mov.w	r0, r0, lsl #4
  for (idx = 0; idx < len; idx++)
 80074c2:	d8ef      	bhi.n	80074a4 <IntToUnicode+0x8>
  }
}
 80074c4:	bd70      	pop	{r4, r5, r6, pc}
	...

080074c8 <USBD_FS_SerialStrDescriptor>:
  *length = USB_SIZ_STRING_SERIAL;
 80074c8:	231a      	movs	r3, #26
{
 80074ca:	b510      	push	{r4, lr}
  *length = USB_SIZ_STRING_SERIAL;
 80074cc:	800b      	strh	r3, [r1, #0]
  deviceserial0 = *(uint32_t *) DEVICE_ID1;
 80074ce:	4b0a      	ldr	r3, [pc, #40]	; (80074f8 <USBD_FS_SerialStrDescriptor+0x30>)
 80074d0:	f8d3 07e8 	ldr.w	r0, [r3, #2024]	; 0x7e8
  deviceserial0 += deviceserial2;
 80074d4:	f8d3 27f0 	ldr.w	r2, [r3, #2032]	; 0x7f0
  if (deviceserial0 != 0)
 80074d8:	1880      	adds	r0, r0, r2
 80074da:	d00a      	beq.n	80074f2 <USBD_FS_SerialStrDescriptor+0x2a>
  deviceserial1 = *(uint32_t *) DEVICE_ID2;
 80074dc:	f8d3 47ec 	ldr.w	r4, [r3, #2028]	; 0x7ec
    IntToUnicode(deviceserial0, &USBD_StringSerial[2], 8);
 80074e0:	4906      	ldr	r1, [pc, #24]	; (80074fc <USBD_FS_SerialStrDescriptor+0x34>)
 80074e2:	2208      	movs	r2, #8
 80074e4:	f7ff ffda 	bl	800749c <IntToUnicode>
    IntToUnicode(deviceserial1, &USBD_StringSerial[18], 4);
 80074e8:	2204      	movs	r2, #4
 80074ea:	4620      	mov	r0, r4
 80074ec:	3110      	adds	r1, #16
 80074ee:	f7ff ffd5 	bl	800749c <IntToUnicode>
}
 80074f2:	4803      	ldr	r0, [pc, #12]	; (8007500 <USBD_FS_SerialStrDescriptor+0x38>)
 80074f4:	bd10      	pop	{r4, pc}
 80074f6:	bf00      	nop
 80074f8:	1ffff000 	.word	0x1ffff000
 80074fc:	20000162 	.word	0x20000162
 8007500:	20000160 	.word	0x20000160

08007504 <USBD_FS_ManufacturerStrDescriptor>:
{
 8007504:	b510      	push	{r4, lr}
  USBD_GetString((uint8_t *)USBD_MANUFACTURER_STRING, USBD_StrDesc, length);
 8007506:	4c04      	ldr	r4, [pc, #16]	; (8007518 <USBD_FS_ManufacturerStrDescriptor+0x14>)
{
 8007508:	460a      	mov	r2, r1
  USBD_GetString((uint8_t *)USBD_MANUFACTURER_STRING, USBD_StrDesc, length);
 800750a:	4804      	ldr	r0, [pc, #16]	; (800751c <USBD_FS_ManufacturerStrDescriptor+0x18>)
 800750c:	4621      	mov	r1, r4
 800750e:	f7ff fef8 	bl	8007302 <USBD_GetString>
}
 8007512:	4620      	mov	r0, r4
 8007514:	bd10      	pop	{r4, pc}
 8007516:	bf00      	nop
 8007518:	20000e94 	.word	0x20000e94
 800751c:	0800b02c 	.word	0x0800b02c

08007520 <USBD_FS_ProductStrDescriptor>:
{
 8007520:	b510      	push	{r4, lr}
    USBD_GetString((uint8_t *)USBD_PRODUCT_STRING_FS, USBD_StrDesc, length);
 8007522:	4c04      	ldr	r4, [pc, #16]	; (8007534 <USBD_FS_ProductStrDescriptor+0x14>)
{
 8007524:	460a      	mov	r2, r1
    USBD_GetString((uint8_t *)USBD_PRODUCT_STRING_FS, USBD_StrDesc, length);
 8007526:	4804      	ldr	r0, [pc, #16]	; (8007538 <USBD_FS_ProductStrDescriptor+0x18>)
 8007528:	4621      	mov	r1, r4
 800752a:	f7ff feea 	bl	8007302 <USBD_GetString>
}
 800752e:	4620      	mov	r0, r4
 8007530:	bd10      	pop	{r4, pc}
 8007532:	bf00      	nop
 8007534:	20000e94 	.word	0x20000e94
 8007538:	0800b03f 	.word	0x0800b03f

0800753c <USBD_FS_ConfigStrDescriptor>:
{
 800753c:	b510      	push	{r4, lr}
    USBD_GetString((uint8_t *)USBD_CONFIGURATION_STRING_FS, USBD_StrDesc, length);
 800753e:	4c04      	ldr	r4, [pc, #16]	; (8007550 <USBD_FS_ConfigStrDescriptor+0x14>)
{
 8007540:	460a      	mov	r2, r1
    USBD_GetString((uint8_t *)USBD_CONFIGURATION_STRING_FS, USBD_StrDesc, length);
 8007542:	4804      	ldr	r0, [pc, #16]	; (8007554 <USBD_FS_ConfigStrDescriptor+0x18>)
 8007544:	4621      	mov	r1, r4
 8007546:	f7ff fedc 	bl	8007302 <USBD_GetString>
}
 800754a:	4620      	mov	r0, r4
 800754c:	bd10      	pop	{r4, pc}
 800754e:	bf00      	nop
 8007550:	20000e94 	.word	0x20000e94
 8007554:	0800b055 	.word	0x0800b055

08007558 <USBD_FS_InterfaceStrDescriptor>:
{
 8007558:	b510      	push	{r4, lr}
    USBD_GetString((uint8_t *)USBD_INTERFACE_STRING_FS, USBD_StrDesc, length);
 800755a:	4c04      	ldr	r4, [pc, #16]	; (800756c <USBD_FS_InterfaceStrDescriptor+0x14>)
{
 800755c:	460a      	mov	r2, r1
    USBD_GetString((uint8_t *)USBD_INTERFACE_STRING_FS, USBD_StrDesc, length);
 800755e:	4804      	ldr	r0, [pc, #16]	; (8007570 <USBD_FS_InterfaceStrDescriptor+0x18>)
 8007560:	4621      	mov	r1, r4
 8007562:	f7ff fece 	bl	8007302 <USBD_GetString>
}
 8007566:	4620      	mov	r0, r4
 8007568:	bd10      	pop	{r4, pc}
 800756a:	bf00      	nop
 800756c:	20000e94 	.word	0x20000e94
 8007570:	0800b060 	.word	0x0800b060

08007574 <USBD_Get_USB_Status>:
  */
USBD_StatusTypeDef USBD_Get_USB_Status(HAL_StatusTypeDef hal_status)
{
  USBD_StatusTypeDef usb_status = USBD_OK;

  switch (hal_status)
 8007574:	2803      	cmp	r0, #3
 8007576:	bf9a      	itte	ls
 8007578:	4b01      	ldrls	r3, [pc, #4]	; (8007580 <USBD_Get_USB_Status+0xc>)
 800757a:	5c18      	ldrbls	r0, [r3, r0]
{
 800757c:	2002      	movhi	r0, #2
    default :
      usb_status = USBD_FAIL;
    break;
  }
  return usb_status;
}
 800757e:	4770      	bx	lr
 8007580:	0800b06e 	.word	0x0800b06e

08007584 <HAL_PCD_MspInit>:
{
 8007584:	b507      	push	{r0, r1, r2, lr}
  if(pcdHandle->Instance==USB)
 8007586:	4b0e      	ldr	r3, [pc, #56]	; (80075c0 <HAL_PCD_MspInit+0x3c>)
 8007588:	6802      	ldr	r2, [r0, #0]
 800758a:	429a      	cmp	r2, r3
 800758c:	d115      	bne.n	80075ba <HAL_PCD_MspInit+0x36>
    __HAL_RCC_USB_CLK_ENABLE();
 800758e:	f503 33da 	add.w	r3, r3, #111616	; 0x1b400
 8007592:	69da      	ldr	r2, [r3, #28]
    HAL_NVIC_SetPriority(USB_LP_CAN1_RX0_IRQn, 0, 0);
 8007594:	2014      	movs	r0, #20
    __HAL_RCC_USB_CLK_ENABLE();
 8007596:	f442 0200 	orr.w	r2, r2, #8388608	; 0x800000
 800759a:	61da      	str	r2, [r3, #28]
    HAL_NVIC_SetPriority(USB_LP_CAN1_RX0_IRQn, 0, 0);
 800759c:	2200      	movs	r2, #0
    __HAL_RCC_USB_CLK_ENABLE();
 800759e:	69db      	ldr	r3, [r3, #28]
    HAL_NVIC_SetPriority(USB_LP_CAN1_RX0_IRQn, 0, 0);
 80075a0:	4611      	mov	r1, r2
    __HAL_RCC_USB_CLK_ENABLE();
 80075a2:	f403 0300 	and.w	r3, r3, #8388608	; 0x800000
 80075a6:	9301      	str	r3, [sp, #4]
 80075a8:	9b01      	ldr	r3, [sp, #4]
    HAL_NVIC_SetPriority(USB_LP_CAN1_RX0_IRQn, 0, 0);
 80075aa:	f7fd f8a7 	bl	80046fc <HAL_NVIC_SetPriority>
    HAL_NVIC_EnableIRQ(USB_LP_CAN1_RX0_IRQn);
 80075ae:	2014      	movs	r0, #20
}
 80075b0:	b003      	add	sp, #12
 80075b2:	f85d eb04 	ldr.w	lr, [sp], #4
    HAL_NVIC_EnableIRQ(USB_LP_CAN1_RX0_IRQn);
 80075b6:	f7fd b8d3 	b.w	8004760 <HAL_NVIC_EnableIRQ>
}
 80075ba:	b003      	add	sp, #12
 80075bc:	f85d fb04 	ldr.w	pc, [sp], #4
 80075c0:	40005c00 	.word	0x40005c00

080075c4 <HAL_PCD_SetupStageCallback>:
  USBD_LL_SetupStage((USBD_HandleTypeDef*)hpcd->pData, (uint8_t *)hpcd->Setup);
 80075c4:	f500 712c 	add.w	r1, r0, #688	; 0x2b0
 80075c8:	f8d0 02ec 	ldr.w	r0, [r0, #748]	; 0x2ec
 80075cc:	f7ff bb8b 	b.w	8006ce6 <USBD_LL_SetupStage>

080075d0 <HAL_PCD_DataOutStageCallback>:
  USBD_LL_DataOutStage((USBD_HandleTypeDef*)hpcd->pData, epnum, hpcd->OUT_ep[epnum].xfer_buff);
 80075d0:	2328      	movs	r3, #40	; 0x28
 80075d2:	fb03 0301 	mla	r3, r3, r1, r0
 80075d6:	f8d0 02ec 	ldr.w	r0, [r0, #748]	; 0x2ec
 80075da:	f8d3 217c 	ldr.w	r2, [r3, #380]	; 0x17c
 80075de:	f7ff bbaf 	b.w	8006d40 <USBD_LL_DataOutStage>

080075e2 <HAL_PCD_DataInStageCallback>:
  USBD_LL_DataInStage((USBD_HandleTypeDef*)hpcd->pData, epnum, hpcd->IN_ep[epnum].xfer_buff);
 80075e2:	2328      	movs	r3, #40	; 0x28
 80075e4:	fb03 0301 	mla	r3, r3, r1, r0
 80075e8:	f8d0 02ec 	ldr.w	r0, [r0, #748]	; 0x2ec
 80075ec:	6bda      	ldr	r2, [r3, #60]	; 0x3c
 80075ee:	f7ff bbe1 	b.w	8006db4 <USBD_LL_DataInStage>

080075f2 <HAL_PCD_SOFCallback>:
  USBD_LL_SOF((USBD_HandleTypeDef*)hpcd->pData);
 80075f2:	f8d0 02ec 	ldr.w	r0, [r0, #748]	; 0x2ec
 80075f6:	f7ff bc75 	b.w	8006ee4 <USBD_LL_SOF>

080075fa <HAL_PCD_ResetCallback>:
  if ( hpcd->Init.speed != PCD_SPEED_FULL)
 80075fa:	6883      	ldr	r3, [r0, #8]
{
 80075fc:	b510      	push	{r4, lr}
  if ( hpcd->Init.speed != PCD_SPEED_FULL)
 80075fe:	2b02      	cmp	r3, #2
{
 8007600:	4604      	mov	r4, r0
  if ( hpcd->Init.speed != PCD_SPEED_FULL)
 8007602:	d001      	beq.n	8007608 <HAL_PCD_ResetCallback+0xe>
    Error_Handler();
 8007604:	f7fc fb8b 	bl	8003d1e <Error_Handler>
  USBD_LL_SetSpeed((USBD_HandleTypeDef*)hpcd->pData, speed);
 8007608:	f8d4 02ec 	ldr.w	r0, [r4, #748]	; 0x2ec
 800760c:	2101      	movs	r1, #1
 800760e:	f7ff fc53 	bl	8006eb8 <USBD_LL_SetSpeed>
  USBD_LL_Reset((USBD_HandleTypeDef*)hpcd->pData);
 8007612:	f8d4 02ec 	ldr.w	r0, [r4, #748]	; 0x2ec
}
 8007616:	e8bd 4010 	ldmia.w	sp!, {r4, lr}
  USBD_LL_Reset((USBD_HandleTypeDef*)hpcd->pData);
 800761a:	f7ff bc26 	b.w	8006e6a <USBD_LL_Reset>
	...

08007620 <HAL_PCD_SuspendCallback>:
{
 8007620:	b510      	push	{r4, lr}
 8007622:	4604      	mov	r4, r0
  USBD_LL_Suspend((USBD_HandleTypeDef*)hpcd->pData);
 8007624:	f8d0 02ec 	ldr.w	r0, [r0, #748]	; 0x2ec
 8007628:	f7ff fc49 	bl	8006ebe <USBD_LL_Suspend>
  if (hpcd->Init.low_power_enable)
 800762c:	69a3      	ldr	r3, [r4, #24]
 800762e:	b123      	cbz	r3, 800763a <HAL_PCD_SuspendCallback+0x1a>
    SCB->SCR |= (uint32_t)((uint32_t)(SCB_SCR_SLEEPDEEP_Msk | SCB_SCR_SLEEPONEXIT_Msk));
 8007630:	4a02      	ldr	r2, [pc, #8]	; (800763c <HAL_PCD_SuspendCallback+0x1c>)
 8007632:	6913      	ldr	r3, [r2, #16]
 8007634:	f043 0306 	orr.w	r3, r3, #6
 8007638:	6113      	str	r3, [r2, #16]
}
 800763a:	bd10      	pop	{r4, pc}
 800763c:	e000ed00 	.word	0xe000ed00

08007640 <HAL_PCD_ResumeCallback>:
  USBD_LL_Resume((USBD_HandleTypeDef*)hpcd->pData);
 8007640:	f8d0 02ec 	ldr.w	r0, [r0, #748]	; 0x2ec
 8007644:	f7ff bc44 	b.w	8006ed0 <USBD_LL_Resume>

08007648 <USBD_LL_Init>:
  hpcd_USB_FS.Init.dev_endpoints = 8;
 8007648:	2308      	movs	r3, #8
{
 800764a:	b510      	push	{r4, lr}
  hpcd_USB_FS.Init.dev_endpoints = 8;
 800764c:	4a1d      	ldr	r2, [pc, #116]	; (80076c4 <USBD_LL_Init+0x7c>)
{
 800764e:	4604      	mov	r4, r0
  hpcd_USB_FS.pData = pdev;
 8007650:	481d      	ldr	r0, [pc, #116]	; (80076c8 <USBD_LL_Init+0x80>)
  hpcd_USB_FS.Init.dev_endpoints = 8;
 8007652:	e9c0 2300 	strd	r2, r3, [r0]
  hpcd_USB_FS.Init.speed = PCD_SPEED_FULL;
 8007656:	2302      	movs	r3, #2
 8007658:	6083      	str	r3, [r0, #8]
  hpcd_USB_FS.Init.low_power_enable = DISABLE;
 800765a:	2300      	movs	r3, #0
  hpcd_USB_FS.pData = pdev;
 800765c:	f8c0 42ec 	str.w	r4, [r0, #748]	; 0x2ec
  pdev->pData = &hpcd_USB_FS;
 8007660:	f8c4 02c0 	str.w	r0, [r4, #704]	; 0x2c0
  hpcd_USB_FS.Init.lpm_enable = DISABLE;
 8007664:	e9c0 3306 	strd	r3, r3, [r0, #24]
  hpcd_USB_FS.Init.battery_charging_enable = DISABLE;
 8007668:	6203      	str	r3, [r0, #32]
  if (HAL_PCD_Init(&hpcd_USB_FS) != HAL_OK)
 800766a:	f7fd f97a 	bl	8004962 <HAL_PCD_Init>
 800766e:	b108      	cbz	r0, 8007674 <USBD_LL_Init+0x2c>
    Error_Handler( );
 8007670:	f7fc fb55 	bl	8003d1e <Error_Handler>
  HAL_PCDEx_PMAConfig((PCD_HandleTypeDef*)pdev->pData , 0x00 , PCD_SNG_BUF, 0x18);
 8007674:	2200      	movs	r2, #0
 8007676:	2318      	movs	r3, #24
 8007678:	4611      	mov	r1, r2
 800767a:	f8d4 02c0 	ldr.w	r0, [r4, #704]	; 0x2c0
 800767e:	f7fd ffe8 	bl	8005652 <HAL_PCDEx_PMAConfig>
  HAL_PCDEx_PMAConfig((PCD_HandleTypeDef*)pdev->pData , 0x80 , PCD_SNG_BUF, 0x58);
 8007682:	2358      	movs	r3, #88	; 0x58
 8007684:	2200      	movs	r2, #0
 8007686:	2180      	movs	r1, #128	; 0x80
 8007688:	f8d4 02c0 	ldr.w	r0, [r4, #704]	; 0x2c0
 800768c:	f7fd ffe1 	bl	8005652 <HAL_PCDEx_PMAConfig>
  HAL_PCDEx_PMAConfig((PCD_HandleTypeDef*)pdev->pData , 0x81 , PCD_SNG_BUF, 0xC0);
 8007690:	23c0      	movs	r3, #192	; 0xc0
 8007692:	2200      	movs	r2, #0
 8007694:	2181      	movs	r1, #129	; 0x81
 8007696:	f8d4 02c0 	ldr.w	r0, [r4, #704]	; 0x2c0
 800769a:	f7fd ffda 	bl	8005652 <HAL_PCDEx_PMAConfig>
  HAL_PCDEx_PMAConfig((PCD_HandleTypeDef*)pdev->pData , 0x01 , PCD_SNG_BUF, 0x110);
 800769e:	f44f 7388 	mov.w	r3, #272	; 0x110
 80076a2:	2200      	movs	r2, #0
 80076a4:	2101      	movs	r1, #1
 80076a6:	f8d4 02c0 	ldr.w	r0, [r4, #704]	; 0x2c0
 80076aa:	f7fd ffd2 	bl	8005652 <HAL_PCDEx_PMAConfig>
  HAL_PCDEx_PMAConfig((PCD_HandleTypeDef*)pdev->pData , 0x82 , PCD_SNG_BUF, 0x100);
 80076ae:	f44f 7380 	mov.w	r3, #256	; 0x100
 80076b2:	2200      	movs	r2, #0
 80076b4:	2182      	movs	r1, #130	; 0x82
 80076b6:	f8d4 02c0 	ldr.w	r0, [r4, #704]	; 0x2c0
 80076ba:	f7fd ffca 	bl	8005652 <HAL_PCDEx_PMAConfig>
}
 80076be:	2000      	movs	r0, #0
 80076c0:	bd10      	pop	{r4, pc}
 80076c2:	bf00      	nop
 80076c4:	40005c00 	.word	0x40005c00
 80076c8:	20001094 	.word	0x20001094

080076cc <USBD_LL_Start>:
{
 80076cc:	b508      	push	{r3, lr}
  hal_status = HAL_PCD_Start(pdev->pData);
 80076ce:	f8d0 02c0 	ldr.w	r0, [r0, #704]	; 0x2c0
 80076d2:	f7fd f9be 	bl	8004a52 <HAL_PCD_Start>
}
 80076d6:	e8bd 4008 	ldmia.w	sp!, {r3, lr}
  usb_status =  USBD_Get_USB_Status(hal_status);
 80076da:	f7ff bf4b 	b.w	8007574 <USBD_Get_USB_Status>

080076de <USBD_LL_OpenEP>:
{
 80076de:	b510      	push	{r4, lr}
 80076e0:	4614      	mov	r4, r2
  hal_status = HAL_PCD_EP_Open(pdev->pData, ep_addr, ep_mps, ep_type);
 80076e2:	f8d0 02c0 	ldr.w	r0, [r0, #704]	; 0x2c0
{
 80076e6:	461a      	mov	r2, r3
  hal_status = HAL_PCD_EP_Open(pdev->pData, ep_addr, ep_mps, ep_type);
 80076e8:	4623      	mov	r3, r4
 80076ea:	f7fd febd 	bl	8005468 <HAL_PCD_EP_Open>
}
 80076ee:	e8bd 4010 	ldmia.w	sp!, {r4, lr}
  usb_status =  USBD_Get_USB_Status(hal_status);
 80076f2:	f7ff bf3f 	b.w	8007574 <USBD_Get_USB_Status>

080076f6 <USBD_LL_CloseEP>:
{
 80076f6:	b508      	push	{r3, lr}
  hal_status = HAL_PCD_EP_Close(pdev->pData, ep_addr);
 80076f8:	f8d0 02c0 	ldr.w	r0, [r0, #704]	; 0x2c0
 80076fc:	f7fd fee3 	bl	80054c6 <HAL_PCD_EP_Close>
}
 8007700:	e8bd 4008 	ldmia.w	sp!, {r3, lr}
  usb_status =  USBD_Get_USB_Status(hal_status);
 8007704:	f7ff bf36 	b.w	8007574 <USBD_Get_USB_Status>

08007708 <USBD_LL_StallEP>:
{
 8007708:	b508      	push	{r3, lr}
  hal_status = HAL_PCD_EP_SetStall(pdev->pData, ep_addr);
 800770a:	f8d0 02c0 	ldr.w	r0, [r0, #704]	; 0x2c0
 800770e:	f7fd ff3b 	bl	8005588 <HAL_PCD_EP_SetStall>
}
 8007712:	e8bd 4008 	ldmia.w	sp!, {r3, lr}
  usb_status =  USBD_Get_USB_Status(hal_status);
 8007716:	f7ff bf2d 	b.w	8007574 <USBD_Get_USB_Status>

0800771a <USBD_LL_ClearStallEP>:
{
 800771a:	b508      	push	{r3, lr}
  hal_status = HAL_PCD_EP_ClrStall(pdev->pData, ep_addr);
 800771c:	f8d0 02c0 	ldr.w	r0, [r0, #704]	; 0x2c0
 8007720:	f7fd ff66 	bl	80055f0 <HAL_PCD_EP_ClrStall>
}
 8007724:	e8bd 4008 	ldmia.w	sp!, {r3, lr}
  usb_status =  USBD_Get_USB_Status(hal_status);
 8007728:	f7ff bf24 	b.w	8007574 <USBD_Get_USB_Status>

0800772c <USBD_LL_IsStallEP>:
  PCD_HandleTypeDef *hpcd = (PCD_HandleTypeDef*) pdev->pData;
 800772c:	2228      	movs	r2, #40	; 0x28
  if((ep_addr & 0x80) == 0x80)
 800772e:	f011 0f80 	tst.w	r1, #128	; 0x80
  PCD_HandleTypeDef *hpcd = (PCD_HandleTypeDef*) pdev->pData;
 8007732:	f8d0 32c0 	ldr.w	r3, [r0, #704]	; 0x2c0
    return hpcd->IN_ep[ep_addr & 0x7F].is_stall;
 8007736:	bf1b      	ittet	ne
 8007738:	f001 017f 	andne.w	r1, r1, #127	; 0x7f
 800773c:	fb01 2102 	mlane	r1, r1, r2, r2
    return hpcd->OUT_ep[ep_addr & 0x7F].is_stall;
 8007740:	fb02 3101 	mlaeq	r1, r2, r1, r3
    return hpcd->IN_ep[ep_addr & 0x7F].is_stall;
 8007744:	185b      	addne	r3, r3, r1
 8007746:	bf14      	ite	ne
 8007748:	7898      	ldrbne	r0, [r3, #2]
    return hpcd->OUT_ep[ep_addr & 0x7F].is_stall;
 800774a:	f891 016a 	ldrbeq.w	r0, [r1, #362]	; 0x16a
}
 800774e:	4770      	bx	lr

08007750 <USBD_LL_SetUSBAddress>:
{
 8007750:	b508      	push	{r3, lr}
  hal_status = HAL_PCD_SetAddress(pdev->pData, dev_addr);
 8007752:	f8d0 02c0 	ldr.w	r0, [r0, #704]	; 0x2c0
 8007756:	f7fd f995 	bl	8004a84 <HAL_PCD_SetAddress>
}
 800775a:	e8bd 4008 	ldmia.w	sp!, {r3, lr}
  usb_status =  USBD_Get_USB_Status(hal_status);
 800775e:	f7ff bf09 	b.w	8007574 <USBD_Get_USB_Status>

08007762 <USBD_LL_Transmit>:
{
 8007762:	b508      	push	{r3, lr}
  hal_status = HAL_PCD_EP_Transmit(pdev->pData, ep_addr, pbuf, size);
 8007764:	f8d0 02c0 	ldr.w	r0, [r0, #704]	; 0x2c0
 8007768:	f7fd fef4 	bl	8005554 <HAL_PCD_EP_Transmit>
}
 800776c:	e8bd 4008 	ldmia.w	sp!, {r3, lr}
  usb_status =  USBD_Get_USB_Status(hal_status);
 8007770:	f7ff bf00 	b.w	8007574 <USBD_Get_USB_Status>

08007774 <USBD_LL_PrepareReceive>:
{
 8007774:	b508      	push	{r3, lr}
  hal_status = HAL_PCD_EP_Receive(pdev->pData, ep_addr, pbuf, size);
 8007776:	f8d0 02c0 	ldr.w	r0, [r0, #704]	; 0x2c0
 800777a:	f7fd fecc 	bl	8005516 <HAL_PCD_EP_Receive>
}
 800777e:	e8bd 4008 	ldmia.w	sp!, {r3, lr}
  usb_status =  USBD_Get_USB_Status(hal_status);
 8007782:	f7ff bef7 	b.w	8007574 <USBD_Get_USB_Status>

08007786 <USBD_LL_GetRxDataSize>:
  return HAL_PCD_EP_GetRxCount((PCD_HandleTypeDef*) pdev->pData, ep_addr);
 8007786:	f8d0 02c0 	ldr.w	r0, [r0, #704]	; 0x2c0
 800778a:	f7fd bedb 	b.w	8005544 <HAL_PCD_EP_GetRxCount>
	...

08007790 <USBD_static_malloc>:
}
 8007790:	4800      	ldr	r0, [pc, #0]	; (8007794 <USBD_static_malloc+0x4>)
 8007792:	4770      	bx	lr
 8007794:	20001384 	.word	0x20001384

08007798 <USBD_static_free>:
}
 8007798:	4770      	bx	lr

0800779a <HAL_PCDEx_SetConnectionState>:
}
 800779a:	4770      	bx	lr

0800779c <_ZdlPvj>:
 800779c:	f000 bb38 	b.w	8007e10 <_ZdlPv>

080077a0 <_Znwj>:
 80077a0:	2801      	cmp	r0, #1
 80077a2:	bf38      	it	cc
 80077a4:	2001      	movcc	r0, #1
 80077a6:	b510      	push	{r4, lr}
 80077a8:	4604      	mov	r4, r0
 80077aa:	4620      	mov	r0, r4
 80077ac:	f000 fb6c 	bl	8007e88 <malloc>
 80077b0:	b930      	cbnz	r0, 80077c0 <_Znwj+0x20>
 80077b2:	f000 fb2f 	bl	8007e14 <_ZSt15get_new_handlerv>
 80077b6:	b908      	cbnz	r0, 80077bc <_Znwj+0x1c>
 80077b8:	f000 fb34 	bl	8007e24 <abort>
 80077bc:	4780      	blx	r0
 80077be:	e7f4      	b.n	80077aa <_Znwj+0xa>
 80077c0:	bd10      	pop	{r4, pc}

080077c2 <_ZNSaIcEC1Ev>:
 80077c2:	4770      	bx	lr

080077c4 <_ZNSaIcED1Ev>:
 80077c4:	4770      	bx	lr

080077c6 <_ZSt17__throw_bad_allocv>:
 80077c6:	b508      	push	{r3, lr}
 80077c8:	f000 fb2c 	bl	8007e24 <abort>

080077cc <_ZSt19__throw_logic_errorPKc>:
 80077cc:	b508      	push	{r3, lr}
 80077ce:	f000 fb29 	bl	8007e24 <abort>

080077d2 <_ZSt24__throw_invalid_argumentPKc>:
 80077d2:	b508      	push	{r3, lr}
 80077d4:	f000 fb26 	bl	8007e24 <abort>

080077d8 <_ZSt20__throw_length_errorPKc>:
 80077d8:	b508      	push	{r3, lr}
 80077da:	f000 fb23 	bl	8007e24 <abort>

080077de <_ZSt20__throw_out_of_rangePKc>:
 80077de:	b508      	push	{r3, lr}
 80077e0:	f000 fb20 	bl	8007e24 <abort>

080077e4 <_ZSt24__throw_out_of_range_fmtPKcz>:
 80077e4:	b40f      	push	{r0, r1, r2, r3}
 80077e6:	b580      	push	{r7, lr}
 80077e8:	b082      	sub	sp, #8
 80077ea:	af00      	add	r7, sp, #0
 80077ec:	f107 0410 	add.w	r4, r7, #16
 80077f0:	f854 5b04 	ldr.w	r5, [r4], #4
 80077f4:	4628      	mov	r0, r5
 80077f6:	f7f8 fcab 	bl	8000150 <strlen>
 80077fa:	f200 2307 	addw	r3, r0, #519	; 0x207
 80077fe:	f023 0307 	bic.w	r3, r3, #7
 8007802:	ebad 0d03 	sub.w	sp, sp, r3
 8007806:	f500 7100 	add.w	r1, r0, #512	; 0x200
 800780a:	4623      	mov	r3, r4
 800780c:	462a      	mov	r2, r5
 800780e:	4668      	mov	r0, sp
 8007810:	607c      	str	r4, [r7, #4]
 8007812:	f000 f855 	bl	80078c0 <_ZN9__gnu_cxx15__snprintf_liteEPcjPKcSt9__va_list>
 8007816:	f000 fb05 	bl	8007e24 <abort>
	...

0800781c <_ZN9__gnu_cxx26__throw_insufficient_spaceEPKcS1_>:
 800781c:	4606      	mov	r6, r0
 800781e:	460c      	mov	r4, r1
 8007820:	b580      	push	{r7, lr}
 8007822:	b09c      	sub	sp, #112	; 0x70
 8007824:	af00      	add	r7, sp, #0
 8007826:	1ba4      	subs	r4, r4, r6
 8007828:	2269      	movs	r2, #105	; 0x69
 800782a:	490e      	ldr	r1, [pc, #56]	; (8007864 <_ZN9__gnu_cxx26__throw_insufficient_spaceEPKcS1_+0x48>)
 800782c:	1d38      	adds	r0, r7, #4
 800782e:	f000 fb49 	bl	8007ec4 <memcpy>
 8007832:	f104 0370 	add.w	r3, r4, #112	; 0x70
 8007836:	f023 0307 	bic.w	r3, r3, #7
 800783a:	ebad 0d03 	sub.w	sp, sp, r3
 800783e:	466d      	mov	r5, sp
 8007840:	2268      	movs	r2, #104	; 0x68
 8007842:	1d39      	adds	r1, r7, #4
 8007844:	4628      	mov	r0, r5
 8007846:	f000 fb3d 	bl	8007ec4 <memcpy>
 800784a:	4622      	mov	r2, r4
 800784c:	4631      	mov	r1, r6
 800784e:	f105 0068 	add.w	r0, r5, #104	; 0x68
 8007852:	f000 fb37 	bl	8007ec4 <memcpy>
 8007856:	2300      	movs	r3, #0
 8007858:	442c      	add	r4, r5
 800785a:	4628      	mov	r0, r5
 800785c:	f884 3068 	strb.w	r3, [r4, #104]	; 0x68
 8007860:	f7ff ffb4 	bl	80077cc <_ZSt19__throw_logic_errorPKc>
 8007864:	0800b072 	.word	0x0800b072

08007868 <_ZN9__gnu_cxx15__concat_size_tEPcjj>:
 8007868:	e92d 41f0 	stmdb	sp!, {r4, r5, r6, r7, r8, lr}
 800786c:	af00      	add	r7, sp, #0
 800786e:	b084      	sub	sp, #16
 8007870:	466d      	mov	r5, sp
 8007872:	f105 040c 	add.w	r4, r5, #12
 8007876:	4623      	mov	r3, r4
 8007878:	f04f 0c0a 	mov.w	ip, #10
 800787c:	f8df 803c 	ldr.w	r8, [pc, #60]	; 80078bc <_ZN9__gnu_cxx15__concat_size_tEPcjj+0x54>
 8007880:	fbb2 f6fc 	udiv	r6, r2, ip
 8007884:	fb0c 2e16 	mls	lr, ip, r6, r2
 8007888:	f818 e00e 	ldrb.w	lr, [r8, lr]
 800788c:	f803 ed01 	strb.w	lr, [r3, #-1]!
 8007890:	4696      	mov	lr, r2
 8007892:	f1be 0f09 	cmp.w	lr, #9
 8007896:	4632      	mov	r2, r6
 8007898:	d8f2      	bhi.n	8007880 <_ZN9__gnu_cxx15__concat_size_tEPcjj+0x18>
 800789a:	1ae4      	subs	r4, r4, r3
 800789c:	428c      	cmp	r4, r1
 800789e:	d809      	bhi.n	80078b4 <_ZN9__gnu_cxx15__concat_size_tEPcjj+0x4c>
 80078a0:	f1c4 030c 	rsb	r3, r4, #12
 80078a4:	4622      	mov	r2, r4
 80078a6:	18e9      	adds	r1, r5, r3
 80078a8:	f000 fb0c 	bl	8007ec4 <memcpy>
 80078ac:	4620      	mov	r0, r4
 80078ae:	46bd      	mov	sp, r7
 80078b0:	e8bd 81f0 	ldmia.w	sp!, {r4, r5, r6, r7, r8, pc}
 80078b4:	f04f 34ff 	mov.w	r4, #4294967295
 80078b8:	e7f8      	b.n	80078ac <_ZN9__gnu_cxx15__concat_size_tEPcjj+0x44>
 80078ba:	bf00      	nop
 80078bc:	0800b0db 	.word	0x0800b0db

080078c0 <_ZN9__gnu_cxx15__snprintf_liteEPcjPKcSt9__va_list>:
 80078c0:	e92d 41f0 	stmdb	sp!, {r4, r5, r6, r7, r8, lr}
 80078c4:	4607      	mov	r7, r0
 80078c6:	4615      	mov	r5, r2
 80078c8:	4604      	mov	r4, r0
 80078ca:	3901      	subs	r1, #1
 80078cc:	eb00 0801 	add.w	r8, r0, r1
 80078d0:	782a      	ldrb	r2, [r5, #0]
 80078d2:	b392      	cbz	r2, 800793a <_ZN9__gnu_cxx15__snprintf_liteEPcjPKcSt9__va_list+0x7a>
 80078d4:	4544      	cmp	r4, r8
 80078d6:	d22a      	bcs.n	800792e <_ZN9__gnu_cxx15__snprintf_liteEPcjPKcSt9__va_list+0x6e>
 80078d8:	2a25      	cmp	r2, #37	; 0x25
 80078da:	d107      	bne.n	80078ec <_ZN9__gnu_cxx15__snprintf_liteEPcjPKcSt9__va_list+0x2c>
 80078dc:	786a      	ldrb	r2, [r5, #1]
 80078de:	2a73      	cmp	r2, #115	; 0x73
 80078e0:	d009      	beq.n	80078f6 <_ZN9__gnu_cxx15__snprintf_liteEPcjPKcSt9__va_list+0x36>
 80078e2:	2a7a      	cmp	r2, #122	; 0x7a
 80078e4:	d012      	beq.n	800790c <_ZN9__gnu_cxx15__snprintf_liteEPcjPKcSt9__va_list+0x4c>
 80078e6:	2a25      	cmp	r2, #37	; 0x25
 80078e8:	d100      	bne.n	80078ec <_ZN9__gnu_cxx15__snprintf_liteEPcjPKcSt9__va_list+0x2c>
 80078ea:	3501      	adds	r5, #1
 80078ec:	f815 2b01 	ldrb.w	r2, [r5], #1
 80078f0:	f804 2b01 	strb.w	r2, [r4], #1
 80078f4:	e7ec      	b.n	80078d0 <_ZN9__gnu_cxx15__snprintf_liteEPcjPKcSt9__va_list+0x10>
 80078f6:	f853 2b04 	ldr.w	r2, [r3], #4
 80078fa:	3a01      	subs	r2, #1
 80078fc:	f812 1f01 	ldrb.w	r1, [r2, #1]!
 8007900:	b1c9      	cbz	r1, 8007936 <_ZN9__gnu_cxx15__snprintf_liteEPcjPKcSt9__va_list+0x76>
 8007902:	4544      	cmp	r4, r8
 8007904:	d013      	beq.n	800792e <_ZN9__gnu_cxx15__snprintf_liteEPcjPKcSt9__va_list+0x6e>
 8007906:	f804 1b01 	strb.w	r1, [r4], #1
 800790a:	e7f7      	b.n	80078fc <_ZN9__gnu_cxx15__snprintf_liteEPcjPKcSt9__va_list+0x3c>
 800790c:	78aa      	ldrb	r2, [r5, #2]
 800790e:	2a75      	cmp	r2, #117	; 0x75
 8007910:	d1ec      	bne.n	80078ec <_ZN9__gnu_cxx15__snprintf_liteEPcjPKcSt9__va_list+0x2c>
 8007912:	461e      	mov	r6, r3
 8007914:	4620      	mov	r0, r4
 8007916:	f856 2b04 	ldr.w	r2, [r6], #4
 800791a:	eba8 0104 	sub.w	r1, r8, r4
 800791e:	f7ff ffa3 	bl	8007868 <_ZN9__gnu_cxx15__concat_size_tEPcjj>
 8007922:	2800      	cmp	r0, #0
 8007924:	dd03      	ble.n	800792e <_ZN9__gnu_cxx15__snprintf_liteEPcjPKcSt9__va_list+0x6e>
 8007926:	4633      	mov	r3, r6
 8007928:	4404      	add	r4, r0
 800792a:	3503      	adds	r5, #3
 800792c:	e7d0      	b.n	80078d0 <_ZN9__gnu_cxx15__snprintf_liteEPcjPKcSt9__va_list+0x10>
 800792e:	4621      	mov	r1, r4
 8007930:	4638      	mov	r0, r7
 8007932:	f7ff ff73 	bl	800781c <_ZN9__gnu_cxx26__throw_insufficient_spaceEPKcS1_>
 8007936:	3502      	adds	r5, #2
 8007938:	e7ca      	b.n	80078d0 <_ZN9__gnu_cxx15__snprintf_liteEPcjPKcSt9__va_list+0x10>
 800793a:	7022      	strb	r2, [r4, #0]
 800793c:	1be0      	subs	r0, r4, r7
 800793e:	e8bd 81f0 	ldmia.w	sp!, {r4, r5, r6, r7, r8, pc}

08007942 <_ZNSt11char_traitsIcE4copyEPcPKcj.isra.0>:
 8007942:	b10a      	cbz	r2, 8007948 <_ZNSt11char_traitsIcE4copyEPcPKcj.isra.0+0x6>
 8007944:	f000 babe 	b.w	8007ec4 <memcpy>
 8007948:	4770      	bx	lr

0800794a <_ZNSt11char_traitsIcE4findEPKcjRS1_>:
 800794a:	4613      	mov	r3, r2
 800794c:	460a      	mov	r2, r1
 800794e:	b111      	cbz	r1, 8007956 <_ZNSt11char_traitsIcE4findEPKcjRS1_+0xc>
 8007950:	7819      	ldrb	r1, [r3, #0]
 8007952:	f000 baa9 	b.w	8007ea8 <memchr>
 8007956:	4608      	mov	r0, r1
 8007958:	4770      	bx	lr

0800795a <_ZNSt7__cxx1112basic_stringIcSt11char_traitsIcESaIcEE7_M_dataEPc>:
 800795a:	6001      	str	r1, [r0, #0]
 800795c:	4770      	bx	lr

0800795e <_ZNKSt7__cxx1112basic_stringIcSt11char_traitsIcESaIcEE7_M_dataEv>:
 800795e:	6800      	ldr	r0, [r0, #0]
 8007960:	4770      	bx	lr

08007962 <_ZNSt7__cxx1112basic_stringIcSt11char_traitsIcESaIcEE13_M_local_dataEv>:
 8007962:	3008      	adds	r0, #8
 8007964:	4770      	bx	lr

08007966 <_ZNSt7__cxx1112basic_stringIcSt11char_traitsIcESaIcEE11_M_capacityEj>:
 8007966:	6081      	str	r1, [r0, #8]
 8007968:	4770      	bx	lr

0800796a <_ZNSt7__cxx1112basic_stringIcSt11char_traitsIcESaIcEE13_M_set_lengthEj>:
 800796a:	2200      	movs	r2, #0
 800796c:	6803      	ldr	r3, [r0, #0]
 800796e:	6041      	str	r1, [r0, #4]
 8007970:	545a      	strb	r2, [r3, r1]
 8007972:	4770      	bx	lr

08007974 <_ZNSt7__cxx1112basic_stringIcSt11char_traitsIcESaIcEE9_M_createERjj>:
 8007974:	b508      	push	{r3, lr}
 8007976:	680b      	ldr	r3, [r1, #0]
 8007978:	f1b3 4f80 	cmp.w	r3, #1073741824	; 0x40000000
 800797c:	d302      	bcc.n	8007984 <_ZNSt7__cxx1112basic_stringIcSt11char_traitsIcESaIcEE9_M_createERjj+0x10>
 800797e:	480d      	ldr	r0, [pc, #52]	; (80079b4 <_ZNSt7__cxx1112basic_stringIcSt11char_traitsIcESaIcEE9_M_createERjj+0x40>)
 8007980:	f7ff ff2a 	bl	80077d8 <_ZSt20__throw_length_errorPKc>
 8007984:	4293      	cmp	r3, r2
 8007986:	d90b      	bls.n	80079a0 <_ZNSt7__cxx1112basic_stringIcSt11char_traitsIcESaIcEE9_M_createERjj+0x2c>
 8007988:	ebb3 0f42 	cmp.w	r3, r2, lsl #1
 800798c:	ea4f 0042 	mov.w	r0, r2, lsl #1
 8007990:	d206      	bcs.n	80079a0 <_ZNSt7__cxx1112basic_stringIcSt11char_traitsIcESaIcEE9_M_createERjj+0x2c>
 8007992:	f1b0 4f80 	cmp.w	r0, #1073741824	; 0x40000000
 8007996:	bf2a      	itet	cs
 8007998:	f06f 4340 	mvncs.w	r3, #3221225472	; 0xc0000000
 800799c:	6008      	strcc	r0, [r1, #0]
 800799e:	600b      	strcs	r3, [r1, #0]
 80079a0:	6808      	ldr	r0, [r1, #0]
 80079a2:	3001      	adds	r0, #1
 80079a4:	d501      	bpl.n	80079aa <_ZNSt7__cxx1112basic_stringIcSt11char_traitsIcESaIcEE9_M_createERjj+0x36>
 80079a6:	f7ff ff0e 	bl	80077c6 <_ZSt17__throw_bad_allocv>
 80079aa:	e8bd 4008 	ldmia.w	sp!, {r3, lr}
 80079ae:	f7ff bef7 	b.w	80077a0 <_Znwj>
 80079b2:	bf00      	nop
 80079b4:	0800b0e6 	.word	0x0800b0e6

080079b8 <_ZNSt7__cxx1112basic_stringIcSt11char_traitsIcESaIcEE10_M_disposeEv>:
 80079b8:	4603      	mov	r3, r0
 80079ba:	f853 0b08 	ldr.w	r0, [r3], #8
 80079be:	4298      	cmp	r0, r3
 80079c0:	d001      	beq.n	80079c6 <_ZNSt7__cxx1112basic_stringIcSt11char_traitsIcESaIcEE10_M_disposeEv+0xe>
 80079c2:	f000 ba25 	b.w	8007e10 <_ZdlPv>
 80079c6:	4770      	bx	lr

080079c8 <_ZNKSt7__cxx1112basic_stringIcSt11char_traitsIcESaIcEE8_M_checkEjPKc>:
 80079c8:	b508      	push	{r3, lr}
 80079ca:	4603      	mov	r3, r0
 80079cc:	4608      	mov	r0, r1
 80079ce:	685b      	ldr	r3, [r3, #4]
 80079d0:	4611      	mov	r1, r2
 80079d2:	4298      	cmp	r0, r3
 80079d4:	d903      	bls.n	80079de <_ZNKSt7__cxx1112basic_stringIcSt11char_traitsIcESaIcEE8_M_checkEjPKc+0x16>
 80079d6:	4602      	mov	r2, r0
 80079d8:	4801      	ldr	r0, [pc, #4]	; (80079e0 <_ZNKSt7__cxx1112basic_stringIcSt11char_traitsIcESaIcEE8_M_checkEjPKc+0x18>)
 80079da:	f7ff ff03 	bl	80077e4 <_ZSt24__throw_out_of_range_fmtPKcz>
 80079de:	bd08      	pop	{r3, pc}
 80079e0:	0800b0fe 	.word	0x0800b0fe

080079e4 <_ZNKSt7__cxx1112basic_stringIcSt11char_traitsIcESaIcEE15_M_check_lengthEjjPKc>:
 80079e4:	6840      	ldr	r0, [r0, #4]
 80079e6:	f101 4180 	add.w	r1, r1, #1073741824	; 0x40000000
 80079ea:	3901      	subs	r1, #1
 80079ec:	1a09      	subs	r1, r1, r0
 80079ee:	4291      	cmp	r1, r2
 80079f0:	b508      	push	{r3, lr}
 80079f2:	d202      	bcs.n	80079fa <_ZNKSt7__cxx1112basic_stringIcSt11char_traitsIcESaIcEE15_M_check_lengthEjjPKc+0x16>
 80079f4:	4618      	mov	r0, r3
 80079f6:	f7ff feef 	bl	80077d8 <_ZSt20__throw_length_errorPKc>
 80079fa:	bd08      	pop	{r3, pc}

080079fc <_ZNKSt7__cxx1112basic_stringIcSt11char_traitsIcESaIcEE11_M_disjunctEPKc>:
 80079fc:	6803      	ldr	r3, [r0, #0]
 80079fe:	428b      	cmp	r3, r1
 8007a00:	d806      	bhi.n	8007a10 <_ZNKSt7__cxx1112basic_stringIcSt11char_traitsIcESaIcEE11_M_disjunctEPKc+0x14>
 8007a02:	6840      	ldr	r0, [r0, #4]
 8007a04:	4418      	add	r0, r3
 8007a06:	4281      	cmp	r1, r0
 8007a08:	bf94      	ite	ls
 8007a0a:	2000      	movls	r0, #0
 8007a0c:	2001      	movhi	r0, #1
 8007a0e:	4770      	bx	lr
 8007a10:	2001      	movs	r0, #1
 8007a12:	4770      	bx	lr

08007a14 <_ZNSt7__cxx1112basic_stringIcSt11char_traitsIcESaIcEE7_S_copyEPcPKcj>:
 8007a14:	2a01      	cmp	r2, #1
 8007a16:	b410      	push	{r4}
 8007a18:	d103      	bne.n	8007a22 <_ZNSt7__cxx1112basic_stringIcSt11char_traitsIcESaIcEE7_S_copyEPcPKcj+0xe>
 8007a1a:	780a      	ldrb	r2, [r1, #0]
 8007a1c:	bc10      	pop	{r4}
 8007a1e:	7002      	strb	r2, [r0, #0]
 8007a20:	4770      	bx	lr
 8007a22:	bc10      	pop	{r4}
 8007a24:	f7ff bf8d 	b.w	8007942 <_ZNSt11char_traitsIcE4copyEPcPKcj.isra.0>

08007a28 <_ZNSt7__cxx1112basic_stringIcSt11char_traitsIcESaIcEE7_S_moveEPcPKcj>:
 8007a28:	2a01      	cmp	r2, #1
 8007a2a:	b430      	push	{r4, r5}
 8007a2c:	d103      	bne.n	8007a36 <_ZNSt7__cxx1112basic_stringIcSt11char_traitsIcESaIcEE7_S_moveEPcPKcj+0xe>
 8007a2e:	780b      	ldrb	r3, [r1, #0]
 8007a30:	7003      	strb	r3, [r0, #0]
 8007a32:	bc30      	pop	{r4, r5}
 8007a34:	4770      	bx	lr
 8007a36:	2a00      	cmp	r2, #0
 8007a38:	d0fb      	beq.n	8007a32 <_ZNSt7__cxx1112basic_stringIcSt11char_traitsIcESaIcEE7_S_moveEPcPKcj+0xa>
 8007a3a:	bc30      	pop	{r4, r5}
 8007a3c:	f000 ba50 	b.w	8007ee0 <memmove>

08007a40 <_ZNSt7__cxx1112basic_stringIcSt11char_traitsIcESaIcEE13_S_copy_charsEPcS5_S5_>:
 8007a40:	b508      	push	{r3, lr}
 8007a42:	1a52      	subs	r2, r2, r1
 8007a44:	f7ff ffe6 	bl	8007a14 <_ZNSt7__cxx1112basic_stringIcSt11char_traitsIcESaIcEE7_S_copyEPcPKcj>
 8007a48:	bd08      	pop	{r3, pc}

08007a4a <_ZNSt7__cxx1112basic_stringIcSt11char_traitsIcESaIcEE13_S_copy_charsEPcPKcS7_>:
 8007a4a:	b508      	push	{r3, lr}
 8007a4c:	1a52      	subs	r2, r2, r1
 8007a4e:	f7ff ffe1 	bl	8007a14 <_ZNSt7__cxx1112basic_stringIcSt11char_traitsIcESaIcEE7_S_copyEPcPKcj>
 8007a52:	bd08      	pop	{r3, pc}

08007a54 <_ZNSt7__cxx1112basic_stringIcSt11char_traitsIcESaIcEE9_M_mutateEjjPKcj>:
 8007a54:	e92d 47f3 	stmdb	sp!, {r0, r1, r4, r5, r6, r7, r8, r9, sl, lr}
 8007a58:	9e0a      	ldr	r6, [sp, #40]	; 0x28
 8007a5a:	461f      	mov	r7, r3
 8007a5c:	6843      	ldr	r3, [r0, #4]
 8007a5e:	eb01 0802 	add.w	r8, r1, r2
 8007a62:	1ab2      	subs	r2, r6, r2
 8007a64:	441a      	add	r2, r3
 8007a66:	eba3 0908 	sub.w	r9, r3, r8
 8007a6a:	4603      	mov	r3, r0
 8007a6c:	9201      	str	r2, [sp, #4]
 8007a6e:	f853 2b08 	ldr.w	r2, [r3], #8
 8007a72:	460d      	mov	r5, r1
 8007a74:	429a      	cmp	r2, r3
 8007a76:	bf0c      	ite	eq
 8007a78:	220f      	moveq	r2, #15
 8007a7a:	6882      	ldrne	r2, [r0, #8]
 8007a7c:	a901      	add	r1, sp, #4
 8007a7e:	4604      	mov	r4, r0
 8007a80:	f7ff ff78 	bl	8007974 <_ZNSt7__cxx1112basic_stringIcSt11char_traitsIcESaIcEE9_M_createERjj>
 8007a84:	4682      	mov	sl, r0
 8007a86:	b11d      	cbz	r5, 8007a90 <_ZNSt7__cxx1112basic_stringIcSt11char_traitsIcESaIcEE9_M_mutateEjjPKcj+0x3c>
 8007a88:	462a      	mov	r2, r5
 8007a8a:	6821      	ldr	r1, [r4, #0]
 8007a8c:	f7ff ffc2 	bl	8007a14 <_ZNSt7__cxx1112basic_stringIcSt11char_traitsIcESaIcEE7_S_copyEPcPKcj>
 8007a90:	b137      	cbz	r7, 8007aa0 <_ZNSt7__cxx1112basic_stringIcSt11char_traitsIcESaIcEE9_M_mutateEjjPKcj+0x4c>
 8007a92:	b12e      	cbz	r6, 8007aa0 <_ZNSt7__cxx1112basic_stringIcSt11char_traitsIcESaIcEE9_M_mutateEjjPKcj+0x4c>
 8007a94:	4632      	mov	r2, r6
 8007a96:	4639      	mov	r1, r7
 8007a98:	eb0a 0005 	add.w	r0, sl, r5
 8007a9c:	f7ff ffba 	bl	8007a14 <_ZNSt7__cxx1112basic_stringIcSt11char_traitsIcESaIcEE7_S_copyEPcPKcj>
 8007aa0:	f1b9 0f00 	cmp.w	r9, #0
 8007aa4:	d007      	beq.n	8007ab6 <_ZNSt7__cxx1112basic_stringIcSt11char_traitsIcESaIcEE9_M_mutateEjjPKcj+0x62>
 8007aa6:	6821      	ldr	r1, [r4, #0]
 8007aa8:	4435      	add	r5, r6
 8007aaa:	464a      	mov	r2, r9
 8007aac:	4441      	add	r1, r8
 8007aae:	eb0a 0005 	add.w	r0, sl, r5
 8007ab2:	f7ff ffaf 	bl	8007a14 <_ZNSt7__cxx1112basic_stringIcSt11char_traitsIcESaIcEE7_S_copyEPcPKcj>
 8007ab6:	4620      	mov	r0, r4
 8007ab8:	f7ff ff7e 	bl	80079b8 <_ZNSt7__cxx1112basic_stringIcSt11char_traitsIcESaIcEE10_M_disposeEv>
 8007abc:	9b01      	ldr	r3, [sp, #4]
 8007abe:	f8c4 a000 	str.w	sl, [r4]
 8007ac2:	60a3      	str	r3, [r4, #8]
 8007ac4:	b002      	add	sp, #8
 8007ac6:	e8bd 87f0 	ldmia.w	sp!, {r4, r5, r6, r7, r8, r9, sl, pc}

08007aca <_ZNSt7__cxx1112basic_stringIcSt11char_traitsIcESaIcEEC1Ev>:
 8007aca:	f100 0208 	add.w	r2, r0, #8
 8007ace:	6002      	str	r2, [r0, #0]
 8007ad0:	2200      	movs	r2, #0
 8007ad2:	6042      	str	r2, [r0, #4]
 8007ad4:	7202      	strb	r2, [r0, #8]
 8007ad6:	4770      	bx	lr

08007ad8 <_ZNSt7__cxx1112basic_stringIcSt11char_traitsIcESaIcEED1Ev>:
 8007ad8:	b510      	push	{r4, lr}
 8007ada:	4604      	mov	r4, r0
 8007adc:	f7ff ff6c 	bl	80079b8 <_ZNSt7__cxx1112basic_stringIcSt11char_traitsIcESaIcEE10_M_disposeEv>
 8007ae0:	4620      	mov	r0, r4
 8007ae2:	bd10      	pop	{r4, pc}

08007ae4 <_ZNSt7__cxx1112basic_stringIcSt11char_traitsIcESaIcEEaSEOS4_>:
 8007ae4:	b5f8      	push	{r3, r4, r5, r6, r7, lr}
 8007ae6:	460d      	mov	r5, r1
 8007ae8:	f851 3b08 	ldr.w	r3, [r1], #8
 8007aec:	4604      	mov	r4, r0
 8007aee:	4299      	cmp	r1, r3
 8007af0:	6800      	ldr	r0, [r0, #0]
 8007af2:	686a      	ldr	r2, [r5, #4]
 8007af4:	d10d      	bne.n	8007b12 <_ZNSt7__cxx1112basic_stringIcSt11char_traitsIcESaIcEEaSEOS4_+0x2e>
 8007af6:	b10a      	cbz	r2, 8007afc <_ZNSt7__cxx1112basic_stringIcSt11char_traitsIcESaIcEEaSEOS4_+0x18>
 8007af8:	f7ff ff8c 	bl	8007a14 <_ZNSt7__cxx1112basic_stringIcSt11char_traitsIcESaIcEE7_S_copyEPcPKcj>
 8007afc:	2100      	movs	r1, #0
 8007afe:	686b      	ldr	r3, [r5, #4]
 8007b00:	6822      	ldr	r2, [r4, #0]
 8007b02:	6063      	str	r3, [r4, #4]
 8007b04:	54d1      	strb	r1, [r2, r3]
 8007b06:	2300      	movs	r3, #0
 8007b08:	682a      	ldr	r2, [r5, #0]
 8007b0a:	606b      	str	r3, [r5, #4]
 8007b0c:	7013      	strb	r3, [r2, #0]
 8007b0e:	4620      	mov	r0, r4
 8007b10:	bdf8      	pop	{r3, r4, r5, r6, r7, pc}
 8007b12:	f104 0708 	add.w	r7, r4, #8
 8007b16:	42b8      	cmp	r0, r7
 8007b18:	bf08      	it	eq
 8007b1a:	2000      	moveq	r0, #0
 8007b1c:	e9c4 3200 	strd	r3, r2, [r4]
 8007b20:	68ab      	ldr	r3, [r5, #8]
 8007b22:	bf18      	it	ne
 8007b24:	68a6      	ldrne	r6, [r4, #8]
 8007b26:	60a3      	str	r3, [r4, #8]
 8007b28:	b110      	cbz	r0, 8007b30 <_ZNSt7__cxx1112basic_stringIcSt11char_traitsIcESaIcEEaSEOS4_+0x4c>
 8007b2a:	6028      	str	r0, [r5, #0]
 8007b2c:	60ae      	str	r6, [r5, #8]
 8007b2e:	e7ea      	b.n	8007b06 <_ZNSt7__cxx1112basic_stringIcSt11char_traitsIcESaIcEEaSEOS4_+0x22>
 8007b30:	6029      	str	r1, [r5, #0]
 8007b32:	e7e8      	b.n	8007b06 <_ZNSt7__cxx1112basic_stringIcSt11char_traitsIcESaIcEEaSEOS4_+0x22>

08007b34 <_ZNSt7__cxx1112basic_stringIcSt11char_traitsIcESaIcEE5beginEv>:
 8007b34:	6800      	ldr	r0, [r0, #0]
 8007b36:	4770      	bx	lr

08007b38 <_ZNSt7__cxx1112basic_stringIcSt11char_traitsIcESaIcEE3endEv>:
 8007b38:	e9d0 2000 	ldrd	r2, r0, [r0]
 8007b3c:	4410      	add	r0, r2
 8007b3e:	4770      	bx	lr

08007b40 <_ZNSt7__cxx1112basic_stringIcSt11char_traitsIcESaIcEE6rbeginEv>:
 8007b40:	e9d1 3200 	ldrd	r3, r2, [r1]
 8007b44:	4413      	add	r3, r2
 8007b46:	6003      	str	r3, [r0, #0]
 8007b48:	4770      	bx	lr

08007b4a <_ZNSt7__cxx1112basic_stringIcSt11char_traitsIcESaIcEE4rendEv>:
 8007b4a:	680b      	ldr	r3, [r1, #0]
 8007b4c:	6003      	str	r3, [r0, #0]
 8007b4e:	4770      	bx	lr

08007b50 <_ZNSt7__cxx1112basic_stringIcSt11char_traitsIcESaIcEEixEj>:
 8007b50:	6800      	ldr	r0, [r0, #0]
 8007b52:	4408      	add	r0, r1
 8007b54:	4770      	bx	lr

08007b56 <_ZNSt7__cxx1112basic_stringIcSt11char_traitsIcESaIcEE9push_backEc>:
 8007b56:	4603      	mov	r3, r0
 8007b58:	b5f7      	push	{r0, r1, r2, r4, r5, r6, r7, lr}
 8007b5a:	f853 2b08 	ldr.w	r2, [r3], #8
 8007b5e:	6846      	ldr	r6, [r0, #4]
 8007b60:	429a      	cmp	r2, r3
 8007b62:	bf0c      	ite	eq
 8007b64:	230f      	moveq	r3, #15
 8007b66:	6883      	ldrne	r3, [r0, #8]
 8007b68:	1c75      	adds	r5, r6, #1
 8007b6a:	429d      	cmp	r5, r3
 8007b6c:	4604      	mov	r4, r0
 8007b6e:	460f      	mov	r7, r1
 8007b70:	d906      	bls.n	8007b80 <_ZNSt7__cxx1112basic_stringIcSt11char_traitsIcESaIcEE9push_backEc+0x2a>
 8007b72:	2301      	movs	r3, #1
 8007b74:	9300      	str	r3, [sp, #0]
 8007b76:	2300      	movs	r3, #0
 8007b78:	4631      	mov	r1, r6
 8007b7a:	461a      	mov	r2, r3
 8007b7c:	f7ff ff6a 	bl	8007a54 <_ZNSt7__cxx1112basic_stringIcSt11char_traitsIcESaIcEE9_M_mutateEjjPKcj>
 8007b80:	2200      	movs	r2, #0
 8007b82:	6823      	ldr	r3, [r4, #0]
 8007b84:	559f      	strb	r7, [r3, r6]
 8007b86:	6823      	ldr	r3, [r4, #0]
 8007b88:	6065      	str	r5, [r4, #4]
 8007b8a:	555a      	strb	r2, [r3, r5]
 8007b8c:	b003      	add	sp, #12
 8007b8e:	bdf0      	pop	{r4, r5, r6, r7, pc}

08007b90 <_ZNSt7__cxx1112basic_stringIcSt11char_traitsIcESaIcEEpLEc>:
 8007b90:	b510      	push	{r4, lr}
 8007b92:	4604      	mov	r4, r0
 8007b94:	f7ff ffdf 	bl	8007b56 <_ZNSt7__cxx1112basic_stringIcSt11char_traitsIcESaIcEE9push_backEc>
 8007b98:	4620      	mov	r0, r4
 8007b9a:	bd10      	pop	{r4, pc}

08007b9c <_ZNSt7__cxx1112basic_stringIcSt11char_traitsIcESaIcEE10_M_replaceEjjPKcj>:
 8007b9c:	e92d 4ff7 	stmdb	sp!, {r0, r1, r2, r4, r5, r6, r7, r8, r9, sl, fp, lr}
 8007ba0:	4614      	mov	r4, r2
 8007ba2:	4680      	mov	r8, r0
 8007ba4:	9d0c      	ldr	r5, [sp, #48]	; 0x30
 8007ba6:	4689      	mov	r9, r1
 8007ba8:	462a      	mov	r2, r5
 8007baa:	461f      	mov	r7, r3
 8007bac:	4621      	mov	r1, r4
 8007bae:	4b38      	ldr	r3, [pc, #224]	; (8007c90 <_ZNSt7__cxx1112basic_stringIcSt11char_traitsIcESaIcEE10_M_replaceEjjPKcj+0xf4>)
 8007bb0:	f7ff ff18 	bl	80079e4 <_ZNKSt7__cxx1112basic_stringIcSt11char_traitsIcESaIcEE15_M_check_lengthEjjPKc>
 8007bb4:	4642      	mov	r2, r8
 8007bb6:	f852 6b08 	ldr.w	r6, [r2], #8
 8007bba:	f8d8 3004 	ldr.w	r3, [r8, #4]
 8007bbe:	4296      	cmp	r6, r2
 8007bc0:	bf0c      	ite	eq
 8007bc2:	220f      	moveq	r2, #15
 8007bc4:	f8d8 2008 	ldrne.w	r2, [r8, #8]
 8007bc8:	eba5 0b04 	sub.w	fp, r5, r4
 8007bcc:	eb03 0a0b 	add.w	sl, r3, fp
 8007bd0:	4552      	cmp	r2, sl
 8007bd2:	d351      	bcc.n	8007c78 <_ZNSt7__cxx1112basic_stringIcSt11char_traitsIcESaIcEE10_M_replaceEjjPKcj+0xdc>
 8007bd4:	444e      	add	r6, r9
 8007bd6:	4639      	mov	r1, r7
 8007bd8:	44a1      	add	r9, r4
 8007bda:	4640      	mov	r0, r8
 8007bdc:	eba3 0909 	sub.w	r9, r3, r9
 8007be0:	f7ff ff0c 	bl	80079fc <_ZNKSt7__cxx1112basic_stringIcSt11char_traitsIcESaIcEE11_M_disjunctEPKc>
 8007be4:	b180      	cbz	r0, 8007c08 <_ZNSt7__cxx1112basic_stringIcSt11char_traitsIcESaIcEE10_M_replaceEjjPKcj+0x6c>
 8007be6:	f1b9 0f00 	cmp.w	r9, #0
 8007bea:	d006      	beq.n	8007bfa <_ZNSt7__cxx1112basic_stringIcSt11char_traitsIcESaIcEE10_M_replaceEjjPKcj+0x5e>
 8007bec:	42ac      	cmp	r4, r5
 8007bee:	d004      	beq.n	8007bfa <_ZNSt7__cxx1112basic_stringIcSt11char_traitsIcESaIcEE10_M_replaceEjjPKcj+0x5e>
 8007bf0:	464a      	mov	r2, r9
 8007bf2:	1931      	adds	r1, r6, r4
 8007bf4:	1970      	adds	r0, r6, r5
 8007bf6:	f7ff ff17 	bl	8007a28 <_ZNSt7__cxx1112basic_stringIcSt11char_traitsIcESaIcEE7_S_moveEPcPKcj>
 8007bfa:	b315      	cbz	r5, 8007c42 <_ZNSt7__cxx1112basic_stringIcSt11char_traitsIcESaIcEE10_M_replaceEjjPKcj+0xa6>
 8007bfc:	462a      	mov	r2, r5
 8007bfe:	4639      	mov	r1, r7
 8007c00:	4630      	mov	r0, r6
 8007c02:	f7ff ff07 	bl	8007a14 <_ZNSt7__cxx1112basic_stringIcSt11char_traitsIcESaIcEE7_S_copyEPcPKcj>
 8007c06:	e01c      	b.n	8007c42 <_ZNSt7__cxx1112basic_stringIcSt11char_traitsIcESaIcEE10_M_replaceEjjPKcj+0xa6>
 8007c08:	b135      	cbz	r5, 8007c18 <_ZNSt7__cxx1112basic_stringIcSt11char_traitsIcESaIcEE10_M_replaceEjjPKcj+0x7c>
 8007c0a:	42ac      	cmp	r4, r5
 8007c0c:	d33c      	bcc.n	8007c88 <_ZNSt7__cxx1112basic_stringIcSt11char_traitsIcESaIcEE10_M_replaceEjjPKcj+0xec>
 8007c0e:	462a      	mov	r2, r5
 8007c10:	4639      	mov	r1, r7
 8007c12:	4630      	mov	r0, r6
 8007c14:	f7ff ff08 	bl	8007a28 <_ZNSt7__cxx1112basic_stringIcSt11char_traitsIcESaIcEE7_S_moveEPcPKcj>
 8007c18:	f1b9 0f00 	cmp.w	r9, #0
 8007c1c:	d011      	beq.n	8007c42 <_ZNSt7__cxx1112basic_stringIcSt11char_traitsIcESaIcEE10_M_replaceEjjPKcj+0xa6>
 8007c1e:	42ac      	cmp	r4, r5
 8007c20:	d00f      	beq.n	8007c42 <_ZNSt7__cxx1112basic_stringIcSt11char_traitsIcESaIcEE10_M_replaceEjjPKcj+0xa6>
 8007c22:	464a      	mov	r2, r9
 8007c24:	1931      	adds	r1, r6, r4
 8007c26:	1970      	adds	r0, r6, r5
 8007c28:	f7ff fefe 	bl	8007a28 <_ZNSt7__cxx1112basic_stringIcSt11char_traitsIcESaIcEE7_S_moveEPcPKcj>
 8007c2c:	42ac      	cmp	r4, r5
 8007c2e:	d208      	bcs.n	8007c42 <_ZNSt7__cxx1112basic_stringIcSt11char_traitsIcESaIcEE10_M_replaceEjjPKcj+0xa6>
 8007c30:	4434      	add	r4, r6
 8007c32:	197b      	adds	r3, r7, r5
 8007c34:	429c      	cmp	r4, r3
 8007c36:	d30f      	bcc.n	8007c58 <_ZNSt7__cxx1112basic_stringIcSt11char_traitsIcESaIcEE10_M_replaceEjjPKcj+0xbc>
 8007c38:	462a      	mov	r2, r5
 8007c3a:	4639      	mov	r1, r7
 8007c3c:	4630      	mov	r0, r6
 8007c3e:	f7ff fef3 	bl	8007a28 <_ZNSt7__cxx1112basic_stringIcSt11char_traitsIcESaIcEE7_S_moveEPcPKcj>
 8007c42:	2200      	movs	r2, #0
 8007c44:	4640      	mov	r0, r8
 8007c46:	f8d8 3000 	ldr.w	r3, [r8]
 8007c4a:	f8c8 a004 	str.w	sl, [r8, #4]
 8007c4e:	f803 200a 	strb.w	r2, [r3, sl]
 8007c52:	b003      	add	sp, #12
 8007c54:	e8bd 8ff0 	ldmia.w	sp!, {r4, r5, r6, r7, r8, r9, sl, fp, pc}
 8007c58:	42bc      	cmp	r4, r7
 8007c5a:	d803      	bhi.n	8007c64 <_ZNSt7__cxx1112basic_stringIcSt11char_traitsIcESaIcEE10_M_replaceEjjPKcj+0xc8>
 8007c5c:	462a      	mov	r2, r5
 8007c5e:	eb07 010b 	add.w	r1, r7, fp
 8007c62:	e7cd      	b.n	8007c00 <_ZNSt7__cxx1112basic_stringIcSt11char_traitsIcESaIcEE10_M_replaceEjjPKcj+0x64>
 8007c64:	1be4      	subs	r4, r4, r7
 8007c66:	4622      	mov	r2, r4
 8007c68:	4639      	mov	r1, r7
 8007c6a:	4630      	mov	r0, r6
 8007c6c:	f7ff fedc 	bl	8007a28 <_ZNSt7__cxx1112basic_stringIcSt11char_traitsIcESaIcEE7_S_moveEPcPKcj>
 8007c70:	1b2a      	subs	r2, r5, r4
 8007c72:	1971      	adds	r1, r6, r5
 8007c74:	1930      	adds	r0, r6, r4
 8007c76:	e7c4      	b.n	8007c02 <_ZNSt7__cxx1112basic_stringIcSt11char_traitsIcESaIcEE10_M_replaceEjjPKcj+0x66>
 8007c78:	463b      	mov	r3, r7
 8007c7a:	4622      	mov	r2, r4
 8007c7c:	4649      	mov	r1, r9
 8007c7e:	4640      	mov	r0, r8
 8007c80:	9500      	str	r5, [sp, #0]
 8007c82:	f7ff fee7 	bl	8007a54 <_ZNSt7__cxx1112basic_stringIcSt11char_traitsIcESaIcEE9_M_mutateEjjPKcj>
 8007c86:	e7dc      	b.n	8007c42 <_ZNSt7__cxx1112basic_stringIcSt11char_traitsIcESaIcEE10_M_replaceEjjPKcj+0xa6>
 8007c88:	f1b9 0f00 	cmp.w	r9, #0
 8007c8c:	d0d0      	beq.n	8007c30 <_ZNSt7__cxx1112basic_stringIcSt11char_traitsIcESaIcEE10_M_replaceEjjPKcj+0x94>
 8007c8e:	e7c8      	b.n	8007c22 <_ZNSt7__cxx1112basic_stringIcSt11char_traitsIcESaIcEE10_M_replaceEjjPKcj+0x86>
 8007c90:	0800b135 	.word	0x0800b135

08007c94 <_ZNSt7__cxx1112basic_stringIcSt11char_traitsIcESaIcEE6assignEPKc>:
 8007c94:	b537      	push	{r0, r1, r2, r4, r5, lr}
 8007c96:	4604      	mov	r4, r0
 8007c98:	4608      	mov	r0, r1
 8007c9a:	460d      	mov	r5, r1
 8007c9c:	f7f8 fa58 	bl	8000150 <strlen>
 8007ca0:	462b      	mov	r3, r5
 8007ca2:	9000      	str	r0, [sp, #0]
 8007ca4:	2100      	movs	r1, #0
 8007ca6:	4620      	mov	r0, r4
 8007ca8:	6862      	ldr	r2, [r4, #4]
 8007caa:	f7ff ff77 	bl	8007b9c <_ZNSt7__cxx1112basic_stringIcSt11char_traitsIcESaIcEE10_M_replaceEjjPKcj>
 8007cae:	b003      	add	sp, #12
 8007cb0:	bd30      	pop	{r4, r5, pc}

08007cb2 <_ZNSt7__cxx1112basic_stringIcSt11char_traitsIcESaIcEEaSEPKc>:
 8007cb2:	b508      	push	{r3, lr}
 8007cb4:	f7ff ffee 	bl	8007c94 <_ZNSt7__cxx1112basic_stringIcSt11char_traitsIcESaIcEE6assignEPKc>
 8007cb8:	bd08      	pop	{r3, pc}

08007cba <_ZNSt7__cxx1112basic_stringIcSt11char_traitsIcESaIcEE9_M_appendEPKcj>:
 8007cba:	b573      	push	{r0, r1, r4, r5, r6, lr}
 8007cbc:	4604      	mov	r4, r0
 8007cbe:	4623      	mov	r3, r4
 8007cc0:	f853 6b08 	ldr.w	r6, [r3], #8
 8007cc4:	6840      	ldr	r0, [r0, #4]
 8007cc6:	429e      	cmp	r6, r3
 8007cc8:	bf0c      	ite	eq
 8007cca:	230f      	moveq	r3, #15
 8007ccc:	68a3      	ldrne	r3, [r4, #8]
 8007cce:	1885      	adds	r5, r0, r2
 8007cd0:	429d      	cmp	r5, r3
 8007cd2:	d80a      	bhi.n	8007cea <_ZNSt7__cxx1112basic_stringIcSt11char_traitsIcESaIcEE9_M_appendEPKcj+0x30>
 8007cd4:	b112      	cbz	r2, 8007cdc <_ZNSt7__cxx1112basic_stringIcSt11char_traitsIcESaIcEE9_M_appendEPKcj+0x22>
 8007cd6:	4430      	add	r0, r6
 8007cd8:	f7ff fe9c 	bl	8007a14 <_ZNSt7__cxx1112basic_stringIcSt11char_traitsIcESaIcEE7_S_copyEPcPKcj>
 8007cdc:	2200      	movs	r2, #0
 8007cde:	4620      	mov	r0, r4
 8007ce0:	6823      	ldr	r3, [r4, #0]
 8007ce2:	6065      	str	r5, [r4, #4]
 8007ce4:	555a      	strb	r2, [r3, r5]
 8007ce6:	b002      	add	sp, #8
 8007ce8:	bd70      	pop	{r4, r5, r6, pc}
 8007cea:	460b      	mov	r3, r1
 8007cec:	9200      	str	r2, [sp, #0]
 8007cee:	4601      	mov	r1, r0
 8007cf0:	2200      	movs	r2, #0
 8007cf2:	4620      	mov	r0, r4
 8007cf4:	f7ff feae 	bl	8007a54 <_ZNSt7__cxx1112basic_stringIcSt11char_traitsIcESaIcEE9_M_mutateEjjPKcj>
 8007cf8:	e7f0      	b.n	8007cdc <_ZNSt7__cxx1112basic_stringIcSt11char_traitsIcESaIcEE9_M_appendEPKcj+0x22>

08007cfa <_ZNSt7__cxx1112basic_stringIcSt11char_traitsIcESaIcEE6appendERKS4_>:
 8007cfa:	b508      	push	{r3, lr}
 8007cfc:	e9d1 1200 	ldrd	r1, r2, [r1]
 8007d00:	f7ff ffdb 	bl	8007cba <_ZNSt7__cxx1112basic_stringIcSt11char_traitsIcESaIcEE9_M_appendEPKcj>
 8007d04:	bd08      	pop	{r3, pc}

08007d06 <_ZNSt7__cxx1112basic_stringIcSt11char_traitsIcESaIcEEpLERKS4_>:
 8007d06:	b508      	push	{r3, lr}
 8007d08:	f7ff fff7 	bl	8007cfa <_ZNSt7__cxx1112basic_stringIcSt11char_traitsIcESaIcEE6appendERKS4_>
 8007d0c:	bd08      	pop	{r3, pc}

08007d0e <_ZNKSt7__cxx1112basic_stringIcSt11char_traitsIcESaIcEE5c_strEv>:
 8007d0e:	6800      	ldr	r0, [r0, #0]
 8007d10:	4770      	bx	lr

08007d12 <_ZNKSt7__cxx1112basic_stringIcSt11char_traitsIcESaIcEE4findEcj>:
 8007d12:	b513      	push	{r0, r1, r4, lr}
 8007d14:	f88d 1007 	strb.w	r1, [sp, #7]
 8007d18:	6841      	ldr	r1, [r0, #4]
 8007d1a:	4613      	mov	r3, r2
 8007d1c:	428a      	cmp	r2, r1
 8007d1e:	d20a      	bcs.n	8007d36 <_ZNKSt7__cxx1112basic_stringIcSt11char_traitsIcESaIcEE4findEcj+0x24>
 8007d20:	6804      	ldr	r4, [r0, #0]
 8007d22:	f10d 0207 	add.w	r2, sp, #7
 8007d26:	1ac9      	subs	r1, r1, r3
 8007d28:	18e0      	adds	r0, r4, r3
 8007d2a:	f7ff fe0e 	bl	800794a <_ZNSt11char_traitsIcE4findEPKcjRS1_>
 8007d2e:	b110      	cbz	r0, 8007d36 <_ZNKSt7__cxx1112basic_stringIcSt11char_traitsIcESaIcEE4findEcj+0x24>
 8007d30:	1b00      	subs	r0, r0, r4
 8007d32:	b002      	add	sp, #8
 8007d34:	bd10      	pop	{r4, pc}
 8007d36:	f04f 30ff 	mov.w	r0, #4294967295
 8007d3a:	e7fa      	b.n	8007d32 <_ZNKSt7__cxx1112basic_stringIcSt11char_traitsIcESaIcEE4findEcj+0x20>

08007d3c <_ZNSt7__cxx1112basic_stringIcSt11char_traitsIcESaIcEE12_Alloc_hiderC1EPcRKS3_>:
 8007d3c:	6001      	str	r1, [r0, #0]
 8007d3e:	4770      	bx	lr

08007d40 <_ZNSt7__cxx1112basic_stringIcSt11char_traitsIcESaIcEEC1ERKS4_>:
 8007d40:	b510      	push	{r4, lr}
 8007d42:	4604      	mov	r4, r0
 8007d44:	f100 0208 	add.w	r2, r0, #8
 8007d48:	6002      	str	r2, [r0, #0]
 8007d4a:	e9d1 1200 	ldrd	r1, r2, [r1]
 8007d4e:	f04f 0300 	mov.w	r3, #0
 8007d52:	440a      	add	r2, r1
 8007d54:	f7fa fe08 	bl	8002968 <_ZNSt7__cxx1112basic_stringIcSt11char_traitsIcESaIcEE12_M_constructIPcEEvT_S7_St20forward_iterator_tag>
 8007d58:	4620      	mov	r0, r4
 8007d5a:	bd10      	pop	{r4, pc}

08007d5c <_ZNSt7__cxx1112basic_stringIcSt11char_traitsIcESaIcEE12_M_constructIPKcEEvT_S8_St20forward_iterator_tag>:
 8007d5c:	b573      	push	{r0, r1, r4, r5, r6, lr}
 8007d5e:	4604      	mov	r4, r0
 8007d60:	4616      	mov	r6, r2
 8007d62:	460d      	mov	r5, r1
 8007d64:	b919      	cbnz	r1, 8007d6e <_ZNSt7__cxx1112basic_stringIcSt11char_traitsIcESaIcEE12_M_constructIPKcEEvT_S8_St20forward_iterator_tag+0x12>
 8007d66:	b112      	cbz	r2, 8007d6e <_ZNSt7__cxx1112basic_stringIcSt11char_traitsIcESaIcEE12_M_constructIPKcEEvT_S8_St20forward_iterator_tag+0x12>
 8007d68:	480d      	ldr	r0, [pc, #52]	; (8007da0 <_ZNSt7__cxx1112basic_stringIcSt11char_traitsIcESaIcEE12_M_constructIPKcEEvT_S8_St20forward_iterator_tag+0x44>)
 8007d6a:	f7ff fd2f 	bl	80077cc <_ZSt19__throw_logic_errorPKc>
 8007d6e:	1b73      	subs	r3, r6, r5
 8007d70:	2b0f      	cmp	r3, #15
 8007d72:	9301      	str	r3, [sp, #4]
 8007d74:	d907      	bls.n	8007d86 <_ZNSt7__cxx1112basic_stringIcSt11char_traitsIcESaIcEE12_M_constructIPKcEEvT_S8_St20forward_iterator_tag+0x2a>
 8007d76:	2200      	movs	r2, #0
 8007d78:	4620      	mov	r0, r4
 8007d7a:	a901      	add	r1, sp, #4
 8007d7c:	f7ff fdfa 	bl	8007974 <_ZNSt7__cxx1112basic_stringIcSt11char_traitsIcESaIcEE9_M_createERjj>
 8007d80:	9b01      	ldr	r3, [sp, #4]
 8007d82:	6020      	str	r0, [r4, #0]
 8007d84:	60a3      	str	r3, [r4, #8]
 8007d86:	4632      	mov	r2, r6
 8007d88:	4629      	mov	r1, r5
 8007d8a:	6820      	ldr	r0, [r4, #0]
 8007d8c:	f7ff fe5d 	bl	8007a4a <_ZNSt7__cxx1112basic_stringIcSt11char_traitsIcESaIcEE13_S_copy_charsEPcPKcS7_>
 8007d90:	2100      	movs	r1, #0
 8007d92:	9b01      	ldr	r3, [sp, #4]
 8007d94:	6822      	ldr	r2, [r4, #0]
 8007d96:	6063      	str	r3, [r4, #4]
 8007d98:	54d1      	strb	r1, [r2, r3]
 8007d9a:	b002      	add	sp, #8
 8007d9c:	bd70      	pop	{r4, r5, r6, pc}
 8007d9e:	bf00      	nop
 8007da0:	0800b14e 	.word	0x0800b14e

08007da4 <_ZNSt7__cxx1112basic_stringIcSt11char_traitsIcESaIcEEC1ERKS4_jj>:
 8007da4:	e92d 41f0 	stmdb	sp!, {r4, r5, r6, r7, r8, lr}
 8007da8:	460d      	mov	r5, r1
 8007daa:	4617      	mov	r7, r2
 8007dac:	4698      	mov	r8, r3
 8007dae:	f100 0308 	add.w	r3, r0, #8
 8007db2:	4604      	mov	r4, r0
 8007db4:	4639      	mov	r1, r7
 8007db6:	6003      	str	r3, [r0, #0]
 8007db8:	4a0a      	ldr	r2, [pc, #40]	; (8007de4 <_ZNSt7__cxx1112basic_stringIcSt11char_traitsIcESaIcEEC1ERKS4_jj+0x40>)
 8007dba:	4628      	mov	r0, r5
 8007dbc:	f7ff fe04 	bl	80079c8 <_ZNKSt7__cxx1112basic_stringIcSt11char_traitsIcESaIcEE8_M_checkEjPKc>
 8007dc0:	686a      	ldr	r2, [r5, #4]
 8007dc2:	682e      	ldr	r6, [r5, #0]
 8007dc4:	1bd7      	subs	r7, r2, r7
 8007dc6:	1831      	adds	r1, r6, r0
 8007dc8:	f04f 0300 	mov.w	r3, #0
 8007dcc:	4620      	mov	r0, r4
 8007dce:	4547      	cmp	r7, r8
 8007dd0:	bf94      	ite	ls
 8007dd2:	19ca      	addls	r2, r1, r7
 8007dd4:	eb01 0208 	addhi.w	r2, r1, r8
 8007dd8:	f7ff ffc0 	bl	8007d5c <_ZNSt7__cxx1112basic_stringIcSt11char_traitsIcESaIcEE12_M_constructIPKcEEvT_S8_St20forward_iterator_tag>
 8007ddc:	4620      	mov	r0, r4
 8007dde:	e8bd 81f0 	ldmia.w	sp!, {r4, r5, r6, r7, r8, pc}
 8007de2:	bf00      	nop
 8007de4:	0800b178 	.word	0x0800b178

08007de8 <_ZNKSt7__cxx1112basic_stringIcSt11char_traitsIcESaIcEE6substrEjj>:
 8007de8:	b570      	push	{r4, r5, r6, lr}
 8007dea:	460d      	mov	r5, r1
 8007dec:	4604      	mov	r4, r0
 8007dee:	4611      	mov	r1, r2
 8007df0:	4628      	mov	r0, r5
 8007df2:	4a06      	ldr	r2, [pc, #24]	; (8007e0c <_ZNKSt7__cxx1112basic_stringIcSt11char_traitsIcESaIcEE6substrEjj+0x24>)
 8007df4:	461e      	mov	r6, r3
 8007df6:	f7ff fde7 	bl	80079c8 <_ZNKSt7__cxx1112basic_stringIcSt11char_traitsIcESaIcEE8_M_checkEjPKc>
 8007dfa:	4633      	mov	r3, r6
 8007dfc:	4602      	mov	r2, r0
 8007dfe:	4629      	mov	r1, r5
 8007e00:	4620      	mov	r0, r4
 8007e02:	f7ff ffcf 	bl	8007da4 <_ZNSt7__cxx1112basic_stringIcSt11char_traitsIcESaIcEEC1ERKS4_jj>
 8007e06:	4620      	mov	r0, r4
 8007e08:	bd70      	pop	{r4, r5, r6, pc}
 8007e0a:	bf00      	nop
 8007e0c:	0800b193 	.word	0x0800b193

08007e10 <_ZdlPv>:
 8007e10:	f000 b842 	b.w	8007e98 <free>

08007e14 <_ZSt15get_new_handlerv>:
 8007e14:	4b02      	ldr	r3, [pc, #8]	; (8007e20 <_ZSt15get_new_handlerv+0xc>)
 8007e16:	6818      	ldr	r0, [r3, #0]
 8007e18:	f3bf 8f5b 	dmb	ish
 8007e1c:	4770      	bx	lr
 8007e1e:	bf00      	nop
 8007e20:	200015a4 	.word	0x200015a4

08007e24 <abort>:
 8007e24:	2006      	movs	r0, #6
 8007e26:	b508      	push	{r3, lr}
 8007e28:	f000 f990 	bl	800814c <raise>
 8007e2c:	2001      	movs	r0, #1
 8007e2e:	f7fc fb83 	bl	8004538 <_exit>
	...

08007e34 <__errno>:
 8007e34:	4b01      	ldr	r3, [pc, #4]	; (8007e3c <__errno+0x8>)
 8007e36:	6818      	ldr	r0, [r3, #0]
 8007e38:	4770      	bx	lr
 8007e3a:	bf00      	nop
 8007e3c:	2000017c 	.word	0x2000017c

08007e40 <__libc_init_array>:
 8007e40:	b570      	push	{r4, r5, r6, lr}
 8007e42:	2600      	movs	r6, #0
 8007e44:	4d0c      	ldr	r5, [pc, #48]	; (8007e78 <__libc_init_array+0x38>)
 8007e46:	4c0d      	ldr	r4, [pc, #52]	; (8007e7c <__libc_init_array+0x3c>)
 8007e48:	1b64      	subs	r4, r4, r5
 8007e4a:	10a4      	asrs	r4, r4, #2
 8007e4c:	42a6      	cmp	r6, r4
 8007e4e:	d109      	bne.n	8007e64 <__libc_init_array+0x24>
 8007e50:	f003 f898 	bl	800af84 <_init>
 8007e54:	2600      	movs	r6, #0
 8007e56:	4d0a      	ldr	r5, [pc, #40]	; (8007e80 <__libc_init_array+0x40>)
 8007e58:	4c0a      	ldr	r4, [pc, #40]	; (8007e84 <__libc_init_array+0x44>)
 8007e5a:	1b64      	subs	r4, r4, r5
 8007e5c:	10a4      	asrs	r4, r4, #2
 8007e5e:	42a6      	cmp	r6, r4
 8007e60:	d105      	bne.n	8007e6e <__libc_init_array+0x2e>
 8007e62:	bd70      	pop	{r4, r5, r6, pc}
 8007e64:	f855 3b04 	ldr.w	r3, [r5], #4
 8007e68:	4798      	blx	r3
 8007e6a:	3601      	adds	r6, #1
 8007e6c:	e7ee      	b.n	8007e4c <__libc_init_array+0xc>
 8007e6e:	f855 3b04 	ldr.w	r3, [r5], #4
 8007e72:	4798      	blx	r3
 8007e74:	3601      	adds	r6, #1
 8007e76:	e7f2      	b.n	8007e5e <__libc_init_array+0x1e>
 8007e78:	0800ba44 	.word	0x0800ba44
 8007e7c:	0800ba44 	.word	0x0800ba44
 8007e80:	0800ba44 	.word	0x0800ba44
 8007e84:	0800ba48 	.word	0x0800ba48

08007e88 <malloc>:
 8007e88:	4b02      	ldr	r3, [pc, #8]	; (8007e94 <malloc+0xc>)
 8007e8a:	4601      	mov	r1, r0
 8007e8c:	6818      	ldr	r0, [r3, #0]
 8007e8e:	f000 b8b1 	b.w	8007ff4 <_malloc_r>
 8007e92:	bf00      	nop
 8007e94:	2000017c 	.word	0x2000017c

08007e98 <free>:
 8007e98:	4b02      	ldr	r3, [pc, #8]	; (8007ea4 <free+0xc>)
 8007e9a:	4601      	mov	r1, r0
 8007e9c:	6818      	ldr	r0, [r3, #0]
 8007e9e:	f000 b841 	b.w	8007f24 <_free_r>
 8007ea2:	bf00      	nop
 8007ea4:	2000017c 	.word	0x2000017c

08007ea8 <memchr>:
 8007ea8:	4603      	mov	r3, r0
 8007eaa:	b510      	push	{r4, lr}
 8007eac:	b2c9      	uxtb	r1, r1
 8007eae:	4402      	add	r2, r0
 8007eb0:	4293      	cmp	r3, r2
 8007eb2:	4618      	mov	r0, r3
 8007eb4:	d101      	bne.n	8007eba <memchr+0x12>
 8007eb6:	2000      	movs	r0, #0
 8007eb8:	e003      	b.n	8007ec2 <memchr+0x1a>
 8007eba:	7804      	ldrb	r4, [r0, #0]
 8007ebc:	3301      	adds	r3, #1
 8007ebe:	428c      	cmp	r4, r1
 8007ec0:	d1f6      	bne.n	8007eb0 <memchr+0x8>
 8007ec2:	bd10      	pop	{r4, pc}

08007ec4 <memcpy>:
 8007ec4:	440a      	add	r2, r1
 8007ec6:	4291      	cmp	r1, r2
 8007ec8:	f100 33ff 	add.w	r3, r0, #4294967295
 8007ecc:	d100      	bne.n	8007ed0 <memcpy+0xc>
 8007ece:	4770      	bx	lr
 8007ed0:	b510      	push	{r4, lr}
 8007ed2:	f811 4b01 	ldrb.w	r4, [r1], #1
 8007ed6:	4291      	cmp	r1, r2
 8007ed8:	f803 4f01 	strb.w	r4, [r3, #1]!
 8007edc:	d1f9      	bne.n	8007ed2 <memcpy+0xe>
 8007ede:	bd10      	pop	{r4, pc}

08007ee0 <memmove>:
 8007ee0:	4288      	cmp	r0, r1
 8007ee2:	b510      	push	{r4, lr}
 8007ee4:	eb01 0402 	add.w	r4, r1, r2
 8007ee8:	d902      	bls.n	8007ef0 <memmove+0x10>
 8007eea:	4284      	cmp	r4, r0
 8007eec:	4623      	mov	r3, r4
 8007eee:	d807      	bhi.n	8007f00 <memmove+0x20>
 8007ef0:	1e43      	subs	r3, r0, #1
 8007ef2:	42a1      	cmp	r1, r4
 8007ef4:	d008      	beq.n	8007f08 <memmove+0x28>
 8007ef6:	f811 2b01 	ldrb.w	r2, [r1], #1
 8007efa:	f803 2f01 	strb.w	r2, [r3, #1]!
 8007efe:	e7f8      	b.n	8007ef2 <memmove+0x12>
 8007f00:	4601      	mov	r1, r0
 8007f02:	4402      	add	r2, r0
 8007f04:	428a      	cmp	r2, r1
 8007f06:	d100      	bne.n	8007f0a <memmove+0x2a>
 8007f08:	bd10      	pop	{r4, pc}
 8007f0a:	f813 4d01 	ldrb.w	r4, [r3, #-1]!
 8007f0e:	f802 4d01 	strb.w	r4, [r2, #-1]!
 8007f12:	e7f7      	b.n	8007f04 <memmove+0x24>

08007f14 <memset>:
 8007f14:	4603      	mov	r3, r0
 8007f16:	4402      	add	r2, r0
 8007f18:	4293      	cmp	r3, r2
 8007f1a:	d100      	bne.n	8007f1e <memset+0xa>
 8007f1c:	4770      	bx	lr
 8007f1e:	f803 1b01 	strb.w	r1, [r3], #1
 8007f22:	e7f9      	b.n	8007f18 <memset+0x4>

08007f24 <_free_r>:
 8007f24:	b538      	push	{r3, r4, r5, lr}
 8007f26:	4605      	mov	r5, r0
 8007f28:	2900      	cmp	r1, #0
 8007f2a:	d040      	beq.n	8007fae <_free_r+0x8a>
 8007f2c:	f851 3c04 	ldr.w	r3, [r1, #-4]
 8007f30:	1f0c      	subs	r4, r1, #4
 8007f32:	2b00      	cmp	r3, #0
 8007f34:	bfb8      	it	lt
 8007f36:	18e4      	addlt	r4, r4, r3
 8007f38:	f001 faec 	bl	8009514 <__malloc_lock>
 8007f3c:	4a1c      	ldr	r2, [pc, #112]	; (8007fb0 <_free_r+0x8c>)
 8007f3e:	6813      	ldr	r3, [r2, #0]
 8007f40:	b933      	cbnz	r3, 8007f50 <_free_r+0x2c>
 8007f42:	6063      	str	r3, [r4, #4]
 8007f44:	6014      	str	r4, [r2, #0]
 8007f46:	4628      	mov	r0, r5
 8007f48:	e8bd 4038 	ldmia.w	sp!, {r3, r4, r5, lr}
 8007f4c:	f001 bae8 	b.w	8009520 <__malloc_unlock>
 8007f50:	42a3      	cmp	r3, r4
 8007f52:	d908      	bls.n	8007f66 <_free_r+0x42>
 8007f54:	6820      	ldr	r0, [r4, #0]
 8007f56:	1821      	adds	r1, r4, r0
 8007f58:	428b      	cmp	r3, r1
 8007f5a:	bf01      	itttt	eq
 8007f5c:	6819      	ldreq	r1, [r3, #0]
 8007f5e:	685b      	ldreq	r3, [r3, #4]
 8007f60:	1809      	addeq	r1, r1, r0
 8007f62:	6021      	streq	r1, [r4, #0]
 8007f64:	e7ed      	b.n	8007f42 <_free_r+0x1e>
 8007f66:	461a      	mov	r2, r3
 8007f68:	685b      	ldr	r3, [r3, #4]
 8007f6a:	b10b      	cbz	r3, 8007f70 <_free_r+0x4c>
 8007f6c:	42a3      	cmp	r3, r4
 8007f6e:	d9fa      	bls.n	8007f66 <_free_r+0x42>
 8007f70:	6811      	ldr	r1, [r2, #0]
 8007f72:	1850      	adds	r0, r2, r1
 8007f74:	42a0      	cmp	r0, r4
 8007f76:	d10b      	bne.n	8007f90 <_free_r+0x6c>
 8007f78:	6820      	ldr	r0, [r4, #0]
 8007f7a:	4401      	add	r1, r0
 8007f7c:	1850      	adds	r0, r2, r1
 8007f7e:	4283      	cmp	r3, r0
 8007f80:	6011      	str	r1, [r2, #0]
 8007f82:	d1e0      	bne.n	8007f46 <_free_r+0x22>
 8007f84:	6818      	ldr	r0, [r3, #0]
 8007f86:	685b      	ldr	r3, [r3, #4]
 8007f88:	4401      	add	r1, r0
 8007f8a:	6011      	str	r1, [r2, #0]
 8007f8c:	6053      	str	r3, [r2, #4]
 8007f8e:	e7da      	b.n	8007f46 <_free_r+0x22>
 8007f90:	d902      	bls.n	8007f98 <_free_r+0x74>
 8007f92:	230c      	movs	r3, #12
 8007f94:	602b      	str	r3, [r5, #0]
 8007f96:	e7d6      	b.n	8007f46 <_free_r+0x22>
 8007f98:	6820      	ldr	r0, [r4, #0]
 8007f9a:	1821      	adds	r1, r4, r0
 8007f9c:	428b      	cmp	r3, r1
 8007f9e:	bf01      	itttt	eq
 8007fa0:	6819      	ldreq	r1, [r3, #0]
 8007fa2:	685b      	ldreq	r3, [r3, #4]
 8007fa4:	1809      	addeq	r1, r1, r0
 8007fa6:	6021      	streq	r1, [r4, #0]
 8007fa8:	6063      	str	r3, [r4, #4]
 8007faa:	6054      	str	r4, [r2, #4]
 8007fac:	e7cb      	b.n	8007f46 <_free_r+0x22>
 8007fae:	bd38      	pop	{r3, r4, r5, pc}
 8007fb0:	200015a8 	.word	0x200015a8

08007fb4 <sbrk_aligned>:
 8007fb4:	b570      	push	{r4, r5, r6, lr}
 8007fb6:	4e0e      	ldr	r6, [pc, #56]	; (8007ff0 <sbrk_aligned+0x3c>)
 8007fb8:	460c      	mov	r4, r1
 8007fba:	6831      	ldr	r1, [r6, #0]
 8007fbc:	4605      	mov	r5, r0
 8007fbe:	b911      	cbnz	r1, 8007fc6 <sbrk_aligned+0x12>
 8007fc0:	f000 f88c 	bl	80080dc <_sbrk_r>
 8007fc4:	6030      	str	r0, [r6, #0]
 8007fc6:	4621      	mov	r1, r4
 8007fc8:	4628      	mov	r0, r5
 8007fca:	f000 f887 	bl	80080dc <_sbrk_r>
 8007fce:	1c43      	adds	r3, r0, #1
 8007fd0:	d00a      	beq.n	8007fe8 <sbrk_aligned+0x34>
 8007fd2:	1cc4      	adds	r4, r0, #3
 8007fd4:	f024 0403 	bic.w	r4, r4, #3
 8007fd8:	42a0      	cmp	r0, r4
 8007fda:	d007      	beq.n	8007fec <sbrk_aligned+0x38>
 8007fdc:	1a21      	subs	r1, r4, r0
 8007fde:	4628      	mov	r0, r5
 8007fe0:	f000 f87c 	bl	80080dc <_sbrk_r>
 8007fe4:	3001      	adds	r0, #1
 8007fe6:	d101      	bne.n	8007fec <sbrk_aligned+0x38>
 8007fe8:	f04f 34ff 	mov.w	r4, #4294967295
 8007fec:	4620      	mov	r0, r4
 8007fee:	bd70      	pop	{r4, r5, r6, pc}
 8007ff0:	200015ac 	.word	0x200015ac

08007ff4 <_malloc_r>:
 8007ff4:	e92d 41f0 	stmdb	sp!, {r4, r5, r6, r7, r8, lr}
 8007ff8:	1ccd      	adds	r5, r1, #3
 8007ffa:	f025 0503 	bic.w	r5, r5, #3
 8007ffe:	3508      	adds	r5, #8
 8008000:	2d0c      	cmp	r5, #12
 8008002:	bf38      	it	cc
 8008004:	250c      	movcc	r5, #12
 8008006:	2d00      	cmp	r5, #0
 8008008:	4607      	mov	r7, r0
 800800a:	db01      	blt.n	8008010 <_malloc_r+0x1c>
 800800c:	42a9      	cmp	r1, r5
 800800e:	d905      	bls.n	800801c <_malloc_r+0x28>
 8008010:	230c      	movs	r3, #12
 8008012:	2600      	movs	r6, #0
 8008014:	603b      	str	r3, [r7, #0]
 8008016:	4630      	mov	r0, r6
 8008018:	e8bd 81f0 	ldmia.w	sp!, {r4, r5, r6, r7, r8, pc}
 800801c:	4e2e      	ldr	r6, [pc, #184]	; (80080d8 <_malloc_r+0xe4>)
 800801e:	f001 fa79 	bl	8009514 <__malloc_lock>
 8008022:	6833      	ldr	r3, [r6, #0]
 8008024:	461c      	mov	r4, r3
 8008026:	bb34      	cbnz	r4, 8008076 <_malloc_r+0x82>
 8008028:	4629      	mov	r1, r5
 800802a:	4638      	mov	r0, r7
 800802c:	f7ff ffc2 	bl	8007fb4 <sbrk_aligned>
 8008030:	1c43      	adds	r3, r0, #1
 8008032:	4604      	mov	r4, r0
 8008034:	d14d      	bne.n	80080d2 <_malloc_r+0xde>
 8008036:	6834      	ldr	r4, [r6, #0]
 8008038:	4626      	mov	r6, r4
 800803a:	2e00      	cmp	r6, #0
 800803c:	d140      	bne.n	80080c0 <_malloc_r+0xcc>
 800803e:	6823      	ldr	r3, [r4, #0]
 8008040:	4631      	mov	r1, r6
 8008042:	4638      	mov	r0, r7
 8008044:	eb04 0803 	add.w	r8, r4, r3
 8008048:	f000 f848 	bl	80080dc <_sbrk_r>
 800804c:	4580      	cmp	r8, r0
 800804e:	d13a      	bne.n	80080c6 <_malloc_r+0xd2>
 8008050:	6821      	ldr	r1, [r4, #0]
 8008052:	3503      	adds	r5, #3
 8008054:	1a6d      	subs	r5, r5, r1
 8008056:	f025 0503 	bic.w	r5, r5, #3
 800805a:	3508      	adds	r5, #8
 800805c:	2d0c      	cmp	r5, #12
 800805e:	bf38      	it	cc
 8008060:	250c      	movcc	r5, #12
 8008062:	4638      	mov	r0, r7
 8008064:	4629      	mov	r1, r5
 8008066:	f7ff ffa5 	bl	8007fb4 <sbrk_aligned>
 800806a:	3001      	adds	r0, #1
 800806c:	d02b      	beq.n	80080c6 <_malloc_r+0xd2>
 800806e:	6823      	ldr	r3, [r4, #0]
 8008070:	442b      	add	r3, r5
 8008072:	6023      	str	r3, [r4, #0]
 8008074:	e00e      	b.n	8008094 <_malloc_r+0xa0>
 8008076:	6822      	ldr	r2, [r4, #0]
 8008078:	1b52      	subs	r2, r2, r5
 800807a:	d41e      	bmi.n	80080ba <_malloc_r+0xc6>
 800807c:	2a0b      	cmp	r2, #11
 800807e:	d916      	bls.n	80080ae <_malloc_r+0xba>
 8008080:	1961      	adds	r1, r4, r5
 8008082:	42a3      	cmp	r3, r4
 8008084:	6025      	str	r5, [r4, #0]
 8008086:	bf18      	it	ne
 8008088:	6059      	strne	r1, [r3, #4]
 800808a:	6863      	ldr	r3, [r4, #4]
 800808c:	bf08      	it	eq
 800808e:	6031      	streq	r1, [r6, #0]
 8008090:	5162      	str	r2, [r4, r5]
 8008092:	604b      	str	r3, [r1, #4]
 8008094:	4638      	mov	r0, r7
 8008096:	f104 060b 	add.w	r6, r4, #11
 800809a:	f001 fa41 	bl	8009520 <__malloc_unlock>
 800809e:	f026 0607 	bic.w	r6, r6, #7
 80080a2:	1d23      	adds	r3, r4, #4
 80080a4:	1af2      	subs	r2, r6, r3
 80080a6:	d0b6      	beq.n	8008016 <_malloc_r+0x22>
 80080a8:	1b9b      	subs	r3, r3, r6
 80080aa:	50a3      	str	r3, [r4, r2]
 80080ac:	e7b3      	b.n	8008016 <_malloc_r+0x22>
 80080ae:	6862      	ldr	r2, [r4, #4]
 80080b0:	42a3      	cmp	r3, r4
 80080b2:	bf0c      	ite	eq
 80080b4:	6032      	streq	r2, [r6, #0]
 80080b6:	605a      	strne	r2, [r3, #4]
 80080b8:	e7ec      	b.n	8008094 <_malloc_r+0xa0>
 80080ba:	4623      	mov	r3, r4
 80080bc:	6864      	ldr	r4, [r4, #4]
 80080be:	e7b2      	b.n	8008026 <_malloc_r+0x32>
 80080c0:	4634      	mov	r4, r6
 80080c2:	6876      	ldr	r6, [r6, #4]
 80080c4:	e7b9      	b.n	800803a <_malloc_r+0x46>
 80080c6:	230c      	movs	r3, #12
 80080c8:	4638      	mov	r0, r7
 80080ca:	603b      	str	r3, [r7, #0]
 80080cc:	f001 fa28 	bl	8009520 <__malloc_unlock>
 80080d0:	e7a1      	b.n	8008016 <_malloc_r+0x22>
 80080d2:	6025      	str	r5, [r4, #0]
 80080d4:	e7de      	b.n	8008094 <_malloc_r+0xa0>
 80080d6:	bf00      	nop
 80080d8:	200015a8 	.word	0x200015a8

080080dc <_sbrk_r>:
 80080dc:	b538      	push	{r3, r4, r5, lr}
 80080de:	2300      	movs	r3, #0
 80080e0:	4d05      	ldr	r5, [pc, #20]	; (80080f8 <_sbrk_r+0x1c>)
 80080e2:	4604      	mov	r4, r0
 80080e4:	4608      	mov	r0, r1
 80080e6:	602b      	str	r3, [r5, #0]
 80080e8:	f7fc fa54 	bl	8004594 <_sbrk>
 80080ec:	1c43      	adds	r3, r0, #1
 80080ee:	d102      	bne.n	80080f6 <_sbrk_r+0x1a>
 80080f0:	682b      	ldr	r3, [r5, #0]
 80080f2:	b103      	cbz	r3, 80080f6 <_sbrk_r+0x1a>
 80080f4:	6023      	str	r3, [r4, #0]
 80080f6:	bd38      	pop	{r3, r4, r5, pc}
 80080f8:	200015b0 	.word	0x200015b0

080080fc <_raise_r>:
 80080fc:	291f      	cmp	r1, #31
 80080fe:	b538      	push	{r3, r4, r5, lr}
 8008100:	4604      	mov	r4, r0
 8008102:	460d      	mov	r5, r1
 8008104:	d904      	bls.n	8008110 <_raise_r+0x14>
 8008106:	2316      	movs	r3, #22
 8008108:	6003      	str	r3, [r0, #0]
 800810a:	f04f 30ff 	mov.w	r0, #4294967295
 800810e:	bd38      	pop	{r3, r4, r5, pc}
 8008110:	6c42      	ldr	r2, [r0, #68]	; 0x44
 8008112:	b112      	cbz	r2, 800811a <_raise_r+0x1e>
 8008114:	f852 3021 	ldr.w	r3, [r2, r1, lsl #2]
 8008118:	b94b      	cbnz	r3, 800812e <_raise_r+0x32>
 800811a:	4620      	mov	r0, r4
 800811c:	f000 f830 	bl	8008180 <_getpid_r>
 8008120:	462a      	mov	r2, r5
 8008122:	4601      	mov	r1, r0
 8008124:	4620      	mov	r0, r4
 8008126:	e8bd 4038 	ldmia.w	sp!, {r3, r4, r5, lr}
 800812a:	f000 b817 	b.w	800815c <_kill_r>
 800812e:	2b01      	cmp	r3, #1
 8008130:	d00a      	beq.n	8008148 <_raise_r+0x4c>
 8008132:	1c59      	adds	r1, r3, #1
 8008134:	d103      	bne.n	800813e <_raise_r+0x42>
 8008136:	2316      	movs	r3, #22
 8008138:	6003      	str	r3, [r0, #0]
 800813a:	2001      	movs	r0, #1
 800813c:	e7e7      	b.n	800810e <_raise_r+0x12>
 800813e:	2400      	movs	r4, #0
 8008140:	4628      	mov	r0, r5
 8008142:	f842 4025 	str.w	r4, [r2, r5, lsl #2]
 8008146:	4798      	blx	r3
 8008148:	2000      	movs	r0, #0
 800814a:	e7e0      	b.n	800810e <_raise_r+0x12>

0800814c <raise>:
 800814c:	4b02      	ldr	r3, [pc, #8]	; (8008158 <raise+0xc>)
 800814e:	4601      	mov	r1, r0
 8008150:	6818      	ldr	r0, [r3, #0]
 8008152:	f7ff bfd3 	b.w	80080fc <_raise_r>
 8008156:	bf00      	nop
 8008158:	2000017c 	.word	0x2000017c

0800815c <_kill_r>:
 800815c:	b538      	push	{r3, r4, r5, lr}
 800815e:	2300      	movs	r3, #0
 8008160:	4d06      	ldr	r5, [pc, #24]	; (800817c <_kill_r+0x20>)
 8008162:	4604      	mov	r4, r0
 8008164:	4608      	mov	r0, r1
 8008166:	4611      	mov	r1, r2
 8008168:	602b      	str	r3, [r5, #0]
 800816a:	f7fc f9dd 	bl	8004528 <_kill>
 800816e:	1c43      	adds	r3, r0, #1
 8008170:	d102      	bne.n	8008178 <_kill_r+0x1c>
 8008172:	682b      	ldr	r3, [r5, #0]
 8008174:	b103      	cbz	r3, 8008178 <_kill_r+0x1c>
 8008176:	6023      	str	r3, [r4, #0]
 8008178:	bd38      	pop	{r3, r4, r5, pc}
 800817a:	bf00      	nop
 800817c:	200015b0 	.word	0x200015b0

08008180 <_getpid_r>:
 8008180:	f7fc b9d0 	b.w	8004524 <_getpid>

08008184 <sulp>:
 8008184:	e92d 41f0 	stmdb	sp!, {r4, r5, r6, r7, r8, lr}
 8008188:	460f      	mov	r7, r1
 800818a:	4690      	mov	r8, r2
 800818c:	f001 fd3e 	bl	8009c0c <__ulp>
 8008190:	4604      	mov	r4, r0
 8008192:	460d      	mov	r5, r1
 8008194:	f1b8 0f00 	cmp.w	r8, #0
 8008198:	d011      	beq.n	80081be <sulp+0x3a>
 800819a:	f3c7 530a 	ubfx	r3, r7, #20, #11
 800819e:	f1c3 036b 	rsb	r3, r3, #107	; 0x6b
 80081a2:	2b00      	cmp	r3, #0
 80081a4:	dd0b      	ble.n	80081be <sulp+0x3a>
 80081a6:	2400      	movs	r4, #0
 80081a8:	051b      	lsls	r3, r3, #20
 80081aa:	f103 557f 	add.w	r5, r3, #1069547520	; 0x3fc00000
 80081ae:	f505 1540 	add.w	r5, r5, #3145728	; 0x300000
 80081b2:	4622      	mov	r2, r4
 80081b4:	462b      	mov	r3, r5
 80081b6:	f7f8 f98f 	bl	80004d8 <__aeabi_dmul>
 80081ba:	4604      	mov	r4, r0
 80081bc:	460d      	mov	r5, r1
 80081be:	4620      	mov	r0, r4
 80081c0:	4629      	mov	r1, r5
 80081c2:	e8bd 81f0 	ldmia.w	sp!, {r4, r5, r6, r7, r8, pc}
	...

080081c8 <_strtod_l>:
 80081c8:	e92d 4ff0 	stmdb	sp!, {r4, r5, r6, r7, r8, r9, sl, fp, lr}
 80081cc:	469b      	mov	fp, r3
 80081ce:	2300      	movs	r3, #0
 80081d0:	b09f      	sub	sp, #124	; 0x7c
 80081d2:	931a      	str	r3, [sp, #104]	; 0x68
 80081d4:	4b9e      	ldr	r3, [pc, #632]	; (8008450 <_strtod_l+0x288>)
 80081d6:	4682      	mov	sl, r0
 80081d8:	681f      	ldr	r7, [r3, #0]
 80081da:	460e      	mov	r6, r1
 80081dc:	4638      	mov	r0, r7
 80081de:	9215      	str	r2, [sp, #84]	; 0x54
 80081e0:	f7f7 ffb6 	bl	8000150 <strlen>
 80081e4:	f04f 0800 	mov.w	r8, #0
 80081e8:	4604      	mov	r4, r0
 80081ea:	f04f 0900 	mov.w	r9, #0
 80081ee:	9619      	str	r6, [sp, #100]	; 0x64
 80081f0:	9b19      	ldr	r3, [sp, #100]	; 0x64
 80081f2:	781a      	ldrb	r2, [r3, #0]
 80081f4:	2a2b      	cmp	r2, #43	; 0x2b
 80081f6:	d04c      	beq.n	8008292 <_strtod_l+0xca>
 80081f8:	d83a      	bhi.n	8008270 <_strtod_l+0xa8>
 80081fa:	2a0d      	cmp	r2, #13
 80081fc:	d833      	bhi.n	8008266 <_strtod_l+0x9e>
 80081fe:	2a08      	cmp	r2, #8
 8008200:	d833      	bhi.n	800826a <_strtod_l+0xa2>
 8008202:	2a00      	cmp	r2, #0
 8008204:	d03d      	beq.n	8008282 <_strtod_l+0xba>
 8008206:	2300      	movs	r3, #0
 8008208:	930a      	str	r3, [sp, #40]	; 0x28
 800820a:	9d19      	ldr	r5, [sp, #100]	; 0x64
 800820c:	782b      	ldrb	r3, [r5, #0]
 800820e:	2b30      	cmp	r3, #48	; 0x30
 8008210:	f040 80aa 	bne.w	8008368 <_strtod_l+0x1a0>
 8008214:	786b      	ldrb	r3, [r5, #1]
 8008216:	f003 03df 	and.w	r3, r3, #223	; 0xdf
 800821a:	2b58      	cmp	r3, #88	; 0x58
 800821c:	d166      	bne.n	80082ec <_strtod_l+0x124>
 800821e:	9b0a      	ldr	r3, [sp, #40]	; 0x28
 8008220:	4650      	mov	r0, sl
 8008222:	9301      	str	r3, [sp, #4]
 8008224:	ab1a      	add	r3, sp, #104	; 0x68
 8008226:	9300      	str	r3, [sp, #0]
 8008228:	4a8a      	ldr	r2, [pc, #552]	; (8008454 <_strtod_l+0x28c>)
 800822a:	f8cd b008 	str.w	fp, [sp, #8]
 800822e:	ab1b      	add	r3, sp, #108	; 0x6c
 8008230:	a919      	add	r1, sp, #100	; 0x64
 8008232:	f000 fe5f 	bl	8008ef4 <__gethex>
 8008236:	f010 0607 	ands.w	r6, r0, #7
 800823a:	4604      	mov	r4, r0
 800823c:	d005      	beq.n	800824a <_strtod_l+0x82>
 800823e:	2e06      	cmp	r6, #6
 8008240:	d129      	bne.n	8008296 <_strtod_l+0xce>
 8008242:	2300      	movs	r3, #0
 8008244:	3501      	adds	r5, #1
 8008246:	9519      	str	r5, [sp, #100]	; 0x64
 8008248:	930a      	str	r3, [sp, #40]	; 0x28
 800824a:	9b15      	ldr	r3, [sp, #84]	; 0x54
 800824c:	2b00      	cmp	r3, #0
 800824e:	f040 858a 	bne.w	8008d66 <_strtod_l+0xb9e>
 8008252:	9b0a      	ldr	r3, [sp, #40]	; 0x28
 8008254:	b1d3      	cbz	r3, 800828c <_strtod_l+0xc4>
 8008256:	4642      	mov	r2, r8
 8008258:	f109 4300 	add.w	r3, r9, #2147483648	; 0x80000000
 800825c:	4610      	mov	r0, r2
 800825e:	4619      	mov	r1, r3
 8008260:	b01f      	add	sp, #124	; 0x7c
 8008262:	e8bd 8ff0 	ldmia.w	sp!, {r4, r5, r6, r7, r8, r9, sl, fp, pc}
 8008266:	2a20      	cmp	r2, #32
 8008268:	d1cd      	bne.n	8008206 <_strtod_l+0x3e>
 800826a:	3301      	adds	r3, #1
 800826c:	9319      	str	r3, [sp, #100]	; 0x64
 800826e:	e7bf      	b.n	80081f0 <_strtod_l+0x28>
 8008270:	2a2d      	cmp	r2, #45	; 0x2d
 8008272:	d1c8      	bne.n	8008206 <_strtod_l+0x3e>
 8008274:	2201      	movs	r2, #1
 8008276:	920a      	str	r2, [sp, #40]	; 0x28
 8008278:	1c5a      	adds	r2, r3, #1
 800827a:	9219      	str	r2, [sp, #100]	; 0x64
 800827c:	785b      	ldrb	r3, [r3, #1]
 800827e:	2b00      	cmp	r3, #0
 8008280:	d1c3      	bne.n	800820a <_strtod_l+0x42>
 8008282:	9b15      	ldr	r3, [sp, #84]	; 0x54
 8008284:	9619      	str	r6, [sp, #100]	; 0x64
 8008286:	2b00      	cmp	r3, #0
 8008288:	f040 856b 	bne.w	8008d62 <_strtod_l+0xb9a>
 800828c:	4642      	mov	r2, r8
 800828e:	464b      	mov	r3, r9
 8008290:	e7e4      	b.n	800825c <_strtod_l+0x94>
 8008292:	2200      	movs	r2, #0
 8008294:	e7ef      	b.n	8008276 <_strtod_l+0xae>
 8008296:	9a1a      	ldr	r2, [sp, #104]	; 0x68
 8008298:	b13a      	cbz	r2, 80082aa <_strtod_l+0xe2>
 800829a:	2135      	movs	r1, #53	; 0x35
 800829c:	a81c      	add	r0, sp, #112	; 0x70
 800829e:	f001 fdb9 	bl	8009e14 <__copybits>
 80082a2:	4650      	mov	r0, sl
 80082a4:	991a      	ldr	r1, [sp, #104]	; 0x68
 80082a6:	f001 f981 	bl	80095ac <_Bfree>
 80082aa:	3e01      	subs	r6, #1
 80082ac:	2e04      	cmp	r6, #4
 80082ae:	d806      	bhi.n	80082be <_strtod_l+0xf6>
 80082b0:	e8df f006 	tbb	[pc, r6]
 80082b4:	1714030a 	.word	0x1714030a
 80082b8:	0a          	.byte	0x0a
 80082b9:	00          	.byte	0x00
 80082ba:	e9dd 891c 	ldrd	r8, r9, [sp, #112]	; 0x70
 80082be:	0721      	lsls	r1, r4, #28
 80082c0:	d5c3      	bpl.n	800824a <_strtod_l+0x82>
 80082c2:	f049 4900 	orr.w	r9, r9, #2147483648	; 0x80000000
 80082c6:	e7c0      	b.n	800824a <_strtod_l+0x82>
 80082c8:	9a1b      	ldr	r2, [sp, #108]	; 0x6c
 80082ca:	e9dd 831c 	ldrd	r8, r3, [sp, #112]	; 0x70
 80082ce:	f202 4233 	addw	r2, r2, #1075	; 0x433
 80082d2:	f423 1380 	bic.w	r3, r3, #1048576	; 0x100000
 80082d6:	ea43 5902 	orr.w	r9, r3, r2, lsl #20
 80082da:	e7f0      	b.n	80082be <_strtod_l+0xf6>
 80082dc:	f8df 9178 	ldr.w	r9, [pc, #376]	; 8008458 <_strtod_l+0x290>
 80082e0:	e7ed      	b.n	80082be <_strtod_l+0xf6>
 80082e2:	f06f 4900 	mvn.w	r9, #2147483648	; 0x80000000
 80082e6:	f04f 38ff 	mov.w	r8, #4294967295
 80082ea:	e7e8      	b.n	80082be <_strtod_l+0xf6>
 80082ec:	9b19      	ldr	r3, [sp, #100]	; 0x64
 80082ee:	1c5a      	adds	r2, r3, #1
 80082f0:	9219      	str	r2, [sp, #100]	; 0x64
 80082f2:	785b      	ldrb	r3, [r3, #1]
 80082f4:	2b30      	cmp	r3, #48	; 0x30
 80082f6:	d0f9      	beq.n	80082ec <_strtod_l+0x124>
 80082f8:	2b00      	cmp	r3, #0
 80082fa:	d0a6      	beq.n	800824a <_strtod_l+0x82>
 80082fc:	2301      	movs	r3, #1
 80082fe:	9307      	str	r3, [sp, #28]
 8008300:	9b19      	ldr	r3, [sp, #100]	; 0x64
 8008302:	220a      	movs	r2, #10
 8008304:	9308      	str	r3, [sp, #32]
 8008306:	2300      	movs	r3, #0
 8008308:	469b      	mov	fp, r3
 800830a:	e9cd 3305 	strd	r3, r3, [sp, #20]
 800830e:	9819      	ldr	r0, [sp, #100]	; 0x64
 8008310:	7805      	ldrb	r5, [r0, #0]
 8008312:	f1a5 0330 	sub.w	r3, r5, #48	; 0x30
 8008316:	b2d9      	uxtb	r1, r3
 8008318:	2909      	cmp	r1, #9
 800831a:	d927      	bls.n	800836c <_strtod_l+0x1a4>
 800831c:	4622      	mov	r2, r4
 800831e:	4639      	mov	r1, r7
 8008320:	f002 f8c8 	bl	800a4b4 <strncmp>
 8008324:	2800      	cmp	r0, #0
 8008326:	d033      	beq.n	8008390 <_strtod_l+0x1c8>
 8008328:	2000      	movs	r0, #0
 800832a:	462a      	mov	r2, r5
 800832c:	465c      	mov	r4, fp
 800832e:	4603      	mov	r3, r0
 8008330:	9004      	str	r0, [sp, #16]
 8008332:	2a65      	cmp	r2, #101	; 0x65
 8008334:	d001      	beq.n	800833a <_strtod_l+0x172>
 8008336:	2a45      	cmp	r2, #69	; 0x45
 8008338:	d114      	bne.n	8008364 <_strtod_l+0x19c>
 800833a:	b91c      	cbnz	r4, 8008344 <_strtod_l+0x17c>
 800833c:	9a07      	ldr	r2, [sp, #28]
 800833e:	4302      	orrs	r2, r0
 8008340:	d09f      	beq.n	8008282 <_strtod_l+0xba>
 8008342:	2400      	movs	r4, #0
 8008344:	9e19      	ldr	r6, [sp, #100]	; 0x64
 8008346:	1c72      	adds	r2, r6, #1
 8008348:	9219      	str	r2, [sp, #100]	; 0x64
 800834a:	7872      	ldrb	r2, [r6, #1]
 800834c:	2a2b      	cmp	r2, #43	; 0x2b
 800834e:	d079      	beq.n	8008444 <_strtod_l+0x27c>
 8008350:	2a2d      	cmp	r2, #45	; 0x2d
 8008352:	f000 8083 	beq.w	800845c <_strtod_l+0x294>
 8008356:	2700      	movs	r7, #0
 8008358:	f1a2 0130 	sub.w	r1, r2, #48	; 0x30
 800835c:	2909      	cmp	r1, #9
 800835e:	f240 8083 	bls.w	8008468 <_strtod_l+0x2a0>
 8008362:	9619      	str	r6, [sp, #100]	; 0x64
 8008364:	2500      	movs	r5, #0
 8008366:	e09f      	b.n	80084a8 <_strtod_l+0x2e0>
 8008368:	2300      	movs	r3, #0
 800836a:	e7c8      	b.n	80082fe <_strtod_l+0x136>
 800836c:	f1bb 0f08 	cmp.w	fp, #8
 8008370:	bfd5      	itete	le
 8008372:	9906      	ldrle	r1, [sp, #24]
 8008374:	9905      	ldrgt	r1, [sp, #20]
 8008376:	fb02 3301 	mlale	r3, r2, r1, r3
 800837a:	fb02 3301 	mlagt	r3, r2, r1, r3
 800837e:	f100 0001 	add.w	r0, r0, #1
 8008382:	bfd4      	ite	le
 8008384:	9306      	strle	r3, [sp, #24]
 8008386:	9305      	strgt	r3, [sp, #20]
 8008388:	f10b 0b01 	add.w	fp, fp, #1
 800838c:	9019      	str	r0, [sp, #100]	; 0x64
 800838e:	e7be      	b.n	800830e <_strtod_l+0x146>
 8008390:	9b19      	ldr	r3, [sp, #100]	; 0x64
 8008392:	191a      	adds	r2, r3, r4
 8008394:	9219      	str	r2, [sp, #100]	; 0x64
 8008396:	5d1a      	ldrb	r2, [r3, r4]
 8008398:	f1bb 0f00 	cmp.w	fp, #0
 800839c:	d036      	beq.n	800840c <_strtod_l+0x244>
 800839e:	465c      	mov	r4, fp
 80083a0:	9004      	str	r0, [sp, #16]
 80083a2:	f1a2 0330 	sub.w	r3, r2, #48	; 0x30
 80083a6:	2b09      	cmp	r3, #9
 80083a8:	d912      	bls.n	80083d0 <_strtod_l+0x208>
 80083aa:	2301      	movs	r3, #1
 80083ac:	e7c1      	b.n	8008332 <_strtod_l+0x16a>
 80083ae:	9b19      	ldr	r3, [sp, #100]	; 0x64
 80083b0:	3001      	adds	r0, #1
 80083b2:	1c5a      	adds	r2, r3, #1
 80083b4:	9219      	str	r2, [sp, #100]	; 0x64
 80083b6:	785a      	ldrb	r2, [r3, #1]
 80083b8:	2a30      	cmp	r2, #48	; 0x30
 80083ba:	d0f8      	beq.n	80083ae <_strtod_l+0x1e6>
 80083bc:	f1a2 0331 	sub.w	r3, r2, #49	; 0x31
 80083c0:	2b08      	cmp	r3, #8
 80083c2:	f200 84d5 	bhi.w	8008d70 <_strtod_l+0xba8>
 80083c6:	9004      	str	r0, [sp, #16]
 80083c8:	2000      	movs	r0, #0
 80083ca:	4604      	mov	r4, r0
 80083cc:	9b19      	ldr	r3, [sp, #100]	; 0x64
 80083ce:	9308      	str	r3, [sp, #32]
 80083d0:	3a30      	subs	r2, #48	; 0x30
 80083d2:	f100 0301 	add.w	r3, r0, #1
 80083d6:	d013      	beq.n	8008400 <_strtod_l+0x238>
 80083d8:	9904      	ldr	r1, [sp, #16]
 80083da:	1905      	adds	r5, r0, r4
 80083dc:	4419      	add	r1, r3
 80083de:	9104      	str	r1, [sp, #16]
 80083e0:	4623      	mov	r3, r4
 80083e2:	210a      	movs	r1, #10
 80083e4:	42ab      	cmp	r3, r5
 80083e6:	d113      	bne.n	8008410 <_strtod_l+0x248>
 80083e8:	1823      	adds	r3, r4, r0
 80083ea:	2b08      	cmp	r3, #8
 80083ec:	f104 0401 	add.w	r4, r4, #1
 80083f0:	4404      	add	r4, r0
 80083f2:	dc1b      	bgt.n	800842c <_strtod_l+0x264>
 80083f4:	230a      	movs	r3, #10
 80083f6:	9906      	ldr	r1, [sp, #24]
 80083f8:	fb03 2301 	mla	r3, r3, r1, r2
 80083fc:	9306      	str	r3, [sp, #24]
 80083fe:	2300      	movs	r3, #0
 8008400:	9a19      	ldr	r2, [sp, #100]	; 0x64
 8008402:	4618      	mov	r0, r3
 8008404:	1c51      	adds	r1, r2, #1
 8008406:	9119      	str	r1, [sp, #100]	; 0x64
 8008408:	7852      	ldrb	r2, [r2, #1]
 800840a:	e7ca      	b.n	80083a2 <_strtod_l+0x1da>
 800840c:	4658      	mov	r0, fp
 800840e:	e7d3      	b.n	80083b8 <_strtod_l+0x1f0>
 8008410:	2b08      	cmp	r3, #8
 8008412:	dc04      	bgt.n	800841e <_strtod_l+0x256>
 8008414:	9f06      	ldr	r7, [sp, #24]
 8008416:	434f      	muls	r7, r1
 8008418:	9706      	str	r7, [sp, #24]
 800841a:	3301      	adds	r3, #1
 800841c:	e7e2      	b.n	80083e4 <_strtod_l+0x21c>
 800841e:	1c5f      	adds	r7, r3, #1
 8008420:	2f10      	cmp	r7, #16
 8008422:	bfde      	ittt	le
 8008424:	9f05      	ldrle	r7, [sp, #20]
 8008426:	434f      	mulle	r7, r1
 8008428:	9705      	strle	r7, [sp, #20]
 800842a:	e7f6      	b.n	800841a <_strtod_l+0x252>
 800842c:	2c10      	cmp	r4, #16
 800842e:	bfdf      	itttt	le
 8008430:	230a      	movle	r3, #10
 8008432:	9905      	ldrle	r1, [sp, #20]
 8008434:	fb03 2301 	mlale	r3, r3, r1, r2
 8008438:	9305      	strle	r3, [sp, #20]
 800843a:	e7e0      	b.n	80083fe <_strtod_l+0x236>
 800843c:	2300      	movs	r3, #0
 800843e:	9304      	str	r3, [sp, #16]
 8008440:	2301      	movs	r3, #1
 8008442:	e77b      	b.n	800833c <_strtod_l+0x174>
 8008444:	2700      	movs	r7, #0
 8008446:	1cb2      	adds	r2, r6, #2
 8008448:	9219      	str	r2, [sp, #100]	; 0x64
 800844a:	78b2      	ldrb	r2, [r6, #2]
 800844c:	e784      	b.n	8008358 <_strtod_l+0x190>
 800844e:	bf00      	nop
 8008450:	0800b280 	.word	0x0800b280
 8008454:	0800b1b8 	.word	0x0800b1b8
 8008458:	7ff00000 	.word	0x7ff00000
 800845c:	2701      	movs	r7, #1
 800845e:	e7f2      	b.n	8008446 <_strtod_l+0x27e>
 8008460:	9a19      	ldr	r2, [sp, #100]	; 0x64
 8008462:	1c51      	adds	r1, r2, #1
 8008464:	9119      	str	r1, [sp, #100]	; 0x64
 8008466:	7852      	ldrb	r2, [r2, #1]
 8008468:	2a30      	cmp	r2, #48	; 0x30
 800846a:	d0f9      	beq.n	8008460 <_strtod_l+0x298>
 800846c:	f1a2 0131 	sub.w	r1, r2, #49	; 0x31
 8008470:	2908      	cmp	r1, #8
 8008472:	f63f af77 	bhi.w	8008364 <_strtod_l+0x19c>
 8008476:	f04f 0e0a 	mov.w	lr, #10
 800847a:	f1a2 0c30 	sub.w	ip, r2, #48	; 0x30
 800847e:	9a19      	ldr	r2, [sp, #100]	; 0x64
 8008480:	9209      	str	r2, [sp, #36]	; 0x24
 8008482:	9a19      	ldr	r2, [sp, #100]	; 0x64
 8008484:	1c51      	adds	r1, r2, #1
 8008486:	9119      	str	r1, [sp, #100]	; 0x64
 8008488:	7852      	ldrb	r2, [r2, #1]
 800848a:	f1a2 0530 	sub.w	r5, r2, #48	; 0x30
 800848e:	2d09      	cmp	r5, #9
 8008490:	d935      	bls.n	80084fe <_strtod_l+0x336>
 8008492:	9d09      	ldr	r5, [sp, #36]	; 0x24
 8008494:	1b49      	subs	r1, r1, r5
 8008496:	2908      	cmp	r1, #8
 8008498:	f644 651f 	movw	r5, #19999	; 0x4e1f
 800849c:	dc02      	bgt.n	80084a4 <_strtod_l+0x2dc>
 800849e:	4565      	cmp	r5, ip
 80084a0:	bfa8      	it	ge
 80084a2:	4665      	movge	r5, ip
 80084a4:	b107      	cbz	r7, 80084a8 <_strtod_l+0x2e0>
 80084a6:	426d      	negs	r5, r5
 80084a8:	2c00      	cmp	r4, #0
 80084aa:	d14c      	bne.n	8008546 <_strtod_l+0x37e>
 80084ac:	9907      	ldr	r1, [sp, #28]
 80084ae:	4301      	orrs	r1, r0
 80084b0:	f47f aecb 	bne.w	800824a <_strtod_l+0x82>
 80084b4:	2b00      	cmp	r3, #0
 80084b6:	f47f aee4 	bne.w	8008282 <_strtod_l+0xba>
 80084ba:	2a69      	cmp	r2, #105	; 0x69
 80084bc:	d026      	beq.n	800850c <_strtod_l+0x344>
 80084be:	dc23      	bgt.n	8008508 <_strtod_l+0x340>
 80084c0:	2a49      	cmp	r2, #73	; 0x49
 80084c2:	d023      	beq.n	800850c <_strtod_l+0x344>
 80084c4:	2a4e      	cmp	r2, #78	; 0x4e
 80084c6:	f47f aedc 	bne.w	8008282 <_strtod_l+0xba>
 80084ca:	499d      	ldr	r1, [pc, #628]	; (8008740 <_strtod_l+0x578>)
 80084cc:	a819      	add	r0, sp, #100	; 0x64
 80084ce:	f000 ff5f 	bl	8009390 <__match>
 80084d2:	2800      	cmp	r0, #0
 80084d4:	f43f aed5 	beq.w	8008282 <_strtod_l+0xba>
 80084d8:	9b19      	ldr	r3, [sp, #100]	; 0x64
 80084da:	781b      	ldrb	r3, [r3, #0]
 80084dc:	2b28      	cmp	r3, #40	; 0x28
 80084de:	d12c      	bne.n	800853a <_strtod_l+0x372>
 80084e0:	4998      	ldr	r1, [pc, #608]	; (8008744 <_strtod_l+0x57c>)
 80084e2:	aa1c      	add	r2, sp, #112	; 0x70
 80084e4:	a819      	add	r0, sp, #100	; 0x64
 80084e6:	f000 ff67 	bl	80093b8 <__hexnan>
 80084ea:	2805      	cmp	r0, #5
 80084ec:	d125      	bne.n	800853a <_strtod_l+0x372>
 80084ee:	9b1d      	ldr	r3, [sp, #116]	; 0x74
 80084f0:	f8dd 8070 	ldr.w	r8, [sp, #112]	; 0x70
 80084f4:	f043 49ff 	orr.w	r9, r3, #2139095040	; 0x7f800000
 80084f8:	f449 09e0 	orr.w	r9, r9, #7340032	; 0x700000
 80084fc:	e6a5      	b.n	800824a <_strtod_l+0x82>
 80084fe:	fb0e 2c0c 	mla	ip, lr, ip, r2
 8008502:	f1ac 0c30 	sub.w	ip, ip, #48	; 0x30
 8008506:	e7bc      	b.n	8008482 <_strtod_l+0x2ba>
 8008508:	2a6e      	cmp	r2, #110	; 0x6e
 800850a:	e7dc      	b.n	80084c6 <_strtod_l+0x2fe>
 800850c:	498e      	ldr	r1, [pc, #568]	; (8008748 <_strtod_l+0x580>)
 800850e:	a819      	add	r0, sp, #100	; 0x64
 8008510:	f000 ff3e 	bl	8009390 <__match>
 8008514:	2800      	cmp	r0, #0
 8008516:	f43f aeb4 	beq.w	8008282 <_strtod_l+0xba>
 800851a:	9b19      	ldr	r3, [sp, #100]	; 0x64
 800851c:	498b      	ldr	r1, [pc, #556]	; (800874c <_strtod_l+0x584>)
 800851e:	3b01      	subs	r3, #1
 8008520:	a819      	add	r0, sp, #100	; 0x64
 8008522:	9319      	str	r3, [sp, #100]	; 0x64
 8008524:	f000 ff34 	bl	8009390 <__match>
 8008528:	b910      	cbnz	r0, 8008530 <_strtod_l+0x368>
 800852a:	9b19      	ldr	r3, [sp, #100]	; 0x64
 800852c:	3301      	adds	r3, #1
 800852e:	9319      	str	r3, [sp, #100]	; 0x64
 8008530:	f04f 0800 	mov.w	r8, #0
 8008534:	f8df 9218 	ldr.w	r9, [pc, #536]	; 8008750 <_strtod_l+0x588>
 8008538:	e687      	b.n	800824a <_strtod_l+0x82>
 800853a:	4886      	ldr	r0, [pc, #536]	; (8008754 <_strtod_l+0x58c>)
 800853c:	f001 ffb4 	bl	800a4a8 <nan>
 8008540:	4680      	mov	r8, r0
 8008542:	4689      	mov	r9, r1
 8008544:	e681      	b.n	800824a <_strtod_l+0x82>
 8008546:	9b04      	ldr	r3, [sp, #16]
 8008548:	f1bb 0f00 	cmp.w	fp, #0
 800854c:	bf08      	it	eq
 800854e:	46a3      	moveq	fp, r4
 8008550:	1aeb      	subs	r3, r5, r3
 8008552:	2c10      	cmp	r4, #16
 8008554:	9806      	ldr	r0, [sp, #24]
 8008556:	4626      	mov	r6, r4
 8008558:	9307      	str	r3, [sp, #28]
 800855a:	bfa8      	it	ge
 800855c:	2610      	movge	r6, #16
 800855e:	f7f7 ff41 	bl	80003e4 <__aeabi_ui2d>
 8008562:	2c09      	cmp	r4, #9
 8008564:	4680      	mov	r8, r0
 8008566:	4689      	mov	r9, r1
 8008568:	dd13      	ble.n	8008592 <_strtod_l+0x3ca>
 800856a:	4b7b      	ldr	r3, [pc, #492]	; (8008758 <_strtod_l+0x590>)
 800856c:	eb03 03c6 	add.w	r3, r3, r6, lsl #3
 8008570:	e953 2312 	ldrd	r2, r3, [r3, #-72]	; 0x48
 8008574:	f7f7 ffb0 	bl	80004d8 <__aeabi_dmul>
 8008578:	4680      	mov	r8, r0
 800857a:	9805      	ldr	r0, [sp, #20]
 800857c:	4689      	mov	r9, r1
 800857e:	f7f7 ff31 	bl	80003e4 <__aeabi_ui2d>
 8008582:	4602      	mov	r2, r0
 8008584:	460b      	mov	r3, r1
 8008586:	4640      	mov	r0, r8
 8008588:	4649      	mov	r1, r9
 800858a:	f7f7 fdef 	bl	800016c <__adddf3>
 800858e:	4680      	mov	r8, r0
 8008590:	4689      	mov	r9, r1
 8008592:	2c0f      	cmp	r4, #15
 8008594:	dc36      	bgt.n	8008604 <_strtod_l+0x43c>
 8008596:	9b07      	ldr	r3, [sp, #28]
 8008598:	2b00      	cmp	r3, #0
 800859a:	f43f ae56 	beq.w	800824a <_strtod_l+0x82>
 800859e:	dd22      	ble.n	80085e6 <_strtod_l+0x41e>
 80085a0:	2b16      	cmp	r3, #22
 80085a2:	dc09      	bgt.n	80085b8 <_strtod_l+0x3f0>
 80085a4:	496c      	ldr	r1, [pc, #432]	; (8008758 <_strtod_l+0x590>)
 80085a6:	4642      	mov	r2, r8
 80085a8:	eb01 01c3 	add.w	r1, r1, r3, lsl #3
 80085ac:	464b      	mov	r3, r9
 80085ae:	e9d1 0100 	ldrd	r0, r1, [r1]
 80085b2:	f7f7 ff91 	bl	80004d8 <__aeabi_dmul>
 80085b6:	e7c3      	b.n	8008540 <_strtod_l+0x378>
 80085b8:	9a07      	ldr	r2, [sp, #28]
 80085ba:	f1c4 0325 	rsb	r3, r4, #37	; 0x25
 80085be:	4293      	cmp	r3, r2
 80085c0:	db20      	blt.n	8008604 <_strtod_l+0x43c>
 80085c2:	4d65      	ldr	r5, [pc, #404]	; (8008758 <_strtod_l+0x590>)
 80085c4:	f1c4 040f 	rsb	r4, r4, #15
 80085c8:	eb05 01c4 	add.w	r1, r5, r4, lsl #3
 80085cc:	4642      	mov	r2, r8
 80085ce:	e9d1 0100 	ldrd	r0, r1, [r1]
 80085d2:	464b      	mov	r3, r9
 80085d4:	f7f7 ff80 	bl	80004d8 <__aeabi_dmul>
 80085d8:	9b07      	ldr	r3, [sp, #28]
 80085da:	1b1c      	subs	r4, r3, r4
 80085dc:	eb05 05c4 	add.w	r5, r5, r4, lsl #3
 80085e0:	e9d5 2300 	ldrd	r2, r3, [r5]
 80085e4:	e7e5      	b.n	80085b2 <_strtod_l+0x3ea>
 80085e6:	9b07      	ldr	r3, [sp, #28]
 80085e8:	3316      	adds	r3, #22
 80085ea:	db0b      	blt.n	8008604 <_strtod_l+0x43c>
 80085ec:	9b04      	ldr	r3, [sp, #16]
 80085ee:	4640      	mov	r0, r8
 80085f0:	1b5d      	subs	r5, r3, r5
 80085f2:	4b59      	ldr	r3, [pc, #356]	; (8008758 <_strtod_l+0x590>)
 80085f4:	4649      	mov	r1, r9
 80085f6:	eb03 05c5 	add.w	r5, r3, r5, lsl #3
 80085fa:	e9d5 2300 	ldrd	r2, r3, [r5]
 80085fe:	f7f8 f895 	bl	800072c <__aeabi_ddiv>
 8008602:	e79d      	b.n	8008540 <_strtod_l+0x378>
 8008604:	9b07      	ldr	r3, [sp, #28]
 8008606:	1ba6      	subs	r6, r4, r6
 8008608:	441e      	add	r6, r3
 800860a:	2e00      	cmp	r6, #0
 800860c:	dd74      	ble.n	80086f8 <_strtod_l+0x530>
 800860e:	f016 030f 	ands.w	r3, r6, #15
 8008612:	d00a      	beq.n	800862a <_strtod_l+0x462>
 8008614:	4950      	ldr	r1, [pc, #320]	; (8008758 <_strtod_l+0x590>)
 8008616:	4642      	mov	r2, r8
 8008618:	eb01 01c3 	add.w	r1, r1, r3, lsl #3
 800861c:	e9d1 0100 	ldrd	r0, r1, [r1]
 8008620:	464b      	mov	r3, r9
 8008622:	f7f7 ff59 	bl	80004d8 <__aeabi_dmul>
 8008626:	4680      	mov	r8, r0
 8008628:	4689      	mov	r9, r1
 800862a:	f036 060f 	bics.w	r6, r6, #15
 800862e:	d052      	beq.n	80086d6 <_strtod_l+0x50e>
 8008630:	f5b6 7f9a 	cmp.w	r6, #308	; 0x134
 8008634:	dd27      	ble.n	8008686 <_strtod_l+0x4be>
 8008636:	f04f 0b00 	mov.w	fp, #0
 800863a:	f8cd b010 	str.w	fp, [sp, #16]
 800863e:	f8cd b020 	str.w	fp, [sp, #32]
 8008642:	f8cd b018 	str.w	fp, [sp, #24]
 8008646:	2322      	movs	r3, #34	; 0x22
 8008648:	f04f 0800 	mov.w	r8, #0
 800864c:	f8df 9100 	ldr.w	r9, [pc, #256]	; 8008750 <_strtod_l+0x588>
 8008650:	f8ca 3000 	str.w	r3, [sl]
 8008654:	9b08      	ldr	r3, [sp, #32]
 8008656:	2b00      	cmp	r3, #0
 8008658:	f43f adf7 	beq.w	800824a <_strtod_l+0x82>
 800865c:	4650      	mov	r0, sl
 800865e:	991a      	ldr	r1, [sp, #104]	; 0x68
 8008660:	f000 ffa4 	bl	80095ac <_Bfree>
 8008664:	4650      	mov	r0, sl
 8008666:	9906      	ldr	r1, [sp, #24]
 8008668:	f000 ffa0 	bl	80095ac <_Bfree>
 800866c:	4650      	mov	r0, sl
 800866e:	9904      	ldr	r1, [sp, #16]
 8008670:	f000 ff9c 	bl	80095ac <_Bfree>
 8008674:	4650      	mov	r0, sl
 8008676:	9908      	ldr	r1, [sp, #32]
 8008678:	f000 ff98 	bl	80095ac <_Bfree>
 800867c:	4659      	mov	r1, fp
 800867e:	4650      	mov	r0, sl
 8008680:	f000 ff94 	bl	80095ac <_Bfree>
 8008684:	e5e1      	b.n	800824a <_strtod_l+0x82>
 8008686:	4b35      	ldr	r3, [pc, #212]	; (800875c <_strtod_l+0x594>)
 8008688:	4640      	mov	r0, r8
 800868a:	9305      	str	r3, [sp, #20]
 800868c:	2300      	movs	r3, #0
 800868e:	4649      	mov	r1, r9
 8008690:	461f      	mov	r7, r3
 8008692:	1136      	asrs	r6, r6, #4
 8008694:	2e01      	cmp	r6, #1
 8008696:	dc21      	bgt.n	80086dc <_strtod_l+0x514>
 8008698:	b10b      	cbz	r3, 800869e <_strtod_l+0x4d6>
 800869a:	4680      	mov	r8, r0
 800869c:	4689      	mov	r9, r1
 800869e:	4b2f      	ldr	r3, [pc, #188]	; (800875c <_strtod_l+0x594>)
 80086a0:	f1a9 7954 	sub.w	r9, r9, #55574528	; 0x3500000
 80086a4:	eb03 07c7 	add.w	r7, r3, r7, lsl #3
 80086a8:	4642      	mov	r2, r8
 80086aa:	e9d7 0100 	ldrd	r0, r1, [r7]
 80086ae:	464b      	mov	r3, r9
 80086b0:	f7f7 ff12 	bl	80004d8 <__aeabi_dmul>
 80086b4:	4b26      	ldr	r3, [pc, #152]	; (8008750 <_strtod_l+0x588>)
 80086b6:	460a      	mov	r2, r1
 80086b8:	400b      	ands	r3, r1
 80086ba:	4929      	ldr	r1, [pc, #164]	; (8008760 <_strtod_l+0x598>)
 80086bc:	4680      	mov	r8, r0
 80086be:	428b      	cmp	r3, r1
 80086c0:	d8b9      	bhi.n	8008636 <_strtod_l+0x46e>
 80086c2:	f5a1 1180 	sub.w	r1, r1, #1048576	; 0x100000
 80086c6:	428b      	cmp	r3, r1
 80086c8:	bf86      	itte	hi
 80086ca:	f04f 38ff 	movhi.w	r8, #4294967295
 80086ce:	f8df 9094 	ldrhi.w	r9, [pc, #148]	; 8008764 <_strtod_l+0x59c>
 80086d2:	f102 7954 	addls.w	r9, r2, #55574528	; 0x3500000
 80086d6:	2300      	movs	r3, #0
 80086d8:	9305      	str	r3, [sp, #20]
 80086da:	e07f      	b.n	80087dc <_strtod_l+0x614>
 80086dc:	07f2      	lsls	r2, r6, #31
 80086de:	d505      	bpl.n	80086ec <_strtod_l+0x524>
 80086e0:	9b05      	ldr	r3, [sp, #20]
 80086e2:	e9d3 2300 	ldrd	r2, r3, [r3]
 80086e6:	f7f7 fef7 	bl	80004d8 <__aeabi_dmul>
 80086ea:	2301      	movs	r3, #1
 80086ec:	9a05      	ldr	r2, [sp, #20]
 80086ee:	3701      	adds	r7, #1
 80086f0:	3208      	adds	r2, #8
 80086f2:	1076      	asrs	r6, r6, #1
 80086f4:	9205      	str	r2, [sp, #20]
 80086f6:	e7cd      	b.n	8008694 <_strtod_l+0x4cc>
 80086f8:	d0ed      	beq.n	80086d6 <_strtod_l+0x50e>
 80086fa:	4276      	negs	r6, r6
 80086fc:	f016 020f 	ands.w	r2, r6, #15
 8008700:	d00a      	beq.n	8008718 <_strtod_l+0x550>
 8008702:	4b15      	ldr	r3, [pc, #84]	; (8008758 <_strtod_l+0x590>)
 8008704:	4640      	mov	r0, r8
 8008706:	eb03 03c2 	add.w	r3, r3, r2, lsl #3
 800870a:	4649      	mov	r1, r9
 800870c:	e9d3 2300 	ldrd	r2, r3, [r3]
 8008710:	f7f8 f80c 	bl	800072c <__aeabi_ddiv>
 8008714:	4680      	mov	r8, r0
 8008716:	4689      	mov	r9, r1
 8008718:	1136      	asrs	r6, r6, #4
 800871a:	d0dc      	beq.n	80086d6 <_strtod_l+0x50e>
 800871c:	2e1f      	cmp	r6, #31
 800871e:	dd23      	ble.n	8008768 <_strtod_l+0x5a0>
 8008720:	f04f 0b00 	mov.w	fp, #0
 8008724:	f8cd b010 	str.w	fp, [sp, #16]
 8008728:	f8cd b020 	str.w	fp, [sp, #32]
 800872c:	f8cd b018 	str.w	fp, [sp, #24]
 8008730:	2322      	movs	r3, #34	; 0x22
 8008732:	f04f 0800 	mov.w	r8, #0
 8008736:	f04f 0900 	mov.w	r9, #0
 800873a:	f8ca 3000 	str.w	r3, [sl]
 800873e:	e789      	b.n	8008654 <_strtod_l+0x48c>
 8008740:	0800b1b5 	.word	0x0800b1b5
 8008744:	0800b1cc 	.word	0x0800b1cc
 8008748:	0800b1ac 	.word	0x0800b1ac
 800874c:	0800b1af 	.word	0x0800b1af
 8008750:	7ff00000 	.word	0x7ff00000
 8008754:	0800b472 	.word	0x0800b472
 8008758:	0800b330 	.word	0x0800b330
 800875c:	0800b308 	.word	0x0800b308
 8008760:	7ca00000 	.word	0x7ca00000
 8008764:	7fefffff 	.word	0x7fefffff
 8008768:	f016 0310 	ands.w	r3, r6, #16
 800876c:	bf18      	it	ne
 800876e:	236a      	movne	r3, #106	; 0x6a
 8008770:	4640      	mov	r0, r8
 8008772:	9305      	str	r3, [sp, #20]
 8008774:	4649      	mov	r1, r9
 8008776:	2300      	movs	r3, #0
 8008778:	4fb0      	ldr	r7, [pc, #704]	; (8008a3c <_strtod_l+0x874>)
 800877a:	07f2      	lsls	r2, r6, #31
 800877c:	d504      	bpl.n	8008788 <_strtod_l+0x5c0>
 800877e:	e9d7 2300 	ldrd	r2, r3, [r7]
 8008782:	f7f7 fea9 	bl	80004d8 <__aeabi_dmul>
 8008786:	2301      	movs	r3, #1
 8008788:	1076      	asrs	r6, r6, #1
 800878a:	f107 0708 	add.w	r7, r7, #8
 800878e:	d1f4      	bne.n	800877a <_strtod_l+0x5b2>
 8008790:	b10b      	cbz	r3, 8008796 <_strtod_l+0x5ce>
 8008792:	4680      	mov	r8, r0
 8008794:	4689      	mov	r9, r1
 8008796:	9b05      	ldr	r3, [sp, #20]
 8008798:	b1c3      	cbz	r3, 80087cc <_strtod_l+0x604>
 800879a:	f3c9 520a 	ubfx	r2, r9, #20, #11
 800879e:	f1c2 036b 	rsb	r3, r2, #107	; 0x6b
 80087a2:	2b00      	cmp	r3, #0
 80087a4:	4649      	mov	r1, r9
 80087a6:	dd11      	ble.n	80087cc <_strtod_l+0x604>
 80087a8:	2b1f      	cmp	r3, #31
 80087aa:	f340 8127 	ble.w	80089fc <_strtod_l+0x834>
 80087ae:	2b34      	cmp	r3, #52	; 0x34
 80087b0:	bfd8      	it	le
 80087b2:	f04f 33ff 	movle.w	r3, #4294967295
 80087b6:	f04f 0800 	mov.w	r8, #0
 80087ba:	bfcf      	iteee	gt
 80087bc:	f04f 795c 	movgt.w	r9, #57671680	; 0x3700000
 80087c0:	f1c2 024b 	rsble	r2, r2, #75	; 0x4b
 80087c4:	fa03 f202 	lslle.w	r2, r3, r2
 80087c8:	ea02 0901 	andle.w	r9, r2, r1
 80087cc:	2200      	movs	r2, #0
 80087ce:	2300      	movs	r3, #0
 80087d0:	4640      	mov	r0, r8
 80087d2:	4649      	mov	r1, r9
 80087d4:	f7f8 f8e8 	bl	80009a8 <__aeabi_dcmpeq>
 80087d8:	2800      	cmp	r0, #0
 80087da:	d1a1      	bne.n	8008720 <_strtod_l+0x558>
 80087dc:	9b06      	ldr	r3, [sp, #24]
 80087de:	465a      	mov	r2, fp
 80087e0:	9300      	str	r3, [sp, #0]
 80087e2:	4650      	mov	r0, sl
 80087e4:	4623      	mov	r3, r4
 80087e6:	9908      	ldr	r1, [sp, #32]
 80087e8:	f000 ff48 	bl	800967c <__s2b>
 80087ec:	9008      	str	r0, [sp, #32]
 80087ee:	2800      	cmp	r0, #0
 80087f0:	f43f af21 	beq.w	8008636 <_strtod_l+0x46e>
 80087f4:	9b04      	ldr	r3, [sp, #16]
 80087f6:	f04f 0b00 	mov.w	fp, #0
 80087fa:	1b5d      	subs	r5, r3, r5
 80087fc:	9b07      	ldr	r3, [sp, #28]
 80087fe:	f8cd b010 	str.w	fp, [sp, #16]
 8008802:	2b00      	cmp	r3, #0
 8008804:	bfb4      	ite	lt
 8008806:	462b      	movlt	r3, r5
 8008808:	2300      	movge	r3, #0
 800880a:	930e      	str	r3, [sp, #56]	; 0x38
 800880c:	9b07      	ldr	r3, [sp, #28]
 800880e:	ea23 73e3 	bic.w	r3, r3, r3, asr #31
 8008812:	9314      	str	r3, [sp, #80]	; 0x50
 8008814:	9b08      	ldr	r3, [sp, #32]
 8008816:	4650      	mov	r0, sl
 8008818:	6859      	ldr	r1, [r3, #4]
 800881a:	f000 fe87 	bl	800952c <_Balloc>
 800881e:	9006      	str	r0, [sp, #24]
 8008820:	2800      	cmp	r0, #0
 8008822:	f43f af10 	beq.w	8008646 <_strtod_l+0x47e>
 8008826:	9b08      	ldr	r3, [sp, #32]
 8008828:	300c      	adds	r0, #12
 800882a:	691a      	ldr	r2, [r3, #16]
 800882c:	f103 010c 	add.w	r1, r3, #12
 8008830:	3202      	adds	r2, #2
 8008832:	0092      	lsls	r2, r2, #2
 8008834:	f7ff fb46 	bl	8007ec4 <memcpy>
 8008838:	ab1c      	add	r3, sp, #112	; 0x70
 800883a:	9301      	str	r3, [sp, #4]
 800883c:	ab1b      	add	r3, sp, #108	; 0x6c
 800883e:	9300      	str	r3, [sp, #0]
 8008840:	4642      	mov	r2, r8
 8008842:	464b      	mov	r3, r9
 8008844:	4650      	mov	r0, sl
 8008846:	e9cd 890c 	strd	r8, r9, [sp, #48]	; 0x30
 800884a:	f001 fa59 	bl	8009d00 <__d2b>
 800884e:	901a      	str	r0, [sp, #104]	; 0x68
 8008850:	2800      	cmp	r0, #0
 8008852:	f43f aef8 	beq.w	8008646 <_strtod_l+0x47e>
 8008856:	2101      	movs	r1, #1
 8008858:	4650      	mov	r0, sl
 800885a:	f000 ffa7 	bl	80097ac <__i2b>
 800885e:	4603      	mov	r3, r0
 8008860:	9004      	str	r0, [sp, #16]
 8008862:	2800      	cmp	r0, #0
 8008864:	f43f aeef 	beq.w	8008646 <_strtod_l+0x47e>
 8008868:	9d1b      	ldr	r5, [sp, #108]	; 0x6c
 800886a:	9a1c      	ldr	r2, [sp, #112]	; 0x70
 800886c:	2d00      	cmp	r5, #0
 800886e:	bfab      	itete	ge
 8008870:	9b0e      	ldrge	r3, [sp, #56]	; 0x38
 8008872:	9b14      	ldrlt	r3, [sp, #80]	; 0x50
 8008874:	18ee      	addge	r6, r5, r3
 8008876:	1b5c      	sublt	r4, r3, r5
 8008878:	9b05      	ldr	r3, [sp, #20]
 800887a:	bfa8      	it	ge
 800887c:	9c14      	ldrge	r4, [sp, #80]	; 0x50
 800887e:	eba5 0503 	sub.w	r5, r5, r3
 8008882:	4415      	add	r5, r2
 8008884:	4b6e      	ldr	r3, [pc, #440]	; (8008a40 <_strtod_l+0x878>)
 8008886:	f105 35ff 	add.w	r5, r5, #4294967295
 800888a:	bfb8      	it	lt
 800888c:	9e0e      	ldrlt	r6, [sp, #56]	; 0x38
 800888e:	429d      	cmp	r5, r3
 8008890:	f1c2 0236 	rsb	r2, r2, #54	; 0x36
 8008894:	f280 80c4 	bge.w	8008a20 <_strtod_l+0x858>
 8008898:	1b5b      	subs	r3, r3, r5
 800889a:	2b1f      	cmp	r3, #31
 800889c:	f04f 0701 	mov.w	r7, #1
 80088a0:	eba2 0203 	sub.w	r2, r2, r3
 80088a4:	f300 80b1 	bgt.w	8008a0a <_strtod_l+0x842>
 80088a8:	2500      	movs	r5, #0
 80088aa:	fa07 f303 	lsl.w	r3, r7, r3
 80088ae:	930f      	str	r3, [sp, #60]	; 0x3c
 80088b0:	18b7      	adds	r7, r6, r2
 80088b2:	9b05      	ldr	r3, [sp, #20]
 80088b4:	42be      	cmp	r6, r7
 80088b6:	4414      	add	r4, r2
 80088b8:	441c      	add	r4, r3
 80088ba:	4633      	mov	r3, r6
 80088bc:	bfa8      	it	ge
 80088be:	463b      	movge	r3, r7
 80088c0:	42a3      	cmp	r3, r4
 80088c2:	bfa8      	it	ge
 80088c4:	4623      	movge	r3, r4
 80088c6:	2b00      	cmp	r3, #0
 80088c8:	bfc2      	ittt	gt
 80088ca:	1aff      	subgt	r7, r7, r3
 80088cc:	1ae4      	subgt	r4, r4, r3
 80088ce:	1af6      	subgt	r6, r6, r3
 80088d0:	9b0e      	ldr	r3, [sp, #56]	; 0x38
 80088d2:	2b00      	cmp	r3, #0
 80088d4:	dd17      	ble.n	8008906 <_strtod_l+0x73e>
 80088d6:	461a      	mov	r2, r3
 80088d8:	4650      	mov	r0, sl
 80088da:	9904      	ldr	r1, [sp, #16]
 80088dc:	f001 f824 	bl	8009928 <__pow5mult>
 80088e0:	9004      	str	r0, [sp, #16]
 80088e2:	2800      	cmp	r0, #0
 80088e4:	f43f aeaf 	beq.w	8008646 <_strtod_l+0x47e>
 80088e8:	4601      	mov	r1, r0
 80088ea:	9a1a      	ldr	r2, [sp, #104]	; 0x68
 80088ec:	4650      	mov	r0, sl
 80088ee:	f000 ff73 	bl	80097d8 <__multiply>
 80088f2:	9009      	str	r0, [sp, #36]	; 0x24
 80088f4:	2800      	cmp	r0, #0
 80088f6:	f43f aea6 	beq.w	8008646 <_strtod_l+0x47e>
 80088fa:	4650      	mov	r0, sl
 80088fc:	991a      	ldr	r1, [sp, #104]	; 0x68
 80088fe:	f000 fe55 	bl	80095ac <_Bfree>
 8008902:	9b09      	ldr	r3, [sp, #36]	; 0x24
 8008904:	931a      	str	r3, [sp, #104]	; 0x68
 8008906:	2f00      	cmp	r7, #0
 8008908:	f300 808e 	bgt.w	8008a28 <_strtod_l+0x860>
 800890c:	9b07      	ldr	r3, [sp, #28]
 800890e:	2b00      	cmp	r3, #0
 8008910:	dd08      	ble.n	8008924 <_strtod_l+0x75c>
 8008912:	4650      	mov	r0, sl
 8008914:	9a14      	ldr	r2, [sp, #80]	; 0x50
 8008916:	9906      	ldr	r1, [sp, #24]
 8008918:	f001 f806 	bl	8009928 <__pow5mult>
 800891c:	9006      	str	r0, [sp, #24]
 800891e:	2800      	cmp	r0, #0
 8008920:	f43f ae91 	beq.w	8008646 <_strtod_l+0x47e>
 8008924:	2c00      	cmp	r4, #0
 8008926:	dd08      	ble.n	800893a <_strtod_l+0x772>
 8008928:	4622      	mov	r2, r4
 800892a:	4650      	mov	r0, sl
 800892c:	9906      	ldr	r1, [sp, #24]
 800892e:	f001 f855 	bl	80099dc <__lshift>
 8008932:	9006      	str	r0, [sp, #24]
 8008934:	2800      	cmp	r0, #0
 8008936:	f43f ae86 	beq.w	8008646 <_strtod_l+0x47e>
 800893a:	2e00      	cmp	r6, #0
 800893c:	dd08      	ble.n	8008950 <_strtod_l+0x788>
 800893e:	4632      	mov	r2, r6
 8008940:	4650      	mov	r0, sl
 8008942:	9904      	ldr	r1, [sp, #16]
 8008944:	f001 f84a 	bl	80099dc <__lshift>
 8008948:	9004      	str	r0, [sp, #16]
 800894a:	2800      	cmp	r0, #0
 800894c:	f43f ae7b 	beq.w	8008646 <_strtod_l+0x47e>
 8008950:	4650      	mov	r0, sl
 8008952:	9a06      	ldr	r2, [sp, #24]
 8008954:	991a      	ldr	r1, [sp, #104]	; 0x68
 8008956:	f001 f8cd 	bl	8009af4 <__mdiff>
 800895a:	4683      	mov	fp, r0
 800895c:	2800      	cmp	r0, #0
 800895e:	f43f ae72 	beq.w	8008646 <_strtod_l+0x47e>
 8008962:	2400      	movs	r4, #0
 8008964:	68c3      	ldr	r3, [r0, #12]
 8008966:	9904      	ldr	r1, [sp, #16]
 8008968:	60c4      	str	r4, [r0, #12]
 800896a:	930b      	str	r3, [sp, #44]	; 0x2c
 800896c:	f001 f8a6 	bl	8009abc <__mcmp>
 8008970:	42a0      	cmp	r0, r4
 8008972:	da6b      	bge.n	8008a4c <_strtod_l+0x884>
 8008974:	9b0b      	ldr	r3, [sp, #44]	; 0x2c
 8008976:	ea53 0308 	orrs.w	r3, r3, r8
 800897a:	f040 8091 	bne.w	8008aa0 <_strtod_l+0x8d8>
 800897e:	f3c9 0313 	ubfx	r3, r9, #0, #20
 8008982:	2b00      	cmp	r3, #0
 8008984:	f040 808c 	bne.w	8008aa0 <_strtod_l+0x8d8>
 8008988:	f029 4300 	bic.w	r3, r9, #2147483648	; 0x80000000
 800898c:	0d1b      	lsrs	r3, r3, #20
 800898e:	051b      	lsls	r3, r3, #20
 8008990:	f1b3 6fd6 	cmp.w	r3, #112197632	; 0x6b00000
 8008994:	f240 8084 	bls.w	8008aa0 <_strtod_l+0x8d8>
 8008998:	f8db 3014 	ldr.w	r3, [fp, #20]
 800899c:	b91b      	cbnz	r3, 80089a6 <_strtod_l+0x7de>
 800899e:	f8db 3010 	ldr.w	r3, [fp, #16]
 80089a2:	2b01      	cmp	r3, #1
 80089a4:	dd7c      	ble.n	8008aa0 <_strtod_l+0x8d8>
 80089a6:	4659      	mov	r1, fp
 80089a8:	2201      	movs	r2, #1
 80089aa:	4650      	mov	r0, sl
 80089ac:	f001 f816 	bl	80099dc <__lshift>
 80089b0:	9904      	ldr	r1, [sp, #16]
 80089b2:	4683      	mov	fp, r0
 80089b4:	f001 f882 	bl	8009abc <__mcmp>
 80089b8:	2800      	cmp	r0, #0
 80089ba:	dd71      	ble.n	8008aa0 <_strtod_l+0x8d8>
 80089bc:	9905      	ldr	r1, [sp, #20]
 80089be:	464b      	mov	r3, r9
 80089c0:	4a20      	ldr	r2, [pc, #128]	; (8008a44 <_strtod_l+0x87c>)
 80089c2:	2900      	cmp	r1, #0
 80089c4:	f000 808c 	beq.w	8008ae0 <_strtod_l+0x918>
 80089c8:	ea02 0109 	and.w	r1, r2, r9
 80089cc:	f1b1 6fd6 	cmp.w	r1, #112197632	; 0x6b00000
 80089d0:	f300 8086 	bgt.w	8008ae0 <_strtod_l+0x918>
 80089d4:	f1b1 7f5c 	cmp.w	r1, #57671680	; 0x3700000
 80089d8:	f77f aeaa 	ble.w	8008730 <_strtod_l+0x568>
 80089dc:	4640      	mov	r0, r8
 80089de:	4649      	mov	r1, r9
 80089e0:	4b19      	ldr	r3, [pc, #100]	; (8008a48 <_strtod_l+0x880>)
 80089e2:	2200      	movs	r2, #0
 80089e4:	f7f7 fd78 	bl	80004d8 <__aeabi_dmul>
 80089e8:	460b      	mov	r3, r1
 80089ea:	4303      	orrs	r3, r0
 80089ec:	bf08      	it	eq
 80089ee:	2322      	moveq	r3, #34	; 0x22
 80089f0:	4680      	mov	r8, r0
 80089f2:	4689      	mov	r9, r1
 80089f4:	bf08      	it	eq
 80089f6:	f8ca 3000 	streq.w	r3, [sl]
 80089fa:	e62f      	b.n	800865c <_strtod_l+0x494>
 80089fc:	f04f 32ff 	mov.w	r2, #4294967295
 8008a00:	fa02 f303 	lsl.w	r3, r2, r3
 8008a04:	ea03 0808 	and.w	r8, r3, r8
 8008a08:	e6e0      	b.n	80087cc <_strtod_l+0x604>
 8008a0a:	f1c5 457f 	rsb	r5, r5, #4278190080	; 0xff000000
 8008a0e:	f505 057f 	add.w	r5, r5, #16711680	; 0xff0000
 8008a12:	f505 457b 	add.w	r5, r5, #64256	; 0xfb00
 8008a16:	35e2      	adds	r5, #226	; 0xe2
 8008a18:	fa07 f505 	lsl.w	r5, r7, r5
 8008a1c:	970f      	str	r7, [sp, #60]	; 0x3c
 8008a1e:	e747      	b.n	80088b0 <_strtod_l+0x6e8>
 8008a20:	2301      	movs	r3, #1
 8008a22:	2500      	movs	r5, #0
 8008a24:	930f      	str	r3, [sp, #60]	; 0x3c
 8008a26:	e743      	b.n	80088b0 <_strtod_l+0x6e8>
 8008a28:	463a      	mov	r2, r7
 8008a2a:	4650      	mov	r0, sl
 8008a2c:	991a      	ldr	r1, [sp, #104]	; 0x68
 8008a2e:	f000 ffd5 	bl	80099dc <__lshift>
 8008a32:	901a      	str	r0, [sp, #104]	; 0x68
 8008a34:	2800      	cmp	r0, #0
 8008a36:	f47f af69 	bne.w	800890c <_strtod_l+0x744>
 8008a3a:	e604      	b.n	8008646 <_strtod_l+0x47e>
 8008a3c:	0800b1e0 	.word	0x0800b1e0
 8008a40:	fffffc02 	.word	0xfffffc02
 8008a44:	7ff00000 	.word	0x7ff00000
 8008a48:	39500000 	.word	0x39500000
 8008a4c:	f8cd 9024 	str.w	r9, [sp, #36]	; 0x24
 8008a50:	d165      	bne.n	8008b1e <_strtod_l+0x956>
 8008a52:	9a0b      	ldr	r2, [sp, #44]	; 0x2c
 8008a54:	f3c9 0313 	ubfx	r3, r9, #0, #20
 8008a58:	b35a      	cbz	r2, 8008ab2 <_strtod_l+0x8ea>
 8008a5a:	4a99      	ldr	r2, [pc, #612]	; (8008cc0 <_strtod_l+0xaf8>)
 8008a5c:	4293      	cmp	r3, r2
 8008a5e:	d12b      	bne.n	8008ab8 <_strtod_l+0x8f0>
 8008a60:	9b05      	ldr	r3, [sp, #20]
 8008a62:	4641      	mov	r1, r8
 8008a64:	b303      	cbz	r3, 8008aa8 <_strtod_l+0x8e0>
 8008a66:	464a      	mov	r2, r9
 8008a68:	4b96      	ldr	r3, [pc, #600]	; (8008cc4 <_strtod_l+0xafc>)
 8008a6a:	4013      	ands	r3, r2
 8008a6c:	f1b3 6fd4 	cmp.w	r3, #111149056	; 0x6a00000
 8008a70:	f04f 32ff 	mov.w	r2, #4294967295
 8008a74:	d81b      	bhi.n	8008aae <_strtod_l+0x8e6>
 8008a76:	0d1b      	lsrs	r3, r3, #20
 8008a78:	f1c3 036b 	rsb	r3, r3, #107	; 0x6b
 8008a7c:	fa02 f303 	lsl.w	r3, r2, r3
 8008a80:	4299      	cmp	r1, r3
 8008a82:	d119      	bne.n	8008ab8 <_strtod_l+0x8f0>
 8008a84:	4b90      	ldr	r3, [pc, #576]	; (8008cc8 <_strtod_l+0xb00>)
 8008a86:	9a09      	ldr	r2, [sp, #36]	; 0x24
 8008a88:	429a      	cmp	r2, r3
 8008a8a:	d102      	bne.n	8008a92 <_strtod_l+0x8ca>
 8008a8c:	3101      	adds	r1, #1
 8008a8e:	f43f adda 	beq.w	8008646 <_strtod_l+0x47e>
 8008a92:	f04f 0800 	mov.w	r8, #0
 8008a96:	4b8b      	ldr	r3, [pc, #556]	; (8008cc4 <_strtod_l+0xafc>)
 8008a98:	9a09      	ldr	r2, [sp, #36]	; 0x24
 8008a9a:	401a      	ands	r2, r3
 8008a9c:	f502 1980 	add.w	r9, r2, #1048576	; 0x100000
 8008aa0:	9b05      	ldr	r3, [sp, #20]
 8008aa2:	2b00      	cmp	r3, #0
 8008aa4:	d19a      	bne.n	80089dc <_strtod_l+0x814>
 8008aa6:	e5d9      	b.n	800865c <_strtod_l+0x494>
 8008aa8:	f04f 33ff 	mov.w	r3, #4294967295
 8008aac:	e7e8      	b.n	8008a80 <_strtod_l+0x8b8>
 8008aae:	4613      	mov	r3, r2
 8008ab0:	e7e6      	b.n	8008a80 <_strtod_l+0x8b8>
 8008ab2:	ea53 0308 	orrs.w	r3, r3, r8
 8008ab6:	d081      	beq.n	80089bc <_strtod_l+0x7f4>
 8008ab8:	b1e5      	cbz	r5, 8008af4 <_strtod_l+0x92c>
 8008aba:	9b09      	ldr	r3, [sp, #36]	; 0x24
 8008abc:	421d      	tst	r5, r3
 8008abe:	d0ef      	beq.n	8008aa0 <_strtod_l+0x8d8>
 8008ac0:	9b0b      	ldr	r3, [sp, #44]	; 0x2c
 8008ac2:	4640      	mov	r0, r8
 8008ac4:	4649      	mov	r1, r9
 8008ac6:	9a05      	ldr	r2, [sp, #20]
 8008ac8:	b1c3      	cbz	r3, 8008afc <_strtod_l+0x934>
 8008aca:	f7ff fb5b 	bl	8008184 <sulp>
 8008ace:	4602      	mov	r2, r0
 8008ad0:	460b      	mov	r3, r1
 8008ad2:	e9dd 010c 	ldrd	r0, r1, [sp, #48]	; 0x30
 8008ad6:	f7f7 fb49 	bl	800016c <__adddf3>
 8008ada:	4680      	mov	r8, r0
 8008adc:	4689      	mov	r9, r1
 8008ade:	e7df      	b.n	8008aa0 <_strtod_l+0x8d8>
 8008ae0:	4013      	ands	r3, r2
 8008ae2:	f5a3 1380 	sub.w	r3, r3, #1048576	; 0x100000
 8008ae6:	ea6f 5913 	mvn.w	r9, r3, lsr #20
 8008aea:	f04f 38ff 	mov.w	r8, #4294967295
 8008aee:	ea6f 5909 	mvn.w	r9, r9, lsl #20
 8008af2:	e7d5      	b.n	8008aa0 <_strtod_l+0x8d8>
 8008af4:	9b0f      	ldr	r3, [sp, #60]	; 0x3c
 8008af6:	ea13 0f08 	tst.w	r3, r8
 8008afa:	e7e0      	b.n	8008abe <_strtod_l+0x8f6>
 8008afc:	f7ff fb42 	bl	8008184 <sulp>
 8008b00:	4602      	mov	r2, r0
 8008b02:	460b      	mov	r3, r1
 8008b04:	e9dd 010c 	ldrd	r0, r1, [sp, #48]	; 0x30
 8008b08:	f7f7 fb2e 	bl	8000168 <__aeabi_dsub>
 8008b0c:	2200      	movs	r2, #0
 8008b0e:	2300      	movs	r3, #0
 8008b10:	4680      	mov	r8, r0
 8008b12:	4689      	mov	r9, r1
 8008b14:	f7f7 ff48 	bl	80009a8 <__aeabi_dcmpeq>
 8008b18:	2800      	cmp	r0, #0
 8008b1a:	d0c1      	beq.n	8008aa0 <_strtod_l+0x8d8>
 8008b1c:	e608      	b.n	8008730 <_strtod_l+0x568>
 8008b1e:	4658      	mov	r0, fp
 8008b20:	9904      	ldr	r1, [sp, #16]
 8008b22:	f001 f949 	bl	8009db8 <__ratio>
 8008b26:	2200      	movs	r2, #0
 8008b28:	f04f 4380 	mov.w	r3, #1073741824	; 0x40000000
 8008b2c:	4606      	mov	r6, r0
 8008b2e:	460f      	mov	r7, r1
 8008b30:	f7f7 ff4e 	bl	80009d0 <__aeabi_dcmple>
 8008b34:	2800      	cmp	r0, #0
 8008b36:	d070      	beq.n	8008c1a <_strtod_l+0xa52>
 8008b38:	9b0b      	ldr	r3, [sp, #44]	; 0x2c
 8008b3a:	2b00      	cmp	r3, #0
 8008b3c:	d042      	beq.n	8008bc4 <_strtod_l+0x9fc>
 8008b3e:	2600      	movs	r6, #0
 8008b40:	4f62      	ldr	r7, [pc, #392]	; (8008ccc <_strtod_l+0xb04>)
 8008b42:	4d62      	ldr	r5, [pc, #392]	; (8008ccc <_strtod_l+0xb04>)
 8008b44:	9b09      	ldr	r3, [sp, #36]	; 0x24
 8008b46:	f023 4300 	bic.w	r3, r3, #2147483648	; 0x80000000
 8008b4a:	0d1b      	lsrs	r3, r3, #20
 8008b4c:	051b      	lsls	r3, r3, #20
 8008b4e:	930f      	str	r3, [sp, #60]	; 0x3c
 8008b50:	9a0f      	ldr	r2, [sp, #60]	; 0x3c
 8008b52:	4b5f      	ldr	r3, [pc, #380]	; (8008cd0 <_strtod_l+0xb08>)
 8008b54:	429a      	cmp	r2, r3
 8008b56:	f040 80c3 	bne.w	8008ce0 <_strtod_l+0xb18>
 8008b5a:	9b09      	ldr	r3, [sp, #36]	; 0x24
 8008b5c:	4640      	mov	r0, r8
 8008b5e:	f1a3 7954 	sub.w	r9, r3, #55574528	; 0x3500000
 8008b62:	4649      	mov	r1, r9
 8008b64:	f001 f852 	bl	8009c0c <__ulp>
 8008b68:	4602      	mov	r2, r0
 8008b6a:	460b      	mov	r3, r1
 8008b6c:	4630      	mov	r0, r6
 8008b6e:	4639      	mov	r1, r7
 8008b70:	f7f7 fcb2 	bl	80004d8 <__aeabi_dmul>
 8008b74:	4642      	mov	r2, r8
 8008b76:	464b      	mov	r3, r9
 8008b78:	f7f7 faf8 	bl	800016c <__adddf3>
 8008b7c:	460b      	mov	r3, r1
 8008b7e:	4951      	ldr	r1, [pc, #324]	; (8008cc4 <_strtod_l+0xafc>)
 8008b80:	4a54      	ldr	r2, [pc, #336]	; (8008cd4 <_strtod_l+0xb0c>)
 8008b82:	4019      	ands	r1, r3
 8008b84:	4291      	cmp	r1, r2
 8008b86:	4680      	mov	r8, r0
 8008b88:	d95d      	bls.n	8008c46 <_strtod_l+0xa7e>
 8008b8a:	9a0d      	ldr	r2, [sp, #52]	; 0x34
 8008b8c:	4b4e      	ldr	r3, [pc, #312]	; (8008cc8 <_strtod_l+0xb00>)
 8008b8e:	429a      	cmp	r2, r3
 8008b90:	d103      	bne.n	8008b9a <_strtod_l+0x9d2>
 8008b92:	9b0c      	ldr	r3, [sp, #48]	; 0x30
 8008b94:	3301      	adds	r3, #1
 8008b96:	f43f ad56 	beq.w	8008646 <_strtod_l+0x47e>
 8008b9a:	f04f 38ff 	mov.w	r8, #4294967295
 8008b9e:	f8df 9128 	ldr.w	r9, [pc, #296]	; 8008cc8 <_strtod_l+0xb00>
 8008ba2:	4650      	mov	r0, sl
 8008ba4:	991a      	ldr	r1, [sp, #104]	; 0x68
 8008ba6:	f000 fd01 	bl	80095ac <_Bfree>
 8008baa:	4650      	mov	r0, sl
 8008bac:	9906      	ldr	r1, [sp, #24]
 8008bae:	f000 fcfd 	bl	80095ac <_Bfree>
 8008bb2:	4650      	mov	r0, sl
 8008bb4:	9904      	ldr	r1, [sp, #16]
 8008bb6:	f000 fcf9 	bl	80095ac <_Bfree>
 8008bba:	4659      	mov	r1, fp
 8008bbc:	4650      	mov	r0, sl
 8008bbe:	f000 fcf5 	bl	80095ac <_Bfree>
 8008bc2:	e627      	b.n	8008814 <_strtod_l+0x64c>
 8008bc4:	f1b8 0f00 	cmp.w	r8, #0
 8008bc8:	d119      	bne.n	8008bfe <_strtod_l+0xa36>
 8008bca:	9b09      	ldr	r3, [sp, #36]	; 0x24
 8008bcc:	f3c3 0313 	ubfx	r3, r3, #0, #20
 8008bd0:	b9e3      	cbnz	r3, 8008c0c <_strtod_l+0xa44>
 8008bd2:	2200      	movs	r2, #0
 8008bd4:	4630      	mov	r0, r6
 8008bd6:	4639      	mov	r1, r7
 8008bd8:	4b3c      	ldr	r3, [pc, #240]	; (8008ccc <_strtod_l+0xb04>)
 8008bda:	f7f7 feef 	bl	80009bc <__aeabi_dcmplt>
 8008bde:	b9c8      	cbnz	r0, 8008c14 <_strtod_l+0xa4c>
 8008be0:	2200      	movs	r2, #0
 8008be2:	4630      	mov	r0, r6
 8008be4:	4639      	mov	r1, r7
 8008be6:	4b3c      	ldr	r3, [pc, #240]	; (8008cd8 <_strtod_l+0xb10>)
 8008be8:	f7f7 fc76 	bl	80004d8 <__aeabi_dmul>
 8008bec:	4604      	mov	r4, r0
 8008bee:	460d      	mov	r5, r1
 8008bf0:	f105 4300 	add.w	r3, r5, #2147483648	; 0x80000000
 8008bf4:	9416      	str	r4, [sp, #88]	; 0x58
 8008bf6:	9317      	str	r3, [sp, #92]	; 0x5c
 8008bf8:	e9dd 6716 	ldrd	r6, r7, [sp, #88]	; 0x58
 8008bfc:	e7a2      	b.n	8008b44 <_strtod_l+0x97c>
 8008bfe:	f1b8 0f01 	cmp.w	r8, #1
 8008c02:	d103      	bne.n	8008c0c <_strtod_l+0xa44>
 8008c04:	9b09      	ldr	r3, [sp, #36]	; 0x24
 8008c06:	2b00      	cmp	r3, #0
 8008c08:	f43f ad92 	beq.w	8008730 <_strtod_l+0x568>
 8008c0c:	2600      	movs	r6, #0
 8008c0e:	2400      	movs	r4, #0
 8008c10:	4f32      	ldr	r7, [pc, #200]	; (8008cdc <_strtod_l+0xb14>)
 8008c12:	e796      	b.n	8008b42 <_strtod_l+0x97a>
 8008c14:	9c0b      	ldr	r4, [sp, #44]	; 0x2c
 8008c16:	4d30      	ldr	r5, [pc, #192]	; (8008cd8 <_strtod_l+0xb10>)
 8008c18:	e7ea      	b.n	8008bf0 <_strtod_l+0xa28>
 8008c1a:	4b2f      	ldr	r3, [pc, #188]	; (8008cd8 <_strtod_l+0xb10>)
 8008c1c:	2200      	movs	r2, #0
 8008c1e:	4630      	mov	r0, r6
 8008c20:	4639      	mov	r1, r7
 8008c22:	f7f7 fc59 	bl	80004d8 <__aeabi_dmul>
 8008c26:	9b0b      	ldr	r3, [sp, #44]	; 0x2c
 8008c28:	4604      	mov	r4, r0
 8008c2a:	460d      	mov	r5, r1
 8008c2c:	b933      	cbnz	r3, 8008c3c <_strtod_l+0xa74>
 8008c2e:	f101 4300 	add.w	r3, r1, #2147483648	; 0x80000000
 8008c32:	9010      	str	r0, [sp, #64]	; 0x40
 8008c34:	9311      	str	r3, [sp, #68]	; 0x44
 8008c36:	e9dd 6710 	ldrd	r6, r7, [sp, #64]	; 0x40
 8008c3a:	e783      	b.n	8008b44 <_strtod_l+0x97c>
 8008c3c:	4602      	mov	r2, r0
 8008c3e:	460b      	mov	r3, r1
 8008c40:	e9cd 2310 	strd	r2, r3, [sp, #64]	; 0x40
 8008c44:	e7f7      	b.n	8008c36 <_strtod_l+0xa6e>
 8008c46:	f103 7954 	add.w	r9, r3, #55574528	; 0x3500000
 8008c4a:	9b05      	ldr	r3, [sp, #20]
 8008c4c:	2b00      	cmp	r3, #0
 8008c4e:	d1a8      	bne.n	8008ba2 <_strtod_l+0x9da>
 8008c50:	f029 4300 	bic.w	r3, r9, #2147483648	; 0x80000000
 8008c54:	9a0f      	ldr	r2, [sp, #60]	; 0x3c
 8008c56:	0d1b      	lsrs	r3, r3, #20
 8008c58:	051b      	lsls	r3, r3, #20
 8008c5a:	429a      	cmp	r2, r3
 8008c5c:	d1a1      	bne.n	8008ba2 <_strtod_l+0x9da>
 8008c5e:	4620      	mov	r0, r4
 8008c60:	4629      	mov	r1, r5
 8008c62:	f7f7 fef3 	bl	8000a4c <__aeabi_d2lz>
 8008c66:	f7f7 fc09 	bl	800047c <__aeabi_l2d>
 8008c6a:	4602      	mov	r2, r0
 8008c6c:	460b      	mov	r3, r1
 8008c6e:	4620      	mov	r0, r4
 8008c70:	4629      	mov	r1, r5
 8008c72:	f7f7 fa79 	bl	8000168 <__aeabi_dsub>
 8008c76:	9a0b      	ldr	r2, [sp, #44]	; 0x2c
 8008c78:	f3c9 0313 	ubfx	r3, r9, #0, #20
 8008c7c:	ea43 0308 	orr.w	r3, r3, r8
 8008c80:	4313      	orrs	r3, r2
 8008c82:	4604      	mov	r4, r0
 8008c84:	460d      	mov	r5, r1
 8008c86:	d066      	beq.n	8008d56 <_strtod_l+0xb8e>
 8008c88:	a309      	add	r3, pc, #36	; (adr r3, 8008cb0 <_strtod_l+0xae8>)
 8008c8a:	e9d3 2300 	ldrd	r2, r3, [r3]
 8008c8e:	f7f7 fe95 	bl	80009bc <__aeabi_dcmplt>
 8008c92:	2800      	cmp	r0, #0
 8008c94:	f47f ace2 	bne.w	800865c <_strtod_l+0x494>
 8008c98:	a307      	add	r3, pc, #28	; (adr r3, 8008cb8 <_strtod_l+0xaf0>)
 8008c9a:	e9d3 2300 	ldrd	r2, r3, [r3]
 8008c9e:	4620      	mov	r0, r4
 8008ca0:	4629      	mov	r1, r5
 8008ca2:	f7f7 fea9 	bl	80009f8 <__aeabi_dcmpgt>
 8008ca6:	2800      	cmp	r0, #0
 8008ca8:	f43f af7b 	beq.w	8008ba2 <_strtod_l+0x9da>
 8008cac:	e4d6      	b.n	800865c <_strtod_l+0x494>
 8008cae:	bf00      	nop
 8008cb0:	94a03595 	.word	0x94a03595
 8008cb4:	3fdfffff 	.word	0x3fdfffff
 8008cb8:	35afe535 	.word	0x35afe535
 8008cbc:	3fe00000 	.word	0x3fe00000
 8008cc0:	000fffff 	.word	0x000fffff
 8008cc4:	7ff00000 	.word	0x7ff00000
 8008cc8:	7fefffff 	.word	0x7fefffff
 8008ccc:	3ff00000 	.word	0x3ff00000
 8008cd0:	7fe00000 	.word	0x7fe00000
 8008cd4:	7c9fffff 	.word	0x7c9fffff
 8008cd8:	3fe00000 	.word	0x3fe00000
 8008cdc:	bff00000 	.word	0xbff00000
 8008ce0:	9b05      	ldr	r3, [sp, #20]
 8008ce2:	b313      	cbz	r3, 8008d2a <_strtod_l+0xb62>
 8008ce4:	9b0f      	ldr	r3, [sp, #60]	; 0x3c
 8008ce6:	f1b3 6fd4 	cmp.w	r3, #111149056	; 0x6a00000
 8008cea:	d81e      	bhi.n	8008d2a <_strtod_l+0xb62>
 8008cec:	a326      	add	r3, pc, #152	; (adr r3, 8008d88 <_strtod_l+0xbc0>)
 8008cee:	e9d3 2300 	ldrd	r2, r3, [r3]
 8008cf2:	4620      	mov	r0, r4
 8008cf4:	4629      	mov	r1, r5
 8008cf6:	f7f7 fe6b 	bl	80009d0 <__aeabi_dcmple>
 8008cfa:	b190      	cbz	r0, 8008d22 <_strtod_l+0xb5a>
 8008cfc:	4629      	mov	r1, r5
 8008cfe:	4620      	mov	r0, r4
 8008d00:	f7f7 fe84 	bl	8000a0c <__aeabi_d2uiz>
 8008d04:	2801      	cmp	r0, #1
 8008d06:	bf38      	it	cc
 8008d08:	2001      	movcc	r0, #1
 8008d0a:	f7f7 fb6b 	bl	80003e4 <__aeabi_ui2d>
 8008d0e:	9b0b      	ldr	r3, [sp, #44]	; 0x2c
 8008d10:	4604      	mov	r4, r0
 8008d12:	460d      	mov	r5, r1
 8008d14:	b9d3      	cbnz	r3, 8008d4c <_strtod_l+0xb84>
 8008d16:	f101 4300 	add.w	r3, r1, #2147483648	; 0x80000000
 8008d1a:	9012      	str	r0, [sp, #72]	; 0x48
 8008d1c:	9313      	str	r3, [sp, #76]	; 0x4c
 8008d1e:	e9dd 6712 	ldrd	r6, r7, [sp, #72]	; 0x48
 8008d22:	9a0f      	ldr	r2, [sp, #60]	; 0x3c
 8008d24:	f107 63d6 	add.w	r3, r7, #112197632	; 0x6b00000
 8008d28:	1a9f      	subs	r7, r3, r2
 8008d2a:	e9dd 010c 	ldrd	r0, r1, [sp, #48]	; 0x30
 8008d2e:	f000 ff6d 	bl	8009c0c <__ulp>
 8008d32:	4602      	mov	r2, r0
 8008d34:	460b      	mov	r3, r1
 8008d36:	4630      	mov	r0, r6
 8008d38:	4639      	mov	r1, r7
 8008d3a:	f7f7 fbcd 	bl	80004d8 <__aeabi_dmul>
 8008d3e:	e9dd 230c 	ldrd	r2, r3, [sp, #48]	; 0x30
 8008d42:	f7f7 fa13 	bl	800016c <__adddf3>
 8008d46:	4680      	mov	r8, r0
 8008d48:	4689      	mov	r9, r1
 8008d4a:	e77e      	b.n	8008c4a <_strtod_l+0xa82>
 8008d4c:	4602      	mov	r2, r0
 8008d4e:	460b      	mov	r3, r1
 8008d50:	e9cd 2312 	strd	r2, r3, [sp, #72]	; 0x48
 8008d54:	e7e3      	b.n	8008d1e <_strtod_l+0xb56>
 8008d56:	a30e      	add	r3, pc, #56	; (adr r3, 8008d90 <_strtod_l+0xbc8>)
 8008d58:	e9d3 2300 	ldrd	r2, r3, [r3]
 8008d5c:	f7f7 fe2e 	bl	80009bc <__aeabi_dcmplt>
 8008d60:	e7a1      	b.n	8008ca6 <_strtod_l+0xade>
 8008d62:	2300      	movs	r3, #0
 8008d64:	930a      	str	r3, [sp, #40]	; 0x28
 8008d66:	9b19      	ldr	r3, [sp, #100]	; 0x64
 8008d68:	9a15      	ldr	r2, [sp, #84]	; 0x54
 8008d6a:	6013      	str	r3, [r2, #0]
 8008d6c:	f7ff ba71 	b.w	8008252 <_strtod_l+0x8a>
 8008d70:	2a65      	cmp	r2, #101	; 0x65
 8008d72:	f43f ab63 	beq.w	800843c <_strtod_l+0x274>
 8008d76:	2a45      	cmp	r2, #69	; 0x45
 8008d78:	f43f ab60 	beq.w	800843c <_strtod_l+0x274>
 8008d7c:	2301      	movs	r3, #1
 8008d7e:	f7ff bb95 	b.w	80084ac <_strtod_l+0x2e4>
 8008d82:	bf00      	nop
 8008d84:	f3af 8000 	nop.w
 8008d88:	ffc00000 	.word	0xffc00000
 8008d8c:	41dfffff 	.word	0x41dfffff
 8008d90:	94a03595 	.word	0x94a03595
 8008d94:	3fcfffff 	.word	0x3fcfffff

08008d98 <strtod>:
 8008d98:	460a      	mov	r2, r1
 8008d9a:	4601      	mov	r1, r0
 8008d9c:	4802      	ldr	r0, [pc, #8]	; (8008da8 <strtod+0x10>)
 8008d9e:	4b03      	ldr	r3, [pc, #12]	; (8008dac <strtod+0x14>)
 8008da0:	6800      	ldr	r0, [r0, #0]
 8008da2:	f7ff ba11 	b.w	80081c8 <_strtod_l>
 8008da6:	bf00      	nop
 8008da8:	2000017c 	.word	0x2000017c
 8008dac:	200001e4 	.word	0x200001e4

08008db0 <_vsniprintf_r>:
 8008db0:	b530      	push	{r4, r5, lr}
 8008db2:	4614      	mov	r4, r2
 8008db4:	2c00      	cmp	r4, #0
 8008db6:	4605      	mov	r5, r0
 8008db8:	461a      	mov	r2, r3
 8008dba:	b09b      	sub	sp, #108	; 0x6c
 8008dbc:	da05      	bge.n	8008dca <_vsniprintf_r+0x1a>
 8008dbe:	238b      	movs	r3, #139	; 0x8b
 8008dc0:	6003      	str	r3, [r0, #0]
 8008dc2:	f04f 30ff 	mov.w	r0, #4294967295
 8008dc6:	b01b      	add	sp, #108	; 0x6c
 8008dc8:	bd30      	pop	{r4, r5, pc}
 8008dca:	f44f 7302 	mov.w	r3, #520	; 0x208
 8008dce:	f8ad 300c 	strh.w	r3, [sp, #12]
 8008dd2:	bf0c      	ite	eq
 8008dd4:	4623      	moveq	r3, r4
 8008dd6:	f104 33ff 	addne.w	r3, r4, #4294967295
 8008dda:	9302      	str	r3, [sp, #8]
 8008ddc:	9305      	str	r3, [sp, #20]
 8008dde:	f64f 73ff 	movw	r3, #65535	; 0xffff
 8008de2:	9100      	str	r1, [sp, #0]
 8008de4:	9104      	str	r1, [sp, #16]
 8008de6:	f8ad 300e 	strh.w	r3, [sp, #14]
 8008dea:	4669      	mov	r1, sp
 8008dec:	9b1e      	ldr	r3, [sp, #120]	; 0x78
 8008dee:	f001 f8c5 	bl	8009f7c <_svfiprintf_r>
 8008df2:	1c43      	adds	r3, r0, #1
 8008df4:	bfbc      	itt	lt
 8008df6:	238b      	movlt	r3, #139	; 0x8b
 8008df8:	602b      	strlt	r3, [r5, #0]
 8008dfa:	2c00      	cmp	r4, #0
 8008dfc:	d0e3      	beq.n	8008dc6 <_vsniprintf_r+0x16>
 8008dfe:	2200      	movs	r2, #0
 8008e00:	9b00      	ldr	r3, [sp, #0]
 8008e02:	701a      	strb	r2, [r3, #0]
 8008e04:	e7df      	b.n	8008dc6 <_vsniprintf_r+0x16>
	...

08008e08 <vsniprintf>:
 8008e08:	b507      	push	{r0, r1, r2, lr}
 8008e0a:	9300      	str	r3, [sp, #0]
 8008e0c:	4613      	mov	r3, r2
 8008e0e:	460a      	mov	r2, r1
 8008e10:	4601      	mov	r1, r0
 8008e12:	4803      	ldr	r0, [pc, #12]	; (8008e20 <vsniprintf+0x18>)
 8008e14:	6800      	ldr	r0, [r0, #0]
 8008e16:	f7ff ffcb 	bl	8008db0 <_vsniprintf_r>
 8008e1a:	b003      	add	sp, #12
 8008e1c:	f85d fb04 	ldr.w	pc, [sp], #4
 8008e20:	2000017c 	.word	0x2000017c

08008e24 <rshift>:
 8008e24:	6903      	ldr	r3, [r0, #16]
 8008e26:	e92d 43f0 	stmdb	sp!, {r4, r5, r6, r7, r8, r9, lr}
 8008e2a:	ebb3 1f61 	cmp.w	r3, r1, asr #5
 8008e2e:	f100 0414 	add.w	r4, r0, #20
 8008e32:	ea4f 1261 	mov.w	r2, r1, asr #5
 8008e36:	dd46      	ble.n	8008ec6 <rshift+0xa2>
 8008e38:	f011 011f 	ands.w	r1, r1, #31
 8008e3c:	eb04 0683 	add.w	r6, r4, r3, lsl #2
 8008e40:	eb04 0582 	add.w	r5, r4, r2, lsl #2
 8008e44:	d10c      	bne.n	8008e60 <rshift+0x3c>
 8008e46:	4629      	mov	r1, r5
 8008e48:	f100 0710 	add.w	r7, r0, #16
 8008e4c:	42b1      	cmp	r1, r6
 8008e4e:	d335      	bcc.n	8008ebc <rshift+0x98>
 8008e50:	1a9b      	subs	r3, r3, r2
 8008e52:	009b      	lsls	r3, r3, #2
 8008e54:	1eea      	subs	r2, r5, #3
 8008e56:	4296      	cmp	r6, r2
 8008e58:	bf38      	it	cc
 8008e5a:	2300      	movcc	r3, #0
 8008e5c:	4423      	add	r3, r4
 8008e5e:	e015      	b.n	8008e8c <rshift+0x68>
 8008e60:	46a1      	mov	r9, r4
 8008e62:	f854 7022 	ldr.w	r7, [r4, r2, lsl #2]
 8008e66:	f1c1 0820 	rsb	r8, r1, #32
 8008e6a:	40cf      	lsrs	r7, r1
 8008e6c:	f105 0e04 	add.w	lr, r5, #4
 8008e70:	4576      	cmp	r6, lr
 8008e72:	46f4      	mov	ip, lr
 8008e74:	d816      	bhi.n	8008ea4 <rshift+0x80>
 8008e76:	1a9a      	subs	r2, r3, r2
 8008e78:	0092      	lsls	r2, r2, #2
 8008e7a:	3a04      	subs	r2, #4
 8008e7c:	3501      	adds	r5, #1
 8008e7e:	42ae      	cmp	r6, r5
 8008e80:	bf38      	it	cc
 8008e82:	2200      	movcc	r2, #0
 8008e84:	18a3      	adds	r3, r4, r2
 8008e86:	50a7      	str	r7, [r4, r2]
 8008e88:	b107      	cbz	r7, 8008e8c <rshift+0x68>
 8008e8a:	3304      	adds	r3, #4
 8008e8c:	42a3      	cmp	r3, r4
 8008e8e:	eba3 0204 	sub.w	r2, r3, r4
 8008e92:	bf08      	it	eq
 8008e94:	2300      	moveq	r3, #0
 8008e96:	ea4f 02a2 	mov.w	r2, r2, asr #2
 8008e9a:	6102      	str	r2, [r0, #16]
 8008e9c:	bf08      	it	eq
 8008e9e:	6143      	streq	r3, [r0, #20]
 8008ea0:	e8bd 83f0 	ldmia.w	sp!, {r4, r5, r6, r7, r8, r9, pc}
 8008ea4:	f8dc c000 	ldr.w	ip, [ip]
 8008ea8:	fa0c fc08 	lsl.w	ip, ip, r8
 8008eac:	ea4c 0707 	orr.w	r7, ip, r7
 8008eb0:	f849 7b04 	str.w	r7, [r9], #4
 8008eb4:	f85e 7b04 	ldr.w	r7, [lr], #4
 8008eb8:	40cf      	lsrs	r7, r1
 8008eba:	e7d9      	b.n	8008e70 <rshift+0x4c>
 8008ebc:	f851 cb04 	ldr.w	ip, [r1], #4
 8008ec0:	f847 cf04 	str.w	ip, [r7, #4]!
 8008ec4:	e7c2      	b.n	8008e4c <rshift+0x28>
 8008ec6:	4623      	mov	r3, r4
 8008ec8:	e7e0      	b.n	8008e8c <rshift+0x68>

08008eca <__hexdig_fun>:
 8008eca:	f1a0 0330 	sub.w	r3, r0, #48	; 0x30
 8008ece:	2b09      	cmp	r3, #9
 8008ed0:	d802      	bhi.n	8008ed8 <__hexdig_fun+0xe>
 8008ed2:	3820      	subs	r0, #32
 8008ed4:	b2c0      	uxtb	r0, r0
 8008ed6:	4770      	bx	lr
 8008ed8:	f1a0 0361 	sub.w	r3, r0, #97	; 0x61
 8008edc:	2b05      	cmp	r3, #5
 8008ede:	d801      	bhi.n	8008ee4 <__hexdig_fun+0x1a>
 8008ee0:	3847      	subs	r0, #71	; 0x47
 8008ee2:	e7f7      	b.n	8008ed4 <__hexdig_fun+0xa>
 8008ee4:	f1a0 0341 	sub.w	r3, r0, #65	; 0x41
 8008ee8:	2b05      	cmp	r3, #5
 8008eea:	d801      	bhi.n	8008ef0 <__hexdig_fun+0x26>
 8008eec:	3827      	subs	r0, #39	; 0x27
 8008eee:	e7f1      	b.n	8008ed4 <__hexdig_fun+0xa>
 8008ef0:	2000      	movs	r0, #0
 8008ef2:	4770      	bx	lr

08008ef4 <__gethex>:
 8008ef4:	e92d 4ff0 	stmdb	sp!, {r4, r5, r6, r7, r8, r9, sl, fp, lr}
 8008ef8:	b08b      	sub	sp, #44	; 0x2c
 8008efa:	9305      	str	r3, [sp, #20]
 8008efc:	4bb2      	ldr	r3, [pc, #712]	; (80091c8 <__gethex+0x2d4>)
 8008efe:	9002      	str	r0, [sp, #8]
 8008f00:	681b      	ldr	r3, [r3, #0]
 8008f02:	468b      	mov	fp, r1
 8008f04:	4618      	mov	r0, r3
 8008f06:	4690      	mov	r8, r2
 8008f08:	9303      	str	r3, [sp, #12]
 8008f0a:	f7f7 f921 	bl	8000150 <strlen>
 8008f0e:	4682      	mov	sl, r0
 8008f10:	9b03      	ldr	r3, [sp, #12]
 8008f12:	f8db 2000 	ldr.w	r2, [fp]
 8008f16:	4403      	add	r3, r0
 8008f18:	f813 3c01 	ldrb.w	r3, [r3, #-1]
 8008f1c:	9306      	str	r3, [sp, #24]
 8008f1e:	1c93      	adds	r3, r2, #2
 8008f20:	f1c2 22ff 	rsb	r2, r2, #4278255360	; 0xff00ff00
 8008f24:	f502 027f 	add.w	r2, r2, #16711680	; 0xff0000
 8008f28:	32fe      	adds	r2, #254	; 0xfe
 8008f2a:	18d1      	adds	r1, r2, r3
 8008f2c:	461f      	mov	r7, r3
 8008f2e:	f813 0b01 	ldrb.w	r0, [r3], #1
 8008f32:	9101      	str	r1, [sp, #4]
 8008f34:	2830      	cmp	r0, #48	; 0x30
 8008f36:	d0f8      	beq.n	8008f2a <__gethex+0x36>
 8008f38:	f7ff ffc7 	bl	8008eca <__hexdig_fun>
 8008f3c:	4604      	mov	r4, r0
 8008f3e:	2800      	cmp	r0, #0
 8008f40:	d13a      	bne.n	8008fb8 <__gethex+0xc4>
 8008f42:	4652      	mov	r2, sl
 8008f44:	4638      	mov	r0, r7
 8008f46:	9903      	ldr	r1, [sp, #12]
 8008f48:	f001 fab4 	bl	800a4b4 <strncmp>
 8008f4c:	4605      	mov	r5, r0
 8008f4e:	2800      	cmp	r0, #0
 8008f50:	d166      	bne.n	8009020 <__gethex+0x12c>
 8008f52:	f817 000a 	ldrb.w	r0, [r7, sl]
 8008f56:	eb07 060a 	add.w	r6, r7, sl
 8008f5a:	f7ff ffb6 	bl	8008eca <__hexdig_fun>
 8008f5e:	2800      	cmp	r0, #0
 8008f60:	d060      	beq.n	8009024 <__gethex+0x130>
 8008f62:	4633      	mov	r3, r6
 8008f64:	7818      	ldrb	r0, [r3, #0]
 8008f66:	461f      	mov	r7, r3
 8008f68:	2830      	cmp	r0, #48	; 0x30
 8008f6a:	f103 0301 	add.w	r3, r3, #1
 8008f6e:	d0f9      	beq.n	8008f64 <__gethex+0x70>
 8008f70:	f7ff ffab 	bl	8008eca <__hexdig_fun>
 8008f74:	2301      	movs	r3, #1
 8008f76:	fab0 f480 	clz	r4, r0
 8008f7a:	4635      	mov	r5, r6
 8008f7c:	0964      	lsrs	r4, r4, #5
 8008f7e:	9301      	str	r3, [sp, #4]
 8008f80:	463a      	mov	r2, r7
 8008f82:	4616      	mov	r6, r2
 8008f84:	7830      	ldrb	r0, [r6, #0]
 8008f86:	3201      	adds	r2, #1
 8008f88:	f7ff ff9f 	bl	8008eca <__hexdig_fun>
 8008f8c:	2800      	cmp	r0, #0
 8008f8e:	d1f8      	bne.n	8008f82 <__gethex+0x8e>
 8008f90:	4652      	mov	r2, sl
 8008f92:	4630      	mov	r0, r6
 8008f94:	9903      	ldr	r1, [sp, #12]
 8008f96:	f001 fa8d 	bl	800a4b4 <strncmp>
 8008f9a:	b980      	cbnz	r0, 8008fbe <__gethex+0xca>
 8008f9c:	b94d      	cbnz	r5, 8008fb2 <__gethex+0xbe>
 8008f9e:	eb06 050a 	add.w	r5, r6, sl
 8008fa2:	462a      	mov	r2, r5
 8008fa4:	4616      	mov	r6, r2
 8008fa6:	7830      	ldrb	r0, [r6, #0]
 8008fa8:	3201      	adds	r2, #1
 8008faa:	f7ff ff8e 	bl	8008eca <__hexdig_fun>
 8008fae:	2800      	cmp	r0, #0
 8008fb0:	d1f8      	bne.n	8008fa4 <__gethex+0xb0>
 8008fb2:	1bad      	subs	r5, r5, r6
 8008fb4:	00ad      	lsls	r5, r5, #2
 8008fb6:	e004      	b.n	8008fc2 <__gethex+0xce>
 8008fb8:	2400      	movs	r4, #0
 8008fba:	4625      	mov	r5, r4
 8008fbc:	e7e0      	b.n	8008f80 <__gethex+0x8c>
 8008fbe:	2d00      	cmp	r5, #0
 8008fc0:	d1f7      	bne.n	8008fb2 <__gethex+0xbe>
 8008fc2:	7833      	ldrb	r3, [r6, #0]
 8008fc4:	f003 03df 	and.w	r3, r3, #223	; 0xdf
 8008fc8:	2b50      	cmp	r3, #80	; 0x50
 8008fca:	d139      	bne.n	8009040 <__gethex+0x14c>
 8008fcc:	7873      	ldrb	r3, [r6, #1]
 8008fce:	2b2b      	cmp	r3, #43	; 0x2b
 8008fd0:	d02a      	beq.n	8009028 <__gethex+0x134>
 8008fd2:	2b2d      	cmp	r3, #45	; 0x2d
 8008fd4:	d02c      	beq.n	8009030 <__gethex+0x13c>
 8008fd6:	f04f 0900 	mov.w	r9, #0
 8008fda:	1c71      	adds	r1, r6, #1
 8008fdc:	7808      	ldrb	r0, [r1, #0]
 8008fde:	f7ff ff74 	bl	8008eca <__hexdig_fun>
 8008fe2:	1e43      	subs	r3, r0, #1
 8008fe4:	b2db      	uxtb	r3, r3
 8008fe6:	2b18      	cmp	r3, #24
 8008fe8:	d82a      	bhi.n	8009040 <__gethex+0x14c>
 8008fea:	f1a0 0210 	sub.w	r2, r0, #16
 8008fee:	f811 0f01 	ldrb.w	r0, [r1, #1]!
 8008ff2:	f7ff ff6a 	bl	8008eca <__hexdig_fun>
 8008ff6:	1e43      	subs	r3, r0, #1
 8008ff8:	b2db      	uxtb	r3, r3
 8008ffa:	2b18      	cmp	r3, #24
 8008ffc:	d91b      	bls.n	8009036 <__gethex+0x142>
 8008ffe:	f1b9 0f00 	cmp.w	r9, #0
 8009002:	d000      	beq.n	8009006 <__gethex+0x112>
 8009004:	4252      	negs	r2, r2
 8009006:	4415      	add	r5, r2
 8009008:	f8cb 1000 	str.w	r1, [fp]
 800900c:	b1d4      	cbz	r4, 8009044 <__gethex+0x150>
 800900e:	9b01      	ldr	r3, [sp, #4]
 8009010:	2b00      	cmp	r3, #0
 8009012:	bf14      	ite	ne
 8009014:	2700      	movne	r7, #0
 8009016:	2706      	moveq	r7, #6
 8009018:	4638      	mov	r0, r7
 800901a:	b00b      	add	sp, #44	; 0x2c
 800901c:	e8bd 8ff0 	ldmia.w	sp!, {r4, r5, r6, r7, r8, r9, sl, fp, pc}
 8009020:	463e      	mov	r6, r7
 8009022:	4625      	mov	r5, r4
 8009024:	2401      	movs	r4, #1
 8009026:	e7cc      	b.n	8008fc2 <__gethex+0xce>
 8009028:	f04f 0900 	mov.w	r9, #0
 800902c:	1cb1      	adds	r1, r6, #2
 800902e:	e7d5      	b.n	8008fdc <__gethex+0xe8>
 8009030:	f04f 0901 	mov.w	r9, #1
 8009034:	e7fa      	b.n	800902c <__gethex+0x138>
 8009036:	230a      	movs	r3, #10
 8009038:	fb03 0202 	mla	r2, r3, r2, r0
 800903c:	3a10      	subs	r2, #16
 800903e:	e7d6      	b.n	8008fee <__gethex+0xfa>
 8009040:	4631      	mov	r1, r6
 8009042:	e7e1      	b.n	8009008 <__gethex+0x114>
 8009044:	4621      	mov	r1, r4
 8009046:	1bf3      	subs	r3, r6, r7
 8009048:	3b01      	subs	r3, #1
 800904a:	2b07      	cmp	r3, #7
 800904c:	dc0a      	bgt.n	8009064 <__gethex+0x170>
 800904e:	9802      	ldr	r0, [sp, #8]
 8009050:	f000 fa6c 	bl	800952c <_Balloc>
 8009054:	4604      	mov	r4, r0
 8009056:	b940      	cbnz	r0, 800906a <__gethex+0x176>
 8009058:	4602      	mov	r2, r0
 800905a:	21de      	movs	r1, #222	; 0xde
 800905c:	4b5b      	ldr	r3, [pc, #364]	; (80091cc <__gethex+0x2d8>)
 800905e:	485c      	ldr	r0, [pc, #368]	; (80091d0 <__gethex+0x2dc>)
 8009060:	f001 fa4a 	bl	800a4f8 <__assert_func>
 8009064:	3101      	adds	r1, #1
 8009066:	105b      	asrs	r3, r3, #1
 8009068:	e7ef      	b.n	800904a <__gethex+0x156>
 800906a:	f04f 0b00 	mov.w	fp, #0
 800906e:	f100 0914 	add.w	r9, r0, #20
 8009072:	f1ca 0301 	rsb	r3, sl, #1
 8009076:	f8cd 9010 	str.w	r9, [sp, #16]
 800907a:	f8cd b004 	str.w	fp, [sp, #4]
 800907e:	9308      	str	r3, [sp, #32]
 8009080:	42b7      	cmp	r7, r6
 8009082:	d33f      	bcc.n	8009104 <__gethex+0x210>
 8009084:	9f04      	ldr	r7, [sp, #16]
 8009086:	9b01      	ldr	r3, [sp, #4]
 8009088:	f847 3b04 	str.w	r3, [r7], #4
 800908c:	eba7 0709 	sub.w	r7, r7, r9
 8009090:	10bf      	asrs	r7, r7, #2
 8009092:	6127      	str	r7, [r4, #16]
 8009094:	4618      	mov	r0, r3
 8009096:	f000 fb3b 	bl	8009710 <__hi0bits>
 800909a:	017f      	lsls	r7, r7, #5
 800909c:	f8d8 6000 	ldr.w	r6, [r8]
 80090a0:	1a3f      	subs	r7, r7, r0
 80090a2:	42b7      	cmp	r7, r6
 80090a4:	dd62      	ble.n	800916c <__gethex+0x278>
 80090a6:	1bbf      	subs	r7, r7, r6
 80090a8:	4639      	mov	r1, r7
 80090aa:	4620      	mov	r0, r4
 80090ac:	f000 fed5 	bl	8009e5a <__any_on>
 80090b0:	4682      	mov	sl, r0
 80090b2:	b1a8      	cbz	r0, 80090e0 <__gethex+0x1ec>
 80090b4:	f04f 0a01 	mov.w	sl, #1
 80090b8:	1e7b      	subs	r3, r7, #1
 80090ba:	1159      	asrs	r1, r3, #5
 80090bc:	f859 1021 	ldr.w	r1, [r9, r1, lsl #2]
 80090c0:	f003 021f 	and.w	r2, r3, #31
 80090c4:	fa0a f202 	lsl.w	r2, sl, r2
 80090c8:	420a      	tst	r2, r1
 80090ca:	d009      	beq.n	80090e0 <__gethex+0x1ec>
 80090cc:	4553      	cmp	r3, sl
 80090ce:	dd05      	ble.n	80090dc <__gethex+0x1e8>
 80090d0:	4620      	mov	r0, r4
 80090d2:	1eb9      	subs	r1, r7, #2
 80090d4:	f000 fec1 	bl	8009e5a <__any_on>
 80090d8:	2800      	cmp	r0, #0
 80090da:	d144      	bne.n	8009166 <__gethex+0x272>
 80090dc:	f04f 0a02 	mov.w	sl, #2
 80090e0:	4639      	mov	r1, r7
 80090e2:	4620      	mov	r0, r4
 80090e4:	f7ff fe9e 	bl	8008e24 <rshift>
 80090e8:	443d      	add	r5, r7
 80090ea:	f8d8 3008 	ldr.w	r3, [r8, #8]
 80090ee:	42ab      	cmp	r3, r5
 80090f0:	da4a      	bge.n	8009188 <__gethex+0x294>
 80090f2:	4621      	mov	r1, r4
 80090f4:	9802      	ldr	r0, [sp, #8]
 80090f6:	f000 fa59 	bl	80095ac <_Bfree>
 80090fa:	2300      	movs	r3, #0
 80090fc:	9a14      	ldr	r2, [sp, #80]	; 0x50
 80090fe:	27a3      	movs	r7, #163	; 0xa3
 8009100:	6013      	str	r3, [r2, #0]
 8009102:	e789      	b.n	8009018 <__gethex+0x124>
 8009104:	1e73      	subs	r3, r6, #1
 8009106:	9a06      	ldr	r2, [sp, #24]
 8009108:	9307      	str	r3, [sp, #28]
 800910a:	f816 3c01 	ldrb.w	r3, [r6, #-1]
 800910e:	4293      	cmp	r3, r2
 8009110:	d019      	beq.n	8009146 <__gethex+0x252>
 8009112:	f1bb 0f20 	cmp.w	fp, #32
 8009116:	d107      	bne.n	8009128 <__gethex+0x234>
 8009118:	9b04      	ldr	r3, [sp, #16]
 800911a:	9a01      	ldr	r2, [sp, #4]
 800911c:	f843 2b04 	str.w	r2, [r3], #4
 8009120:	9304      	str	r3, [sp, #16]
 8009122:	2300      	movs	r3, #0
 8009124:	469b      	mov	fp, r3
 8009126:	9301      	str	r3, [sp, #4]
 8009128:	f816 0c01 	ldrb.w	r0, [r6, #-1]
 800912c:	f7ff fecd 	bl	8008eca <__hexdig_fun>
 8009130:	9b01      	ldr	r3, [sp, #4]
 8009132:	f000 000f 	and.w	r0, r0, #15
 8009136:	fa00 f00b 	lsl.w	r0, r0, fp
 800913a:	4303      	orrs	r3, r0
 800913c:	9301      	str	r3, [sp, #4]
 800913e:	f10b 0b04 	add.w	fp, fp, #4
 8009142:	9b07      	ldr	r3, [sp, #28]
 8009144:	e00d      	b.n	8009162 <__gethex+0x26e>
 8009146:	9a08      	ldr	r2, [sp, #32]
 8009148:	1e73      	subs	r3, r6, #1
 800914a:	4413      	add	r3, r2
 800914c:	42bb      	cmp	r3, r7
 800914e:	d3e0      	bcc.n	8009112 <__gethex+0x21e>
 8009150:	4618      	mov	r0, r3
 8009152:	4652      	mov	r2, sl
 8009154:	9903      	ldr	r1, [sp, #12]
 8009156:	9309      	str	r3, [sp, #36]	; 0x24
 8009158:	f001 f9ac 	bl	800a4b4 <strncmp>
 800915c:	9b09      	ldr	r3, [sp, #36]	; 0x24
 800915e:	2800      	cmp	r0, #0
 8009160:	d1d7      	bne.n	8009112 <__gethex+0x21e>
 8009162:	461e      	mov	r6, r3
 8009164:	e78c      	b.n	8009080 <__gethex+0x18c>
 8009166:	f04f 0a03 	mov.w	sl, #3
 800916a:	e7b9      	b.n	80090e0 <__gethex+0x1ec>
 800916c:	da09      	bge.n	8009182 <__gethex+0x28e>
 800916e:	1bf7      	subs	r7, r6, r7
 8009170:	4621      	mov	r1, r4
 8009172:	463a      	mov	r2, r7
 8009174:	9802      	ldr	r0, [sp, #8]
 8009176:	f000 fc31 	bl	80099dc <__lshift>
 800917a:	4604      	mov	r4, r0
 800917c:	1bed      	subs	r5, r5, r7
 800917e:	f100 0914 	add.w	r9, r0, #20
 8009182:	f04f 0a00 	mov.w	sl, #0
 8009186:	e7b0      	b.n	80090ea <__gethex+0x1f6>
 8009188:	f8d8 0004 	ldr.w	r0, [r8, #4]
 800918c:	42a8      	cmp	r0, r5
 800918e:	dd72      	ble.n	8009276 <__gethex+0x382>
 8009190:	1b45      	subs	r5, r0, r5
 8009192:	42ae      	cmp	r6, r5
 8009194:	dc35      	bgt.n	8009202 <__gethex+0x30e>
 8009196:	f8d8 300c 	ldr.w	r3, [r8, #12]
 800919a:	2b02      	cmp	r3, #2
 800919c:	d029      	beq.n	80091f2 <__gethex+0x2fe>
 800919e:	2b03      	cmp	r3, #3
 80091a0:	d02b      	beq.n	80091fa <__gethex+0x306>
 80091a2:	2b01      	cmp	r3, #1
 80091a4:	d11c      	bne.n	80091e0 <__gethex+0x2ec>
 80091a6:	42ae      	cmp	r6, r5
 80091a8:	d11a      	bne.n	80091e0 <__gethex+0x2ec>
 80091aa:	2e01      	cmp	r6, #1
 80091ac:	d112      	bne.n	80091d4 <__gethex+0x2e0>
 80091ae:	f8d8 3004 	ldr.w	r3, [r8, #4]
 80091b2:	9a05      	ldr	r2, [sp, #20]
 80091b4:	2762      	movs	r7, #98	; 0x62
 80091b6:	6013      	str	r3, [r2, #0]
 80091b8:	2301      	movs	r3, #1
 80091ba:	6123      	str	r3, [r4, #16]
 80091bc:	f8c9 3000 	str.w	r3, [r9]
 80091c0:	9b14      	ldr	r3, [sp, #80]	; 0x50
 80091c2:	601c      	str	r4, [r3, #0]
 80091c4:	e728      	b.n	8009018 <__gethex+0x124>
 80091c6:	bf00      	nop
 80091c8:	0800b280 	.word	0x0800b280
 80091cc:	0800b208 	.word	0x0800b208
 80091d0:	0800b219 	.word	0x0800b219
 80091d4:	4620      	mov	r0, r4
 80091d6:	1e71      	subs	r1, r6, #1
 80091d8:	f000 fe3f 	bl	8009e5a <__any_on>
 80091dc:	2800      	cmp	r0, #0
 80091de:	d1e6      	bne.n	80091ae <__gethex+0x2ba>
 80091e0:	4621      	mov	r1, r4
 80091e2:	9802      	ldr	r0, [sp, #8]
 80091e4:	f000 f9e2 	bl	80095ac <_Bfree>
 80091e8:	2300      	movs	r3, #0
 80091ea:	9a14      	ldr	r2, [sp, #80]	; 0x50
 80091ec:	2750      	movs	r7, #80	; 0x50
 80091ee:	6013      	str	r3, [r2, #0]
 80091f0:	e712      	b.n	8009018 <__gethex+0x124>
 80091f2:	9b15      	ldr	r3, [sp, #84]	; 0x54
 80091f4:	2b00      	cmp	r3, #0
 80091f6:	d1f3      	bne.n	80091e0 <__gethex+0x2ec>
 80091f8:	e7d9      	b.n	80091ae <__gethex+0x2ba>
 80091fa:	9b15      	ldr	r3, [sp, #84]	; 0x54
 80091fc:	2b00      	cmp	r3, #0
 80091fe:	d1d6      	bne.n	80091ae <__gethex+0x2ba>
 8009200:	e7ee      	b.n	80091e0 <__gethex+0x2ec>
 8009202:	1e6f      	subs	r7, r5, #1
 8009204:	f1ba 0f00 	cmp.w	sl, #0
 8009208:	d132      	bne.n	8009270 <__gethex+0x37c>
 800920a:	b127      	cbz	r7, 8009216 <__gethex+0x322>
 800920c:	4639      	mov	r1, r7
 800920e:	4620      	mov	r0, r4
 8009210:	f000 fe23 	bl	8009e5a <__any_on>
 8009214:	4682      	mov	sl, r0
 8009216:	2101      	movs	r1, #1
 8009218:	117b      	asrs	r3, r7, #5
 800921a:	f859 3023 	ldr.w	r3, [r9, r3, lsl #2]
 800921e:	f007 071f 	and.w	r7, r7, #31
 8009222:	fa01 f707 	lsl.w	r7, r1, r7
 8009226:	421f      	tst	r7, r3
 8009228:	f04f 0702 	mov.w	r7, #2
 800922c:	4629      	mov	r1, r5
 800922e:	4620      	mov	r0, r4
 8009230:	bf18      	it	ne
 8009232:	f04a 0a02 	orrne.w	sl, sl, #2
 8009236:	1b76      	subs	r6, r6, r5
 8009238:	f7ff fdf4 	bl	8008e24 <rshift>
 800923c:	f8d8 5004 	ldr.w	r5, [r8, #4]
 8009240:	f1ba 0f00 	cmp.w	sl, #0
 8009244:	d048      	beq.n	80092d8 <__gethex+0x3e4>
 8009246:	f8d8 300c 	ldr.w	r3, [r8, #12]
 800924a:	2b02      	cmp	r3, #2
 800924c:	d015      	beq.n	800927a <__gethex+0x386>
 800924e:	2b03      	cmp	r3, #3
 8009250:	d017      	beq.n	8009282 <__gethex+0x38e>
 8009252:	2b01      	cmp	r3, #1
 8009254:	d109      	bne.n	800926a <__gethex+0x376>
 8009256:	f01a 0f02 	tst.w	sl, #2
 800925a:	d006      	beq.n	800926a <__gethex+0x376>
 800925c:	f8d9 0000 	ldr.w	r0, [r9]
 8009260:	ea4a 0a00 	orr.w	sl, sl, r0
 8009264:	f01a 0f01 	tst.w	sl, #1
 8009268:	d10e      	bne.n	8009288 <__gethex+0x394>
 800926a:	f047 0710 	orr.w	r7, r7, #16
 800926e:	e033      	b.n	80092d8 <__gethex+0x3e4>
 8009270:	f04f 0a01 	mov.w	sl, #1
 8009274:	e7cf      	b.n	8009216 <__gethex+0x322>
 8009276:	2701      	movs	r7, #1
 8009278:	e7e2      	b.n	8009240 <__gethex+0x34c>
 800927a:	9b15      	ldr	r3, [sp, #84]	; 0x54
 800927c:	f1c3 0301 	rsb	r3, r3, #1
 8009280:	9315      	str	r3, [sp, #84]	; 0x54
 8009282:	9b15      	ldr	r3, [sp, #84]	; 0x54
 8009284:	2b00      	cmp	r3, #0
 8009286:	d0f0      	beq.n	800926a <__gethex+0x376>
 8009288:	f04f 0c00 	mov.w	ip, #0
 800928c:	f8d4 b010 	ldr.w	fp, [r4, #16]
 8009290:	f104 0314 	add.w	r3, r4, #20
 8009294:	ea4f 0a8b 	mov.w	sl, fp, lsl #2
 8009298:	eb03 018b 	add.w	r1, r3, fp, lsl #2
 800929c:	4618      	mov	r0, r3
 800929e:	f853 2b04 	ldr.w	r2, [r3], #4
 80092a2:	f1b2 3fff 	cmp.w	r2, #4294967295
 80092a6:	d01c      	beq.n	80092e2 <__gethex+0x3ee>
 80092a8:	3201      	adds	r2, #1
 80092aa:	6002      	str	r2, [r0, #0]
 80092ac:	2f02      	cmp	r7, #2
 80092ae:	f104 0314 	add.w	r3, r4, #20
 80092b2:	d13d      	bne.n	8009330 <__gethex+0x43c>
 80092b4:	f8d8 2000 	ldr.w	r2, [r8]
 80092b8:	3a01      	subs	r2, #1
 80092ba:	42b2      	cmp	r2, r6
 80092bc:	d10a      	bne.n	80092d4 <__gethex+0x3e0>
 80092be:	2201      	movs	r2, #1
 80092c0:	1171      	asrs	r1, r6, #5
 80092c2:	f853 3021 	ldr.w	r3, [r3, r1, lsl #2]
 80092c6:	f006 061f 	and.w	r6, r6, #31
 80092ca:	fa02 f606 	lsl.w	r6, r2, r6
 80092ce:	421e      	tst	r6, r3
 80092d0:	bf18      	it	ne
 80092d2:	4617      	movne	r7, r2
 80092d4:	f047 0720 	orr.w	r7, r7, #32
 80092d8:	9b14      	ldr	r3, [sp, #80]	; 0x50
 80092da:	601c      	str	r4, [r3, #0]
 80092dc:	9b05      	ldr	r3, [sp, #20]
 80092de:	601d      	str	r5, [r3, #0]
 80092e0:	e69a      	b.n	8009018 <__gethex+0x124>
 80092e2:	4299      	cmp	r1, r3
 80092e4:	f843 cc04 	str.w	ip, [r3, #-4]
 80092e8:	d8d8      	bhi.n	800929c <__gethex+0x3a8>
 80092ea:	68a3      	ldr	r3, [r4, #8]
 80092ec:	459b      	cmp	fp, r3
 80092ee:	db17      	blt.n	8009320 <__gethex+0x42c>
 80092f0:	6861      	ldr	r1, [r4, #4]
 80092f2:	9802      	ldr	r0, [sp, #8]
 80092f4:	3101      	adds	r1, #1
 80092f6:	f000 f919 	bl	800952c <_Balloc>
 80092fa:	4681      	mov	r9, r0
 80092fc:	b918      	cbnz	r0, 8009306 <__gethex+0x412>
 80092fe:	4602      	mov	r2, r0
 8009300:	2184      	movs	r1, #132	; 0x84
 8009302:	4b19      	ldr	r3, [pc, #100]	; (8009368 <__gethex+0x474>)
 8009304:	e6ab      	b.n	800905e <__gethex+0x16a>
 8009306:	6922      	ldr	r2, [r4, #16]
 8009308:	f104 010c 	add.w	r1, r4, #12
 800930c:	3202      	adds	r2, #2
 800930e:	0092      	lsls	r2, r2, #2
 8009310:	300c      	adds	r0, #12
 8009312:	f7fe fdd7 	bl	8007ec4 <memcpy>
 8009316:	4621      	mov	r1, r4
 8009318:	9802      	ldr	r0, [sp, #8]
 800931a:	f000 f947 	bl	80095ac <_Bfree>
 800931e:	464c      	mov	r4, r9
 8009320:	6923      	ldr	r3, [r4, #16]
 8009322:	1c5a      	adds	r2, r3, #1
 8009324:	6122      	str	r2, [r4, #16]
 8009326:	2201      	movs	r2, #1
 8009328:	eb04 0383 	add.w	r3, r4, r3, lsl #2
 800932c:	615a      	str	r2, [r3, #20]
 800932e:	e7bd      	b.n	80092ac <__gethex+0x3b8>
 8009330:	6922      	ldr	r2, [r4, #16]
 8009332:	455a      	cmp	r2, fp
 8009334:	dd0b      	ble.n	800934e <__gethex+0x45a>
 8009336:	2101      	movs	r1, #1
 8009338:	4620      	mov	r0, r4
 800933a:	f7ff fd73 	bl	8008e24 <rshift>
 800933e:	f8d8 3008 	ldr.w	r3, [r8, #8]
 8009342:	3501      	adds	r5, #1
 8009344:	42ab      	cmp	r3, r5
 8009346:	f6ff aed4 	blt.w	80090f2 <__gethex+0x1fe>
 800934a:	2701      	movs	r7, #1
 800934c:	e7c2      	b.n	80092d4 <__gethex+0x3e0>
 800934e:	f016 061f 	ands.w	r6, r6, #31
 8009352:	d0fa      	beq.n	800934a <__gethex+0x456>
 8009354:	4453      	add	r3, sl
 8009356:	f853 0c04 	ldr.w	r0, [r3, #-4]
 800935a:	f000 f9d9 	bl	8009710 <__hi0bits>
 800935e:	f1c6 0620 	rsb	r6, r6, #32
 8009362:	42b0      	cmp	r0, r6
 8009364:	dbe7      	blt.n	8009336 <__gethex+0x442>
 8009366:	e7f0      	b.n	800934a <__gethex+0x456>
 8009368:	0800b208 	.word	0x0800b208

0800936c <L_shift>:
 800936c:	f1c2 0208 	rsb	r2, r2, #8
 8009370:	0092      	lsls	r2, r2, #2
 8009372:	b570      	push	{r4, r5, r6, lr}
 8009374:	f1c2 0620 	rsb	r6, r2, #32
 8009378:	6843      	ldr	r3, [r0, #4]
 800937a:	6804      	ldr	r4, [r0, #0]
 800937c:	fa03 f506 	lsl.w	r5, r3, r6
 8009380:	432c      	orrs	r4, r5
 8009382:	40d3      	lsrs	r3, r2
 8009384:	6004      	str	r4, [r0, #0]
 8009386:	f840 3f04 	str.w	r3, [r0, #4]!
 800938a:	4288      	cmp	r0, r1
 800938c:	d3f4      	bcc.n	8009378 <L_shift+0xc>
 800938e:	bd70      	pop	{r4, r5, r6, pc}

08009390 <__match>:
 8009390:	b530      	push	{r4, r5, lr}
 8009392:	6803      	ldr	r3, [r0, #0]
 8009394:	3301      	adds	r3, #1
 8009396:	f811 4b01 	ldrb.w	r4, [r1], #1
 800939a:	b914      	cbnz	r4, 80093a2 <__match+0x12>
 800939c:	6003      	str	r3, [r0, #0]
 800939e:	2001      	movs	r0, #1
 80093a0:	bd30      	pop	{r4, r5, pc}
 80093a2:	f813 2b01 	ldrb.w	r2, [r3], #1
 80093a6:	f1a2 0541 	sub.w	r5, r2, #65	; 0x41
 80093aa:	2d19      	cmp	r5, #25
 80093ac:	bf98      	it	ls
 80093ae:	3220      	addls	r2, #32
 80093b0:	42a2      	cmp	r2, r4
 80093b2:	d0f0      	beq.n	8009396 <__match+0x6>
 80093b4:	2000      	movs	r0, #0
 80093b6:	e7f3      	b.n	80093a0 <__match+0x10>

080093b8 <__hexnan>:
 80093b8:	e92d 4ff0 	stmdb	sp!, {r4, r5, r6, r7, r8, r9, sl, fp, lr}
 80093bc:	2500      	movs	r5, #0
 80093be:	680b      	ldr	r3, [r1, #0]
 80093c0:	4682      	mov	sl, r0
 80093c2:	115e      	asrs	r6, r3, #5
 80093c4:	eb02 0686 	add.w	r6, r2, r6, lsl #2
 80093c8:	f013 031f 	ands.w	r3, r3, #31
 80093cc:	bf18      	it	ne
 80093ce:	3604      	addne	r6, #4
 80093d0:	1f37      	subs	r7, r6, #4
 80093d2:	46b9      	mov	r9, r7
 80093d4:	463c      	mov	r4, r7
 80093d6:	46ab      	mov	fp, r5
 80093d8:	b087      	sub	sp, #28
 80093da:	4690      	mov	r8, r2
 80093dc:	6802      	ldr	r2, [r0, #0]
 80093de:	9301      	str	r3, [sp, #4]
 80093e0:	f846 5c04 	str.w	r5, [r6, #-4]
 80093e4:	9502      	str	r5, [sp, #8]
 80093e6:	7851      	ldrb	r1, [r2, #1]
 80093e8:	1c53      	adds	r3, r2, #1
 80093ea:	9303      	str	r3, [sp, #12]
 80093ec:	b341      	cbz	r1, 8009440 <__hexnan+0x88>
 80093ee:	4608      	mov	r0, r1
 80093f0:	9205      	str	r2, [sp, #20]
 80093f2:	9104      	str	r1, [sp, #16]
 80093f4:	f7ff fd69 	bl	8008eca <__hexdig_fun>
 80093f8:	2800      	cmp	r0, #0
 80093fa:	d14f      	bne.n	800949c <__hexnan+0xe4>
 80093fc:	9904      	ldr	r1, [sp, #16]
 80093fe:	9a05      	ldr	r2, [sp, #20]
 8009400:	2920      	cmp	r1, #32
 8009402:	d818      	bhi.n	8009436 <__hexnan+0x7e>
 8009404:	9b02      	ldr	r3, [sp, #8]
 8009406:	459b      	cmp	fp, r3
 8009408:	dd13      	ble.n	8009432 <__hexnan+0x7a>
 800940a:	454c      	cmp	r4, r9
 800940c:	d206      	bcs.n	800941c <__hexnan+0x64>
 800940e:	2d07      	cmp	r5, #7
 8009410:	dc04      	bgt.n	800941c <__hexnan+0x64>
 8009412:	462a      	mov	r2, r5
 8009414:	4649      	mov	r1, r9
 8009416:	4620      	mov	r0, r4
 8009418:	f7ff ffa8 	bl	800936c <L_shift>
 800941c:	4544      	cmp	r4, r8
 800941e:	d950      	bls.n	80094c2 <__hexnan+0x10a>
 8009420:	2300      	movs	r3, #0
 8009422:	f1a4 0904 	sub.w	r9, r4, #4
 8009426:	f844 3c04 	str.w	r3, [r4, #-4]
 800942a:	461d      	mov	r5, r3
 800942c:	464c      	mov	r4, r9
 800942e:	f8cd b008 	str.w	fp, [sp, #8]
 8009432:	9a03      	ldr	r2, [sp, #12]
 8009434:	e7d7      	b.n	80093e6 <__hexnan+0x2e>
 8009436:	2929      	cmp	r1, #41	; 0x29
 8009438:	d156      	bne.n	80094e8 <__hexnan+0x130>
 800943a:	3202      	adds	r2, #2
 800943c:	f8ca 2000 	str.w	r2, [sl]
 8009440:	f1bb 0f00 	cmp.w	fp, #0
 8009444:	d050      	beq.n	80094e8 <__hexnan+0x130>
 8009446:	454c      	cmp	r4, r9
 8009448:	d206      	bcs.n	8009458 <__hexnan+0xa0>
 800944a:	2d07      	cmp	r5, #7
 800944c:	dc04      	bgt.n	8009458 <__hexnan+0xa0>
 800944e:	462a      	mov	r2, r5
 8009450:	4649      	mov	r1, r9
 8009452:	4620      	mov	r0, r4
 8009454:	f7ff ff8a 	bl	800936c <L_shift>
 8009458:	4544      	cmp	r4, r8
 800945a:	d934      	bls.n	80094c6 <__hexnan+0x10e>
 800945c:	4623      	mov	r3, r4
 800945e:	f1a8 0204 	sub.w	r2, r8, #4
 8009462:	f853 1b04 	ldr.w	r1, [r3], #4
 8009466:	429f      	cmp	r7, r3
 8009468:	f842 1f04 	str.w	r1, [r2, #4]!
 800946c:	d2f9      	bcs.n	8009462 <__hexnan+0xaa>
 800946e:	1b3b      	subs	r3, r7, r4
 8009470:	f023 0303 	bic.w	r3, r3, #3
 8009474:	3304      	adds	r3, #4
 8009476:	3401      	adds	r4, #1
 8009478:	3e03      	subs	r6, #3
 800947a:	42b4      	cmp	r4, r6
 800947c:	bf88      	it	hi
 800947e:	2304      	movhi	r3, #4
 8009480:	2200      	movs	r2, #0
 8009482:	4443      	add	r3, r8
 8009484:	f843 2b04 	str.w	r2, [r3], #4
 8009488:	429f      	cmp	r7, r3
 800948a:	d2fb      	bcs.n	8009484 <__hexnan+0xcc>
 800948c:	683b      	ldr	r3, [r7, #0]
 800948e:	b91b      	cbnz	r3, 8009498 <__hexnan+0xe0>
 8009490:	4547      	cmp	r7, r8
 8009492:	d127      	bne.n	80094e4 <__hexnan+0x12c>
 8009494:	2301      	movs	r3, #1
 8009496:	603b      	str	r3, [r7, #0]
 8009498:	2005      	movs	r0, #5
 800949a:	e026      	b.n	80094ea <__hexnan+0x132>
 800949c:	3501      	adds	r5, #1
 800949e:	2d08      	cmp	r5, #8
 80094a0:	f10b 0b01 	add.w	fp, fp, #1
 80094a4:	dd06      	ble.n	80094b4 <__hexnan+0xfc>
 80094a6:	4544      	cmp	r4, r8
 80094a8:	d9c3      	bls.n	8009432 <__hexnan+0x7a>
 80094aa:	2300      	movs	r3, #0
 80094ac:	2501      	movs	r5, #1
 80094ae:	f844 3c04 	str.w	r3, [r4, #-4]
 80094b2:	3c04      	subs	r4, #4
 80094b4:	6822      	ldr	r2, [r4, #0]
 80094b6:	f000 000f 	and.w	r0, r0, #15
 80094ba:	ea40 1202 	orr.w	r2, r0, r2, lsl #4
 80094be:	6022      	str	r2, [r4, #0]
 80094c0:	e7b7      	b.n	8009432 <__hexnan+0x7a>
 80094c2:	2508      	movs	r5, #8
 80094c4:	e7b5      	b.n	8009432 <__hexnan+0x7a>
 80094c6:	9b01      	ldr	r3, [sp, #4]
 80094c8:	2b00      	cmp	r3, #0
 80094ca:	d0df      	beq.n	800948c <__hexnan+0xd4>
 80094cc:	f04f 32ff 	mov.w	r2, #4294967295
 80094d0:	f1c3 0320 	rsb	r3, r3, #32
 80094d4:	fa22 f303 	lsr.w	r3, r2, r3
 80094d8:	f856 2c04 	ldr.w	r2, [r6, #-4]
 80094dc:	401a      	ands	r2, r3
 80094de:	f846 2c04 	str.w	r2, [r6, #-4]
 80094e2:	e7d3      	b.n	800948c <__hexnan+0xd4>
 80094e4:	3f04      	subs	r7, #4
 80094e6:	e7d1      	b.n	800948c <__hexnan+0xd4>
 80094e8:	2004      	movs	r0, #4
 80094ea:	b007      	add	sp, #28
 80094ec:	e8bd 8ff0 	ldmia.w	sp!, {r4, r5, r6, r7, r8, r9, sl, fp, pc}

080094f0 <__ascii_mbtowc>:
 80094f0:	b082      	sub	sp, #8
 80094f2:	b901      	cbnz	r1, 80094f6 <__ascii_mbtowc+0x6>
 80094f4:	a901      	add	r1, sp, #4
 80094f6:	b142      	cbz	r2, 800950a <__ascii_mbtowc+0x1a>
 80094f8:	b14b      	cbz	r3, 800950e <__ascii_mbtowc+0x1e>
 80094fa:	7813      	ldrb	r3, [r2, #0]
 80094fc:	600b      	str	r3, [r1, #0]
 80094fe:	7812      	ldrb	r2, [r2, #0]
 8009500:	1e10      	subs	r0, r2, #0
 8009502:	bf18      	it	ne
 8009504:	2001      	movne	r0, #1
 8009506:	b002      	add	sp, #8
 8009508:	4770      	bx	lr
 800950a:	4610      	mov	r0, r2
 800950c:	e7fb      	b.n	8009506 <__ascii_mbtowc+0x16>
 800950e:	f06f 0001 	mvn.w	r0, #1
 8009512:	e7f8      	b.n	8009506 <__ascii_mbtowc+0x16>

08009514 <__malloc_lock>:
 8009514:	4801      	ldr	r0, [pc, #4]	; (800951c <__malloc_lock+0x8>)
 8009516:	f001 b820 	b.w	800a55a <__retarget_lock_acquire_recursive>
 800951a:	bf00      	nop
 800951c:	200015b4 	.word	0x200015b4

08009520 <__malloc_unlock>:
 8009520:	4801      	ldr	r0, [pc, #4]	; (8009528 <__malloc_unlock+0x8>)
 8009522:	f001 b81b 	b.w	800a55c <__retarget_lock_release_recursive>
 8009526:	bf00      	nop
 8009528:	200015b4 	.word	0x200015b4

0800952c <_Balloc>:
 800952c:	b570      	push	{r4, r5, r6, lr}
 800952e:	6a46      	ldr	r6, [r0, #36]	; 0x24
 8009530:	4604      	mov	r4, r0
 8009532:	460d      	mov	r5, r1
 8009534:	b976      	cbnz	r6, 8009554 <_Balloc+0x28>
 8009536:	2010      	movs	r0, #16
 8009538:	f7fe fca6 	bl	8007e88 <malloc>
 800953c:	4602      	mov	r2, r0
 800953e:	6260      	str	r0, [r4, #36]	; 0x24
 8009540:	b920      	cbnz	r0, 800954c <_Balloc+0x20>
 8009542:	2166      	movs	r1, #102	; 0x66
 8009544:	4b17      	ldr	r3, [pc, #92]	; (80095a4 <_Balloc+0x78>)
 8009546:	4818      	ldr	r0, [pc, #96]	; (80095a8 <_Balloc+0x7c>)
 8009548:	f000 ffd6 	bl	800a4f8 <__assert_func>
 800954c:	e9c0 6601 	strd	r6, r6, [r0, #4]
 8009550:	6006      	str	r6, [r0, #0]
 8009552:	60c6      	str	r6, [r0, #12]
 8009554:	6a66      	ldr	r6, [r4, #36]	; 0x24
 8009556:	68f3      	ldr	r3, [r6, #12]
 8009558:	b183      	cbz	r3, 800957c <_Balloc+0x50>
 800955a:	6a63      	ldr	r3, [r4, #36]	; 0x24
 800955c:	68db      	ldr	r3, [r3, #12]
 800955e:	f853 0025 	ldr.w	r0, [r3, r5, lsl #2]
 8009562:	b9b8      	cbnz	r0, 8009594 <_Balloc+0x68>
 8009564:	2101      	movs	r1, #1
 8009566:	fa01 f605 	lsl.w	r6, r1, r5
 800956a:	1d72      	adds	r2, r6, #5
 800956c:	4620      	mov	r0, r4
 800956e:	0092      	lsls	r2, r2, #2
 8009570:	f000 fc94 	bl	8009e9c <_calloc_r>
 8009574:	b160      	cbz	r0, 8009590 <_Balloc+0x64>
 8009576:	e9c0 5601 	strd	r5, r6, [r0, #4]
 800957a:	e00e      	b.n	800959a <_Balloc+0x6e>
 800957c:	2221      	movs	r2, #33	; 0x21
 800957e:	2104      	movs	r1, #4
 8009580:	4620      	mov	r0, r4
 8009582:	f000 fc8b 	bl	8009e9c <_calloc_r>
 8009586:	6a63      	ldr	r3, [r4, #36]	; 0x24
 8009588:	60f0      	str	r0, [r6, #12]
 800958a:	68db      	ldr	r3, [r3, #12]
 800958c:	2b00      	cmp	r3, #0
 800958e:	d1e4      	bne.n	800955a <_Balloc+0x2e>
 8009590:	2000      	movs	r0, #0
 8009592:	bd70      	pop	{r4, r5, r6, pc}
 8009594:	6802      	ldr	r2, [r0, #0]
 8009596:	f843 2025 	str.w	r2, [r3, r5, lsl #2]
 800959a:	2300      	movs	r3, #0
 800959c:	e9c0 3303 	strd	r3, r3, [r0, #12]
 80095a0:	e7f7      	b.n	8009592 <_Balloc+0x66>
 80095a2:	bf00      	nop
 80095a4:	0800b294 	.word	0x0800b294
 80095a8:	0800b2ab 	.word	0x0800b2ab

080095ac <_Bfree>:
 80095ac:	b570      	push	{r4, r5, r6, lr}
 80095ae:	6a46      	ldr	r6, [r0, #36]	; 0x24
 80095b0:	4605      	mov	r5, r0
 80095b2:	460c      	mov	r4, r1
 80095b4:	b976      	cbnz	r6, 80095d4 <_Bfree+0x28>
 80095b6:	2010      	movs	r0, #16
 80095b8:	f7fe fc66 	bl	8007e88 <malloc>
 80095bc:	4602      	mov	r2, r0
 80095be:	6268      	str	r0, [r5, #36]	; 0x24
 80095c0:	b920      	cbnz	r0, 80095cc <_Bfree+0x20>
 80095c2:	218a      	movs	r1, #138	; 0x8a
 80095c4:	4b08      	ldr	r3, [pc, #32]	; (80095e8 <_Bfree+0x3c>)
 80095c6:	4809      	ldr	r0, [pc, #36]	; (80095ec <_Bfree+0x40>)
 80095c8:	f000 ff96 	bl	800a4f8 <__assert_func>
 80095cc:	e9c0 6601 	strd	r6, r6, [r0, #4]
 80095d0:	6006      	str	r6, [r0, #0]
 80095d2:	60c6      	str	r6, [r0, #12]
 80095d4:	b13c      	cbz	r4, 80095e6 <_Bfree+0x3a>
 80095d6:	6a6b      	ldr	r3, [r5, #36]	; 0x24
 80095d8:	6862      	ldr	r2, [r4, #4]
 80095da:	68db      	ldr	r3, [r3, #12]
 80095dc:	f853 1022 	ldr.w	r1, [r3, r2, lsl #2]
 80095e0:	6021      	str	r1, [r4, #0]
 80095e2:	f843 4022 	str.w	r4, [r3, r2, lsl #2]
 80095e6:	bd70      	pop	{r4, r5, r6, pc}
 80095e8:	0800b294 	.word	0x0800b294
 80095ec:	0800b2ab 	.word	0x0800b2ab

080095f0 <__multadd>:
 80095f0:	e92d 41f0 	stmdb	sp!, {r4, r5, r6, r7, r8, lr}
 80095f4:	4607      	mov	r7, r0
 80095f6:	460c      	mov	r4, r1
 80095f8:	461e      	mov	r6, r3
 80095fa:	2000      	movs	r0, #0
 80095fc:	690d      	ldr	r5, [r1, #16]
 80095fe:	f101 0c14 	add.w	ip, r1, #20
 8009602:	f8dc 3000 	ldr.w	r3, [ip]
 8009606:	3001      	adds	r0, #1
 8009608:	b299      	uxth	r1, r3
 800960a:	fb02 6101 	mla	r1, r2, r1, r6
 800960e:	0c1e      	lsrs	r6, r3, #16
 8009610:	0c0b      	lsrs	r3, r1, #16
 8009612:	fb02 3306 	mla	r3, r2, r6, r3
 8009616:	b289      	uxth	r1, r1
 8009618:	eb01 4103 	add.w	r1, r1, r3, lsl #16
 800961c:	4285      	cmp	r5, r0
 800961e:	ea4f 4613 	mov.w	r6, r3, lsr #16
 8009622:	f84c 1b04 	str.w	r1, [ip], #4
 8009626:	dcec      	bgt.n	8009602 <__multadd+0x12>
 8009628:	b30e      	cbz	r6, 800966e <__multadd+0x7e>
 800962a:	68a3      	ldr	r3, [r4, #8]
 800962c:	42ab      	cmp	r3, r5
 800962e:	dc19      	bgt.n	8009664 <__multadd+0x74>
 8009630:	6861      	ldr	r1, [r4, #4]
 8009632:	4638      	mov	r0, r7
 8009634:	3101      	adds	r1, #1
 8009636:	f7ff ff79 	bl	800952c <_Balloc>
 800963a:	4680      	mov	r8, r0
 800963c:	b928      	cbnz	r0, 800964a <__multadd+0x5a>
 800963e:	4602      	mov	r2, r0
 8009640:	21b5      	movs	r1, #181	; 0xb5
 8009642:	4b0c      	ldr	r3, [pc, #48]	; (8009674 <__multadd+0x84>)
 8009644:	480c      	ldr	r0, [pc, #48]	; (8009678 <__multadd+0x88>)
 8009646:	f000 ff57 	bl	800a4f8 <__assert_func>
 800964a:	6922      	ldr	r2, [r4, #16]
 800964c:	f104 010c 	add.w	r1, r4, #12
 8009650:	3202      	adds	r2, #2
 8009652:	0092      	lsls	r2, r2, #2
 8009654:	300c      	adds	r0, #12
 8009656:	f7fe fc35 	bl	8007ec4 <memcpy>
 800965a:	4621      	mov	r1, r4
 800965c:	4638      	mov	r0, r7
 800965e:	f7ff ffa5 	bl	80095ac <_Bfree>
 8009662:	4644      	mov	r4, r8
 8009664:	eb04 0385 	add.w	r3, r4, r5, lsl #2
 8009668:	3501      	adds	r5, #1
 800966a:	615e      	str	r6, [r3, #20]
 800966c:	6125      	str	r5, [r4, #16]
 800966e:	4620      	mov	r0, r4
 8009670:	e8bd 81f0 	ldmia.w	sp!, {r4, r5, r6, r7, r8, pc}
 8009674:	0800b208 	.word	0x0800b208
 8009678:	0800b2ab 	.word	0x0800b2ab

0800967c <__s2b>:
 800967c:	e92d 43f8 	stmdb	sp!, {r3, r4, r5, r6, r7, r8, r9, lr}
 8009680:	4615      	mov	r5, r2
 8009682:	2209      	movs	r2, #9
 8009684:	461f      	mov	r7, r3
 8009686:	3308      	adds	r3, #8
 8009688:	460c      	mov	r4, r1
 800968a:	fb93 f3f2 	sdiv	r3, r3, r2
 800968e:	4606      	mov	r6, r0
 8009690:	2201      	movs	r2, #1
 8009692:	2100      	movs	r1, #0
 8009694:	429a      	cmp	r2, r3
 8009696:	db09      	blt.n	80096ac <__s2b+0x30>
 8009698:	4630      	mov	r0, r6
 800969a:	f7ff ff47 	bl	800952c <_Balloc>
 800969e:	b940      	cbnz	r0, 80096b2 <__s2b+0x36>
 80096a0:	4602      	mov	r2, r0
 80096a2:	21ce      	movs	r1, #206	; 0xce
 80096a4:	4b18      	ldr	r3, [pc, #96]	; (8009708 <__s2b+0x8c>)
 80096a6:	4819      	ldr	r0, [pc, #100]	; (800970c <__s2b+0x90>)
 80096a8:	f000 ff26 	bl	800a4f8 <__assert_func>
 80096ac:	0052      	lsls	r2, r2, #1
 80096ae:	3101      	adds	r1, #1
 80096b0:	e7f0      	b.n	8009694 <__s2b+0x18>
 80096b2:	9b08      	ldr	r3, [sp, #32]
 80096b4:	2d09      	cmp	r5, #9
 80096b6:	6143      	str	r3, [r0, #20]
 80096b8:	f04f 0301 	mov.w	r3, #1
 80096bc:	6103      	str	r3, [r0, #16]
 80096be:	dd16      	ble.n	80096ee <__s2b+0x72>
 80096c0:	f104 0909 	add.w	r9, r4, #9
 80096c4:	46c8      	mov	r8, r9
 80096c6:	442c      	add	r4, r5
 80096c8:	f818 3b01 	ldrb.w	r3, [r8], #1
 80096cc:	4601      	mov	r1, r0
 80096ce:	220a      	movs	r2, #10
 80096d0:	4630      	mov	r0, r6
 80096d2:	3b30      	subs	r3, #48	; 0x30
 80096d4:	f7ff ff8c 	bl	80095f0 <__multadd>
 80096d8:	45a0      	cmp	r8, r4
 80096da:	d1f5      	bne.n	80096c8 <__s2b+0x4c>
 80096dc:	f1a5 0408 	sub.w	r4, r5, #8
 80096e0:	444c      	add	r4, r9
 80096e2:	1b2d      	subs	r5, r5, r4
 80096e4:	1963      	adds	r3, r4, r5
 80096e6:	42bb      	cmp	r3, r7
 80096e8:	db04      	blt.n	80096f4 <__s2b+0x78>
 80096ea:	e8bd 83f8 	ldmia.w	sp!, {r3, r4, r5, r6, r7, r8, r9, pc}
 80096ee:	2509      	movs	r5, #9
 80096f0:	340a      	adds	r4, #10
 80096f2:	e7f6      	b.n	80096e2 <__s2b+0x66>
 80096f4:	f814 3b01 	ldrb.w	r3, [r4], #1
 80096f8:	4601      	mov	r1, r0
 80096fa:	220a      	movs	r2, #10
 80096fc:	4630      	mov	r0, r6
 80096fe:	3b30      	subs	r3, #48	; 0x30
 8009700:	f7ff ff76 	bl	80095f0 <__multadd>
 8009704:	e7ee      	b.n	80096e4 <__s2b+0x68>
 8009706:	bf00      	nop
 8009708:	0800b208 	.word	0x0800b208
 800970c:	0800b2ab 	.word	0x0800b2ab

08009710 <__hi0bits>:
 8009710:	0c02      	lsrs	r2, r0, #16
 8009712:	0412      	lsls	r2, r2, #16
 8009714:	4603      	mov	r3, r0
 8009716:	b9ca      	cbnz	r2, 800974c <__hi0bits+0x3c>
 8009718:	0403      	lsls	r3, r0, #16
 800971a:	2010      	movs	r0, #16
 800971c:	f013 4f7f 	tst.w	r3, #4278190080	; 0xff000000
 8009720:	bf04      	itt	eq
 8009722:	021b      	lsleq	r3, r3, #8
 8009724:	3008      	addeq	r0, #8
 8009726:	f013 4f70 	tst.w	r3, #4026531840	; 0xf0000000
 800972a:	bf04      	itt	eq
 800972c:	011b      	lsleq	r3, r3, #4
 800972e:	3004      	addeq	r0, #4
 8009730:	f013 4f40 	tst.w	r3, #3221225472	; 0xc0000000
 8009734:	bf04      	itt	eq
 8009736:	009b      	lsleq	r3, r3, #2
 8009738:	3002      	addeq	r0, #2
 800973a:	2b00      	cmp	r3, #0
 800973c:	db05      	blt.n	800974a <__hi0bits+0x3a>
 800973e:	f013 4f80 	tst.w	r3, #1073741824	; 0x40000000
 8009742:	f100 0001 	add.w	r0, r0, #1
 8009746:	bf08      	it	eq
 8009748:	2020      	moveq	r0, #32
 800974a:	4770      	bx	lr
 800974c:	2000      	movs	r0, #0
 800974e:	e7e5      	b.n	800971c <__hi0bits+0xc>

08009750 <__lo0bits>:
 8009750:	6803      	ldr	r3, [r0, #0]
 8009752:	4602      	mov	r2, r0
 8009754:	f013 0007 	ands.w	r0, r3, #7
 8009758:	d00b      	beq.n	8009772 <__lo0bits+0x22>
 800975a:	07d9      	lsls	r1, r3, #31
 800975c:	d421      	bmi.n	80097a2 <__lo0bits+0x52>
 800975e:	0798      	lsls	r0, r3, #30
 8009760:	bf49      	itett	mi
 8009762:	085b      	lsrmi	r3, r3, #1
 8009764:	089b      	lsrpl	r3, r3, #2
 8009766:	2001      	movmi	r0, #1
 8009768:	6013      	strmi	r3, [r2, #0]
 800976a:	bf5c      	itt	pl
 800976c:	2002      	movpl	r0, #2
 800976e:	6013      	strpl	r3, [r2, #0]
 8009770:	4770      	bx	lr
 8009772:	b299      	uxth	r1, r3
 8009774:	b909      	cbnz	r1, 800977a <__lo0bits+0x2a>
 8009776:	2010      	movs	r0, #16
 8009778:	0c1b      	lsrs	r3, r3, #16
 800977a:	b2d9      	uxtb	r1, r3
 800977c:	b909      	cbnz	r1, 8009782 <__lo0bits+0x32>
 800977e:	3008      	adds	r0, #8
 8009780:	0a1b      	lsrs	r3, r3, #8
 8009782:	0719      	lsls	r1, r3, #28
 8009784:	bf04      	itt	eq
 8009786:	091b      	lsreq	r3, r3, #4
 8009788:	3004      	addeq	r0, #4
 800978a:	0799      	lsls	r1, r3, #30
 800978c:	bf04      	itt	eq
 800978e:	089b      	lsreq	r3, r3, #2
 8009790:	3002      	addeq	r0, #2
 8009792:	07d9      	lsls	r1, r3, #31
 8009794:	d403      	bmi.n	800979e <__lo0bits+0x4e>
 8009796:	085b      	lsrs	r3, r3, #1
 8009798:	f100 0001 	add.w	r0, r0, #1
 800979c:	d003      	beq.n	80097a6 <__lo0bits+0x56>
 800979e:	6013      	str	r3, [r2, #0]
 80097a0:	4770      	bx	lr
 80097a2:	2000      	movs	r0, #0
 80097a4:	4770      	bx	lr
 80097a6:	2020      	movs	r0, #32
 80097a8:	4770      	bx	lr
	...

080097ac <__i2b>:
 80097ac:	b510      	push	{r4, lr}
 80097ae:	460c      	mov	r4, r1
 80097b0:	2101      	movs	r1, #1
 80097b2:	f7ff febb 	bl	800952c <_Balloc>
 80097b6:	4602      	mov	r2, r0
 80097b8:	b928      	cbnz	r0, 80097c6 <__i2b+0x1a>
 80097ba:	f44f 71a0 	mov.w	r1, #320	; 0x140
 80097be:	4b04      	ldr	r3, [pc, #16]	; (80097d0 <__i2b+0x24>)
 80097c0:	4804      	ldr	r0, [pc, #16]	; (80097d4 <__i2b+0x28>)
 80097c2:	f000 fe99 	bl	800a4f8 <__assert_func>
 80097c6:	2301      	movs	r3, #1
 80097c8:	6144      	str	r4, [r0, #20]
 80097ca:	6103      	str	r3, [r0, #16]
 80097cc:	bd10      	pop	{r4, pc}
 80097ce:	bf00      	nop
 80097d0:	0800b208 	.word	0x0800b208
 80097d4:	0800b2ab 	.word	0x0800b2ab

080097d8 <__multiply>:
 80097d8:	e92d 4ff0 	stmdb	sp!, {r4, r5, r6, r7, r8, r9, sl, fp, lr}
 80097dc:	4691      	mov	r9, r2
 80097de:	690a      	ldr	r2, [r1, #16]
 80097e0:	f8d9 3010 	ldr.w	r3, [r9, #16]
 80097e4:	460c      	mov	r4, r1
 80097e6:	429a      	cmp	r2, r3
 80097e8:	bfbe      	ittt	lt
 80097ea:	460b      	movlt	r3, r1
 80097ec:	464c      	movlt	r4, r9
 80097ee:	4699      	movlt	r9, r3
 80097f0:	6927      	ldr	r7, [r4, #16]
 80097f2:	f8d9 a010 	ldr.w	sl, [r9, #16]
 80097f6:	68a3      	ldr	r3, [r4, #8]
 80097f8:	6861      	ldr	r1, [r4, #4]
 80097fa:	eb07 060a 	add.w	r6, r7, sl
 80097fe:	42b3      	cmp	r3, r6
 8009800:	b085      	sub	sp, #20
 8009802:	bfb8      	it	lt
 8009804:	3101      	addlt	r1, #1
 8009806:	f7ff fe91 	bl	800952c <_Balloc>
 800980a:	b930      	cbnz	r0, 800981a <__multiply+0x42>
 800980c:	4602      	mov	r2, r0
 800980e:	f240 115d 	movw	r1, #349	; 0x15d
 8009812:	4b43      	ldr	r3, [pc, #268]	; (8009920 <__multiply+0x148>)
 8009814:	4843      	ldr	r0, [pc, #268]	; (8009924 <__multiply+0x14c>)
 8009816:	f000 fe6f 	bl	800a4f8 <__assert_func>
 800981a:	f100 0514 	add.w	r5, r0, #20
 800981e:	462b      	mov	r3, r5
 8009820:	2200      	movs	r2, #0
 8009822:	eb05 0886 	add.w	r8, r5, r6, lsl #2
 8009826:	4543      	cmp	r3, r8
 8009828:	d321      	bcc.n	800986e <__multiply+0x96>
 800982a:	f104 0314 	add.w	r3, r4, #20
 800982e:	eb03 0787 	add.w	r7, r3, r7, lsl #2
 8009832:	f109 0314 	add.w	r3, r9, #20
 8009836:	eb03 028a 	add.w	r2, r3, sl, lsl #2
 800983a:	9202      	str	r2, [sp, #8]
 800983c:	1b3a      	subs	r2, r7, r4
 800983e:	3a15      	subs	r2, #21
 8009840:	f022 0203 	bic.w	r2, r2, #3
 8009844:	3204      	adds	r2, #4
 8009846:	f104 0115 	add.w	r1, r4, #21
 800984a:	428f      	cmp	r7, r1
 800984c:	bf38      	it	cc
 800984e:	2204      	movcc	r2, #4
 8009850:	9201      	str	r2, [sp, #4]
 8009852:	9a02      	ldr	r2, [sp, #8]
 8009854:	9303      	str	r3, [sp, #12]
 8009856:	429a      	cmp	r2, r3
 8009858:	d80c      	bhi.n	8009874 <__multiply+0x9c>
 800985a:	2e00      	cmp	r6, #0
 800985c:	dd03      	ble.n	8009866 <__multiply+0x8e>
 800985e:	f858 3d04 	ldr.w	r3, [r8, #-4]!
 8009862:	2b00      	cmp	r3, #0
 8009864:	d059      	beq.n	800991a <__multiply+0x142>
 8009866:	6106      	str	r6, [r0, #16]
 8009868:	b005      	add	sp, #20
 800986a:	e8bd 8ff0 	ldmia.w	sp!, {r4, r5, r6, r7, r8, r9, sl, fp, pc}
 800986e:	f843 2b04 	str.w	r2, [r3], #4
 8009872:	e7d8      	b.n	8009826 <__multiply+0x4e>
 8009874:	f8b3 a000 	ldrh.w	sl, [r3]
 8009878:	f1ba 0f00 	cmp.w	sl, #0
 800987c:	d023      	beq.n	80098c6 <__multiply+0xee>
 800987e:	46a9      	mov	r9, r5
 8009880:	f04f 0c00 	mov.w	ip, #0
 8009884:	f104 0e14 	add.w	lr, r4, #20
 8009888:	f85e 2b04 	ldr.w	r2, [lr], #4
 800988c:	f8d9 1000 	ldr.w	r1, [r9]
 8009890:	fa1f fb82 	uxth.w	fp, r2
 8009894:	b289      	uxth	r1, r1
 8009896:	fb0a 110b 	mla	r1, sl, fp, r1
 800989a:	4461      	add	r1, ip
 800989c:	f8d9 c000 	ldr.w	ip, [r9]
 80098a0:	0c12      	lsrs	r2, r2, #16
 80098a2:	ea4f 4c1c 	mov.w	ip, ip, lsr #16
 80098a6:	fb0a c202 	mla	r2, sl, r2, ip
 80098aa:	eb02 4211 	add.w	r2, r2, r1, lsr #16
 80098ae:	b289      	uxth	r1, r1
 80098b0:	ea41 4102 	orr.w	r1, r1, r2, lsl #16
 80098b4:	4577      	cmp	r7, lr
 80098b6:	ea4f 4c12 	mov.w	ip, r2, lsr #16
 80098ba:	f849 1b04 	str.w	r1, [r9], #4
 80098be:	d8e3      	bhi.n	8009888 <__multiply+0xb0>
 80098c0:	9a01      	ldr	r2, [sp, #4]
 80098c2:	f845 c002 	str.w	ip, [r5, r2]
 80098c6:	9a03      	ldr	r2, [sp, #12]
 80098c8:	3304      	adds	r3, #4
 80098ca:	f8b2 9002 	ldrh.w	r9, [r2, #2]
 80098ce:	f1b9 0f00 	cmp.w	r9, #0
 80098d2:	d020      	beq.n	8009916 <__multiply+0x13e>
 80098d4:	46ae      	mov	lr, r5
 80098d6:	f04f 0a00 	mov.w	sl, #0
 80098da:	6829      	ldr	r1, [r5, #0]
 80098dc:	f104 0c14 	add.w	ip, r4, #20
 80098e0:	f8bc b000 	ldrh.w	fp, [ip]
 80098e4:	f8be 2002 	ldrh.w	r2, [lr, #2]
 80098e8:	b289      	uxth	r1, r1
 80098ea:	fb09 220b 	mla	r2, r9, fp, r2
 80098ee:	4492      	add	sl, r2
 80098f0:	ea41 410a 	orr.w	r1, r1, sl, lsl #16
 80098f4:	f84e 1b04 	str.w	r1, [lr], #4
 80098f8:	f85c 2b04 	ldr.w	r2, [ip], #4
 80098fc:	f8be 1000 	ldrh.w	r1, [lr]
 8009900:	0c12      	lsrs	r2, r2, #16
 8009902:	fb09 1102 	mla	r1, r9, r2, r1
 8009906:	4567      	cmp	r7, ip
 8009908:	eb01 411a 	add.w	r1, r1, sl, lsr #16
 800990c:	ea4f 4a11 	mov.w	sl, r1, lsr #16
 8009910:	d8e6      	bhi.n	80098e0 <__multiply+0x108>
 8009912:	9a01      	ldr	r2, [sp, #4]
 8009914:	50a9      	str	r1, [r5, r2]
 8009916:	3504      	adds	r5, #4
 8009918:	e79b      	b.n	8009852 <__multiply+0x7a>
 800991a:	3e01      	subs	r6, #1
 800991c:	e79d      	b.n	800985a <__multiply+0x82>
 800991e:	bf00      	nop
 8009920:	0800b208 	.word	0x0800b208
 8009924:	0800b2ab 	.word	0x0800b2ab

08009928 <__pow5mult>:
 8009928:	e92d 43f8 	stmdb	sp!, {r3, r4, r5, r6, r7, r8, r9, lr}
 800992c:	4615      	mov	r5, r2
 800992e:	f012 0203 	ands.w	r2, r2, #3
 8009932:	4606      	mov	r6, r0
 8009934:	460f      	mov	r7, r1
 8009936:	d007      	beq.n	8009948 <__pow5mult+0x20>
 8009938:	4c25      	ldr	r4, [pc, #148]	; (80099d0 <__pow5mult+0xa8>)
 800993a:	3a01      	subs	r2, #1
 800993c:	2300      	movs	r3, #0
 800993e:	f854 2022 	ldr.w	r2, [r4, r2, lsl #2]
 8009942:	f7ff fe55 	bl	80095f0 <__multadd>
 8009946:	4607      	mov	r7, r0
 8009948:	10ad      	asrs	r5, r5, #2
 800994a:	d03d      	beq.n	80099c8 <__pow5mult+0xa0>
 800994c:	6a74      	ldr	r4, [r6, #36]	; 0x24
 800994e:	b97c      	cbnz	r4, 8009970 <__pow5mult+0x48>
 8009950:	2010      	movs	r0, #16
 8009952:	f7fe fa99 	bl	8007e88 <malloc>
 8009956:	4602      	mov	r2, r0
 8009958:	6270      	str	r0, [r6, #36]	; 0x24
 800995a:	b928      	cbnz	r0, 8009968 <__pow5mult+0x40>
 800995c:	f44f 71d7 	mov.w	r1, #430	; 0x1ae
 8009960:	4b1c      	ldr	r3, [pc, #112]	; (80099d4 <__pow5mult+0xac>)
 8009962:	481d      	ldr	r0, [pc, #116]	; (80099d8 <__pow5mult+0xb0>)
 8009964:	f000 fdc8 	bl	800a4f8 <__assert_func>
 8009968:	e9c0 4401 	strd	r4, r4, [r0, #4]
 800996c:	6004      	str	r4, [r0, #0]
 800996e:	60c4      	str	r4, [r0, #12]
 8009970:	f8d6 8024 	ldr.w	r8, [r6, #36]	; 0x24
 8009974:	f8d8 4008 	ldr.w	r4, [r8, #8]
 8009978:	b94c      	cbnz	r4, 800998e <__pow5mult+0x66>
 800997a:	f240 2171 	movw	r1, #625	; 0x271
 800997e:	4630      	mov	r0, r6
 8009980:	f7ff ff14 	bl	80097ac <__i2b>
 8009984:	2300      	movs	r3, #0
 8009986:	4604      	mov	r4, r0
 8009988:	f8c8 0008 	str.w	r0, [r8, #8]
 800998c:	6003      	str	r3, [r0, #0]
 800998e:	f04f 0900 	mov.w	r9, #0
 8009992:	07eb      	lsls	r3, r5, #31
 8009994:	d50a      	bpl.n	80099ac <__pow5mult+0x84>
 8009996:	4639      	mov	r1, r7
 8009998:	4622      	mov	r2, r4
 800999a:	4630      	mov	r0, r6
 800999c:	f7ff ff1c 	bl	80097d8 <__multiply>
 80099a0:	4680      	mov	r8, r0
 80099a2:	4639      	mov	r1, r7
 80099a4:	4630      	mov	r0, r6
 80099a6:	f7ff fe01 	bl	80095ac <_Bfree>
 80099aa:	4647      	mov	r7, r8
 80099ac:	106d      	asrs	r5, r5, #1
 80099ae:	d00b      	beq.n	80099c8 <__pow5mult+0xa0>
 80099b0:	6820      	ldr	r0, [r4, #0]
 80099b2:	b938      	cbnz	r0, 80099c4 <__pow5mult+0x9c>
 80099b4:	4622      	mov	r2, r4
 80099b6:	4621      	mov	r1, r4
 80099b8:	4630      	mov	r0, r6
 80099ba:	f7ff ff0d 	bl	80097d8 <__multiply>
 80099be:	6020      	str	r0, [r4, #0]
 80099c0:	f8c0 9000 	str.w	r9, [r0]
 80099c4:	4604      	mov	r4, r0
 80099c6:	e7e4      	b.n	8009992 <__pow5mult+0x6a>
 80099c8:	4638      	mov	r0, r7
 80099ca:	e8bd 83f8 	ldmia.w	sp!, {r3, r4, r5, r6, r7, r8, r9, pc}
 80099ce:	bf00      	nop
 80099d0:	0800b3f8 	.word	0x0800b3f8
 80099d4:	0800b294 	.word	0x0800b294
 80099d8:	0800b2ab 	.word	0x0800b2ab

080099dc <__lshift>:
 80099dc:	e92d 47f0 	stmdb	sp!, {r4, r5, r6, r7, r8, r9, sl, lr}
 80099e0:	460c      	mov	r4, r1
 80099e2:	4607      	mov	r7, r0
 80099e4:	4691      	mov	r9, r2
 80099e6:	6923      	ldr	r3, [r4, #16]
 80099e8:	6849      	ldr	r1, [r1, #4]
 80099ea:	eb03 1862 	add.w	r8, r3, r2, asr #5
 80099ee:	68a3      	ldr	r3, [r4, #8]
 80099f0:	ea4f 1a62 	mov.w	sl, r2, asr #5
 80099f4:	f108 0601 	add.w	r6, r8, #1
 80099f8:	42b3      	cmp	r3, r6
 80099fa:	db0b      	blt.n	8009a14 <__lshift+0x38>
 80099fc:	4638      	mov	r0, r7
 80099fe:	f7ff fd95 	bl	800952c <_Balloc>
 8009a02:	4605      	mov	r5, r0
 8009a04:	b948      	cbnz	r0, 8009a1a <__lshift+0x3e>
 8009a06:	4602      	mov	r2, r0
 8009a08:	f240 11d9 	movw	r1, #473	; 0x1d9
 8009a0c:	4b29      	ldr	r3, [pc, #164]	; (8009ab4 <__lshift+0xd8>)
 8009a0e:	482a      	ldr	r0, [pc, #168]	; (8009ab8 <__lshift+0xdc>)
 8009a10:	f000 fd72 	bl	800a4f8 <__assert_func>
 8009a14:	3101      	adds	r1, #1
 8009a16:	005b      	lsls	r3, r3, #1
 8009a18:	e7ee      	b.n	80099f8 <__lshift+0x1c>
 8009a1a:	2300      	movs	r3, #0
 8009a1c:	f100 0114 	add.w	r1, r0, #20
 8009a20:	f100 0210 	add.w	r2, r0, #16
 8009a24:	4618      	mov	r0, r3
 8009a26:	4553      	cmp	r3, sl
 8009a28:	db37      	blt.n	8009a9a <__lshift+0xbe>
 8009a2a:	6920      	ldr	r0, [r4, #16]
 8009a2c:	ea2a 7aea 	bic.w	sl, sl, sl, asr #31
 8009a30:	f104 0314 	add.w	r3, r4, #20
 8009a34:	f019 091f 	ands.w	r9, r9, #31
 8009a38:	eb01 018a 	add.w	r1, r1, sl, lsl #2
 8009a3c:	eb03 0080 	add.w	r0, r3, r0, lsl #2
 8009a40:	d02f      	beq.n	8009aa2 <__lshift+0xc6>
 8009a42:	468a      	mov	sl, r1
 8009a44:	f04f 0c00 	mov.w	ip, #0
 8009a48:	f1c9 0e20 	rsb	lr, r9, #32
 8009a4c:	681a      	ldr	r2, [r3, #0]
 8009a4e:	fa02 f209 	lsl.w	r2, r2, r9
 8009a52:	ea42 020c 	orr.w	r2, r2, ip
 8009a56:	f84a 2b04 	str.w	r2, [sl], #4
 8009a5a:	f853 2b04 	ldr.w	r2, [r3], #4
 8009a5e:	4298      	cmp	r0, r3
 8009a60:	fa22 fc0e 	lsr.w	ip, r2, lr
 8009a64:	d8f2      	bhi.n	8009a4c <__lshift+0x70>
 8009a66:	1b03      	subs	r3, r0, r4
 8009a68:	3b15      	subs	r3, #21
 8009a6a:	f023 0303 	bic.w	r3, r3, #3
 8009a6e:	3304      	adds	r3, #4
 8009a70:	f104 0215 	add.w	r2, r4, #21
 8009a74:	4290      	cmp	r0, r2
 8009a76:	bf38      	it	cc
 8009a78:	2304      	movcc	r3, #4
 8009a7a:	f841 c003 	str.w	ip, [r1, r3]
 8009a7e:	f1bc 0f00 	cmp.w	ip, #0
 8009a82:	d001      	beq.n	8009a88 <__lshift+0xac>
 8009a84:	f108 0602 	add.w	r6, r8, #2
 8009a88:	3e01      	subs	r6, #1
 8009a8a:	4638      	mov	r0, r7
 8009a8c:	4621      	mov	r1, r4
 8009a8e:	612e      	str	r6, [r5, #16]
 8009a90:	f7ff fd8c 	bl	80095ac <_Bfree>
 8009a94:	4628      	mov	r0, r5
 8009a96:	e8bd 87f0 	ldmia.w	sp!, {r4, r5, r6, r7, r8, r9, sl, pc}
 8009a9a:	f842 0f04 	str.w	r0, [r2, #4]!
 8009a9e:	3301      	adds	r3, #1
 8009aa0:	e7c1      	b.n	8009a26 <__lshift+0x4a>
 8009aa2:	3904      	subs	r1, #4
 8009aa4:	f853 2b04 	ldr.w	r2, [r3], #4
 8009aa8:	4298      	cmp	r0, r3
 8009aaa:	f841 2f04 	str.w	r2, [r1, #4]!
 8009aae:	d8f9      	bhi.n	8009aa4 <__lshift+0xc8>
 8009ab0:	e7ea      	b.n	8009a88 <__lshift+0xac>
 8009ab2:	bf00      	nop
 8009ab4:	0800b208 	.word	0x0800b208
 8009ab8:	0800b2ab 	.word	0x0800b2ab

08009abc <__mcmp>:
 8009abc:	4603      	mov	r3, r0
 8009abe:	690a      	ldr	r2, [r1, #16]
 8009ac0:	6900      	ldr	r0, [r0, #16]
 8009ac2:	b530      	push	{r4, r5, lr}
 8009ac4:	1a80      	subs	r0, r0, r2
 8009ac6:	d10d      	bne.n	8009ae4 <__mcmp+0x28>
 8009ac8:	3314      	adds	r3, #20
 8009aca:	3114      	adds	r1, #20
 8009acc:	eb03 0482 	add.w	r4, r3, r2, lsl #2
 8009ad0:	eb01 0182 	add.w	r1, r1, r2, lsl #2
 8009ad4:	f854 5d04 	ldr.w	r5, [r4, #-4]!
 8009ad8:	f851 2d04 	ldr.w	r2, [r1, #-4]!
 8009adc:	4295      	cmp	r5, r2
 8009ade:	d002      	beq.n	8009ae6 <__mcmp+0x2a>
 8009ae0:	d304      	bcc.n	8009aec <__mcmp+0x30>
 8009ae2:	2001      	movs	r0, #1
 8009ae4:	bd30      	pop	{r4, r5, pc}
 8009ae6:	42a3      	cmp	r3, r4
 8009ae8:	d3f4      	bcc.n	8009ad4 <__mcmp+0x18>
 8009aea:	e7fb      	b.n	8009ae4 <__mcmp+0x28>
 8009aec:	f04f 30ff 	mov.w	r0, #4294967295
 8009af0:	e7f8      	b.n	8009ae4 <__mcmp+0x28>
	...

08009af4 <__mdiff>:
 8009af4:	e92d 4ff8 	stmdb	sp!, {r3, r4, r5, r6, r7, r8, r9, sl, fp, lr}
 8009af8:	460d      	mov	r5, r1
 8009afa:	4607      	mov	r7, r0
 8009afc:	4611      	mov	r1, r2
 8009afe:	4628      	mov	r0, r5
 8009b00:	4614      	mov	r4, r2
 8009b02:	f7ff ffdb 	bl	8009abc <__mcmp>
 8009b06:	1e06      	subs	r6, r0, #0
 8009b08:	d111      	bne.n	8009b2e <__mdiff+0x3a>
 8009b0a:	4631      	mov	r1, r6
 8009b0c:	4638      	mov	r0, r7
 8009b0e:	f7ff fd0d 	bl	800952c <_Balloc>
 8009b12:	4602      	mov	r2, r0
 8009b14:	b928      	cbnz	r0, 8009b22 <__mdiff+0x2e>
 8009b16:	f240 2132 	movw	r1, #562	; 0x232
 8009b1a:	4b3a      	ldr	r3, [pc, #232]	; (8009c04 <__mdiff+0x110>)
 8009b1c:	483a      	ldr	r0, [pc, #232]	; (8009c08 <__mdiff+0x114>)
 8009b1e:	f000 fceb 	bl	800a4f8 <__assert_func>
 8009b22:	2301      	movs	r3, #1
 8009b24:	e9c0 3604 	strd	r3, r6, [r0, #16]
 8009b28:	4610      	mov	r0, r2
 8009b2a:	e8bd 8ff8 	ldmia.w	sp!, {r3, r4, r5, r6, r7, r8, r9, sl, fp, pc}
 8009b2e:	bfa4      	itt	ge
 8009b30:	4623      	movge	r3, r4
 8009b32:	462c      	movge	r4, r5
 8009b34:	4638      	mov	r0, r7
 8009b36:	6861      	ldr	r1, [r4, #4]
 8009b38:	bfa6      	itte	ge
 8009b3a:	461d      	movge	r5, r3
 8009b3c:	2600      	movge	r6, #0
 8009b3e:	2601      	movlt	r6, #1
 8009b40:	f7ff fcf4 	bl	800952c <_Balloc>
 8009b44:	4602      	mov	r2, r0
 8009b46:	b918      	cbnz	r0, 8009b50 <__mdiff+0x5c>
 8009b48:	f44f 7110 	mov.w	r1, #576	; 0x240
 8009b4c:	4b2d      	ldr	r3, [pc, #180]	; (8009c04 <__mdiff+0x110>)
 8009b4e:	e7e5      	b.n	8009b1c <__mdiff+0x28>
 8009b50:	f102 0814 	add.w	r8, r2, #20
 8009b54:	46c2      	mov	sl, r8
 8009b56:	f04f 0c00 	mov.w	ip, #0
 8009b5a:	6927      	ldr	r7, [r4, #16]
 8009b5c:	60c6      	str	r6, [r0, #12]
 8009b5e:	692e      	ldr	r6, [r5, #16]
 8009b60:	f104 0014 	add.w	r0, r4, #20
 8009b64:	f105 0914 	add.w	r9, r5, #20
 8009b68:	eb00 0e87 	add.w	lr, r0, r7, lsl #2
 8009b6c:	eb09 0686 	add.w	r6, r9, r6, lsl #2
 8009b70:	3410      	adds	r4, #16
 8009b72:	f854 bf04 	ldr.w	fp, [r4, #4]!
 8009b76:	f859 3b04 	ldr.w	r3, [r9], #4
 8009b7a:	fa1f f18b 	uxth.w	r1, fp
 8009b7e:	448c      	add	ip, r1
 8009b80:	b299      	uxth	r1, r3
 8009b82:	0c1b      	lsrs	r3, r3, #16
 8009b84:	ebac 0101 	sub.w	r1, ip, r1
 8009b88:	ebc3 431b 	rsb	r3, r3, fp, lsr #16
 8009b8c:	eb03 4321 	add.w	r3, r3, r1, asr #16
 8009b90:	b289      	uxth	r1, r1
 8009b92:	ea4f 4c23 	mov.w	ip, r3, asr #16
 8009b96:	454e      	cmp	r6, r9
 8009b98:	ea41 4303 	orr.w	r3, r1, r3, lsl #16
 8009b9c:	f84a 3b04 	str.w	r3, [sl], #4
 8009ba0:	d8e7      	bhi.n	8009b72 <__mdiff+0x7e>
 8009ba2:	1b73      	subs	r3, r6, r5
 8009ba4:	3b15      	subs	r3, #21
 8009ba6:	f023 0303 	bic.w	r3, r3, #3
 8009baa:	3515      	adds	r5, #21
 8009bac:	3304      	adds	r3, #4
 8009bae:	42ae      	cmp	r6, r5
 8009bb0:	bf38      	it	cc
 8009bb2:	2304      	movcc	r3, #4
 8009bb4:	4418      	add	r0, r3
 8009bb6:	4443      	add	r3, r8
 8009bb8:	461e      	mov	r6, r3
 8009bba:	4605      	mov	r5, r0
 8009bbc:	4575      	cmp	r5, lr
 8009bbe:	d30e      	bcc.n	8009bde <__mdiff+0xea>
 8009bc0:	f10e 0103 	add.w	r1, lr, #3
 8009bc4:	1a09      	subs	r1, r1, r0
 8009bc6:	f021 0103 	bic.w	r1, r1, #3
 8009bca:	3803      	subs	r0, #3
 8009bcc:	4586      	cmp	lr, r0
 8009bce:	bf38      	it	cc
 8009bd0:	2100      	movcc	r1, #0
 8009bd2:	4419      	add	r1, r3
 8009bd4:	f851 3d04 	ldr.w	r3, [r1, #-4]!
 8009bd8:	b18b      	cbz	r3, 8009bfe <__mdiff+0x10a>
 8009bda:	6117      	str	r7, [r2, #16]
 8009bdc:	e7a4      	b.n	8009b28 <__mdiff+0x34>
 8009bde:	f855 8b04 	ldr.w	r8, [r5], #4
 8009be2:	fa1f f188 	uxth.w	r1, r8
 8009be6:	4461      	add	r1, ip
 8009be8:	140c      	asrs	r4, r1, #16
 8009bea:	eb04 4418 	add.w	r4, r4, r8, lsr #16
 8009bee:	b289      	uxth	r1, r1
 8009bf0:	ea41 4104 	orr.w	r1, r1, r4, lsl #16
 8009bf4:	ea4f 4c24 	mov.w	ip, r4, asr #16
 8009bf8:	f846 1b04 	str.w	r1, [r6], #4
 8009bfc:	e7de      	b.n	8009bbc <__mdiff+0xc8>
 8009bfe:	3f01      	subs	r7, #1
 8009c00:	e7e8      	b.n	8009bd4 <__mdiff+0xe0>
 8009c02:	bf00      	nop
 8009c04:	0800b208 	.word	0x0800b208
 8009c08:	0800b2ab 	.word	0x0800b2ab

08009c0c <__ulp>:
 8009c0c:	4b11      	ldr	r3, [pc, #68]	; (8009c54 <__ulp+0x48>)
 8009c0e:	400b      	ands	r3, r1
 8009c10:	f1a3 7350 	sub.w	r3, r3, #54525952	; 0x3400000
 8009c14:	2b00      	cmp	r3, #0
 8009c16:	dd02      	ble.n	8009c1e <__ulp+0x12>
 8009c18:	2000      	movs	r0, #0
 8009c1a:	4619      	mov	r1, r3
 8009c1c:	4770      	bx	lr
 8009c1e:	425b      	negs	r3, r3
 8009c20:	f1b3 7fa0 	cmp.w	r3, #20971520	; 0x1400000
 8009c24:	f04f 0000 	mov.w	r0, #0
 8009c28:	f04f 0100 	mov.w	r1, #0
 8009c2c:	ea4f 5223 	mov.w	r2, r3, asr #20
 8009c30:	da04      	bge.n	8009c3c <__ulp+0x30>
 8009c32:	f44f 2300 	mov.w	r3, #524288	; 0x80000
 8009c36:	fa43 f102 	asr.w	r1, r3, r2
 8009c3a:	4770      	bx	lr
 8009c3c:	f1a2 0314 	sub.w	r3, r2, #20
 8009c40:	2b1e      	cmp	r3, #30
 8009c42:	bfd6      	itet	le
 8009c44:	f04f 4200 	movle.w	r2, #2147483648	; 0x80000000
 8009c48:	2301      	movgt	r3, #1
 8009c4a:	fa22 f303 	lsrle.w	r3, r2, r3
 8009c4e:	4618      	mov	r0, r3
 8009c50:	4770      	bx	lr
 8009c52:	bf00      	nop
 8009c54:	7ff00000 	.word	0x7ff00000

08009c58 <__b2d>:
 8009c58:	e92d 43f8 	stmdb	sp!, {r3, r4, r5, r6, r7, r8, r9, lr}
 8009c5c:	6907      	ldr	r7, [r0, #16]
 8009c5e:	f100 0914 	add.w	r9, r0, #20
 8009c62:	eb09 0787 	add.w	r7, r9, r7, lsl #2
 8009c66:	f857 6c04 	ldr.w	r6, [r7, #-4]
 8009c6a:	f1a7 0804 	sub.w	r8, r7, #4
 8009c6e:	4630      	mov	r0, r6
 8009c70:	f7ff fd4e 	bl	8009710 <__hi0bits>
 8009c74:	f1c0 0320 	rsb	r3, r0, #32
 8009c78:	280a      	cmp	r0, #10
 8009c7a:	600b      	str	r3, [r1, #0]
 8009c7c:	491f      	ldr	r1, [pc, #124]	; (8009cfc <__b2d+0xa4>)
 8009c7e:	dc17      	bgt.n	8009cb0 <__b2d+0x58>
 8009c80:	45c1      	cmp	r9, r8
 8009c82:	bf28      	it	cs
 8009c84:	2200      	movcs	r2, #0
 8009c86:	f1c0 0c0b 	rsb	ip, r0, #11
 8009c8a:	fa26 f30c 	lsr.w	r3, r6, ip
 8009c8e:	bf38      	it	cc
 8009c90:	f857 2c08 	ldrcc.w	r2, [r7, #-8]
 8009c94:	ea43 0501 	orr.w	r5, r3, r1
 8009c98:	f100 0315 	add.w	r3, r0, #21
 8009c9c:	fa06 f303 	lsl.w	r3, r6, r3
 8009ca0:	fa22 f20c 	lsr.w	r2, r2, ip
 8009ca4:	ea43 0402 	orr.w	r4, r3, r2
 8009ca8:	4620      	mov	r0, r4
 8009caa:	4629      	mov	r1, r5
 8009cac:	e8bd 83f8 	ldmia.w	sp!, {r3, r4, r5, r6, r7, r8, r9, pc}
 8009cb0:	45c1      	cmp	r9, r8
 8009cb2:	bf2e      	itee	cs
 8009cb4:	2200      	movcs	r2, #0
 8009cb6:	f857 2c08 	ldrcc.w	r2, [r7, #-8]
 8009cba:	f1a7 0808 	subcc.w	r8, r7, #8
 8009cbe:	f1b0 030b 	subs.w	r3, r0, #11
 8009cc2:	d016      	beq.n	8009cf2 <__b2d+0x9a>
 8009cc4:	f1c3 0720 	rsb	r7, r3, #32
 8009cc8:	fa22 f107 	lsr.w	r1, r2, r7
 8009ccc:	45c8      	cmp	r8, r9
 8009cce:	fa06 f603 	lsl.w	r6, r6, r3
 8009cd2:	ea46 0601 	orr.w	r6, r6, r1
 8009cd6:	bf94      	ite	ls
 8009cd8:	2100      	movls	r1, #0
 8009cda:	f858 1c04 	ldrhi.w	r1, [r8, #-4]
 8009cde:	f046 557f 	orr.w	r5, r6, #1069547520	; 0x3fc00000
 8009ce2:	fa02 f003 	lsl.w	r0, r2, r3
 8009ce6:	40f9      	lsrs	r1, r7
 8009ce8:	f445 1540 	orr.w	r5, r5, #3145728	; 0x300000
 8009cec:	ea40 0401 	orr.w	r4, r0, r1
 8009cf0:	e7da      	b.n	8009ca8 <__b2d+0x50>
 8009cf2:	4614      	mov	r4, r2
 8009cf4:	ea46 0501 	orr.w	r5, r6, r1
 8009cf8:	e7d6      	b.n	8009ca8 <__b2d+0x50>
 8009cfa:	bf00      	nop
 8009cfc:	3ff00000 	.word	0x3ff00000

08009d00 <__d2b>:
 8009d00:	e92d 41f3 	stmdb	sp!, {r0, r1, r4, r5, r6, r7, r8, lr}
 8009d04:	2101      	movs	r1, #1
 8009d06:	e9dd 7608 	ldrd	r7, r6, [sp, #32]
 8009d0a:	4690      	mov	r8, r2
 8009d0c:	461d      	mov	r5, r3
 8009d0e:	f7ff fc0d 	bl	800952c <_Balloc>
 8009d12:	4604      	mov	r4, r0
 8009d14:	b930      	cbnz	r0, 8009d24 <__d2b+0x24>
 8009d16:	4602      	mov	r2, r0
 8009d18:	f240 310a 	movw	r1, #778	; 0x30a
 8009d1c:	4b24      	ldr	r3, [pc, #144]	; (8009db0 <__d2b+0xb0>)
 8009d1e:	4825      	ldr	r0, [pc, #148]	; (8009db4 <__d2b+0xb4>)
 8009d20:	f000 fbea 	bl	800a4f8 <__assert_func>
 8009d24:	f3c5 0313 	ubfx	r3, r5, #0, #20
 8009d28:	f3c5 550a 	ubfx	r5, r5, #20, #11
 8009d2c:	bb2d      	cbnz	r5, 8009d7a <__d2b+0x7a>
 8009d2e:	9301      	str	r3, [sp, #4]
 8009d30:	f1b8 0300 	subs.w	r3, r8, #0
 8009d34:	d026      	beq.n	8009d84 <__d2b+0x84>
 8009d36:	4668      	mov	r0, sp
 8009d38:	9300      	str	r3, [sp, #0]
 8009d3a:	f7ff fd09 	bl	8009750 <__lo0bits>
 8009d3e:	9900      	ldr	r1, [sp, #0]
 8009d40:	b1f0      	cbz	r0, 8009d80 <__d2b+0x80>
 8009d42:	9a01      	ldr	r2, [sp, #4]
 8009d44:	f1c0 0320 	rsb	r3, r0, #32
 8009d48:	fa02 f303 	lsl.w	r3, r2, r3
 8009d4c:	430b      	orrs	r3, r1
 8009d4e:	40c2      	lsrs	r2, r0
 8009d50:	6163      	str	r3, [r4, #20]
 8009d52:	9201      	str	r2, [sp, #4]
 8009d54:	9b01      	ldr	r3, [sp, #4]
 8009d56:	2b00      	cmp	r3, #0
 8009d58:	bf14      	ite	ne
 8009d5a:	2102      	movne	r1, #2
 8009d5c:	2101      	moveq	r1, #1
 8009d5e:	61a3      	str	r3, [r4, #24]
 8009d60:	6121      	str	r1, [r4, #16]
 8009d62:	b1c5      	cbz	r5, 8009d96 <__d2b+0x96>
 8009d64:	f2a5 4533 	subw	r5, r5, #1075	; 0x433
 8009d68:	4405      	add	r5, r0
 8009d6a:	f1c0 0035 	rsb	r0, r0, #53	; 0x35
 8009d6e:	603d      	str	r5, [r7, #0]
 8009d70:	6030      	str	r0, [r6, #0]
 8009d72:	4620      	mov	r0, r4
 8009d74:	b002      	add	sp, #8
 8009d76:	e8bd 81f0 	ldmia.w	sp!, {r4, r5, r6, r7, r8, pc}
 8009d7a:	f443 1380 	orr.w	r3, r3, #1048576	; 0x100000
 8009d7e:	e7d6      	b.n	8009d2e <__d2b+0x2e>
 8009d80:	6161      	str	r1, [r4, #20]
 8009d82:	e7e7      	b.n	8009d54 <__d2b+0x54>
 8009d84:	a801      	add	r0, sp, #4
 8009d86:	f7ff fce3 	bl	8009750 <__lo0bits>
 8009d8a:	2101      	movs	r1, #1
 8009d8c:	9b01      	ldr	r3, [sp, #4]
 8009d8e:	6121      	str	r1, [r4, #16]
 8009d90:	6163      	str	r3, [r4, #20]
 8009d92:	3020      	adds	r0, #32
 8009d94:	e7e5      	b.n	8009d62 <__d2b+0x62>
 8009d96:	eb04 0381 	add.w	r3, r4, r1, lsl #2
 8009d9a:	f2a0 4032 	subw	r0, r0, #1074	; 0x432
 8009d9e:	6038      	str	r0, [r7, #0]
 8009da0:	6918      	ldr	r0, [r3, #16]
 8009da2:	f7ff fcb5 	bl	8009710 <__hi0bits>
 8009da6:	ebc0 1141 	rsb	r1, r0, r1, lsl #5
 8009daa:	6031      	str	r1, [r6, #0]
 8009dac:	e7e1      	b.n	8009d72 <__d2b+0x72>
 8009dae:	bf00      	nop
 8009db0:	0800b208 	.word	0x0800b208
 8009db4:	0800b2ab 	.word	0x0800b2ab

08009db8 <__ratio>:
 8009db8:	e92d 4ff7 	stmdb	sp!, {r0, r1, r2, r4, r5, r6, r7, r8, r9, sl, fp, lr}
 8009dbc:	4688      	mov	r8, r1
 8009dbe:	4669      	mov	r1, sp
 8009dc0:	4681      	mov	r9, r0
 8009dc2:	f7ff ff49 	bl	8009c58 <__b2d>
 8009dc6:	460f      	mov	r7, r1
 8009dc8:	4604      	mov	r4, r0
 8009dca:	460d      	mov	r5, r1
 8009dcc:	4640      	mov	r0, r8
 8009dce:	a901      	add	r1, sp, #4
 8009dd0:	f7ff ff42 	bl	8009c58 <__b2d>
 8009dd4:	f8d9 3010 	ldr.w	r3, [r9, #16]
 8009dd8:	f8d8 2010 	ldr.w	r2, [r8, #16]
 8009ddc:	468b      	mov	fp, r1
 8009dde:	eba3 0c02 	sub.w	ip, r3, r2
 8009de2:	e9dd 3200 	ldrd	r3, r2, [sp]
 8009de6:	1a9b      	subs	r3, r3, r2
 8009de8:	eb03 134c 	add.w	r3, r3, ip, lsl #5
 8009dec:	2b00      	cmp	r3, #0
 8009dee:	bfd5      	itete	le
 8009df0:	460a      	movle	r2, r1
 8009df2:	462a      	movgt	r2, r5
 8009df4:	ebc3 3303 	rsble	r3, r3, r3, lsl #12
 8009df8:	eb02 5703 	addgt.w	r7, r2, r3, lsl #20
 8009dfc:	bfd8      	it	le
 8009dfe:	eb02 5b03 	addle.w	fp, r2, r3, lsl #20
 8009e02:	465b      	mov	r3, fp
 8009e04:	4602      	mov	r2, r0
 8009e06:	4639      	mov	r1, r7
 8009e08:	4620      	mov	r0, r4
 8009e0a:	f7f6 fc8f 	bl	800072c <__aeabi_ddiv>
 8009e0e:	b003      	add	sp, #12
 8009e10:	e8bd 8ff0 	ldmia.w	sp!, {r4, r5, r6, r7, r8, r9, sl, fp, pc}

08009e14 <__copybits>:
 8009e14:	3901      	subs	r1, #1
 8009e16:	b570      	push	{r4, r5, r6, lr}
 8009e18:	1149      	asrs	r1, r1, #5
 8009e1a:	6914      	ldr	r4, [r2, #16]
 8009e1c:	3101      	adds	r1, #1
 8009e1e:	f102 0314 	add.w	r3, r2, #20
 8009e22:	eb00 0181 	add.w	r1, r0, r1, lsl #2
 8009e26:	eb03 0484 	add.w	r4, r3, r4, lsl #2
 8009e2a:	1f05      	subs	r5, r0, #4
 8009e2c:	42a3      	cmp	r3, r4
 8009e2e:	d30c      	bcc.n	8009e4a <__copybits+0x36>
 8009e30:	1aa3      	subs	r3, r4, r2
 8009e32:	3b11      	subs	r3, #17
 8009e34:	f023 0303 	bic.w	r3, r3, #3
 8009e38:	3211      	adds	r2, #17
 8009e3a:	42a2      	cmp	r2, r4
 8009e3c:	bf88      	it	hi
 8009e3e:	2300      	movhi	r3, #0
 8009e40:	4418      	add	r0, r3
 8009e42:	2300      	movs	r3, #0
 8009e44:	4288      	cmp	r0, r1
 8009e46:	d305      	bcc.n	8009e54 <__copybits+0x40>
 8009e48:	bd70      	pop	{r4, r5, r6, pc}
 8009e4a:	f853 6b04 	ldr.w	r6, [r3], #4
 8009e4e:	f845 6f04 	str.w	r6, [r5, #4]!
 8009e52:	e7eb      	b.n	8009e2c <__copybits+0x18>
 8009e54:	f840 3b04 	str.w	r3, [r0], #4
 8009e58:	e7f4      	b.n	8009e44 <__copybits+0x30>

08009e5a <__any_on>:
 8009e5a:	f100 0214 	add.w	r2, r0, #20
 8009e5e:	6900      	ldr	r0, [r0, #16]
 8009e60:	114b      	asrs	r3, r1, #5
 8009e62:	4298      	cmp	r0, r3
 8009e64:	b510      	push	{r4, lr}
 8009e66:	db11      	blt.n	8009e8c <__any_on+0x32>
 8009e68:	dd0a      	ble.n	8009e80 <__any_on+0x26>
 8009e6a:	f011 011f 	ands.w	r1, r1, #31
 8009e6e:	d007      	beq.n	8009e80 <__any_on+0x26>
 8009e70:	f852 4023 	ldr.w	r4, [r2, r3, lsl #2]
 8009e74:	fa24 f001 	lsr.w	r0, r4, r1
 8009e78:	fa00 f101 	lsl.w	r1, r0, r1
 8009e7c:	428c      	cmp	r4, r1
 8009e7e:	d10b      	bne.n	8009e98 <__any_on+0x3e>
 8009e80:	eb02 0383 	add.w	r3, r2, r3, lsl #2
 8009e84:	4293      	cmp	r3, r2
 8009e86:	d803      	bhi.n	8009e90 <__any_on+0x36>
 8009e88:	2000      	movs	r0, #0
 8009e8a:	bd10      	pop	{r4, pc}
 8009e8c:	4603      	mov	r3, r0
 8009e8e:	e7f7      	b.n	8009e80 <__any_on+0x26>
 8009e90:	f853 1d04 	ldr.w	r1, [r3, #-4]!
 8009e94:	2900      	cmp	r1, #0
 8009e96:	d0f5      	beq.n	8009e84 <__any_on+0x2a>
 8009e98:	2001      	movs	r0, #1
 8009e9a:	e7f6      	b.n	8009e8a <__any_on+0x30>

08009e9c <_calloc_r>:
 8009e9c:	b570      	push	{r4, r5, r6, lr}
 8009e9e:	fba1 5402 	umull	r5, r4, r1, r2
 8009ea2:	b934      	cbnz	r4, 8009eb2 <_calloc_r+0x16>
 8009ea4:	4629      	mov	r1, r5
 8009ea6:	f7fe f8a5 	bl	8007ff4 <_malloc_r>
 8009eaa:	4606      	mov	r6, r0
 8009eac:	b928      	cbnz	r0, 8009eba <_calloc_r+0x1e>
 8009eae:	4630      	mov	r0, r6
 8009eb0:	bd70      	pop	{r4, r5, r6, pc}
 8009eb2:	220c      	movs	r2, #12
 8009eb4:	2600      	movs	r6, #0
 8009eb6:	6002      	str	r2, [r0, #0]
 8009eb8:	e7f9      	b.n	8009eae <_calloc_r+0x12>
 8009eba:	462a      	mov	r2, r5
 8009ebc:	4621      	mov	r1, r4
 8009ebe:	f7fe f829 	bl	8007f14 <memset>
 8009ec2:	e7f4      	b.n	8009eae <_calloc_r+0x12>

08009ec4 <__ssputs_r>:
 8009ec4:	e92d 47f0 	stmdb	sp!, {r4, r5, r6, r7, r8, r9, sl, lr}
 8009ec8:	688e      	ldr	r6, [r1, #8]
 8009eca:	4682      	mov	sl, r0
 8009ecc:	429e      	cmp	r6, r3
 8009ece:	460c      	mov	r4, r1
 8009ed0:	4690      	mov	r8, r2
 8009ed2:	461f      	mov	r7, r3
 8009ed4:	d838      	bhi.n	8009f48 <__ssputs_r+0x84>
 8009ed6:	898a      	ldrh	r2, [r1, #12]
 8009ed8:	f412 6f90 	tst.w	r2, #1152	; 0x480
 8009edc:	d032      	beq.n	8009f44 <__ssputs_r+0x80>
 8009ede:	6825      	ldr	r5, [r4, #0]
 8009ee0:	6909      	ldr	r1, [r1, #16]
 8009ee2:	3301      	adds	r3, #1
 8009ee4:	eba5 0901 	sub.w	r9, r5, r1
 8009ee8:	6965      	ldr	r5, [r4, #20]
 8009eea:	444b      	add	r3, r9
 8009eec:	eb05 0545 	add.w	r5, r5, r5, lsl #1
 8009ef0:	eb05 75d5 	add.w	r5, r5, r5, lsr #31
 8009ef4:	106d      	asrs	r5, r5, #1
 8009ef6:	429d      	cmp	r5, r3
 8009ef8:	bf38      	it	cc
 8009efa:	461d      	movcc	r5, r3
 8009efc:	0553      	lsls	r3, r2, #21
 8009efe:	d531      	bpl.n	8009f64 <__ssputs_r+0xa0>
 8009f00:	4629      	mov	r1, r5
 8009f02:	f7fe f877 	bl	8007ff4 <_malloc_r>
 8009f06:	4606      	mov	r6, r0
 8009f08:	b950      	cbnz	r0, 8009f20 <__ssputs_r+0x5c>
 8009f0a:	230c      	movs	r3, #12
 8009f0c:	f04f 30ff 	mov.w	r0, #4294967295
 8009f10:	f8ca 3000 	str.w	r3, [sl]
 8009f14:	89a3      	ldrh	r3, [r4, #12]
 8009f16:	f043 0340 	orr.w	r3, r3, #64	; 0x40
 8009f1a:	81a3      	strh	r3, [r4, #12]
 8009f1c:	e8bd 87f0 	ldmia.w	sp!, {r4, r5, r6, r7, r8, r9, sl, pc}
 8009f20:	464a      	mov	r2, r9
 8009f22:	6921      	ldr	r1, [r4, #16]
 8009f24:	f7fd ffce 	bl	8007ec4 <memcpy>
 8009f28:	89a3      	ldrh	r3, [r4, #12]
 8009f2a:	f423 6390 	bic.w	r3, r3, #1152	; 0x480
 8009f2e:	f043 0380 	orr.w	r3, r3, #128	; 0x80
 8009f32:	81a3      	strh	r3, [r4, #12]
 8009f34:	6126      	str	r6, [r4, #16]
 8009f36:	444e      	add	r6, r9
 8009f38:	6026      	str	r6, [r4, #0]
 8009f3a:	463e      	mov	r6, r7
 8009f3c:	6165      	str	r5, [r4, #20]
 8009f3e:	eba5 0509 	sub.w	r5, r5, r9
 8009f42:	60a5      	str	r5, [r4, #8]
 8009f44:	42be      	cmp	r6, r7
 8009f46:	d900      	bls.n	8009f4a <__ssputs_r+0x86>
 8009f48:	463e      	mov	r6, r7
 8009f4a:	4632      	mov	r2, r6
 8009f4c:	4641      	mov	r1, r8
 8009f4e:	6820      	ldr	r0, [r4, #0]
 8009f50:	f7fd ffc6 	bl	8007ee0 <memmove>
 8009f54:	68a3      	ldr	r3, [r4, #8]
 8009f56:	2000      	movs	r0, #0
 8009f58:	1b9b      	subs	r3, r3, r6
 8009f5a:	60a3      	str	r3, [r4, #8]
 8009f5c:	6823      	ldr	r3, [r4, #0]
 8009f5e:	4433      	add	r3, r6
 8009f60:	6023      	str	r3, [r4, #0]
 8009f62:	e7db      	b.n	8009f1c <__ssputs_r+0x58>
 8009f64:	462a      	mov	r2, r5
 8009f66:	f000 fafa 	bl	800a55e <_realloc_r>
 8009f6a:	4606      	mov	r6, r0
 8009f6c:	2800      	cmp	r0, #0
 8009f6e:	d1e1      	bne.n	8009f34 <__ssputs_r+0x70>
 8009f70:	4650      	mov	r0, sl
 8009f72:	6921      	ldr	r1, [r4, #16]
 8009f74:	f7fd ffd6 	bl	8007f24 <_free_r>
 8009f78:	e7c7      	b.n	8009f0a <__ssputs_r+0x46>
	...

08009f7c <_svfiprintf_r>:
 8009f7c:	e92d 4ff0 	stmdb	sp!, {r4, r5, r6, r7, r8, r9, sl, fp, lr}
 8009f80:	4698      	mov	r8, r3
 8009f82:	898b      	ldrh	r3, [r1, #12]
 8009f84:	4607      	mov	r7, r0
 8009f86:	061b      	lsls	r3, r3, #24
 8009f88:	460d      	mov	r5, r1
 8009f8a:	4614      	mov	r4, r2
 8009f8c:	b09d      	sub	sp, #116	; 0x74
 8009f8e:	d50e      	bpl.n	8009fae <_svfiprintf_r+0x32>
 8009f90:	690b      	ldr	r3, [r1, #16]
 8009f92:	b963      	cbnz	r3, 8009fae <_svfiprintf_r+0x32>
 8009f94:	2140      	movs	r1, #64	; 0x40
 8009f96:	f7fe f82d 	bl	8007ff4 <_malloc_r>
 8009f9a:	6028      	str	r0, [r5, #0]
 8009f9c:	6128      	str	r0, [r5, #16]
 8009f9e:	b920      	cbnz	r0, 8009faa <_svfiprintf_r+0x2e>
 8009fa0:	230c      	movs	r3, #12
 8009fa2:	603b      	str	r3, [r7, #0]
 8009fa4:	f04f 30ff 	mov.w	r0, #4294967295
 8009fa8:	e0d1      	b.n	800a14e <_svfiprintf_r+0x1d2>
 8009faa:	2340      	movs	r3, #64	; 0x40
 8009fac:	616b      	str	r3, [r5, #20]
 8009fae:	2300      	movs	r3, #0
 8009fb0:	9309      	str	r3, [sp, #36]	; 0x24
 8009fb2:	2320      	movs	r3, #32
 8009fb4:	f88d 3029 	strb.w	r3, [sp, #41]	; 0x29
 8009fb8:	2330      	movs	r3, #48	; 0x30
 8009fba:	f04f 0901 	mov.w	r9, #1
 8009fbe:	f8cd 800c 	str.w	r8, [sp, #12]
 8009fc2:	f8df 81a4 	ldr.w	r8, [pc, #420]	; 800a168 <_svfiprintf_r+0x1ec>
 8009fc6:	f88d 302a 	strb.w	r3, [sp, #42]	; 0x2a
 8009fca:	4623      	mov	r3, r4
 8009fcc:	469a      	mov	sl, r3
 8009fce:	f813 2b01 	ldrb.w	r2, [r3], #1
 8009fd2:	b10a      	cbz	r2, 8009fd8 <_svfiprintf_r+0x5c>
 8009fd4:	2a25      	cmp	r2, #37	; 0x25
 8009fd6:	d1f9      	bne.n	8009fcc <_svfiprintf_r+0x50>
 8009fd8:	ebba 0b04 	subs.w	fp, sl, r4
 8009fdc:	d00b      	beq.n	8009ff6 <_svfiprintf_r+0x7a>
 8009fde:	465b      	mov	r3, fp
 8009fe0:	4622      	mov	r2, r4
 8009fe2:	4629      	mov	r1, r5
 8009fe4:	4638      	mov	r0, r7
 8009fe6:	f7ff ff6d 	bl	8009ec4 <__ssputs_r>
 8009fea:	3001      	adds	r0, #1
 8009fec:	f000 80aa 	beq.w	800a144 <_svfiprintf_r+0x1c8>
 8009ff0:	9a09      	ldr	r2, [sp, #36]	; 0x24
 8009ff2:	445a      	add	r2, fp
 8009ff4:	9209      	str	r2, [sp, #36]	; 0x24
 8009ff6:	f89a 3000 	ldrb.w	r3, [sl]
 8009ffa:	2b00      	cmp	r3, #0
 8009ffc:	f000 80a2 	beq.w	800a144 <_svfiprintf_r+0x1c8>
 800a000:	2300      	movs	r3, #0
 800a002:	f04f 32ff 	mov.w	r2, #4294967295
 800a006:	e9cd 2305 	strd	r2, r3, [sp, #20]
 800a00a:	f10a 0a01 	add.w	sl, sl, #1
 800a00e:	9304      	str	r3, [sp, #16]
 800a010:	9307      	str	r3, [sp, #28]
 800a012:	f88d 3053 	strb.w	r3, [sp, #83]	; 0x53
 800a016:	931a      	str	r3, [sp, #104]	; 0x68
 800a018:	4654      	mov	r4, sl
 800a01a:	2205      	movs	r2, #5
 800a01c:	f814 1b01 	ldrb.w	r1, [r4], #1
 800a020:	4851      	ldr	r0, [pc, #324]	; (800a168 <_svfiprintf_r+0x1ec>)
 800a022:	f7fd ff41 	bl	8007ea8 <memchr>
 800a026:	9a04      	ldr	r2, [sp, #16]
 800a028:	b9d8      	cbnz	r0, 800a062 <_svfiprintf_r+0xe6>
 800a02a:	06d0      	lsls	r0, r2, #27
 800a02c:	bf44      	itt	mi
 800a02e:	2320      	movmi	r3, #32
 800a030:	f88d 3053 	strbmi.w	r3, [sp, #83]	; 0x53
 800a034:	0711      	lsls	r1, r2, #28
 800a036:	bf44      	itt	mi
 800a038:	232b      	movmi	r3, #43	; 0x2b
 800a03a:	f88d 3053 	strbmi.w	r3, [sp, #83]	; 0x53
 800a03e:	f89a 3000 	ldrb.w	r3, [sl]
 800a042:	2b2a      	cmp	r3, #42	; 0x2a
 800a044:	d015      	beq.n	800a072 <_svfiprintf_r+0xf6>
 800a046:	4654      	mov	r4, sl
 800a048:	2000      	movs	r0, #0
 800a04a:	f04f 0c0a 	mov.w	ip, #10
 800a04e:	9a07      	ldr	r2, [sp, #28]
 800a050:	4621      	mov	r1, r4
 800a052:	f811 3b01 	ldrb.w	r3, [r1], #1
 800a056:	3b30      	subs	r3, #48	; 0x30
 800a058:	2b09      	cmp	r3, #9
 800a05a:	d94e      	bls.n	800a0fa <_svfiprintf_r+0x17e>
 800a05c:	b1b0      	cbz	r0, 800a08c <_svfiprintf_r+0x110>
 800a05e:	9207      	str	r2, [sp, #28]
 800a060:	e014      	b.n	800a08c <_svfiprintf_r+0x110>
 800a062:	eba0 0308 	sub.w	r3, r0, r8
 800a066:	fa09 f303 	lsl.w	r3, r9, r3
 800a06a:	4313      	orrs	r3, r2
 800a06c:	46a2      	mov	sl, r4
 800a06e:	9304      	str	r3, [sp, #16]
 800a070:	e7d2      	b.n	800a018 <_svfiprintf_r+0x9c>
 800a072:	9b03      	ldr	r3, [sp, #12]
 800a074:	1d19      	adds	r1, r3, #4
 800a076:	681b      	ldr	r3, [r3, #0]
 800a078:	9103      	str	r1, [sp, #12]
 800a07a:	2b00      	cmp	r3, #0
 800a07c:	bfbb      	ittet	lt
 800a07e:	425b      	neglt	r3, r3
 800a080:	f042 0202 	orrlt.w	r2, r2, #2
 800a084:	9307      	strge	r3, [sp, #28]
 800a086:	9307      	strlt	r3, [sp, #28]
 800a088:	bfb8      	it	lt
 800a08a:	9204      	strlt	r2, [sp, #16]
 800a08c:	7823      	ldrb	r3, [r4, #0]
 800a08e:	2b2e      	cmp	r3, #46	; 0x2e
 800a090:	d10c      	bne.n	800a0ac <_svfiprintf_r+0x130>
 800a092:	7863      	ldrb	r3, [r4, #1]
 800a094:	2b2a      	cmp	r3, #42	; 0x2a
 800a096:	d135      	bne.n	800a104 <_svfiprintf_r+0x188>
 800a098:	9b03      	ldr	r3, [sp, #12]
 800a09a:	3402      	adds	r4, #2
 800a09c:	1d1a      	adds	r2, r3, #4
 800a09e:	681b      	ldr	r3, [r3, #0]
 800a0a0:	9203      	str	r2, [sp, #12]
 800a0a2:	2b00      	cmp	r3, #0
 800a0a4:	bfb8      	it	lt
 800a0a6:	f04f 33ff 	movlt.w	r3, #4294967295
 800a0aa:	9305      	str	r3, [sp, #20]
 800a0ac:	f8df a0bc 	ldr.w	sl, [pc, #188]	; 800a16c <_svfiprintf_r+0x1f0>
 800a0b0:	2203      	movs	r2, #3
 800a0b2:	4650      	mov	r0, sl
 800a0b4:	7821      	ldrb	r1, [r4, #0]
 800a0b6:	f7fd fef7 	bl	8007ea8 <memchr>
 800a0ba:	b140      	cbz	r0, 800a0ce <_svfiprintf_r+0x152>
 800a0bc:	2340      	movs	r3, #64	; 0x40
 800a0be:	eba0 000a 	sub.w	r0, r0, sl
 800a0c2:	fa03 f000 	lsl.w	r0, r3, r0
 800a0c6:	9b04      	ldr	r3, [sp, #16]
 800a0c8:	3401      	adds	r4, #1
 800a0ca:	4303      	orrs	r3, r0
 800a0cc:	9304      	str	r3, [sp, #16]
 800a0ce:	f814 1b01 	ldrb.w	r1, [r4], #1
 800a0d2:	2206      	movs	r2, #6
 800a0d4:	4826      	ldr	r0, [pc, #152]	; (800a170 <_svfiprintf_r+0x1f4>)
 800a0d6:	f88d 1028 	strb.w	r1, [sp, #40]	; 0x28
 800a0da:	f7fd fee5 	bl	8007ea8 <memchr>
 800a0de:	2800      	cmp	r0, #0
 800a0e0:	d038      	beq.n	800a154 <_svfiprintf_r+0x1d8>
 800a0e2:	4b24      	ldr	r3, [pc, #144]	; (800a174 <_svfiprintf_r+0x1f8>)
 800a0e4:	bb1b      	cbnz	r3, 800a12e <_svfiprintf_r+0x1b2>
 800a0e6:	9b03      	ldr	r3, [sp, #12]
 800a0e8:	3307      	adds	r3, #7
 800a0ea:	f023 0307 	bic.w	r3, r3, #7
 800a0ee:	3308      	adds	r3, #8
 800a0f0:	9303      	str	r3, [sp, #12]
 800a0f2:	9b09      	ldr	r3, [sp, #36]	; 0x24
 800a0f4:	4433      	add	r3, r6
 800a0f6:	9309      	str	r3, [sp, #36]	; 0x24
 800a0f8:	e767      	b.n	8009fca <_svfiprintf_r+0x4e>
 800a0fa:	460c      	mov	r4, r1
 800a0fc:	2001      	movs	r0, #1
 800a0fe:	fb0c 3202 	mla	r2, ip, r2, r3
 800a102:	e7a5      	b.n	800a050 <_svfiprintf_r+0xd4>
 800a104:	2300      	movs	r3, #0
 800a106:	f04f 0c0a 	mov.w	ip, #10
 800a10a:	4619      	mov	r1, r3
 800a10c:	3401      	adds	r4, #1
 800a10e:	9305      	str	r3, [sp, #20]
 800a110:	4620      	mov	r0, r4
 800a112:	f810 2b01 	ldrb.w	r2, [r0], #1
 800a116:	3a30      	subs	r2, #48	; 0x30
 800a118:	2a09      	cmp	r2, #9
 800a11a:	d903      	bls.n	800a124 <_svfiprintf_r+0x1a8>
 800a11c:	2b00      	cmp	r3, #0
 800a11e:	d0c5      	beq.n	800a0ac <_svfiprintf_r+0x130>
 800a120:	9105      	str	r1, [sp, #20]
 800a122:	e7c3      	b.n	800a0ac <_svfiprintf_r+0x130>
 800a124:	4604      	mov	r4, r0
 800a126:	2301      	movs	r3, #1
 800a128:	fb0c 2101 	mla	r1, ip, r1, r2
 800a12c:	e7f0      	b.n	800a110 <_svfiprintf_r+0x194>
 800a12e:	ab03      	add	r3, sp, #12
 800a130:	9300      	str	r3, [sp, #0]
 800a132:	462a      	mov	r2, r5
 800a134:	4638      	mov	r0, r7
 800a136:	4b10      	ldr	r3, [pc, #64]	; (800a178 <_svfiprintf_r+0x1fc>)
 800a138:	a904      	add	r1, sp, #16
 800a13a:	f3af 8000 	nop.w
 800a13e:	1c42      	adds	r2, r0, #1
 800a140:	4606      	mov	r6, r0
 800a142:	d1d6      	bne.n	800a0f2 <_svfiprintf_r+0x176>
 800a144:	89ab      	ldrh	r3, [r5, #12]
 800a146:	065b      	lsls	r3, r3, #25
 800a148:	f53f af2c 	bmi.w	8009fa4 <_svfiprintf_r+0x28>
 800a14c:	9809      	ldr	r0, [sp, #36]	; 0x24
 800a14e:	b01d      	add	sp, #116	; 0x74
 800a150:	e8bd 8ff0 	ldmia.w	sp!, {r4, r5, r6, r7, r8, r9, sl, fp, pc}
 800a154:	ab03      	add	r3, sp, #12
 800a156:	9300      	str	r3, [sp, #0]
 800a158:	462a      	mov	r2, r5
 800a15a:	4638      	mov	r0, r7
 800a15c:	4b06      	ldr	r3, [pc, #24]	; (800a178 <_svfiprintf_r+0x1fc>)
 800a15e:	a904      	add	r1, sp, #16
 800a160:	f000 f87c 	bl	800a25c <_printf_i>
 800a164:	e7eb      	b.n	800a13e <_svfiprintf_r+0x1c2>
 800a166:	bf00      	nop
 800a168:	0800b404 	.word	0x0800b404
 800a16c:	0800b40a 	.word	0x0800b40a
 800a170:	0800b40e 	.word	0x0800b40e
 800a174:	00000000 	.word	0x00000000
 800a178:	08009ec5 	.word	0x08009ec5

0800a17c <_printf_common>:
 800a17c:	e92d 47f0 	stmdb	sp!, {r4, r5, r6, r7, r8, r9, sl, lr}
 800a180:	4616      	mov	r6, r2
 800a182:	4699      	mov	r9, r3
 800a184:	688a      	ldr	r2, [r1, #8]
 800a186:	690b      	ldr	r3, [r1, #16]
 800a188:	4607      	mov	r7, r0
 800a18a:	4293      	cmp	r3, r2
 800a18c:	bfb8      	it	lt
 800a18e:	4613      	movlt	r3, r2
 800a190:	6033      	str	r3, [r6, #0]
 800a192:	f891 2043 	ldrb.w	r2, [r1, #67]	; 0x43
 800a196:	460c      	mov	r4, r1
 800a198:	f8dd 8020 	ldr.w	r8, [sp, #32]
 800a19c:	b10a      	cbz	r2, 800a1a2 <_printf_common+0x26>
 800a19e:	3301      	adds	r3, #1
 800a1a0:	6033      	str	r3, [r6, #0]
 800a1a2:	6823      	ldr	r3, [r4, #0]
 800a1a4:	0699      	lsls	r1, r3, #26
 800a1a6:	bf42      	ittt	mi
 800a1a8:	6833      	ldrmi	r3, [r6, #0]
 800a1aa:	3302      	addmi	r3, #2
 800a1ac:	6033      	strmi	r3, [r6, #0]
 800a1ae:	6825      	ldr	r5, [r4, #0]
 800a1b0:	f015 0506 	ands.w	r5, r5, #6
 800a1b4:	d106      	bne.n	800a1c4 <_printf_common+0x48>
 800a1b6:	f104 0a19 	add.w	sl, r4, #25
 800a1ba:	68e3      	ldr	r3, [r4, #12]
 800a1bc:	6832      	ldr	r2, [r6, #0]
 800a1be:	1a9b      	subs	r3, r3, r2
 800a1c0:	42ab      	cmp	r3, r5
 800a1c2:	dc28      	bgt.n	800a216 <_printf_common+0x9a>
 800a1c4:	f894 2043 	ldrb.w	r2, [r4, #67]	; 0x43
 800a1c8:	1e13      	subs	r3, r2, #0
 800a1ca:	6822      	ldr	r2, [r4, #0]
 800a1cc:	bf18      	it	ne
 800a1ce:	2301      	movne	r3, #1
 800a1d0:	0692      	lsls	r2, r2, #26
 800a1d2:	d42d      	bmi.n	800a230 <_printf_common+0xb4>
 800a1d4:	4649      	mov	r1, r9
 800a1d6:	4638      	mov	r0, r7
 800a1d8:	f104 0243 	add.w	r2, r4, #67	; 0x43
 800a1dc:	47c0      	blx	r8
 800a1de:	3001      	adds	r0, #1
 800a1e0:	d020      	beq.n	800a224 <_printf_common+0xa8>
 800a1e2:	6823      	ldr	r3, [r4, #0]
 800a1e4:	68e5      	ldr	r5, [r4, #12]
 800a1e6:	f003 0306 	and.w	r3, r3, #6
 800a1ea:	2b04      	cmp	r3, #4
 800a1ec:	bf18      	it	ne
 800a1ee:	2500      	movne	r5, #0
 800a1f0:	6832      	ldr	r2, [r6, #0]
 800a1f2:	f04f 0600 	mov.w	r6, #0
 800a1f6:	68a3      	ldr	r3, [r4, #8]
 800a1f8:	bf08      	it	eq
 800a1fa:	1aad      	subeq	r5, r5, r2
 800a1fc:	6922      	ldr	r2, [r4, #16]
 800a1fe:	bf08      	it	eq
 800a200:	ea25 75e5 	biceq.w	r5, r5, r5, asr #31
 800a204:	4293      	cmp	r3, r2
 800a206:	bfc4      	itt	gt
 800a208:	1a9b      	subgt	r3, r3, r2
 800a20a:	18ed      	addgt	r5, r5, r3
 800a20c:	341a      	adds	r4, #26
 800a20e:	42b5      	cmp	r5, r6
 800a210:	d11a      	bne.n	800a248 <_printf_common+0xcc>
 800a212:	2000      	movs	r0, #0
 800a214:	e008      	b.n	800a228 <_printf_common+0xac>
 800a216:	2301      	movs	r3, #1
 800a218:	4652      	mov	r2, sl
 800a21a:	4649      	mov	r1, r9
 800a21c:	4638      	mov	r0, r7
 800a21e:	47c0      	blx	r8
 800a220:	3001      	adds	r0, #1
 800a222:	d103      	bne.n	800a22c <_printf_common+0xb0>
 800a224:	f04f 30ff 	mov.w	r0, #4294967295
 800a228:	e8bd 87f0 	ldmia.w	sp!, {r4, r5, r6, r7, r8, r9, sl, pc}
 800a22c:	3501      	adds	r5, #1
 800a22e:	e7c4      	b.n	800a1ba <_printf_common+0x3e>
 800a230:	2030      	movs	r0, #48	; 0x30
 800a232:	18e1      	adds	r1, r4, r3
 800a234:	f881 0043 	strb.w	r0, [r1, #67]	; 0x43
 800a238:	1c5a      	adds	r2, r3, #1
 800a23a:	f894 1045 	ldrb.w	r1, [r4, #69]	; 0x45
 800a23e:	4422      	add	r2, r4
 800a240:	3302      	adds	r3, #2
 800a242:	f882 1043 	strb.w	r1, [r2, #67]	; 0x43
 800a246:	e7c5      	b.n	800a1d4 <_printf_common+0x58>
 800a248:	2301      	movs	r3, #1
 800a24a:	4622      	mov	r2, r4
 800a24c:	4649      	mov	r1, r9
 800a24e:	4638      	mov	r0, r7
 800a250:	47c0      	blx	r8
 800a252:	3001      	adds	r0, #1
 800a254:	d0e6      	beq.n	800a224 <_printf_common+0xa8>
 800a256:	3601      	adds	r6, #1
 800a258:	e7d9      	b.n	800a20e <_printf_common+0x92>
	...

0800a25c <_printf_i>:
 800a25c:	e92d 47ff 	stmdb	sp!, {r0, r1, r2, r3, r4, r5, r6, r7, r8, r9, sl, lr}
 800a260:	7e0f      	ldrb	r7, [r1, #24]
 800a262:	4691      	mov	r9, r2
 800a264:	2f78      	cmp	r7, #120	; 0x78
 800a266:	4680      	mov	r8, r0
 800a268:	460c      	mov	r4, r1
 800a26a:	469a      	mov	sl, r3
 800a26c:	9d0c      	ldr	r5, [sp, #48]	; 0x30
 800a26e:	f101 0243 	add.w	r2, r1, #67	; 0x43
 800a272:	d807      	bhi.n	800a284 <_printf_i+0x28>
 800a274:	2f62      	cmp	r7, #98	; 0x62
 800a276:	d80a      	bhi.n	800a28e <_printf_i+0x32>
 800a278:	2f00      	cmp	r7, #0
 800a27a:	f000 80d9 	beq.w	800a430 <_printf_i+0x1d4>
 800a27e:	2f58      	cmp	r7, #88	; 0x58
 800a280:	f000 80a4 	beq.w	800a3cc <_printf_i+0x170>
 800a284:	f104 0542 	add.w	r5, r4, #66	; 0x42
 800a288:	f884 7042 	strb.w	r7, [r4, #66]	; 0x42
 800a28c:	e03a      	b.n	800a304 <_printf_i+0xa8>
 800a28e:	f1a7 0363 	sub.w	r3, r7, #99	; 0x63
 800a292:	2b15      	cmp	r3, #21
 800a294:	d8f6      	bhi.n	800a284 <_printf_i+0x28>
 800a296:	a101      	add	r1, pc, #4	; (adr r1, 800a29c <_printf_i+0x40>)
 800a298:	f851 f023 	ldr.w	pc, [r1, r3, lsl #2]
 800a29c:	0800a2f5 	.word	0x0800a2f5
 800a2a0:	0800a309 	.word	0x0800a309
 800a2a4:	0800a285 	.word	0x0800a285
 800a2a8:	0800a285 	.word	0x0800a285
 800a2ac:	0800a285 	.word	0x0800a285
 800a2b0:	0800a285 	.word	0x0800a285
 800a2b4:	0800a309 	.word	0x0800a309
 800a2b8:	0800a285 	.word	0x0800a285
 800a2bc:	0800a285 	.word	0x0800a285
 800a2c0:	0800a285 	.word	0x0800a285
 800a2c4:	0800a285 	.word	0x0800a285
 800a2c8:	0800a417 	.word	0x0800a417
 800a2cc:	0800a339 	.word	0x0800a339
 800a2d0:	0800a3f9 	.word	0x0800a3f9
 800a2d4:	0800a285 	.word	0x0800a285
 800a2d8:	0800a285 	.word	0x0800a285
 800a2dc:	0800a439 	.word	0x0800a439
 800a2e0:	0800a285 	.word	0x0800a285
 800a2e4:	0800a339 	.word	0x0800a339
 800a2e8:	0800a285 	.word	0x0800a285
 800a2ec:	0800a285 	.word	0x0800a285
 800a2f0:	0800a401 	.word	0x0800a401
 800a2f4:	682b      	ldr	r3, [r5, #0]
 800a2f6:	1d1a      	adds	r2, r3, #4
 800a2f8:	681b      	ldr	r3, [r3, #0]
 800a2fa:	602a      	str	r2, [r5, #0]
 800a2fc:	f104 0542 	add.w	r5, r4, #66	; 0x42
 800a300:	f884 3042 	strb.w	r3, [r4, #66]	; 0x42
 800a304:	2301      	movs	r3, #1
 800a306:	e0a4      	b.n	800a452 <_printf_i+0x1f6>
 800a308:	6820      	ldr	r0, [r4, #0]
 800a30a:	6829      	ldr	r1, [r5, #0]
 800a30c:	0606      	lsls	r6, r0, #24
 800a30e:	f101 0304 	add.w	r3, r1, #4
 800a312:	d50a      	bpl.n	800a32a <_printf_i+0xce>
 800a314:	680e      	ldr	r6, [r1, #0]
 800a316:	602b      	str	r3, [r5, #0]
 800a318:	2e00      	cmp	r6, #0
 800a31a:	da03      	bge.n	800a324 <_printf_i+0xc8>
 800a31c:	232d      	movs	r3, #45	; 0x2d
 800a31e:	4276      	negs	r6, r6
 800a320:	f884 3043 	strb.w	r3, [r4, #67]	; 0x43
 800a324:	230a      	movs	r3, #10
 800a326:	485e      	ldr	r0, [pc, #376]	; (800a4a0 <_printf_i+0x244>)
 800a328:	e019      	b.n	800a35e <_printf_i+0x102>
 800a32a:	680e      	ldr	r6, [r1, #0]
 800a32c:	f010 0f40 	tst.w	r0, #64	; 0x40
 800a330:	602b      	str	r3, [r5, #0]
 800a332:	bf18      	it	ne
 800a334:	b236      	sxthne	r6, r6
 800a336:	e7ef      	b.n	800a318 <_printf_i+0xbc>
 800a338:	682b      	ldr	r3, [r5, #0]
 800a33a:	6820      	ldr	r0, [r4, #0]
 800a33c:	1d19      	adds	r1, r3, #4
 800a33e:	6029      	str	r1, [r5, #0]
 800a340:	0601      	lsls	r1, r0, #24
 800a342:	d501      	bpl.n	800a348 <_printf_i+0xec>
 800a344:	681e      	ldr	r6, [r3, #0]
 800a346:	e002      	b.n	800a34e <_printf_i+0xf2>
 800a348:	0646      	lsls	r6, r0, #25
 800a34a:	d5fb      	bpl.n	800a344 <_printf_i+0xe8>
 800a34c:	881e      	ldrh	r6, [r3, #0]
 800a34e:	2f6f      	cmp	r7, #111	; 0x6f
 800a350:	bf0c      	ite	eq
 800a352:	2308      	moveq	r3, #8
 800a354:	230a      	movne	r3, #10
 800a356:	4852      	ldr	r0, [pc, #328]	; (800a4a0 <_printf_i+0x244>)
 800a358:	2100      	movs	r1, #0
 800a35a:	f884 1043 	strb.w	r1, [r4, #67]	; 0x43
 800a35e:	6865      	ldr	r5, [r4, #4]
 800a360:	2d00      	cmp	r5, #0
 800a362:	bfa8      	it	ge
 800a364:	6821      	ldrge	r1, [r4, #0]
 800a366:	60a5      	str	r5, [r4, #8]
 800a368:	bfa4      	itt	ge
 800a36a:	f021 0104 	bicge.w	r1, r1, #4
 800a36e:	6021      	strge	r1, [r4, #0]
 800a370:	b90e      	cbnz	r6, 800a376 <_printf_i+0x11a>
 800a372:	2d00      	cmp	r5, #0
 800a374:	d04d      	beq.n	800a412 <_printf_i+0x1b6>
 800a376:	4615      	mov	r5, r2
 800a378:	fbb6 f1f3 	udiv	r1, r6, r3
 800a37c:	fb03 6711 	mls	r7, r3, r1, r6
 800a380:	5dc7      	ldrb	r7, [r0, r7]
 800a382:	f805 7d01 	strb.w	r7, [r5, #-1]!
 800a386:	4637      	mov	r7, r6
 800a388:	42bb      	cmp	r3, r7
 800a38a:	460e      	mov	r6, r1
 800a38c:	d9f4      	bls.n	800a378 <_printf_i+0x11c>
 800a38e:	2b08      	cmp	r3, #8
 800a390:	d10b      	bne.n	800a3aa <_printf_i+0x14e>
 800a392:	6823      	ldr	r3, [r4, #0]
 800a394:	07de      	lsls	r6, r3, #31
 800a396:	d508      	bpl.n	800a3aa <_printf_i+0x14e>
 800a398:	6923      	ldr	r3, [r4, #16]
 800a39a:	6861      	ldr	r1, [r4, #4]
 800a39c:	4299      	cmp	r1, r3
 800a39e:	bfde      	ittt	le
 800a3a0:	2330      	movle	r3, #48	; 0x30
 800a3a2:	f805 3c01 	strble.w	r3, [r5, #-1]
 800a3a6:	f105 35ff 	addle.w	r5, r5, #4294967295
 800a3aa:	1b52      	subs	r2, r2, r5
 800a3ac:	6122      	str	r2, [r4, #16]
 800a3ae:	464b      	mov	r3, r9
 800a3b0:	4621      	mov	r1, r4
 800a3b2:	4640      	mov	r0, r8
 800a3b4:	f8cd a000 	str.w	sl, [sp]
 800a3b8:	aa03      	add	r2, sp, #12
 800a3ba:	f7ff fedf 	bl	800a17c <_printf_common>
 800a3be:	3001      	adds	r0, #1
 800a3c0:	d14c      	bne.n	800a45c <_printf_i+0x200>
 800a3c2:	f04f 30ff 	mov.w	r0, #4294967295
 800a3c6:	b004      	add	sp, #16
 800a3c8:	e8bd 87f0 	ldmia.w	sp!, {r4, r5, r6, r7, r8, r9, sl, pc}
 800a3cc:	4834      	ldr	r0, [pc, #208]	; (800a4a0 <_printf_i+0x244>)
 800a3ce:	f881 7045 	strb.w	r7, [r1, #69]	; 0x45
 800a3d2:	6829      	ldr	r1, [r5, #0]
 800a3d4:	6823      	ldr	r3, [r4, #0]
 800a3d6:	f851 6b04 	ldr.w	r6, [r1], #4
 800a3da:	6029      	str	r1, [r5, #0]
 800a3dc:	061d      	lsls	r5, r3, #24
 800a3de:	d514      	bpl.n	800a40a <_printf_i+0x1ae>
 800a3e0:	07df      	lsls	r7, r3, #31
 800a3e2:	bf44      	itt	mi
 800a3e4:	f043 0320 	orrmi.w	r3, r3, #32
 800a3e8:	6023      	strmi	r3, [r4, #0]
 800a3ea:	b91e      	cbnz	r6, 800a3f4 <_printf_i+0x198>
 800a3ec:	6823      	ldr	r3, [r4, #0]
 800a3ee:	f023 0320 	bic.w	r3, r3, #32
 800a3f2:	6023      	str	r3, [r4, #0]
 800a3f4:	2310      	movs	r3, #16
 800a3f6:	e7af      	b.n	800a358 <_printf_i+0xfc>
 800a3f8:	6823      	ldr	r3, [r4, #0]
 800a3fa:	f043 0320 	orr.w	r3, r3, #32
 800a3fe:	6023      	str	r3, [r4, #0]
 800a400:	2378      	movs	r3, #120	; 0x78
 800a402:	4828      	ldr	r0, [pc, #160]	; (800a4a4 <_printf_i+0x248>)
 800a404:	f884 3045 	strb.w	r3, [r4, #69]	; 0x45
 800a408:	e7e3      	b.n	800a3d2 <_printf_i+0x176>
 800a40a:	0659      	lsls	r1, r3, #25
 800a40c:	bf48      	it	mi
 800a40e:	b2b6      	uxthmi	r6, r6
 800a410:	e7e6      	b.n	800a3e0 <_printf_i+0x184>
 800a412:	4615      	mov	r5, r2
 800a414:	e7bb      	b.n	800a38e <_printf_i+0x132>
 800a416:	682b      	ldr	r3, [r5, #0]
 800a418:	6826      	ldr	r6, [r4, #0]
 800a41a:	1d18      	adds	r0, r3, #4
 800a41c:	6961      	ldr	r1, [r4, #20]
 800a41e:	6028      	str	r0, [r5, #0]
 800a420:	0635      	lsls	r5, r6, #24
 800a422:	681b      	ldr	r3, [r3, #0]
 800a424:	d501      	bpl.n	800a42a <_printf_i+0x1ce>
 800a426:	6019      	str	r1, [r3, #0]
 800a428:	e002      	b.n	800a430 <_printf_i+0x1d4>
 800a42a:	0670      	lsls	r0, r6, #25
 800a42c:	d5fb      	bpl.n	800a426 <_printf_i+0x1ca>
 800a42e:	8019      	strh	r1, [r3, #0]
 800a430:	2300      	movs	r3, #0
 800a432:	4615      	mov	r5, r2
 800a434:	6123      	str	r3, [r4, #16]
 800a436:	e7ba      	b.n	800a3ae <_printf_i+0x152>
 800a438:	682b      	ldr	r3, [r5, #0]
 800a43a:	2100      	movs	r1, #0
 800a43c:	1d1a      	adds	r2, r3, #4
 800a43e:	602a      	str	r2, [r5, #0]
 800a440:	681d      	ldr	r5, [r3, #0]
 800a442:	6862      	ldr	r2, [r4, #4]
 800a444:	4628      	mov	r0, r5
 800a446:	f7fd fd2f 	bl	8007ea8 <memchr>
 800a44a:	b108      	cbz	r0, 800a450 <_printf_i+0x1f4>
 800a44c:	1b40      	subs	r0, r0, r5
 800a44e:	6060      	str	r0, [r4, #4]
 800a450:	6863      	ldr	r3, [r4, #4]
 800a452:	6123      	str	r3, [r4, #16]
 800a454:	2300      	movs	r3, #0
 800a456:	f884 3043 	strb.w	r3, [r4, #67]	; 0x43
 800a45a:	e7a8      	b.n	800a3ae <_printf_i+0x152>
 800a45c:	462a      	mov	r2, r5
 800a45e:	4649      	mov	r1, r9
 800a460:	4640      	mov	r0, r8
 800a462:	6923      	ldr	r3, [r4, #16]
 800a464:	47d0      	blx	sl
 800a466:	3001      	adds	r0, #1
 800a468:	d0ab      	beq.n	800a3c2 <_printf_i+0x166>
 800a46a:	6823      	ldr	r3, [r4, #0]
 800a46c:	079b      	lsls	r3, r3, #30
 800a46e:	d413      	bmi.n	800a498 <_printf_i+0x23c>
 800a470:	68e0      	ldr	r0, [r4, #12]
 800a472:	9b03      	ldr	r3, [sp, #12]
 800a474:	4298      	cmp	r0, r3
 800a476:	bfb8      	it	lt
 800a478:	4618      	movlt	r0, r3
 800a47a:	e7a4      	b.n	800a3c6 <_printf_i+0x16a>
 800a47c:	2301      	movs	r3, #1
 800a47e:	4632      	mov	r2, r6
 800a480:	4649      	mov	r1, r9
 800a482:	4640      	mov	r0, r8
 800a484:	47d0      	blx	sl
 800a486:	3001      	adds	r0, #1
 800a488:	d09b      	beq.n	800a3c2 <_printf_i+0x166>
 800a48a:	3501      	adds	r5, #1
 800a48c:	68e3      	ldr	r3, [r4, #12]
 800a48e:	9903      	ldr	r1, [sp, #12]
 800a490:	1a5b      	subs	r3, r3, r1
 800a492:	42ab      	cmp	r3, r5
 800a494:	dcf2      	bgt.n	800a47c <_printf_i+0x220>
 800a496:	e7eb      	b.n	800a470 <_printf_i+0x214>
 800a498:	2500      	movs	r5, #0
 800a49a:	f104 0619 	add.w	r6, r4, #25
 800a49e:	e7f5      	b.n	800a48c <_printf_i+0x230>
 800a4a0:	0800b415 	.word	0x0800b415
 800a4a4:	0800b426 	.word	0x0800b426

0800a4a8 <nan>:
 800a4a8:	2000      	movs	r0, #0
 800a4aa:	4901      	ldr	r1, [pc, #4]	; (800a4b0 <nan+0x8>)
 800a4ac:	4770      	bx	lr
 800a4ae:	bf00      	nop
 800a4b0:	7ff80000 	.word	0x7ff80000

0800a4b4 <strncmp>:
 800a4b4:	4603      	mov	r3, r0
 800a4b6:	b510      	push	{r4, lr}
 800a4b8:	b172      	cbz	r2, 800a4d8 <strncmp+0x24>
 800a4ba:	3901      	subs	r1, #1
 800a4bc:	1884      	adds	r4, r0, r2
 800a4be:	f813 0b01 	ldrb.w	r0, [r3], #1
 800a4c2:	f811 2f01 	ldrb.w	r2, [r1, #1]!
 800a4c6:	4290      	cmp	r0, r2
 800a4c8:	d101      	bne.n	800a4ce <strncmp+0x1a>
 800a4ca:	42a3      	cmp	r3, r4
 800a4cc:	d101      	bne.n	800a4d2 <strncmp+0x1e>
 800a4ce:	1a80      	subs	r0, r0, r2
 800a4d0:	bd10      	pop	{r4, pc}
 800a4d2:	2800      	cmp	r0, #0
 800a4d4:	d1f3      	bne.n	800a4be <strncmp+0xa>
 800a4d6:	e7fa      	b.n	800a4ce <strncmp+0x1a>
 800a4d8:	4610      	mov	r0, r2
 800a4da:	e7f9      	b.n	800a4d0 <strncmp+0x1c>

0800a4dc <__ascii_wctomb>:
 800a4dc:	4603      	mov	r3, r0
 800a4de:	4608      	mov	r0, r1
 800a4e0:	b141      	cbz	r1, 800a4f4 <__ascii_wctomb+0x18>
 800a4e2:	2aff      	cmp	r2, #255	; 0xff
 800a4e4:	d904      	bls.n	800a4f0 <__ascii_wctomb+0x14>
 800a4e6:	228a      	movs	r2, #138	; 0x8a
 800a4e8:	f04f 30ff 	mov.w	r0, #4294967295
 800a4ec:	601a      	str	r2, [r3, #0]
 800a4ee:	4770      	bx	lr
 800a4f0:	2001      	movs	r0, #1
 800a4f2:	700a      	strb	r2, [r1, #0]
 800a4f4:	4770      	bx	lr
	...

0800a4f8 <__assert_func>:
 800a4f8:	b51f      	push	{r0, r1, r2, r3, r4, lr}
 800a4fa:	4614      	mov	r4, r2
 800a4fc:	461a      	mov	r2, r3
 800a4fe:	4b09      	ldr	r3, [pc, #36]	; (800a524 <__assert_func+0x2c>)
 800a500:	4605      	mov	r5, r0
 800a502:	681b      	ldr	r3, [r3, #0]
 800a504:	68d8      	ldr	r0, [r3, #12]
 800a506:	b14c      	cbz	r4, 800a51c <__assert_func+0x24>
 800a508:	4b07      	ldr	r3, [pc, #28]	; (800a528 <__assert_func+0x30>)
 800a50a:	e9cd 3401 	strd	r3, r4, [sp, #4]
 800a50e:	9100      	str	r1, [sp, #0]
 800a510:	462b      	mov	r3, r5
 800a512:	4906      	ldr	r1, [pc, #24]	; (800a52c <__assert_func+0x34>)
 800a514:	f000 f80e 	bl	800a534 <fiprintf>
 800a518:	f7fd fc84 	bl	8007e24 <abort>
 800a51c:	4b04      	ldr	r3, [pc, #16]	; (800a530 <__assert_func+0x38>)
 800a51e:	461c      	mov	r4, r3
 800a520:	e7f3      	b.n	800a50a <__assert_func+0x12>
 800a522:	bf00      	nop
 800a524:	2000017c 	.word	0x2000017c
 800a528:	0800b437 	.word	0x0800b437
 800a52c:	0800b444 	.word	0x0800b444
 800a530:	0800b472 	.word	0x0800b472

0800a534 <fiprintf>:
 800a534:	b40e      	push	{r1, r2, r3}
 800a536:	b503      	push	{r0, r1, lr}
 800a538:	4601      	mov	r1, r0
 800a53a:	ab03      	add	r3, sp, #12
 800a53c:	4805      	ldr	r0, [pc, #20]	; (800a554 <fiprintf+0x20>)
 800a53e:	f853 2b04 	ldr.w	r2, [r3], #4
 800a542:	6800      	ldr	r0, [r0, #0]
 800a544:	9301      	str	r3, [sp, #4]
 800a546:	f000 f861 	bl	800a60c <_vfiprintf_r>
 800a54a:	b002      	add	sp, #8
 800a54c:	f85d eb04 	ldr.w	lr, [sp], #4
 800a550:	b003      	add	sp, #12
 800a552:	4770      	bx	lr
 800a554:	2000017c 	.word	0x2000017c

0800a558 <__retarget_lock_init_recursive>:
 800a558:	4770      	bx	lr

0800a55a <__retarget_lock_acquire_recursive>:
 800a55a:	4770      	bx	lr

0800a55c <__retarget_lock_release_recursive>:
 800a55c:	4770      	bx	lr

0800a55e <_realloc_r>:
 800a55e:	e92d 41f0 	stmdb	sp!, {r4, r5, r6, r7, r8, lr}
 800a562:	4680      	mov	r8, r0
 800a564:	4614      	mov	r4, r2
 800a566:	460e      	mov	r6, r1
 800a568:	b921      	cbnz	r1, 800a574 <_realloc_r+0x16>
 800a56a:	4611      	mov	r1, r2
 800a56c:	e8bd 41f0 	ldmia.w	sp!, {r4, r5, r6, r7, r8, lr}
 800a570:	f7fd bd40 	b.w	8007ff4 <_malloc_r>
 800a574:	b92a      	cbnz	r2, 800a582 <_realloc_r+0x24>
 800a576:	f7fd fcd5 	bl	8007f24 <_free_r>
 800a57a:	4625      	mov	r5, r4
 800a57c:	4628      	mov	r0, r5
 800a57e:	e8bd 81f0 	ldmia.w	sp!, {r4, r5, r6, r7, r8, pc}
 800a582:	f000 fc4b 	bl	800ae1c <_malloc_usable_size_r>
 800a586:	4284      	cmp	r4, r0
 800a588:	4607      	mov	r7, r0
 800a58a:	d802      	bhi.n	800a592 <_realloc_r+0x34>
 800a58c:	ebb4 0f50 	cmp.w	r4, r0, lsr #1
 800a590:	d812      	bhi.n	800a5b8 <_realloc_r+0x5a>
 800a592:	4621      	mov	r1, r4
 800a594:	4640      	mov	r0, r8
 800a596:	f7fd fd2d 	bl	8007ff4 <_malloc_r>
 800a59a:	4605      	mov	r5, r0
 800a59c:	2800      	cmp	r0, #0
 800a59e:	d0ed      	beq.n	800a57c <_realloc_r+0x1e>
 800a5a0:	42bc      	cmp	r4, r7
 800a5a2:	4622      	mov	r2, r4
 800a5a4:	4631      	mov	r1, r6
 800a5a6:	bf28      	it	cs
 800a5a8:	463a      	movcs	r2, r7
 800a5aa:	f7fd fc8b 	bl	8007ec4 <memcpy>
 800a5ae:	4631      	mov	r1, r6
 800a5b0:	4640      	mov	r0, r8
 800a5b2:	f7fd fcb7 	bl	8007f24 <_free_r>
 800a5b6:	e7e1      	b.n	800a57c <_realloc_r+0x1e>
 800a5b8:	4635      	mov	r5, r6
 800a5ba:	e7df      	b.n	800a57c <_realloc_r+0x1e>

0800a5bc <__sfputc_r>:
 800a5bc:	6893      	ldr	r3, [r2, #8]
 800a5be:	b410      	push	{r4}
 800a5c0:	3b01      	subs	r3, #1
 800a5c2:	2b00      	cmp	r3, #0
 800a5c4:	6093      	str	r3, [r2, #8]
 800a5c6:	da07      	bge.n	800a5d8 <__sfputc_r+0x1c>
 800a5c8:	6994      	ldr	r4, [r2, #24]
 800a5ca:	42a3      	cmp	r3, r4
 800a5cc:	db01      	blt.n	800a5d2 <__sfputc_r+0x16>
 800a5ce:	290a      	cmp	r1, #10
 800a5d0:	d102      	bne.n	800a5d8 <__sfputc_r+0x1c>
 800a5d2:	bc10      	pop	{r4}
 800a5d4:	f000 b94a 	b.w	800a86c <__swbuf_r>
 800a5d8:	6813      	ldr	r3, [r2, #0]
 800a5da:	1c58      	adds	r0, r3, #1
 800a5dc:	6010      	str	r0, [r2, #0]
 800a5de:	7019      	strb	r1, [r3, #0]
 800a5e0:	4608      	mov	r0, r1
 800a5e2:	bc10      	pop	{r4}
 800a5e4:	4770      	bx	lr

0800a5e6 <__sfputs_r>:
 800a5e6:	b5f8      	push	{r3, r4, r5, r6, r7, lr}
 800a5e8:	4606      	mov	r6, r0
 800a5ea:	460f      	mov	r7, r1
 800a5ec:	4614      	mov	r4, r2
 800a5ee:	18d5      	adds	r5, r2, r3
 800a5f0:	42ac      	cmp	r4, r5
 800a5f2:	d101      	bne.n	800a5f8 <__sfputs_r+0x12>
 800a5f4:	2000      	movs	r0, #0
 800a5f6:	e007      	b.n	800a608 <__sfputs_r+0x22>
 800a5f8:	463a      	mov	r2, r7
 800a5fa:	4630      	mov	r0, r6
 800a5fc:	f814 1b01 	ldrb.w	r1, [r4], #1
 800a600:	f7ff ffdc 	bl	800a5bc <__sfputc_r>
 800a604:	1c43      	adds	r3, r0, #1
 800a606:	d1f3      	bne.n	800a5f0 <__sfputs_r+0xa>
 800a608:	bdf8      	pop	{r3, r4, r5, r6, r7, pc}
	...

0800a60c <_vfiprintf_r>:
 800a60c:	e92d 4ff0 	stmdb	sp!, {r4, r5, r6, r7, r8, r9, sl, fp, lr}
 800a610:	460d      	mov	r5, r1
 800a612:	4614      	mov	r4, r2
 800a614:	4698      	mov	r8, r3
 800a616:	4606      	mov	r6, r0
 800a618:	b09d      	sub	sp, #116	; 0x74
 800a61a:	b118      	cbz	r0, 800a624 <_vfiprintf_r+0x18>
 800a61c:	6983      	ldr	r3, [r0, #24]
 800a61e:	b90b      	cbnz	r3, 800a624 <_vfiprintf_r+0x18>
 800a620:	f000 fafa 	bl	800ac18 <__sinit>
 800a624:	4b89      	ldr	r3, [pc, #548]	; (800a84c <_vfiprintf_r+0x240>)
 800a626:	429d      	cmp	r5, r3
 800a628:	d11b      	bne.n	800a662 <_vfiprintf_r+0x56>
 800a62a:	6875      	ldr	r5, [r6, #4]
 800a62c:	6e6b      	ldr	r3, [r5, #100]	; 0x64
 800a62e:	07d9      	lsls	r1, r3, #31
 800a630:	d405      	bmi.n	800a63e <_vfiprintf_r+0x32>
 800a632:	89ab      	ldrh	r3, [r5, #12]
 800a634:	059a      	lsls	r2, r3, #22
 800a636:	d402      	bmi.n	800a63e <_vfiprintf_r+0x32>
 800a638:	6da8      	ldr	r0, [r5, #88]	; 0x58
 800a63a:	f7ff ff8e 	bl	800a55a <__retarget_lock_acquire_recursive>
 800a63e:	89ab      	ldrh	r3, [r5, #12]
 800a640:	071b      	lsls	r3, r3, #28
 800a642:	d501      	bpl.n	800a648 <_vfiprintf_r+0x3c>
 800a644:	692b      	ldr	r3, [r5, #16]
 800a646:	b9eb      	cbnz	r3, 800a684 <_vfiprintf_r+0x78>
 800a648:	4629      	mov	r1, r5
 800a64a:	4630      	mov	r0, r6
 800a64c:	f000 f960 	bl	800a910 <__swsetup_r>
 800a650:	b1c0      	cbz	r0, 800a684 <_vfiprintf_r+0x78>
 800a652:	6e6b      	ldr	r3, [r5, #100]	; 0x64
 800a654:	07dc      	lsls	r4, r3, #31
 800a656:	d50e      	bpl.n	800a676 <_vfiprintf_r+0x6a>
 800a658:	f04f 30ff 	mov.w	r0, #4294967295
 800a65c:	b01d      	add	sp, #116	; 0x74
 800a65e:	e8bd 8ff0 	ldmia.w	sp!, {r4, r5, r6, r7, r8, r9, sl, fp, pc}
 800a662:	4b7b      	ldr	r3, [pc, #492]	; (800a850 <_vfiprintf_r+0x244>)
 800a664:	429d      	cmp	r5, r3
 800a666:	d101      	bne.n	800a66c <_vfiprintf_r+0x60>
 800a668:	68b5      	ldr	r5, [r6, #8]
 800a66a:	e7df      	b.n	800a62c <_vfiprintf_r+0x20>
 800a66c:	4b79      	ldr	r3, [pc, #484]	; (800a854 <_vfiprintf_r+0x248>)
 800a66e:	429d      	cmp	r5, r3
 800a670:	bf08      	it	eq
 800a672:	68f5      	ldreq	r5, [r6, #12]
 800a674:	e7da      	b.n	800a62c <_vfiprintf_r+0x20>
 800a676:	89ab      	ldrh	r3, [r5, #12]
 800a678:	0598      	lsls	r0, r3, #22
 800a67a:	d4ed      	bmi.n	800a658 <_vfiprintf_r+0x4c>
 800a67c:	6da8      	ldr	r0, [r5, #88]	; 0x58
 800a67e:	f7ff ff6d 	bl	800a55c <__retarget_lock_release_recursive>
 800a682:	e7e9      	b.n	800a658 <_vfiprintf_r+0x4c>
 800a684:	2300      	movs	r3, #0
 800a686:	9309      	str	r3, [sp, #36]	; 0x24
 800a688:	2320      	movs	r3, #32
 800a68a:	f88d 3029 	strb.w	r3, [sp, #41]	; 0x29
 800a68e:	2330      	movs	r3, #48	; 0x30
 800a690:	f04f 0901 	mov.w	r9, #1
 800a694:	f8cd 800c 	str.w	r8, [sp, #12]
 800a698:	f8df 81bc 	ldr.w	r8, [pc, #444]	; 800a858 <_vfiprintf_r+0x24c>
 800a69c:	f88d 302a 	strb.w	r3, [sp, #42]	; 0x2a
 800a6a0:	4623      	mov	r3, r4
 800a6a2:	469a      	mov	sl, r3
 800a6a4:	f813 2b01 	ldrb.w	r2, [r3], #1
 800a6a8:	b10a      	cbz	r2, 800a6ae <_vfiprintf_r+0xa2>
 800a6aa:	2a25      	cmp	r2, #37	; 0x25
 800a6ac:	d1f9      	bne.n	800a6a2 <_vfiprintf_r+0x96>
 800a6ae:	ebba 0b04 	subs.w	fp, sl, r4
 800a6b2:	d00b      	beq.n	800a6cc <_vfiprintf_r+0xc0>
 800a6b4:	465b      	mov	r3, fp
 800a6b6:	4622      	mov	r2, r4
 800a6b8:	4629      	mov	r1, r5
 800a6ba:	4630      	mov	r0, r6
 800a6bc:	f7ff ff93 	bl	800a5e6 <__sfputs_r>
 800a6c0:	3001      	adds	r0, #1
 800a6c2:	f000 80aa 	beq.w	800a81a <_vfiprintf_r+0x20e>
 800a6c6:	9a09      	ldr	r2, [sp, #36]	; 0x24
 800a6c8:	445a      	add	r2, fp
 800a6ca:	9209      	str	r2, [sp, #36]	; 0x24
 800a6cc:	f89a 3000 	ldrb.w	r3, [sl]
 800a6d0:	2b00      	cmp	r3, #0
 800a6d2:	f000 80a2 	beq.w	800a81a <_vfiprintf_r+0x20e>
 800a6d6:	2300      	movs	r3, #0
 800a6d8:	f04f 32ff 	mov.w	r2, #4294967295
 800a6dc:	e9cd 2305 	strd	r2, r3, [sp, #20]
 800a6e0:	f10a 0a01 	add.w	sl, sl, #1
 800a6e4:	9304      	str	r3, [sp, #16]
 800a6e6:	9307      	str	r3, [sp, #28]
 800a6e8:	f88d 3053 	strb.w	r3, [sp, #83]	; 0x53
 800a6ec:	931a      	str	r3, [sp, #104]	; 0x68
 800a6ee:	4654      	mov	r4, sl
 800a6f0:	2205      	movs	r2, #5
 800a6f2:	f814 1b01 	ldrb.w	r1, [r4], #1
 800a6f6:	4858      	ldr	r0, [pc, #352]	; (800a858 <_vfiprintf_r+0x24c>)
 800a6f8:	f7fd fbd6 	bl	8007ea8 <memchr>
 800a6fc:	9a04      	ldr	r2, [sp, #16]
 800a6fe:	b9d8      	cbnz	r0, 800a738 <_vfiprintf_r+0x12c>
 800a700:	06d1      	lsls	r1, r2, #27
 800a702:	bf44      	itt	mi
 800a704:	2320      	movmi	r3, #32
 800a706:	f88d 3053 	strbmi.w	r3, [sp, #83]	; 0x53
 800a70a:	0713      	lsls	r3, r2, #28
 800a70c:	bf44      	itt	mi
 800a70e:	232b      	movmi	r3, #43	; 0x2b
 800a710:	f88d 3053 	strbmi.w	r3, [sp, #83]	; 0x53
 800a714:	f89a 3000 	ldrb.w	r3, [sl]
 800a718:	2b2a      	cmp	r3, #42	; 0x2a
 800a71a:	d015      	beq.n	800a748 <_vfiprintf_r+0x13c>
 800a71c:	4654      	mov	r4, sl
 800a71e:	2000      	movs	r0, #0
 800a720:	f04f 0c0a 	mov.w	ip, #10
 800a724:	9a07      	ldr	r2, [sp, #28]
 800a726:	4621      	mov	r1, r4
 800a728:	f811 3b01 	ldrb.w	r3, [r1], #1
 800a72c:	3b30      	subs	r3, #48	; 0x30
 800a72e:	2b09      	cmp	r3, #9
 800a730:	d94e      	bls.n	800a7d0 <_vfiprintf_r+0x1c4>
 800a732:	b1b0      	cbz	r0, 800a762 <_vfiprintf_r+0x156>
 800a734:	9207      	str	r2, [sp, #28]
 800a736:	e014      	b.n	800a762 <_vfiprintf_r+0x156>
 800a738:	eba0 0308 	sub.w	r3, r0, r8
 800a73c:	fa09 f303 	lsl.w	r3, r9, r3
 800a740:	4313      	orrs	r3, r2
 800a742:	46a2      	mov	sl, r4
 800a744:	9304      	str	r3, [sp, #16]
 800a746:	e7d2      	b.n	800a6ee <_vfiprintf_r+0xe2>
 800a748:	9b03      	ldr	r3, [sp, #12]
 800a74a:	1d19      	adds	r1, r3, #4
 800a74c:	681b      	ldr	r3, [r3, #0]
 800a74e:	9103      	str	r1, [sp, #12]
 800a750:	2b00      	cmp	r3, #0
 800a752:	bfbb      	ittet	lt
 800a754:	425b      	neglt	r3, r3
 800a756:	f042 0202 	orrlt.w	r2, r2, #2
 800a75a:	9307      	strge	r3, [sp, #28]
 800a75c:	9307      	strlt	r3, [sp, #28]
 800a75e:	bfb8      	it	lt
 800a760:	9204      	strlt	r2, [sp, #16]
 800a762:	7823      	ldrb	r3, [r4, #0]
 800a764:	2b2e      	cmp	r3, #46	; 0x2e
 800a766:	d10c      	bne.n	800a782 <_vfiprintf_r+0x176>
 800a768:	7863      	ldrb	r3, [r4, #1]
 800a76a:	2b2a      	cmp	r3, #42	; 0x2a
 800a76c:	d135      	bne.n	800a7da <_vfiprintf_r+0x1ce>
 800a76e:	9b03      	ldr	r3, [sp, #12]
 800a770:	3402      	adds	r4, #2
 800a772:	1d1a      	adds	r2, r3, #4
 800a774:	681b      	ldr	r3, [r3, #0]
 800a776:	9203      	str	r2, [sp, #12]
 800a778:	2b00      	cmp	r3, #0
 800a77a:	bfb8      	it	lt
 800a77c:	f04f 33ff 	movlt.w	r3, #4294967295
 800a780:	9305      	str	r3, [sp, #20]
 800a782:	f8df a0d8 	ldr.w	sl, [pc, #216]	; 800a85c <_vfiprintf_r+0x250>
 800a786:	2203      	movs	r2, #3
 800a788:	4650      	mov	r0, sl
 800a78a:	7821      	ldrb	r1, [r4, #0]
 800a78c:	f7fd fb8c 	bl	8007ea8 <memchr>
 800a790:	b140      	cbz	r0, 800a7a4 <_vfiprintf_r+0x198>
 800a792:	2340      	movs	r3, #64	; 0x40
 800a794:	eba0 000a 	sub.w	r0, r0, sl
 800a798:	fa03 f000 	lsl.w	r0, r3, r0
 800a79c:	9b04      	ldr	r3, [sp, #16]
 800a79e:	3401      	adds	r4, #1
 800a7a0:	4303      	orrs	r3, r0
 800a7a2:	9304      	str	r3, [sp, #16]
 800a7a4:	f814 1b01 	ldrb.w	r1, [r4], #1
 800a7a8:	2206      	movs	r2, #6
 800a7aa:	482d      	ldr	r0, [pc, #180]	; (800a860 <_vfiprintf_r+0x254>)
 800a7ac:	f88d 1028 	strb.w	r1, [sp, #40]	; 0x28
 800a7b0:	f7fd fb7a 	bl	8007ea8 <memchr>
 800a7b4:	2800      	cmp	r0, #0
 800a7b6:	d03f      	beq.n	800a838 <_vfiprintf_r+0x22c>
 800a7b8:	4b2a      	ldr	r3, [pc, #168]	; (800a864 <_vfiprintf_r+0x258>)
 800a7ba:	bb1b      	cbnz	r3, 800a804 <_vfiprintf_r+0x1f8>
 800a7bc:	9b03      	ldr	r3, [sp, #12]
 800a7be:	3307      	adds	r3, #7
 800a7c0:	f023 0307 	bic.w	r3, r3, #7
 800a7c4:	3308      	adds	r3, #8
 800a7c6:	9303      	str	r3, [sp, #12]
 800a7c8:	9b09      	ldr	r3, [sp, #36]	; 0x24
 800a7ca:	443b      	add	r3, r7
 800a7cc:	9309      	str	r3, [sp, #36]	; 0x24
 800a7ce:	e767      	b.n	800a6a0 <_vfiprintf_r+0x94>
 800a7d0:	460c      	mov	r4, r1
 800a7d2:	2001      	movs	r0, #1
 800a7d4:	fb0c 3202 	mla	r2, ip, r2, r3
 800a7d8:	e7a5      	b.n	800a726 <_vfiprintf_r+0x11a>
 800a7da:	2300      	movs	r3, #0
 800a7dc:	f04f 0c0a 	mov.w	ip, #10
 800a7e0:	4619      	mov	r1, r3
 800a7e2:	3401      	adds	r4, #1
 800a7e4:	9305      	str	r3, [sp, #20]
 800a7e6:	4620      	mov	r0, r4
 800a7e8:	f810 2b01 	ldrb.w	r2, [r0], #1
 800a7ec:	3a30      	subs	r2, #48	; 0x30
 800a7ee:	2a09      	cmp	r2, #9
 800a7f0:	d903      	bls.n	800a7fa <_vfiprintf_r+0x1ee>
 800a7f2:	2b00      	cmp	r3, #0
 800a7f4:	d0c5      	beq.n	800a782 <_vfiprintf_r+0x176>
 800a7f6:	9105      	str	r1, [sp, #20]
 800a7f8:	e7c3      	b.n	800a782 <_vfiprintf_r+0x176>
 800a7fa:	4604      	mov	r4, r0
 800a7fc:	2301      	movs	r3, #1
 800a7fe:	fb0c 2101 	mla	r1, ip, r1, r2
 800a802:	e7f0      	b.n	800a7e6 <_vfiprintf_r+0x1da>
 800a804:	ab03      	add	r3, sp, #12
 800a806:	9300      	str	r3, [sp, #0]
 800a808:	462a      	mov	r2, r5
 800a80a:	4630      	mov	r0, r6
 800a80c:	4b16      	ldr	r3, [pc, #88]	; (800a868 <_vfiprintf_r+0x25c>)
 800a80e:	a904      	add	r1, sp, #16
 800a810:	f3af 8000 	nop.w
 800a814:	4607      	mov	r7, r0
 800a816:	1c78      	adds	r0, r7, #1
 800a818:	d1d6      	bne.n	800a7c8 <_vfiprintf_r+0x1bc>
 800a81a:	6e6b      	ldr	r3, [r5, #100]	; 0x64
 800a81c:	07d9      	lsls	r1, r3, #31
 800a81e:	d405      	bmi.n	800a82c <_vfiprintf_r+0x220>
 800a820:	89ab      	ldrh	r3, [r5, #12]
 800a822:	059a      	lsls	r2, r3, #22
 800a824:	d402      	bmi.n	800a82c <_vfiprintf_r+0x220>
 800a826:	6da8      	ldr	r0, [r5, #88]	; 0x58
 800a828:	f7ff fe98 	bl	800a55c <__retarget_lock_release_recursive>
 800a82c:	89ab      	ldrh	r3, [r5, #12]
 800a82e:	065b      	lsls	r3, r3, #25
 800a830:	f53f af12 	bmi.w	800a658 <_vfiprintf_r+0x4c>
 800a834:	9809      	ldr	r0, [sp, #36]	; 0x24
 800a836:	e711      	b.n	800a65c <_vfiprintf_r+0x50>
 800a838:	ab03      	add	r3, sp, #12
 800a83a:	9300      	str	r3, [sp, #0]
 800a83c:	462a      	mov	r2, r5
 800a83e:	4630      	mov	r0, r6
 800a840:	4b09      	ldr	r3, [pc, #36]	; (800a868 <_vfiprintf_r+0x25c>)
 800a842:	a904      	add	r1, sp, #16
 800a844:	f7ff fd0a 	bl	800a25c <_printf_i>
 800a848:	e7e4      	b.n	800a814 <_vfiprintf_r+0x208>
 800a84a:	bf00      	nop
 800a84c:	0800b594 	.word	0x0800b594
 800a850:	0800b5b4 	.word	0x0800b5b4
 800a854:	0800b574 	.word	0x0800b574
 800a858:	0800b404 	.word	0x0800b404
 800a85c:	0800b40a 	.word	0x0800b40a
 800a860:	0800b40e 	.word	0x0800b40e
 800a864:	00000000 	.word	0x00000000
 800a868:	0800a5e7 	.word	0x0800a5e7

0800a86c <__swbuf_r>:
 800a86c:	b5f8      	push	{r3, r4, r5, r6, r7, lr}
 800a86e:	460e      	mov	r6, r1
 800a870:	4614      	mov	r4, r2
 800a872:	4605      	mov	r5, r0
 800a874:	b118      	cbz	r0, 800a87e <__swbuf_r+0x12>
 800a876:	6983      	ldr	r3, [r0, #24]
 800a878:	b90b      	cbnz	r3, 800a87e <__swbuf_r+0x12>
 800a87a:	f000 f9cd 	bl	800ac18 <__sinit>
 800a87e:	4b21      	ldr	r3, [pc, #132]	; (800a904 <__swbuf_r+0x98>)
 800a880:	429c      	cmp	r4, r3
 800a882:	d12b      	bne.n	800a8dc <__swbuf_r+0x70>
 800a884:	686c      	ldr	r4, [r5, #4]
 800a886:	69a3      	ldr	r3, [r4, #24]
 800a888:	60a3      	str	r3, [r4, #8]
 800a88a:	89a3      	ldrh	r3, [r4, #12]
 800a88c:	071a      	lsls	r2, r3, #28
 800a88e:	d52f      	bpl.n	800a8f0 <__swbuf_r+0x84>
 800a890:	6923      	ldr	r3, [r4, #16]
 800a892:	b36b      	cbz	r3, 800a8f0 <__swbuf_r+0x84>
 800a894:	6923      	ldr	r3, [r4, #16]
 800a896:	6820      	ldr	r0, [r4, #0]
 800a898:	b2f6      	uxtb	r6, r6
 800a89a:	1ac0      	subs	r0, r0, r3
 800a89c:	6963      	ldr	r3, [r4, #20]
 800a89e:	4637      	mov	r7, r6
 800a8a0:	4283      	cmp	r3, r0
 800a8a2:	dc04      	bgt.n	800a8ae <__swbuf_r+0x42>
 800a8a4:	4621      	mov	r1, r4
 800a8a6:	4628      	mov	r0, r5
 800a8a8:	f000 f922 	bl	800aaf0 <_fflush_r>
 800a8ac:	bb30      	cbnz	r0, 800a8fc <__swbuf_r+0x90>
 800a8ae:	68a3      	ldr	r3, [r4, #8]
 800a8b0:	3001      	adds	r0, #1
 800a8b2:	3b01      	subs	r3, #1
 800a8b4:	60a3      	str	r3, [r4, #8]
 800a8b6:	6823      	ldr	r3, [r4, #0]
 800a8b8:	1c5a      	adds	r2, r3, #1
 800a8ba:	6022      	str	r2, [r4, #0]
 800a8bc:	701e      	strb	r6, [r3, #0]
 800a8be:	6963      	ldr	r3, [r4, #20]
 800a8c0:	4283      	cmp	r3, r0
 800a8c2:	d004      	beq.n	800a8ce <__swbuf_r+0x62>
 800a8c4:	89a3      	ldrh	r3, [r4, #12]
 800a8c6:	07db      	lsls	r3, r3, #31
 800a8c8:	d506      	bpl.n	800a8d8 <__swbuf_r+0x6c>
 800a8ca:	2e0a      	cmp	r6, #10
 800a8cc:	d104      	bne.n	800a8d8 <__swbuf_r+0x6c>
 800a8ce:	4621      	mov	r1, r4
 800a8d0:	4628      	mov	r0, r5
 800a8d2:	f000 f90d 	bl	800aaf0 <_fflush_r>
 800a8d6:	b988      	cbnz	r0, 800a8fc <__swbuf_r+0x90>
 800a8d8:	4638      	mov	r0, r7
 800a8da:	bdf8      	pop	{r3, r4, r5, r6, r7, pc}
 800a8dc:	4b0a      	ldr	r3, [pc, #40]	; (800a908 <__swbuf_r+0x9c>)
 800a8de:	429c      	cmp	r4, r3
 800a8e0:	d101      	bne.n	800a8e6 <__swbuf_r+0x7a>
 800a8e2:	68ac      	ldr	r4, [r5, #8]
 800a8e4:	e7cf      	b.n	800a886 <__swbuf_r+0x1a>
 800a8e6:	4b09      	ldr	r3, [pc, #36]	; (800a90c <__swbuf_r+0xa0>)
 800a8e8:	429c      	cmp	r4, r3
 800a8ea:	bf08      	it	eq
 800a8ec:	68ec      	ldreq	r4, [r5, #12]
 800a8ee:	e7ca      	b.n	800a886 <__swbuf_r+0x1a>
 800a8f0:	4621      	mov	r1, r4
 800a8f2:	4628      	mov	r0, r5
 800a8f4:	f000 f80c 	bl	800a910 <__swsetup_r>
 800a8f8:	2800      	cmp	r0, #0
 800a8fa:	d0cb      	beq.n	800a894 <__swbuf_r+0x28>
 800a8fc:	f04f 37ff 	mov.w	r7, #4294967295
 800a900:	e7ea      	b.n	800a8d8 <__swbuf_r+0x6c>
 800a902:	bf00      	nop
 800a904:	0800b594 	.word	0x0800b594
 800a908:	0800b5b4 	.word	0x0800b5b4
 800a90c:	0800b574 	.word	0x0800b574

0800a910 <__swsetup_r>:
 800a910:	4b32      	ldr	r3, [pc, #200]	; (800a9dc <__swsetup_r+0xcc>)
 800a912:	b570      	push	{r4, r5, r6, lr}
 800a914:	681d      	ldr	r5, [r3, #0]
 800a916:	4606      	mov	r6, r0
 800a918:	460c      	mov	r4, r1
 800a91a:	b125      	cbz	r5, 800a926 <__swsetup_r+0x16>
 800a91c:	69ab      	ldr	r3, [r5, #24]
 800a91e:	b913      	cbnz	r3, 800a926 <__swsetup_r+0x16>
 800a920:	4628      	mov	r0, r5
 800a922:	f000 f979 	bl	800ac18 <__sinit>
 800a926:	4b2e      	ldr	r3, [pc, #184]	; (800a9e0 <__swsetup_r+0xd0>)
 800a928:	429c      	cmp	r4, r3
 800a92a:	d10f      	bne.n	800a94c <__swsetup_r+0x3c>
 800a92c:	686c      	ldr	r4, [r5, #4]
 800a92e:	89a3      	ldrh	r3, [r4, #12]
 800a930:	f9b4 200c 	ldrsh.w	r2, [r4, #12]
 800a934:	0719      	lsls	r1, r3, #28
 800a936:	d42c      	bmi.n	800a992 <__swsetup_r+0x82>
 800a938:	06dd      	lsls	r5, r3, #27
 800a93a:	d411      	bmi.n	800a960 <__swsetup_r+0x50>
 800a93c:	2309      	movs	r3, #9
 800a93e:	6033      	str	r3, [r6, #0]
 800a940:	f042 0340 	orr.w	r3, r2, #64	; 0x40
 800a944:	f04f 30ff 	mov.w	r0, #4294967295
 800a948:	81a3      	strh	r3, [r4, #12]
 800a94a:	e03e      	b.n	800a9ca <__swsetup_r+0xba>
 800a94c:	4b25      	ldr	r3, [pc, #148]	; (800a9e4 <__swsetup_r+0xd4>)
 800a94e:	429c      	cmp	r4, r3
 800a950:	d101      	bne.n	800a956 <__swsetup_r+0x46>
 800a952:	68ac      	ldr	r4, [r5, #8]
 800a954:	e7eb      	b.n	800a92e <__swsetup_r+0x1e>
 800a956:	4b24      	ldr	r3, [pc, #144]	; (800a9e8 <__swsetup_r+0xd8>)
 800a958:	429c      	cmp	r4, r3
 800a95a:	bf08      	it	eq
 800a95c:	68ec      	ldreq	r4, [r5, #12]
 800a95e:	e7e6      	b.n	800a92e <__swsetup_r+0x1e>
 800a960:	0758      	lsls	r0, r3, #29
 800a962:	d512      	bpl.n	800a98a <__swsetup_r+0x7a>
 800a964:	6b61      	ldr	r1, [r4, #52]	; 0x34
 800a966:	b141      	cbz	r1, 800a97a <__swsetup_r+0x6a>
 800a968:	f104 0344 	add.w	r3, r4, #68	; 0x44
 800a96c:	4299      	cmp	r1, r3
 800a96e:	d002      	beq.n	800a976 <__swsetup_r+0x66>
 800a970:	4630      	mov	r0, r6
 800a972:	f7fd fad7 	bl	8007f24 <_free_r>
 800a976:	2300      	movs	r3, #0
 800a978:	6363      	str	r3, [r4, #52]	; 0x34
 800a97a:	89a3      	ldrh	r3, [r4, #12]
 800a97c:	f023 0324 	bic.w	r3, r3, #36	; 0x24
 800a980:	81a3      	strh	r3, [r4, #12]
 800a982:	2300      	movs	r3, #0
 800a984:	6063      	str	r3, [r4, #4]
 800a986:	6923      	ldr	r3, [r4, #16]
 800a988:	6023      	str	r3, [r4, #0]
 800a98a:	89a3      	ldrh	r3, [r4, #12]
 800a98c:	f043 0308 	orr.w	r3, r3, #8
 800a990:	81a3      	strh	r3, [r4, #12]
 800a992:	6923      	ldr	r3, [r4, #16]
 800a994:	b94b      	cbnz	r3, 800a9aa <__swsetup_r+0x9a>
 800a996:	89a3      	ldrh	r3, [r4, #12]
 800a998:	f403 7320 	and.w	r3, r3, #640	; 0x280
 800a99c:	f5b3 7f00 	cmp.w	r3, #512	; 0x200
 800a9a0:	d003      	beq.n	800a9aa <__swsetup_r+0x9a>
 800a9a2:	4621      	mov	r1, r4
 800a9a4:	4630      	mov	r0, r6
 800a9a6:	f000 f9f9 	bl	800ad9c <__smakebuf_r>
 800a9aa:	89a0      	ldrh	r0, [r4, #12]
 800a9ac:	f9b4 200c 	ldrsh.w	r2, [r4, #12]
 800a9b0:	f010 0301 	ands.w	r3, r0, #1
 800a9b4:	d00a      	beq.n	800a9cc <__swsetup_r+0xbc>
 800a9b6:	2300      	movs	r3, #0
 800a9b8:	60a3      	str	r3, [r4, #8]
 800a9ba:	6963      	ldr	r3, [r4, #20]
 800a9bc:	425b      	negs	r3, r3
 800a9be:	61a3      	str	r3, [r4, #24]
 800a9c0:	6923      	ldr	r3, [r4, #16]
 800a9c2:	b943      	cbnz	r3, 800a9d6 <__swsetup_r+0xc6>
 800a9c4:	f010 0080 	ands.w	r0, r0, #128	; 0x80
 800a9c8:	d1ba      	bne.n	800a940 <__swsetup_r+0x30>
 800a9ca:	bd70      	pop	{r4, r5, r6, pc}
 800a9cc:	0781      	lsls	r1, r0, #30
 800a9ce:	bf58      	it	pl
 800a9d0:	6963      	ldrpl	r3, [r4, #20]
 800a9d2:	60a3      	str	r3, [r4, #8]
 800a9d4:	e7f4      	b.n	800a9c0 <__swsetup_r+0xb0>
 800a9d6:	2000      	movs	r0, #0
 800a9d8:	e7f7      	b.n	800a9ca <__swsetup_r+0xba>
 800a9da:	bf00      	nop
 800a9dc:	2000017c 	.word	0x2000017c
 800a9e0:	0800b594 	.word	0x0800b594
 800a9e4:	0800b5b4 	.word	0x0800b5b4
 800a9e8:	0800b574 	.word	0x0800b574

0800a9ec <__sflush_r>:
 800a9ec:	898a      	ldrh	r2, [r1, #12]
 800a9ee:	b5f8      	push	{r3, r4, r5, r6, r7, lr}
 800a9f0:	4605      	mov	r5, r0
 800a9f2:	0710      	lsls	r0, r2, #28
 800a9f4:	460c      	mov	r4, r1
 800a9f6:	d457      	bmi.n	800aaa8 <__sflush_r+0xbc>
 800a9f8:	684b      	ldr	r3, [r1, #4]
 800a9fa:	2b00      	cmp	r3, #0
 800a9fc:	dc04      	bgt.n	800aa08 <__sflush_r+0x1c>
 800a9fe:	6c0b      	ldr	r3, [r1, #64]	; 0x40
 800aa00:	2b00      	cmp	r3, #0
 800aa02:	dc01      	bgt.n	800aa08 <__sflush_r+0x1c>
 800aa04:	2000      	movs	r0, #0
 800aa06:	bdf8      	pop	{r3, r4, r5, r6, r7, pc}
 800aa08:	6ae6      	ldr	r6, [r4, #44]	; 0x2c
 800aa0a:	2e00      	cmp	r6, #0
 800aa0c:	d0fa      	beq.n	800aa04 <__sflush_r+0x18>
 800aa0e:	2300      	movs	r3, #0
 800aa10:	f412 5280 	ands.w	r2, r2, #4096	; 0x1000
 800aa14:	682f      	ldr	r7, [r5, #0]
 800aa16:	602b      	str	r3, [r5, #0]
 800aa18:	d032      	beq.n	800aa80 <__sflush_r+0x94>
 800aa1a:	6d60      	ldr	r0, [r4, #84]	; 0x54
 800aa1c:	89a3      	ldrh	r3, [r4, #12]
 800aa1e:	075a      	lsls	r2, r3, #29
 800aa20:	d505      	bpl.n	800aa2e <__sflush_r+0x42>
 800aa22:	6863      	ldr	r3, [r4, #4]
 800aa24:	1ac0      	subs	r0, r0, r3
 800aa26:	6b63      	ldr	r3, [r4, #52]	; 0x34
 800aa28:	b10b      	cbz	r3, 800aa2e <__sflush_r+0x42>
 800aa2a:	6c23      	ldr	r3, [r4, #64]	; 0x40
 800aa2c:	1ac0      	subs	r0, r0, r3
 800aa2e:	2300      	movs	r3, #0
 800aa30:	4602      	mov	r2, r0
 800aa32:	6ae6      	ldr	r6, [r4, #44]	; 0x2c
 800aa34:	4628      	mov	r0, r5
 800aa36:	6a21      	ldr	r1, [r4, #32]
 800aa38:	47b0      	blx	r6
 800aa3a:	1c43      	adds	r3, r0, #1
 800aa3c:	89a3      	ldrh	r3, [r4, #12]
 800aa3e:	d106      	bne.n	800aa4e <__sflush_r+0x62>
 800aa40:	6829      	ldr	r1, [r5, #0]
 800aa42:	291d      	cmp	r1, #29
 800aa44:	d82c      	bhi.n	800aaa0 <__sflush_r+0xb4>
 800aa46:	4a29      	ldr	r2, [pc, #164]	; (800aaec <__sflush_r+0x100>)
 800aa48:	40ca      	lsrs	r2, r1
 800aa4a:	07d6      	lsls	r6, r2, #31
 800aa4c:	d528      	bpl.n	800aaa0 <__sflush_r+0xb4>
 800aa4e:	2200      	movs	r2, #0
 800aa50:	6062      	str	r2, [r4, #4]
 800aa52:	6922      	ldr	r2, [r4, #16]
 800aa54:	04d9      	lsls	r1, r3, #19
 800aa56:	6022      	str	r2, [r4, #0]
 800aa58:	d504      	bpl.n	800aa64 <__sflush_r+0x78>
 800aa5a:	1c42      	adds	r2, r0, #1
 800aa5c:	d101      	bne.n	800aa62 <__sflush_r+0x76>
 800aa5e:	682b      	ldr	r3, [r5, #0]
 800aa60:	b903      	cbnz	r3, 800aa64 <__sflush_r+0x78>
 800aa62:	6560      	str	r0, [r4, #84]	; 0x54
 800aa64:	6b61      	ldr	r1, [r4, #52]	; 0x34
 800aa66:	602f      	str	r7, [r5, #0]
 800aa68:	2900      	cmp	r1, #0
 800aa6a:	d0cb      	beq.n	800aa04 <__sflush_r+0x18>
 800aa6c:	f104 0344 	add.w	r3, r4, #68	; 0x44
 800aa70:	4299      	cmp	r1, r3
 800aa72:	d002      	beq.n	800aa7a <__sflush_r+0x8e>
 800aa74:	4628      	mov	r0, r5
 800aa76:	f7fd fa55 	bl	8007f24 <_free_r>
 800aa7a:	2000      	movs	r0, #0
 800aa7c:	6360      	str	r0, [r4, #52]	; 0x34
 800aa7e:	e7c2      	b.n	800aa06 <__sflush_r+0x1a>
 800aa80:	6a21      	ldr	r1, [r4, #32]
 800aa82:	2301      	movs	r3, #1
 800aa84:	4628      	mov	r0, r5
 800aa86:	47b0      	blx	r6
 800aa88:	1c41      	adds	r1, r0, #1
 800aa8a:	d1c7      	bne.n	800aa1c <__sflush_r+0x30>
 800aa8c:	682b      	ldr	r3, [r5, #0]
 800aa8e:	2b00      	cmp	r3, #0
 800aa90:	d0c4      	beq.n	800aa1c <__sflush_r+0x30>
 800aa92:	2b1d      	cmp	r3, #29
 800aa94:	d001      	beq.n	800aa9a <__sflush_r+0xae>
 800aa96:	2b16      	cmp	r3, #22
 800aa98:	d101      	bne.n	800aa9e <__sflush_r+0xb2>
 800aa9a:	602f      	str	r7, [r5, #0]
 800aa9c:	e7b2      	b.n	800aa04 <__sflush_r+0x18>
 800aa9e:	89a3      	ldrh	r3, [r4, #12]
 800aaa0:	f043 0340 	orr.w	r3, r3, #64	; 0x40
 800aaa4:	81a3      	strh	r3, [r4, #12]
 800aaa6:	e7ae      	b.n	800aa06 <__sflush_r+0x1a>
 800aaa8:	690f      	ldr	r7, [r1, #16]
 800aaaa:	2f00      	cmp	r7, #0
 800aaac:	d0aa      	beq.n	800aa04 <__sflush_r+0x18>
 800aaae:	0793      	lsls	r3, r2, #30
 800aab0:	bf18      	it	ne
 800aab2:	2300      	movne	r3, #0
 800aab4:	680e      	ldr	r6, [r1, #0]
 800aab6:	bf08      	it	eq
 800aab8:	694b      	ldreq	r3, [r1, #20]
 800aaba:	1bf6      	subs	r6, r6, r7
 800aabc:	600f      	str	r7, [r1, #0]
 800aabe:	608b      	str	r3, [r1, #8]
 800aac0:	2e00      	cmp	r6, #0
 800aac2:	dd9f      	ble.n	800aa04 <__sflush_r+0x18>
 800aac4:	4633      	mov	r3, r6
 800aac6:	463a      	mov	r2, r7
 800aac8:	4628      	mov	r0, r5
 800aaca:	6a21      	ldr	r1, [r4, #32]
 800aacc:	f8d4 c028 	ldr.w	ip, [r4, #40]	; 0x28
 800aad0:	47e0      	blx	ip
 800aad2:	2800      	cmp	r0, #0
 800aad4:	dc06      	bgt.n	800aae4 <__sflush_r+0xf8>
 800aad6:	89a3      	ldrh	r3, [r4, #12]
 800aad8:	f04f 30ff 	mov.w	r0, #4294967295
 800aadc:	f043 0340 	orr.w	r3, r3, #64	; 0x40
 800aae0:	81a3      	strh	r3, [r4, #12]
 800aae2:	e790      	b.n	800aa06 <__sflush_r+0x1a>
 800aae4:	4407      	add	r7, r0
 800aae6:	1a36      	subs	r6, r6, r0
 800aae8:	e7ea      	b.n	800aac0 <__sflush_r+0xd4>
 800aaea:	bf00      	nop
 800aaec:	20400001 	.word	0x20400001

0800aaf0 <_fflush_r>:
 800aaf0:	b538      	push	{r3, r4, r5, lr}
 800aaf2:	690b      	ldr	r3, [r1, #16]
 800aaf4:	4605      	mov	r5, r0
 800aaf6:	460c      	mov	r4, r1
 800aaf8:	b913      	cbnz	r3, 800ab00 <_fflush_r+0x10>
 800aafa:	2500      	movs	r5, #0
 800aafc:	4628      	mov	r0, r5
 800aafe:	bd38      	pop	{r3, r4, r5, pc}
 800ab00:	b118      	cbz	r0, 800ab0a <_fflush_r+0x1a>
 800ab02:	6983      	ldr	r3, [r0, #24]
 800ab04:	b90b      	cbnz	r3, 800ab0a <_fflush_r+0x1a>
 800ab06:	f000 f887 	bl	800ac18 <__sinit>
 800ab0a:	4b14      	ldr	r3, [pc, #80]	; (800ab5c <_fflush_r+0x6c>)
 800ab0c:	429c      	cmp	r4, r3
 800ab0e:	d11b      	bne.n	800ab48 <_fflush_r+0x58>
 800ab10:	686c      	ldr	r4, [r5, #4]
 800ab12:	f9b4 300c 	ldrsh.w	r3, [r4, #12]
 800ab16:	2b00      	cmp	r3, #0
 800ab18:	d0ef      	beq.n	800aafa <_fflush_r+0xa>
 800ab1a:	6e62      	ldr	r2, [r4, #100]	; 0x64
 800ab1c:	07d0      	lsls	r0, r2, #31
 800ab1e:	d404      	bmi.n	800ab2a <_fflush_r+0x3a>
 800ab20:	0599      	lsls	r1, r3, #22
 800ab22:	d402      	bmi.n	800ab2a <_fflush_r+0x3a>
 800ab24:	6da0      	ldr	r0, [r4, #88]	; 0x58
 800ab26:	f7ff fd18 	bl	800a55a <__retarget_lock_acquire_recursive>
 800ab2a:	4628      	mov	r0, r5
 800ab2c:	4621      	mov	r1, r4
 800ab2e:	f7ff ff5d 	bl	800a9ec <__sflush_r>
 800ab32:	6e63      	ldr	r3, [r4, #100]	; 0x64
 800ab34:	4605      	mov	r5, r0
 800ab36:	07da      	lsls	r2, r3, #31
 800ab38:	d4e0      	bmi.n	800aafc <_fflush_r+0xc>
 800ab3a:	89a3      	ldrh	r3, [r4, #12]
 800ab3c:	059b      	lsls	r3, r3, #22
 800ab3e:	d4dd      	bmi.n	800aafc <_fflush_r+0xc>
 800ab40:	6da0      	ldr	r0, [r4, #88]	; 0x58
 800ab42:	f7ff fd0b 	bl	800a55c <__retarget_lock_release_recursive>
 800ab46:	e7d9      	b.n	800aafc <_fflush_r+0xc>
 800ab48:	4b05      	ldr	r3, [pc, #20]	; (800ab60 <_fflush_r+0x70>)
 800ab4a:	429c      	cmp	r4, r3
 800ab4c:	d101      	bne.n	800ab52 <_fflush_r+0x62>
 800ab4e:	68ac      	ldr	r4, [r5, #8]
 800ab50:	e7df      	b.n	800ab12 <_fflush_r+0x22>
 800ab52:	4b04      	ldr	r3, [pc, #16]	; (800ab64 <_fflush_r+0x74>)
 800ab54:	429c      	cmp	r4, r3
 800ab56:	bf08      	it	eq
 800ab58:	68ec      	ldreq	r4, [r5, #12]
 800ab5a:	e7da      	b.n	800ab12 <_fflush_r+0x22>
 800ab5c:	0800b594 	.word	0x0800b594
 800ab60:	0800b5b4 	.word	0x0800b5b4
 800ab64:	0800b574 	.word	0x0800b574

0800ab68 <std>:
 800ab68:	2300      	movs	r3, #0
 800ab6a:	b510      	push	{r4, lr}
 800ab6c:	4604      	mov	r4, r0
 800ab6e:	e9c0 3300 	strd	r3, r3, [r0]
 800ab72:	e9c0 3304 	strd	r3, r3, [r0, #16]
 800ab76:	6083      	str	r3, [r0, #8]
 800ab78:	8181      	strh	r1, [r0, #12]
 800ab7a:	6643      	str	r3, [r0, #100]	; 0x64
 800ab7c:	81c2      	strh	r2, [r0, #14]
 800ab7e:	6183      	str	r3, [r0, #24]
 800ab80:	4619      	mov	r1, r3
 800ab82:	2208      	movs	r2, #8
 800ab84:	305c      	adds	r0, #92	; 0x5c
 800ab86:	f7fd f9c5 	bl	8007f14 <memset>
 800ab8a:	4b05      	ldr	r3, [pc, #20]	; (800aba0 <std+0x38>)
 800ab8c:	6224      	str	r4, [r4, #32]
 800ab8e:	6263      	str	r3, [r4, #36]	; 0x24
 800ab90:	4b04      	ldr	r3, [pc, #16]	; (800aba4 <std+0x3c>)
 800ab92:	62a3      	str	r3, [r4, #40]	; 0x28
 800ab94:	4b04      	ldr	r3, [pc, #16]	; (800aba8 <std+0x40>)
 800ab96:	62e3      	str	r3, [r4, #44]	; 0x2c
 800ab98:	4b04      	ldr	r3, [pc, #16]	; (800abac <std+0x44>)
 800ab9a:	6323      	str	r3, [r4, #48]	; 0x30
 800ab9c:	bd10      	pop	{r4, pc}
 800ab9e:	bf00      	nop
 800aba0:	0800ae2d 	.word	0x0800ae2d
 800aba4:	0800ae4f 	.word	0x0800ae4f
 800aba8:	0800ae87 	.word	0x0800ae87
 800abac:	0800aeab 	.word	0x0800aeab

0800abb0 <_cleanup_r>:
 800abb0:	4901      	ldr	r1, [pc, #4]	; (800abb8 <_cleanup_r+0x8>)
 800abb2:	f000 b8af 	b.w	800ad14 <_fwalk_reent>
 800abb6:	bf00      	nop
 800abb8:	0800aaf1 	.word	0x0800aaf1

0800abbc <__sfmoreglue>:
 800abbc:	2268      	movs	r2, #104	; 0x68
 800abbe:	b570      	push	{r4, r5, r6, lr}
 800abc0:	1e4d      	subs	r5, r1, #1
 800abc2:	4355      	muls	r5, r2
 800abc4:	460e      	mov	r6, r1
 800abc6:	f105 0174 	add.w	r1, r5, #116	; 0x74
 800abca:	f7fd fa13 	bl	8007ff4 <_malloc_r>
 800abce:	4604      	mov	r4, r0
 800abd0:	b140      	cbz	r0, 800abe4 <__sfmoreglue+0x28>
 800abd2:	2100      	movs	r1, #0
 800abd4:	e9c0 1600 	strd	r1, r6, [r0]
 800abd8:	300c      	adds	r0, #12
 800abda:	60a0      	str	r0, [r4, #8]
 800abdc:	f105 0268 	add.w	r2, r5, #104	; 0x68
 800abe0:	f7fd f998 	bl	8007f14 <memset>
 800abe4:	4620      	mov	r0, r4
 800abe6:	bd70      	pop	{r4, r5, r6, pc}

0800abe8 <__sfp_lock_acquire>:
 800abe8:	4801      	ldr	r0, [pc, #4]	; (800abf0 <__sfp_lock_acquire+0x8>)
 800abea:	f7ff bcb6 	b.w	800a55a <__retarget_lock_acquire_recursive>
 800abee:	bf00      	nop
 800abf0:	200015b5 	.word	0x200015b5

0800abf4 <__sfp_lock_release>:
 800abf4:	4801      	ldr	r0, [pc, #4]	; (800abfc <__sfp_lock_release+0x8>)
 800abf6:	f7ff bcb1 	b.w	800a55c <__retarget_lock_release_recursive>
 800abfa:	bf00      	nop
 800abfc:	200015b5 	.word	0x200015b5

0800ac00 <__sinit_lock_acquire>:
 800ac00:	4801      	ldr	r0, [pc, #4]	; (800ac08 <__sinit_lock_acquire+0x8>)
 800ac02:	f7ff bcaa 	b.w	800a55a <__retarget_lock_acquire_recursive>
 800ac06:	bf00      	nop
 800ac08:	200015b6 	.word	0x200015b6

0800ac0c <__sinit_lock_release>:
 800ac0c:	4801      	ldr	r0, [pc, #4]	; (800ac14 <__sinit_lock_release+0x8>)
 800ac0e:	f7ff bca5 	b.w	800a55c <__retarget_lock_release_recursive>
 800ac12:	bf00      	nop
 800ac14:	200015b6 	.word	0x200015b6

0800ac18 <__sinit>:
 800ac18:	b510      	push	{r4, lr}
 800ac1a:	4604      	mov	r4, r0
 800ac1c:	f7ff fff0 	bl	800ac00 <__sinit_lock_acquire>
 800ac20:	69a3      	ldr	r3, [r4, #24]
 800ac22:	b11b      	cbz	r3, 800ac2c <__sinit+0x14>
 800ac24:	e8bd 4010 	ldmia.w	sp!, {r4, lr}
 800ac28:	f7ff bff0 	b.w	800ac0c <__sinit_lock_release>
 800ac2c:	e9c4 3312 	strd	r3, r3, [r4, #72]	; 0x48
 800ac30:	6523      	str	r3, [r4, #80]	; 0x50
 800ac32:	4b13      	ldr	r3, [pc, #76]	; (800ac80 <__sinit+0x68>)
 800ac34:	4a13      	ldr	r2, [pc, #76]	; (800ac84 <__sinit+0x6c>)
 800ac36:	681b      	ldr	r3, [r3, #0]
 800ac38:	62a2      	str	r2, [r4, #40]	; 0x28
 800ac3a:	42a3      	cmp	r3, r4
 800ac3c:	bf08      	it	eq
 800ac3e:	2301      	moveq	r3, #1
 800ac40:	4620      	mov	r0, r4
 800ac42:	bf08      	it	eq
 800ac44:	61a3      	streq	r3, [r4, #24]
 800ac46:	f000 f81f 	bl	800ac88 <__sfp>
 800ac4a:	6060      	str	r0, [r4, #4]
 800ac4c:	4620      	mov	r0, r4
 800ac4e:	f000 f81b 	bl	800ac88 <__sfp>
 800ac52:	60a0      	str	r0, [r4, #8]
 800ac54:	4620      	mov	r0, r4
 800ac56:	f000 f817 	bl	800ac88 <__sfp>
 800ac5a:	2200      	movs	r2, #0
 800ac5c:	2104      	movs	r1, #4
 800ac5e:	60e0      	str	r0, [r4, #12]
 800ac60:	6860      	ldr	r0, [r4, #4]
 800ac62:	f7ff ff81 	bl	800ab68 <std>
 800ac66:	2201      	movs	r2, #1
 800ac68:	2109      	movs	r1, #9
 800ac6a:	68a0      	ldr	r0, [r4, #8]
 800ac6c:	f7ff ff7c 	bl	800ab68 <std>
 800ac70:	2202      	movs	r2, #2
 800ac72:	2112      	movs	r1, #18
 800ac74:	68e0      	ldr	r0, [r4, #12]
 800ac76:	f7ff ff77 	bl	800ab68 <std>
 800ac7a:	2301      	movs	r3, #1
 800ac7c:	61a3      	str	r3, [r4, #24]
 800ac7e:	e7d1      	b.n	800ac24 <__sinit+0xc>
 800ac80:	0800b1a8 	.word	0x0800b1a8
 800ac84:	0800abb1 	.word	0x0800abb1

0800ac88 <__sfp>:
 800ac88:	b5f8      	push	{r3, r4, r5, r6, r7, lr}
 800ac8a:	4607      	mov	r7, r0
 800ac8c:	f7ff ffac 	bl	800abe8 <__sfp_lock_acquire>
 800ac90:	4b1e      	ldr	r3, [pc, #120]	; (800ad0c <__sfp+0x84>)
 800ac92:	681e      	ldr	r6, [r3, #0]
 800ac94:	69b3      	ldr	r3, [r6, #24]
 800ac96:	b913      	cbnz	r3, 800ac9e <__sfp+0x16>
 800ac98:	4630      	mov	r0, r6
 800ac9a:	f7ff ffbd 	bl	800ac18 <__sinit>
 800ac9e:	3648      	adds	r6, #72	; 0x48
 800aca0:	e9d6 3401 	ldrd	r3, r4, [r6, #4]
 800aca4:	3b01      	subs	r3, #1
 800aca6:	d503      	bpl.n	800acb0 <__sfp+0x28>
 800aca8:	6833      	ldr	r3, [r6, #0]
 800acaa:	b30b      	cbz	r3, 800acf0 <__sfp+0x68>
 800acac:	6836      	ldr	r6, [r6, #0]
 800acae:	e7f7      	b.n	800aca0 <__sfp+0x18>
 800acb0:	f9b4 500c 	ldrsh.w	r5, [r4, #12]
 800acb4:	b9d5      	cbnz	r5, 800acec <__sfp+0x64>
 800acb6:	4b16      	ldr	r3, [pc, #88]	; (800ad10 <__sfp+0x88>)
 800acb8:	f104 0058 	add.w	r0, r4, #88	; 0x58
 800acbc:	60e3      	str	r3, [r4, #12]
 800acbe:	6665      	str	r5, [r4, #100]	; 0x64
 800acc0:	f7ff fc4a 	bl	800a558 <__retarget_lock_init_recursive>
 800acc4:	f7ff ff96 	bl	800abf4 <__sfp_lock_release>
 800acc8:	2208      	movs	r2, #8
 800acca:	4629      	mov	r1, r5
 800accc:	e9c4 5501 	strd	r5, r5, [r4, #4]
 800acd0:	e9c4 5504 	strd	r5, r5, [r4, #16]
 800acd4:	6025      	str	r5, [r4, #0]
 800acd6:	61a5      	str	r5, [r4, #24]
 800acd8:	f104 005c 	add.w	r0, r4, #92	; 0x5c
 800acdc:	f7fd f91a 	bl	8007f14 <memset>
 800ace0:	e9c4 550d 	strd	r5, r5, [r4, #52]	; 0x34
 800ace4:	e9c4 5512 	strd	r5, r5, [r4, #72]	; 0x48
 800ace8:	4620      	mov	r0, r4
 800acea:	bdf8      	pop	{r3, r4, r5, r6, r7, pc}
 800acec:	3468      	adds	r4, #104	; 0x68
 800acee:	e7d9      	b.n	800aca4 <__sfp+0x1c>
 800acf0:	2104      	movs	r1, #4
 800acf2:	4638      	mov	r0, r7
 800acf4:	f7ff ff62 	bl	800abbc <__sfmoreglue>
 800acf8:	4604      	mov	r4, r0
 800acfa:	6030      	str	r0, [r6, #0]
 800acfc:	2800      	cmp	r0, #0
 800acfe:	d1d5      	bne.n	800acac <__sfp+0x24>
 800ad00:	f7ff ff78 	bl	800abf4 <__sfp_lock_release>
 800ad04:	230c      	movs	r3, #12
 800ad06:	603b      	str	r3, [r7, #0]
 800ad08:	e7ee      	b.n	800ace8 <__sfp+0x60>
 800ad0a:	bf00      	nop
 800ad0c:	0800b1a8 	.word	0x0800b1a8
 800ad10:	ffff0001 	.word	0xffff0001

0800ad14 <_fwalk_reent>:
 800ad14:	e92d 43f8 	stmdb	sp!, {r3, r4, r5, r6, r7, r8, r9, lr}
 800ad18:	4606      	mov	r6, r0
 800ad1a:	4688      	mov	r8, r1
 800ad1c:	2700      	movs	r7, #0
 800ad1e:	f100 0448 	add.w	r4, r0, #72	; 0x48
 800ad22:	e9d4 9501 	ldrd	r9, r5, [r4, #4]
 800ad26:	f1b9 0901 	subs.w	r9, r9, #1
 800ad2a:	d505      	bpl.n	800ad38 <_fwalk_reent+0x24>
 800ad2c:	6824      	ldr	r4, [r4, #0]
 800ad2e:	2c00      	cmp	r4, #0
 800ad30:	d1f7      	bne.n	800ad22 <_fwalk_reent+0xe>
 800ad32:	4638      	mov	r0, r7
 800ad34:	e8bd 83f8 	ldmia.w	sp!, {r3, r4, r5, r6, r7, r8, r9, pc}
 800ad38:	89ab      	ldrh	r3, [r5, #12]
 800ad3a:	2b01      	cmp	r3, #1
 800ad3c:	d907      	bls.n	800ad4e <_fwalk_reent+0x3a>
 800ad3e:	f9b5 300e 	ldrsh.w	r3, [r5, #14]
 800ad42:	3301      	adds	r3, #1
 800ad44:	d003      	beq.n	800ad4e <_fwalk_reent+0x3a>
 800ad46:	4629      	mov	r1, r5
 800ad48:	4630      	mov	r0, r6
 800ad4a:	47c0      	blx	r8
 800ad4c:	4307      	orrs	r7, r0
 800ad4e:	3568      	adds	r5, #104	; 0x68
 800ad50:	e7e9      	b.n	800ad26 <_fwalk_reent+0x12>

0800ad52 <__swhatbuf_r>:
 800ad52:	b570      	push	{r4, r5, r6, lr}
 800ad54:	460e      	mov	r6, r1
 800ad56:	f9b1 100e 	ldrsh.w	r1, [r1, #14]
 800ad5a:	4614      	mov	r4, r2
 800ad5c:	2900      	cmp	r1, #0
 800ad5e:	461d      	mov	r5, r3
 800ad60:	b096      	sub	sp, #88	; 0x58
 800ad62:	da08      	bge.n	800ad76 <__swhatbuf_r+0x24>
 800ad64:	2200      	movs	r2, #0
 800ad66:	f9b6 300c 	ldrsh.w	r3, [r6, #12]
 800ad6a:	602a      	str	r2, [r5, #0]
 800ad6c:	061a      	lsls	r2, r3, #24
 800ad6e:	d410      	bmi.n	800ad92 <__swhatbuf_r+0x40>
 800ad70:	f44f 6380 	mov.w	r3, #1024	; 0x400
 800ad74:	e00e      	b.n	800ad94 <__swhatbuf_r+0x42>
 800ad76:	466a      	mov	r2, sp
 800ad78:	f000 f8be 	bl	800aef8 <_fstat_r>
 800ad7c:	2800      	cmp	r0, #0
 800ad7e:	dbf1      	blt.n	800ad64 <__swhatbuf_r+0x12>
 800ad80:	9a01      	ldr	r2, [sp, #4]
 800ad82:	f402 4270 	and.w	r2, r2, #61440	; 0xf000
 800ad86:	f5a2 5300 	sub.w	r3, r2, #8192	; 0x2000
 800ad8a:	425a      	negs	r2, r3
 800ad8c:	415a      	adcs	r2, r3
 800ad8e:	602a      	str	r2, [r5, #0]
 800ad90:	e7ee      	b.n	800ad70 <__swhatbuf_r+0x1e>
 800ad92:	2340      	movs	r3, #64	; 0x40
 800ad94:	2000      	movs	r0, #0
 800ad96:	6023      	str	r3, [r4, #0]
 800ad98:	b016      	add	sp, #88	; 0x58
 800ad9a:	bd70      	pop	{r4, r5, r6, pc}

0800ad9c <__smakebuf_r>:
 800ad9c:	898b      	ldrh	r3, [r1, #12]
 800ad9e:	b573      	push	{r0, r1, r4, r5, r6, lr}
 800ada0:	079d      	lsls	r5, r3, #30
 800ada2:	4606      	mov	r6, r0
 800ada4:	460c      	mov	r4, r1
 800ada6:	d507      	bpl.n	800adb8 <__smakebuf_r+0x1c>
 800ada8:	f104 0347 	add.w	r3, r4, #71	; 0x47
 800adac:	6023      	str	r3, [r4, #0]
 800adae:	6123      	str	r3, [r4, #16]
 800adb0:	2301      	movs	r3, #1
 800adb2:	6163      	str	r3, [r4, #20]
 800adb4:	b002      	add	sp, #8
 800adb6:	bd70      	pop	{r4, r5, r6, pc}
 800adb8:	466a      	mov	r2, sp
 800adba:	ab01      	add	r3, sp, #4
 800adbc:	f7ff ffc9 	bl	800ad52 <__swhatbuf_r>
 800adc0:	9900      	ldr	r1, [sp, #0]
 800adc2:	4605      	mov	r5, r0
 800adc4:	4630      	mov	r0, r6
 800adc6:	f7fd f915 	bl	8007ff4 <_malloc_r>
 800adca:	b948      	cbnz	r0, 800ade0 <__smakebuf_r+0x44>
 800adcc:	f9b4 300c 	ldrsh.w	r3, [r4, #12]
 800add0:	059a      	lsls	r2, r3, #22
 800add2:	d4ef      	bmi.n	800adb4 <__smakebuf_r+0x18>
 800add4:	f023 0303 	bic.w	r3, r3, #3
 800add8:	f043 0302 	orr.w	r3, r3, #2
 800addc:	81a3      	strh	r3, [r4, #12]
 800adde:	e7e3      	b.n	800ada8 <__smakebuf_r+0xc>
 800ade0:	4b0d      	ldr	r3, [pc, #52]	; (800ae18 <__smakebuf_r+0x7c>)
 800ade2:	62b3      	str	r3, [r6, #40]	; 0x28
 800ade4:	89a3      	ldrh	r3, [r4, #12]
 800ade6:	6020      	str	r0, [r4, #0]
 800ade8:	f043 0380 	orr.w	r3, r3, #128	; 0x80
 800adec:	81a3      	strh	r3, [r4, #12]
 800adee:	9b00      	ldr	r3, [sp, #0]
 800adf0:	6120      	str	r0, [r4, #16]
 800adf2:	6163      	str	r3, [r4, #20]
 800adf4:	9b01      	ldr	r3, [sp, #4]
 800adf6:	b15b      	cbz	r3, 800ae10 <__smakebuf_r+0x74>
 800adf8:	4630      	mov	r0, r6
 800adfa:	f9b4 100e 	ldrsh.w	r1, [r4, #14]
 800adfe:	f000 f88d 	bl	800af1c <_isatty_r>
 800ae02:	b128      	cbz	r0, 800ae10 <__smakebuf_r+0x74>
 800ae04:	89a3      	ldrh	r3, [r4, #12]
 800ae06:	f023 0303 	bic.w	r3, r3, #3
 800ae0a:	f043 0301 	orr.w	r3, r3, #1
 800ae0e:	81a3      	strh	r3, [r4, #12]
 800ae10:	89a0      	ldrh	r0, [r4, #12]
 800ae12:	4305      	orrs	r5, r0
 800ae14:	81a5      	strh	r5, [r4, #12]
 800ae16:	e7cd      	b.n	800adb4 <__smakebuf_r+0x18>
 800ae18:	0800abb1 	.word	0x0800abb1

0800ae1c <_malloc_usable_size_r>:
 800ae1c:	f851 3c04 	ldr.w	r3, [r1, #-4]
 800ae20:	1f18      	subs	r0, r3, #4
 800ae22:	2b00      	cmp	r3, #0
 800ae24:	bfbc      	itt	lt
 800ae26:	580b      	ldrlt	r3, [r1, r0]
 800ae28:	18c0      	addlt	r0, r0, r3
 800ae2a:	4770      	bx	lr

0800ae2c <__sread>:
 800ae2c:	b510      	push	{r4, lr}
 800ae2e:	460c      	mov	r4, r1
 800ae30:	f9b1 100e 	ldrsh.w	r1, [r1, #14]
 800ae34:	f000 f894 	bl	800af60 <_read_r>
 800ae38:	2800      	cmp	r0, #0
 800ae3a:	bfab      	itete	ge
 800ae3c:	6d63      	ldrge	r3, [r4, #84]	; 0x54
 800ae3e:	89a3      	ldrhlt	r3, [r4, #12]
 800ae40:	181b      	addge	r3, r3, r0
 800ae42:	f423 5380 	biclt.w	r3, r3, #4096	; 0x1000
 800ae46:	bfac      	ite	ge
 800ae48:	6563      	strge	r3, [r4, #84]	; 0x54
 800ae4a:	81a3      	strhlt	r3, [r4, #12]
 800ae4c:	bd10      	pop	{r4, pc}

0800ae4e <__swrite>:
 800ae4e:	e92d 41f0 	stmdb	sp!, {r4, r5, r6, r7, r8, lr}
 800ae52:	461f      	mov	r7, r3
 800ae54:	898b      	ldrh	r3, [r1, #12]
 800ae56:	4605      	mov	r5, r0
 800ae58:	05db      	lsls	r3, r3, #23
 800ae5a:	460c      	mov	r4, r1
 800ae5c:	4616      	mov	r6, r2
 800ae5e:	d505      	bpl.n	800ae6c <__swrite+0x1e>
 800ae60:	2302      	movs	r3, #2
 800ae62:	2200      	movs	r2, #0
 800ae64:	f9b1 100e 	ldrsh.w	r1, [r1, #14]
 800ae68:	f000 f868 	bl	800af3c <_lseek_r>
 800ae6c:	89a3      	ldrh	r3, [r4, #12]
 800ae6e:	4632      	mov	r2, r6
 800ae70:	f423 5380 	bic.w	r3, r3, #4096	; 0x1000
 800ae74:	81a3      	strh	r3, [r4, #12]
 800ae76:	4628      	mov	r0, r5
 800ae78:	463b      	mov	r3, r7
 800ae7a:	f9b4 100e 	ldrsh.w	r1, [r4, #14]
 800ae7e:	e8bd 41f0 	ldmia.w	sp!, {r4, r5, r6, r7, r8, lr}
 800ae82:	f000 b817 	b.w	800aeb4 <_write_r>

0800ae86 <__sseek>:
 800ae86:	b510      	push	{r4, lr}
 800ae88:	460c      	mov	r4, r1
 800ae8a:	f9b1 100e 	ldrsh.w	r1, [r1, #14]
 800ae8e:	f000 f855 	bl	800af3c <_lseek_r>
 800ae92:	1c43      	adds	r3, r0, #1
 800ae94:	89a3      	ldrh	r3, [r4, #12]
 800ae96:	bf15      	itete	ne
 800ae98:	6560      	strne	r0, [r4, #84]	; 0x54
 800ae9a:	f423 5380 	biceq.w	r3, r3, #4096	; 0x1000
 800ae9e:	f443 5380 	orrne.w	r3, r3, #4096	; 0x1000
 800aea2:	81a3      	strheq	r3, [r4, #12]
 800aea4:	bf18      	it	ne
 800aea6:	81a3      	strhne	r3, [r4, #12]
 800aea8:	bd10      	pop	{r4, pc}

0800aeaa <__sclose>:
 800aeaa:	f9b1 100e 	ldrsh.w	r1, [r1, #14]
 800aeae:	f000 b813 	b.w	800aed8 <_close_r>
	...

0800aeb4 <_write_r>:
 800aeb4:	b538      	push	{r3, r4, r5, lr}
 800aeb6:	4604      	mov	r4, r0
 800aeb8:	4608      	mov	r0, r1
 800aeba:	4611      	mov	r1, r2
 800aebc:	2200      	movs	r2, #0
 800aebe:	4d05      	ldr	r5, [pc, #20]	; (800aed4 <_write_r+0x20>)
 800aec0:	602a      	str	r2, [r5, #0]
 800aec2:	461a      	mov	r2, r3
 800aec4:	f7f9 fb4c 	bl	8004560 <_write>
 800aec8:	1c43      	adds	r3, r0, #1
 800aeca:	d102      	bne.n	800aed2 <_write_r+0x1e>
 800aecc:	682b      	ldr	r3, [r5, #0]
 800aece:	b103      	cbz	r3, 800aed2 <_write_r+0x1e>
 800aed0:	6023      	str	r3, [r4, #0]
 800aed2:	bd38      	pop	{r3, r4, r5, pc}
 800aed4:	200015b0 	.word	0x200015b0

0800aed8 <_close_r>:
 800aed8:	b538      	push	{r3, r4, r5, lr}
 800aeda:	2300      	movs	r3, #0
 800aedc:	4d05      	ldr	r5, [pc, #20]	; (800aef4 <_close_r+0x1c>)
 800aede:	4604      	mov	r4, r0
 800aee0:	4608      	mov	r0, r1
 800aee2:	602b      	str	r3, [r5, #0]
 800aee4:	f7f9 fb4a 	bl	800457c <_close>
 800aee8:	1c43      	adds	r3, r0, #1
 800aeea:	d102      	bne.n	800aef2 <_close_r+0x1a>
 800aeec:	682b      	ldr	r3, [r5, #0]
 800aeee:	b103      	cbz	r3, 800aef2 <_close_r+0x1a>
 800aef0:	6023      	str	r3, [r4, #0]
 800aef2:	bd38      	pop	{r3, r4, r5, pc}
 800aef4:	200015b0 	.word	0x200015b0

0800aef8 <_fstat_r>:
 800aef8:	b538      	push	{r3, r4, r5, lr}
 800aefa:	2300      	movs	r3, #0
 800aefc:	4d06      	ldr	r5, [pc, #24]	; (800af18 <_fstat_r+0x20>)
 800aefe:	4604      	mov	r4, r0
 800af00:	4608      	mov	r0, r1
 800af02:	4611      	mov	r1, r2
 800af04:	602b      	str	r3, [r5, #0]
 800af06:	f7f9 fb3c 	bl	8004582 <_fstat>
 800af0a:	1c43      	adds	r3, r0, #1
 800af0c:	d102      	bne.n	800af14 <_fstat_r+0x1c>
 800af0e:	682b      	ldr	r3, [r5, #0]
 800af10:	b103      	cbz	r3, 800af14 <_fstat_r+0x1c>
 800af12:	6023      	str	r3, [r4, #0]
 800af14:	bd38      	pop	{r3, r4, r5, pc}
 800af16:	bf00      	nop
 800af18:	200015b0 	.word	0x200015b0

0800af1c <_isatty_r>:
 800af1c:	b538      	push	{r3, r4, r5, lr}
 800af1e:	2300      	movs	r3, #0
 800af20:	4d05      	ldr	r5, [pc, #20]	; (800af38 <_isatty_r+0x1c>)
 800af22:	4604      	mov	r4, r0
 800af24:	4608      	mov	r0, r1
 800af26:	602b      	str	r3, [r5, #0]
 800af28:	f7f9 fb30 	bl	800458c <_isatty>
 800af2c:	1c43      	adds	r3, r0, #1
 800af2e:	d102      	bne.n	800af36 <_isatty_r+0x1a>
 800af30:	682b      	ldr	r3, [r5, #0]
 800af32:	b103      	cbz	r3, 800af36 <_isatty_r+0x1a>
 800af34:	6023      	str	r3, [r4, #0]
 800af36:	bd38      	pop	{r3, r4, r5, pc}
 800af38:	200015b0 	.word	0x200015b0

0800af3c <_lseek_r>:
 800af3c:	b538      	push	{r3, r4, r5, lr}
 800af3e:	4604      	mov	r4, r0
 800af40:	4608      	mov	r0, r1
 800af42:	4611      	mov	r1, r2
 800af44:	2200      	movs	r2, #0
 800af46:	4d05      	ldr	r5, [pc, #20]	; (800af5c <_lseek_r+0x20>)
 800af48:	602a      	str	r2, [r5, #0]
 800af4a:	461a      	mov	r2, r3
 800af4c:	f7f9 fb20 	bl	8004590 <_lseek>
 800af50:	1c43      	adds	r3, r0, #1
 800af52:	d102      	bne.n	800af5a <_lseek_r+0x1e>
 800af54:	682b      	ldr	r3, [r5, #0]
 800af56:	b103      	cbz	r3, 800af5a <_lseek_r+0x1e>
 800af58:	6023      	str	r3, [r4, #0]
 800af5a:	bd38      	pop	{r3, r4, r5, pc}
 800af5c:	200015b0 	.word	0x200015b0

0800af60 <_read_r>:
 800af60:	b538      	push	{r3, r4, r5, lr}
 800af62:	4604      	mov	r4, r0
 800af64:	4608      	mov	r0, r1
 800af66:	4611      	mov	r1, r2
 800af68:	2200      	movs	r2, #0
 800af6a:	4d05      	ldr	r5, [pc, #20]	; (800af80 <_read_r+0x20>)
 800af6c:	602a      	str	r2, [r5, #0]
 800af6e:	461a      	mov	r2, r3
 800af70:	f7f9 fae8 	bl	8004544 <_read>
 800af74:	1c43      	adds	r3, r0, #1
 800af76:	d102      	bne.n	800af7e <_read_r+0x1e>
 800af78:	682b      	ldr	r3, [r5, #0]
 800af7a:	b103      	cbz	r3, 800af7e <_read_r+0x1e>
 800af7c:	6023      	str	r3, [r4, #0]
 800af7e:	bd38      	pop	{r3, r4, r5, pc}
 800af80:	200015b0 	.word	0x200015b0

0800af84 <_init>:
 800af84:	b5f8      	push	{r3, r4, r5, r6, r7, lr}
 800af86:	bf00      	nop
 800af88:	bcf8      	pop	{r3, r4, r5, r6, r7}
 800af8a:	bc08      	pop	{r3}
 800af8c:	469e      	mov	lr, r3
 800af8e:	4770      	bx	lr

0800af90 <_fini>:
 800af90:	b5f8      	push	{r3, r4, r5, r6, r7, lr}
 800af92:	bf00      	nop
 800af94:	bcf8      	pop	{r3, r4, r5, r6, r7}
 800af96:	bc08      	pop	{r3}
 800af98:	469e      	mov	lr, r3
 800af9a:	4770      	bx	lr
