
Calculator.elf:     file format elf32-littlearm

Sections:
Idx Name          Size      VMA       LMA       File off  Algn
  0 .isr_vector   0000010c  08000000  08000000  00010000  2**0
                  CONTENTS, ALLOC, LOAD, READONLY, DATA
  1 .text         00003ee0  0800010c  0800010c  0001010c  2**2
                  CONTENTS, ALLOC, LOAD, READONLY, CODE
  2 .rodata       000000c8  08003fec  08003fec  00013fec  2**2
                  CONTENTS, ALLOC, LOAD, READONLY, DATA
  3 .ARM.extab    000000fc  080040b4  080040b4  000140b4  2**2
                  CONTENTS, ALLOC, LOAD, READONLY, DATA
  4 .ARM          00000300  080041b0  080041b0  000141b0  2**2
                  CONTENTS, ALLOC, LOAD, READONLY, DATA
  5 .preinit_array 00000000  080044b0  080044b0  000201e0  2**0
                  CONTENTS, ALLOC, LOAD, DATA
  6 .init_array   00000004  080044b0  080044b0  000144b0  2**2
                  CONTENTS, ALLOC, LOAD, DATA
  7 .fini_array   00000004  080044b4  080044b4  000144b4  2**2
                  CONTENTS, ALLOC, LOAD, DATA
  8 .data         000001e0  20000000  080044b8  00020000  2**2
                  CONTENTS, ALLOC, LOAD, DATA
  9 .bss          000011fc  200001e0  08004698  000201e0  2**2
                  ALLOC
 10 ._user_heap_stack 00000604  200013dc  08004698  000213dc  2**0
                  ALLOC
 11 .ARM.attributes 00000029  00000000  00000000  000201e0  2**0
                  CONTENTS, READONLY
 12 .debug_info   0000e57b  00000000  00000000  00020209  2**0
                  CONTENTS, READONLY, DEBUGGING, OCTETS
 13 .debug_abbrev 00002f48  00000000  00000000  0002e784  2**0
                  CONTENTS, READONLY, DEBUGGING, OCTETS
 14 .debug_aranges 00000898  00000000  00000000  000316d0  2**3
                  CONTENTS, READONLY, DEBUGGING, OCTETS
 15 .debug_ranges 00001020  00000000  00000000  00031f68  2**3
                  CONTENTS, READONLY, DEBUGGING, OCTETS
 16 .debug_macro  00019658  00000000  00000000  00032f88  2**0
                  CONTENTS, READONLY, DEBUGGING, OCTETS
 17 .debug_line   0000edbc  00000000  00000000  0004c5e0  2**0
                  CONTENTS, READONLY, DEBUGGING, OCTETS
 18 .debug_str    0008678d  00000000  00000000  0005b39c  2**0
                  CONTENTS, READONLY, DEBUGGING, OCTETS
 19 .comment      00000050  00000000  00000000  000e1b29  2**0
                  CONTENTS, READONLY
 20 .debug_frame  00001bbc  00000000  00000000  000e1b7c  2**2
                  CONTENTS, READONLY, DEBUGGING, OCTETS
 21 .debug_loc    00006a6d  00000000  00000000  000e3738  2**0
                  CONTENTS, READONLY, DEBUGGING, OCTETS

Disassembly of section .text:

0800010c <__do_global_dtors_aux>:
 800010c:	b510      	push	{r4, lr}
 800010e:	4c05      	ldr	r4, [pc, #20]	; (8000124 <__do_global_dtors_aux+0x18>)
 8000110:	7823      	ldrb	r3, [r4, #0]
 8000112:	b933      	cbnz	r3, 8000122 <__do_global_dtors_aux+0x16>
 8000114:	4b04      	ldr	r3, [pc, #16]	; (8000128 <__do_global_dtors_aux+0x1c>)
 8000116:	b113      	cbz	r3, 800011e <__do_global_dtors_aux+0x12>
 8000118:	4804      	ldr	r0, [pc, #16]	; (800012c <__do_global_dtors_aux+0x20>)
 800011a:	f3af 8000 	nop.w
 800011e:	2301      	movs	r3, #1
 8000120:	7023      	strb	r3, [r4, #0]
 8000122:	bd10      	pop	{r4, pc}
 8000124:	200001e0 	.word	0x200001e0
 8000128:	00000000 	.word	0x00000000
 800012c:	08003fd4 	.word	0x08003fd4

08000130 <frame_dummy>:
 8000130:	b508      	push	{r3, lr}
 8000132:	4b03      	ldr	r3, [pc, #12]	; (8000140 <frame_dummy+0x10>)
 8000134:	b11b      	cbz	r3, 800013e <frame_dummy+0xe>
 8000136:	4903      	ldr	r1, [pc, #12]	; (8000144 <frame_dummy+0x14>)
 8000138:	4803      	ldr	r0, [pc, #12]	; (8000148 <frame_dummy+0x18>)
 800013a:	f3af 8000 	nop.w
 800013e:	bd08      	pop	{r3, pc}
 8000140:	00000000 	.word	0x00000000
 8000144:	200001e4 	.word	0x200001e4
 8000148:	08003fd4 	.word	0x08003fd4

0800014c <selfrel_offset31>:
 800014c:	6803      	ldr	r3, [r0, #0]
 800014e:	005a      	lsls	r2, r3, #1
 8000150:	bf4c      	ite	mi
 8000152:	f043 4300 	orrmi.w	r3, r3, #2147483648	; 0x80000000
 8000156:	f023 4300 	bicpl.w	r3, r3, #2147483648	; 0x80000000
 800015a:	4418      	add	r0, r3
 800015c:	4770      	bx	lr
 800015e:	bf00      	nop

08000160 <search_EIT_table>:
 8000160:	e92d 43f8 	stmdb	sp!, {r3, r4, r5, r6, r7, r8, r9, lr}
 8000164:	b339      	cbz	r1, 80001b6 <search_EIT_table+0x56>
 8000166:	1e4f      	subs	r7, r1, #1
 8000168:	4604      	mov	r4, r0
 800016a:	4615      	mov	r5, r2
 800016c:	463e      	mov	r6, r7
 800016e:	f04f 0800 	mov.w	r8, #0
 8000172:	eb08 0106 	add.w	r1, r8, r6
 8000176:	eb01 71d1 	add.w	r1, r1, r1, lsr #31
 800017a:	1049      	asrs	r1, r1, #1
 800017c:	eb04 09c1 	add.w	r9, r4, r1, lsl #3
 8000180:	4648      	mov	r0, r9
 8000182:	f7ff ffe3 	bl	800014c <selfrel_offset31>
 8000186:	4603      	mov	r3, r0
 8000188:	00c8      	lsls	r0, r1, #3
 800018a:	3008      	adds	r0, #8
 800018c:	428f      	cmp	r7, r1
 800018e:	4420      	add	r0, r4
 8000190:	d00b      	beq.n	80001aa <search_EIT_table+0x4a>
 8000192:	42ab      	cmp	r3, r5
 8000194:	d80b      	bhi.n	80001ae <search_EIT_table+0x4e>
 8000196:	f7ff ffd9 	bl	800014c <selfrel_offset31>
 800019a:	3801      	subs	r0, #1
 800019c:	42a8      	cmp	r0, r5
 800019e:	f101 0801 	add.w	r8, r1, #1
 80001a2:	d3e6      	bcc.n	8000172 <search_EIT_table+0x12>
 80001a4:	4648      	mov	r0, r9
 80001a6:	e8bd 83f8 	ldmia.w	sp!, {r3, r4, r5, r6, r7, r8, r9, pc}
 80001aa:	42ab      	cmp	r3, r5
 80001ac:	d9fa      	bls.n	80001a4 <search_EIT_table+0x44>
 80001ae:	4588      	cmp	r8, r1
 80001b0:	d001      	beq.n	80001b6 <search_EIT_table+0x56>
 80001b2:	1e4e      	subs	r6, r1, #1
 80001b4:	e7dd      	b.n	8000172 <search_EIT_table+0x12>
 80001b6:	f04f 0900 	mov.w	r9, #0
 80001ba:	4648      	mov	r0, r9
 80001bc:	e8bd 83f8 	ldmia.w	sp!, {r3, r4, r5, r6, r7, r8, r9, pc}

080001c0 <__gnu_unwind_get_pr_addr>:
 80001c0:	2801      	cmp	r0, #1
 80001c2:	d007      	beq.n	80001d4 <__gnu_unwind_get_pr_addr+0x14>
 80001c4:	2802      	cmp	r0, #2
 80001c6:	d007      	beq.n	80001d8 <__gnu_unwind_get_pr_addr+0x18>
 80001c8:	4b04      	ldr	r3, [pc, #16]	; (80001dc <__gnu_unwind_get_pr_addr+0x1c>)
 80001ca:	2800      	cmp	r0, #0
 80001cc:	bf0c      	ite	eq
 80001ce:	4618      	moveq	r0, r3
 80001d0:	2000      	movne	r0, #0
 80001d2:	4770      	bx	lr
 80001d4:	4802      	ldr	r0, [pc, #8]	; (80001e0 <__gnu_unwind_get_pr_addr+0x20>)
 80001d6:	4770      	bx	lr
 80001d8:	4802      	ldr	r0, [pc, #8]	; (80001e4 <__gnu_unwind_get_pr_addr+0x24>)
 80001da:	4770      	bx	lr
 80001dc:	080008b1 	.word	0x080008b1
 80001e0:	080008b5 	.word	0x080008b5
 80001e4:	080008b9 	.word	0x080008b9

080001e8 <get_eit_entry>:
 80001e8:	b530      	push	{r4, r5, lr}
 80001ea:	4b24      	ldr	r3, [pc, #144]	; (800027c <get_eit_entry+0x94>)
 80001ec:	4604      	mov	r4, r0
 80001ee:	b083      	sub	sp, #12
 80001f0:	1e8d      	subs	r5, r1, #2
 80001f2:	b33b      	cbz	r3, 8000244 <get_eit_entry+0x5c>
 80001f4:	4628      	mov	r0, r5
 80001f6:	a901      	add	r1, sp, #4
 80001f8:	f3af 8000 	nop.w
 80001fc:	b1e8      	cbz	r0, 800023a <get_eit_entry+0x52>
 80001fe:	9901      	ldr	r1, [sp, #4]
 8000200:	462a      	mov	r2, r5
 8000202:	f7ff ffad 	bl	8000160 <search_EIT_table>
 8000206:	4601      	mov	r1, r0
 8000208:	b1b8      	cbz	r0, 800023a <get_eit_entry+0x52>
 800020a:	f7ff ff9f 	bl	800014c <selfrel_offset31>
 800020e:	684b      	ldr	r3, [r1, #4]
 8000210:	64a0      	str	r0, [r4, #72]	; 0x48
 8000212:	2b01      	cmp	r3, #1
 8000214:	d02e      	beq.n	8000274 <get_eit_entry+0x8c>
 8000216:	2b00      	cmp	r3, #0
 8000218:	db27      	blt.n	800026a <get_eit_entry+0x82>
 800021a:	1d08      	adds	r0, r1, #4
 800021c:	f7ff ff96 	bl	800014c <selfrel_offset31>
 8000220:	2300      	movs	r3, #0
 8000222:	e9c4 0313 	strd	r0, r3, [r4, #76]	; 0x4c
 8000226:	6803      	ldr	r3, [r0, #0]
 8000228:	2b00      	cmp	r3, #0
 800022a:	db12      	blt.n	8000252 <get_eit_entry+0x6a>
 800022c:	f7ff ff8e 	bl	800014c <selfrel_offset31>
 8000230:	4603      	mov	r3, r0
 8000232:	2000      	movs	r0, #0
 8000234:	6123      	str	r3, [r4, #16]
 8000236:	b003      	add	sp, #12
 8000238:	bd30      	pop	{r4, r5, pc}
 800023a:	2300      	movs	r3, #0
 800023c:	2009      	movs	r0, #9
 800023e:	6123      	str	r3, [r4, #16]
 8000240:	b003      	add	sp, #12
 8000242:	bd30      	pop	{r4, r5, pc}
 8000244:	4b0e      	ldr	r3, [pc, #56]	; (8000280 <get_eit_entry+0x98>)
 8000246:	490f      	ldr	r1, [pc, #60]	; (8000284 <get_eit_entry+0x9c>)
 8000248:	4618      	mov	r0, r3
 800024a:	1ac9      	subs	r1, r1, r3
 800024c:	10c9      	asrs	r1, r1, #3
 800024e:	9101      	str	r1, [sp, #4]
 8000250:	e7d6      	b.n	8000200 <get_eit_entry+0x18>
 8000252:	f3c3 6003 	ubfx	r0, r3, #24, #4
 8000256:	f7ff ffb3 	bl	80001c0 <__gnu_unwind_get_pr_addr>
 800025a:	2800      	cmp	r0, #0
 800025c:	4603      	mov	r3, r0
 800025e:	bf14      	ite	ne
 8000260:	2000      	movne	r0, #0
 8000262:	2009      	moveq	r0, #9
 8000264:	6123      	str	r3, [r4, #16]
 8000266:	b003      	add	sp, #12
 8000268:	bd30      	pop	{r4, r5, pc}
 800026a:	2301      	movs	r3, #1
 800026c:	1d08      	adds	r0, r1, #4
 800026e:	e9c4 0313 	strd	r0, r3, [r4, #76]	; 0x4c
 8000272:	e7d8      	b.n	8000226 <get_eit_entry+0x3e>
 8000274:	2300      	movs	r3, #0
 8000276:	2005      	movs	r0, #5
 8000278:	6123      	str	r3, [r4, #16]
 800027a:	e7dc      	b.n	8000236 <get_eit_entry+0x4e>
 800027c:	00000000 	.word	0x00000000
 8000280:	080041b0 	.word	0x080041b0
 8000284:	080044b0 	.word	0x080044b0

08000288 <restore_non_core_regs>:
 8000288:	6803      	ldr	r3, [r0, #0]
 800028a:	b510      	push	{r4, lr}
 800028c:	07da      	lsls	r2, r3, #31
 800028e:	4604      	mov	r4, r0
 8000290:	d406      	bmi.n	80002a0 <restore_non_core_regs+0x18>
 8000292:	079b      	lsls	r3, r3, #30
 8000294:	f100 0048 	add.w	r0, r0, #72	; 0x48
 8000298:	d509      	bpl.n	80002ae <restore_non_core_regs+0x26>
 800029a:	f000 fc5d 	bl	8000b58 <__gnu_Unwind_Restore_VFP_D>
 800029e:	6823      	ldr	r3, [r4, #0]
 80002a0:	0759      	lsls	r1, r3, #29
 80002a2:	d509      	bpl.n	80002b8 <restore_non_core_regs+0x30>
 80002a4:	071a      	lsls	r2, r3, #28
 80002a6:	d50e      	bpl.n	80002c6 <restore_non_core_regs+0x3e>
 80002a8:	06db      	lsls	r3, r3, #27
 80002aa:	d513      	bpl.n	80002d4 <restore_non_core_regs+0x4c>
 80002ac:	bd10      	pop	{r4, pc}
 80002ae:	f000 fc4b 	bl	8000b48 <__gnu_Unwind_Restore_VFP>
 80002b2:	6823      	ldr	r3, [r4, #0]
 80002b4:	0759      	lsls	r1, r3, #29
 80002b6:	d4f5      	bmi.n	80002a4 <restore_non_core_regs+0x1c>
 80002b8:	f104 00d0 	add.w	r0, r4, #208	; 0xd0
 80002bc:	f000 fc54 	bl	8000b68 <__gnu_Unwind_Restore_VFP_D_16_to_31>
 80002c0:	6823      	ldr	r3, [r4, #0]
 80002c2:	071a      	lsls	r2, r3, #28
 80002c4:	d4f0      	bmi.n	80002a8 <restore_non_core_regs+0x20>
 80002c6:	f504 70a8 	add.w	r0, r4, #336	; 0x150
 80002ca:	f000 fc55 	bl	8000b78 <__gnu_Unwind_Restore_WMMXD>
 80002ce:	6823      	ldr	r3, [r4, #0]
 80002d0:	06db      	lsls	r3, r3, #27
 80002d2:	d4eb      	bmi.n	80002ac <restore_non_core_regs+0x24>
 80002d4:	f504 70e8 	add.w	r0, r4, #464	; 0x1d0
 80002d8:	e8bd 4010 	ldmia.w	sp!, {r4, lr}
 80002dc:	f000 bc90 	b.w	8000c00 <__gnu_Unwind_Restore_WMMXC>

080002e0 <__gnu_unwind_24bit.constprop.0>:
 80002e0:	2009      	movs	r0, #9
 80002e2:	4770      	bx	lr

080002e4 <_Unwind_decode_typeinfo_ptr.constprop.0>:
 80002e4:	4603      	mov	r3, r0
 80002e6:	6800      	ldr	r0, [r0, #0]
 80002e8:	b100      	cbz	r0, 80002ec <_Unwind_decode_typeinfo_ptr.constprop.0+0x8>
 80002ea:	4418      	add	r0, r3
 80002ec:	4770      	bx	lr
 80002ee:	bf00      	nop

080002f0 <_Unwind_DebugHook>:
 80002f0:	4770      	bx	lr
 80002f2:	bf00      	nop

080002f4 <unwind_phase2>:
 80002f4:	b570      	push	{r4, r5, r6, lr}
 80002f6:	4604      	mov	r4, r0
 80002f8:	460e      	mov	r6, r1
 80002fa:	4620      	mov	r0, r4
 80002fc:	6c31      	ldr	r1, [r6, #64]	; 0x40
 80002fe:	f7ff ff73 	bl	80001e8 <get_eit_entry>
 8000302:	4605      	mov	r5, r0
 8000304:	b998      	cbnz	r0, 800032e <unwind_phase2+0x3a>
 8000306:	f8d6 c040 	ldr.w	ip, [r6, #64]	; 0x40
 800030a:	4632      	mov	r2, r6
 800030c:	4621      	mov	r1, r4
 800030e:	2001      	movs	r0, #1
 8000310:	6923      	ldr	r3, [r4, #16]
 8000312:	f8c4 c014 	str.w	ip, [r4, #20]
 8000316:	4798      	blx	r3
 8000318:	2808      	cmp	r0, #8
 800031a:	d0ee      	beq.n	80002fa <unwind_phase2+0x6>
 800031c:	2807      	cmp	r0, #7
 800031e:	d106      	bne.n	800032e <unwind_phase2+0x3a>
 8000320:	4628      	mov	r0, r5
 8000322:	6c31      	ldr	r1, [r6, #64]	; 0x40
 8000324:	f7ff ffe4 	bl	80002f0 <_Unwind_DebugHook>
 8000328:	1d30      	adds	r0, r6, #4
 800032a:	f000 fc01 	bl	8000b30 <__restore_core_regs>
 800032e:	f003 fdc5 	bl	8003ebc <abort>
 8000332:	bf00      	nop

08000334 <unwind_phase2_forced>:
 8000334:	e92d 47f0 	stmdb	sp!, {r4, r5, r6, r7, r8, r9, sl, lr}
 8000338:	f04f 0a00 	mov.w	sl, #0
 800033c:	f5ad 7d72 	sub.w	sp, sp, #968	; 0x3c8
 8000340:	f10d 0e0c 	add.w	lr, sp, #12
 8000344:	f101 0c04 	add.w	ip, r1, #4
 8000348:	68c7      	ldr	r7, [r0, #12]
 800034a:	f8d0 8018 	ldr.w	r8, [r0, #24]
 800034e:	4606      	mov	r6, r0
 8000350:	4614      	mov	r4, r2
 8000352:	e8bc 000f 	ldmia.w	ip!, {r0, r1, r2, r3}
 8000356:	e8ae 000f 	stmia.w	lr!, {r0, r1, r2, r3}
 800035a:	e8bc 000f 	ldmia.w	ip!, {r0, r1, r2, r3}
 800035e:	e8ae 000f 	stmia.w	lr!, {r0, r1, r2, r3}
 8000362:	e8bc 000f 	ldmia.w	ip!, {r0, r1, r2, r3}
 8000366:	e8ae 000f 	stmia.w	lr!, {r0, r1, r2, r3}
 800036a:	e89c 000f 	ldmia.w	ip, {r0, r1, r2, r3}
 800036e:	ad02      	add	r5, sp, #8
 8000370:	e88e 000f 	stmia.w	lr, {r0, r1, r2, r3}
 8000374:	f8c5 a000 	str.w	sl, [r5]
 8000378:	e021      	b.n	80003be <unwind_phase2_forced+0x8a>
 800037a:	6c2b      	ldr	r3, [r5, #64]	; 0x40
 800037c:	f44f 72f0 	mov.w	r2, #480	; 0x1e0
 8000380:	4629      	mov	r1, r5
 8000382:	6173      	str	r3, [r6, #20]
 8000384:	a87a      	add	r0, sp, #488	; 0x1e8
 8000386:	f003 fdcb 	bl	8003f20 <memcpy>
 800038a:	4631      	mov	r1, r6
 800038c:	4650      	mov	r0, sl
 800038e:	6933      	ldr	r3, [r6, #16]
 8000390:	aa7a      	add	r2, sp, #488	; 0x1e8
 8000392:	4798      	blx	r3
 8000394:	9c88      	ldr	r4, [sp, #544]	; 0x220
 8000396:	4682      	mov	sl, r0
 8000398:	646c      	str	r4, [r5, #68]	; 0x44
 800039a:	4633      	mov	r3, r6
 800039c:	4632      	mov	r2, r6
 800039e:	4649      	mov	r1, r9
 80003a0:	2001      	movs	r0, #1
 80003a2:	e9cd 5800 	strd	r5, r8, [sp]
 80003a6:	47b8      	blx	r7
 80003a8:	4604      	mov	r4, r0
 80003aa:	b9f0      	cbnz	r0, 80003ea <unwind_phase2_forced+0xb6>
 80003ac:	f44f 72f0 	mov.w	r2, #480	; 0x1e0
 80003b0:	4628      	mov	r0, r5
 80003b2:	a97a      	add	r1, sp, #488	; 0x1e8
 80003b4:	f003 fdb4 	bl	8003f20 <memcpy>
 80003b8:	f1ba 0f08 	cmp.w	sl, #8
 80003bc:	d11b      	bne.n	80003f6 <unwind_phase2_forced+0xc2>
 80003be:	4630      	mov	r0, r6
 80003c0:	6c29      	ldr	r1, [r5, #64]	; 0x40
 80003c2:	f7ff ff11 	bl	80001e8 <get_eit_entry>
 80003c6:	f104 0909 	add.w	r9, r4, #9
 80003ca:	fa5f fa89 	uxtb.w	sl, r9
 80003ce:	4604      	mov	r4, r0
 80003d0:	2800      	cmp	r0, #0
 80003d2:	d0d2      	beq.n	800037a <unwind_phase2_forced+0x46>
 80003d4:	6ba9      	ldr	r1, [r5, #56]	; 0x38
 80003d6:	4633      	mov	r3, r6
 80003d8:	6469      	str	r1, [r5, #68]	; 0x44
 80003da:	4632      	mov	r2, r6
 80003dc:	2001      	movs	r0, #1
 80003de:	e9cd 5800 	strd	r5, r8, [sp]
 80003e2:	f04a 0110 	orr.w	r1, sl, #16
 80003e6:	47b8      	blx	r7
 80003e8:	b100      	cbz	r0, 80003ec <unwind_phase2_forced+0xb8>
 80003ea:	2409      	movs	r4, #9
 80003ec:	4620      	mov	r0, r4
 80003ee:	f50d 7d72 	add.w	sp, sp, #968	; 0x3c8
 80003f2:	e8bd 87f0 	ldmia.w	sp!, {r4, r5, r6, r7, r8, r9, sl, pc}
 80003f6:	f1ba 0f07 	cmp.w	sl, #7
 80003fa:	d1f6      	bne.n	80003ea <unwind_phase2_forced+0xb6>
 80003fc:	4620      	mov	r0, r4
 80003fe:	6c29      	ldr	r1, [r5, #64]	; 0x40
 8000400:	f7ff ff76 	bl	80002f0 <_Unwind_DebugHook>
 8000404:	a803      	add	r0, sp, #12
 8000406:	f000 fb93 	bl	8000b30 <__restore_core_regs>
 800040a:	bf00      	nop

0800040c <_Unwind_GetCFA>:
 800040c:	6c40      	ldr	r0, [r0, #68]	; 0x44
 800040e:	4770      	bx	lr

08000410 <__gnu_Unwind_RaiseException>:
 8000410:	b5f0      	push	{r4, r5, r6, r7, lr}
 8000412:	f04f 37ff 	mov.w	r7, #4294967295
 8000416:	6bcb      	ldr	r3, [r1, #60]	; 0x3c
 8000418:	b0f9      	sub	sp, #484	; 0x1e4
 800041a:	640b      	str	r3, [r1, #64]	; 0x40
 800041c:	ac01      	add	r4, sp, #4
 800041e:	f101 0c04 	add.w	ip, r1, #4
 8000422:	460e      	mov	r6, r1
 8000424:	4605      	mov	r5, r0
 8000426:	e8bc 000f 	ldmia.w	ip!, {r0, r1, r2, r3}
 800042a:	c40f      	stmia	r4!, {r0, r1, r2, r3}
 800042c:	e8bc 000f 	ldmia.w	ip!, {r0, r1, r2, r3}
 8000430:	c40f      	stmia	r4!, {r0, r1, r2, r3}
 8000432:	e8bc 000f 	ldmia.w	ip!, {r0, r1, r2, r3}
 8000436:	c40f      	stmia	r4!, {r0, r1, r2, r3}
 8000438:	e89c 000f 	ldmia.w	ip, {r0, r1, r2, r3}
 800043c:	e884 000f 	stmia.w	r4, {r0, r1, r2, r3}
 8000440:	9700      	str	r7, [sp, #0]
 8000442:	e006      	b.n	8000452 <__gnu_Unwind_RaiseException+0x42>
 8000444:	466a      	mov	r2, sp
 8000446:	4629      	mov	r1, r5
 8000448:	692b      	ldr	r3, [r5, #16]
 800044a:	4798      	blx	r3
 800044c:	2808      	cmp	r0, #8
 800044e:	4604      	mov	r4, r0
 8000450:	d108      	bne.n	8000464 <__gnu_Unwind_RaiseException+0x54>
 8000452:	4628      	mov	r0, r5
 8000454:	9910      	ldr	r1, [sp, #64]	; 0x40
 8000456:	f7ff fec7 	bl	80001e8 <get_eit_entry>
 800045a:	2800      	cmp	r0, #0
 800045c:	d0f2      	beq.n	8000444 <__gnu_Unwind_RaiseException+0x34>
 800045e:	2009      	movs	r0, #9
 8000460:	b079      	add	sp, #484	; 0x1e4
 8000462:	bdf0      	pop	{r4, r5, r6, r7, pc}
 8000464:	4668      	mov	r0, sp
 8000466:	f7ff ff0f 	bl	8000288 <restore_non_core_regs>
 800046a:	2c06      	cmp	r4, #6
 800046c:	d1f7      	bne.n	800045e <__gnu_Unwind_RaiseException+0x4e>
 800046e:	4631      	mov	r1, r6
 8000470:	4628      	mov	r0, r5
 8000472:	f7ff ff3f 	bl	80002f4 <unwind_phase2>
 8000476:	bf00      	nop

08000478 <__gnu_Unwind_ForcedUnwind>:
 8000478:	b410      	push	{r4}
 800047a:	4614      	mov	r4, r2
 800047c:	6184      	str	r4, [r0, #24]
 800047e:	6bdc      	ldr	r4, [r3, #60]	; 0x3c
 8000480:	60c1      	str	r1, [r0, #12]
 8000482:	2200      	movs	r2, #0
 8000484:	641c      	str	r4, [r3, #64]	; 0x40
 8000486:	4619      	mov	r1, r3
 8000488:	bc10      	pop	{r4}
 800048a:	e753      	b.n	8000334 <unwind_phase2_forced>

0800048c <__gnu_Unwind_Resume>:
 800048c:	b570      	push	{r4, r5, r6, lr}
 800048e:	6943      	ldr	r3, [r0, #20]
 8000490:	68c6      	ldr	r6, [r0, #12]
 8000492:	640b      	str	r3, [r1, #64]	; 0x40
 8000494:	b9ae      	cbnz	r6, 80004c2 <__gnu_Unwind_Resume+0x36>
 8000496:	460a      	mov	r2, r1
 8000498:	6903      	ldr	r3, [r0, #16]
 800049a:	4604      	mov	r4, r0
 800049c:	460d      	mov	r5, r1
 800049e:	4601      	mov	r1, r0
 80004a0:	2002      	movs	r0, #2
 80004a2:	4798      	blx	r3
 80004a4:	2807      	cmp	r0, #7
 80004a6:	d005      	beq.n	80004b4 <__gnu_Unwind_Resume+0x28>
 80004a8:	2808      	cmp	r0, #8
 80004aa:	d10f      	bne.n	80004cc <__gnu_Unwind_Resume+0x40>
 80004ac:	4629      	mov	r1, r5
 80004ae:	4620      	mov	r0, r4
 80004b0:	f7ff ff20 	bl	80002f4 <unwind_phase2>
 80004b4:	4630      	mov	r0, r6
 80004b6:	6c29      	ldr	r1, [r5, #64]	; 0x40
 80004b8:	f7ff ff1a 	bl	80002f0 <_Unwind_DebugHook>
 80004bc:	1d28      	adds	r0, r5, #4
 80004be:	f000 fb37 	bl	8000b30 <__restore_core_regs>
 80004c2:	2201      	movs	r2, #1
 80004c4:	f7ff ff36 	bl	8000334 <unwind_phase2_forced>
 80004c8:	f003 fcf8 	bl	8003ebc <abort>
 80004cc:	f003 fcf6 	bl	8003ebc <abort>

080004d0 <__gnu_Unwind_Resume_or_Rethrow>:
 80004d0:	68c2      	ldr	r2, [r0, #12]
 80004d2:	b12a      	cbz	r2, 80004e0 <__gnu_Unwind_Resume_or_Rethrow+0x10>
 80004d4:	f8d1 c03c 	ldr.w	ip, [r1, #60]	; 0x3c
 80004d8:	2200      	movs	r2, #0
 80004da:	f8c1 c040 	str.w	ip, [r1, #64]	; 0x40
 80004de:	e729      	b.n	8000334 <unwind_phase2_forced>
 80004e0:	e796      	b.n	8000410 <__gnu_Unwind_RaiseException>
 80004e2:	bf00      	nop

080004e4 <_Unwind_Complete>:
 80004e4:	4770      	bx	lr
 80004e6:	bf00      	nop

080004e8 <_Unwind_DeleteException>:
 80004e8:	6883      	ldr	r3, [r0, #8]
 80004ea:	4601      	mov	r1, r0
 80004ec:	b10b      	cbz	r3, 80004f2 <_Unwind_DeleteException+0xa>
 80004ee:	2001      	movs	r0, #1
 80004f0:	4718      	bx	r3
 80004f2:	4770      	bx	lr

080004f4 <_Unwind_VRS_Get>:
 80004f4:	2901      	cmp	r1, #1
 80004f6:	d012      	beq.n	800051e <_Unwind_VRS_Get+0x2a>
 80004f8:	d809      	bhi.n	800050e <_Unwind_VRS_Get+0x1a>
 80004fa:	b973      	cbnz	r3, 800051a <_Unwind_VRS_Get+0x26>
 80004fc:	2a0f      	cmp	r2, #15
 80004fe:	d80c      	bhi.n	800051a <_Unwind_VRS_Get+0x26>
 8000500:	eb00 0082 	add.w	r0, r0, r2, lsl #2
 8000504:	6842      	ldr	r2, [r0, #4]
 8000506:	4618      	mov	r0, r3
 8000508:	9b00      	ldr	r3, [sp, #0]
 800050a:	601a      	str	r2, [r3, #0]
 800050c:	4770      	bx	lr
 800050e:	3903      	subs	r1, #3
 8000510:	2901      	cmp	r1, #1
 8000512:	bf94      	ite	ls
 8000514:	2001      	movls	r0, #1
 8000516:	2002      	movhi	r0, #2
 8000518:	4770      	bx	lr
 800051a:	2002      	movs	r0, #2
 800051c:	4770      	bx	lr
 800051e:	4608      	mov	r0, r1
 8000520:	4770      	bx	lr
 8000522:	bf00      	nop

08000524 <_Unwind_GetGR>:
 8000524:	2300      	movs	r3, #0
 8000526:	b500      	push	{lr}
 8000528:	b085      	sub	sp, #20
 800052a:	460a      	mov	r2, r1
 800052c:	a903      	add	r1, sp, #12
 800052e:	9100      	str	r1, [sp, #0]
 8000530:	4619      	mov	r1, r3
 8000532:	f7ff ffdf 	bl	80004f4 <_Unwind_VRS_Get>
 8000536:	9803      	ldr	r0, [sp, #12]
 8000538:	b005      	add	sp, #20
 800053a:	f85d fb04 	ldr.w	pc, [sp], #4
 800053e:	bf00      	nop

08000540 <_Unwind_VRS_Set>:
 8000540:	2901      	cmp	r1, #1
 8000542:	d012      	beq.n	800056a <_Unwind_VRS_Set+0x2a>
 8000544:	d809      	bhi.n	800055a <_Unwind_VRS_Set+0x1a>
 8000546:	b973      	cbnz	r3, 8000566 <_Unwind_VRS_Set+0x26>
 8000548:	2a0f      	cmp	r2, #15
 800054a:	d80c      	bhi.n	8000566 <_Unwind_VRS_Set+0x26>
 800054c:	9900      	ldr	r1, [sp, #0]
 800054e:	eb00 0282 	add.w	r2, r0, r2, lsl #2
 8000552:	6809      	ldr	r1, [r1, #0]
 8000554:	4618      	mov	r0, r3
 8000556:	6051      	str	r1, [r2, #4]
 8000558:	4770      	bx	lr
 800055a:	3903      	subs	r1, #3
 800055c:	2901      	cmp	r1, #1
 800055e:	bf94      	ite	ls
 8000560:	2001      	movls	r0, #1
 8000562:	2002      	movhi	r0, #2
 8000564:	4770      	bx	lr
 8000566:	2002      	movs	r0, #2
 8000568:	4770      	bx	lr
 800056a:	4608      	mov	r0, r1
 800056c:	4770      	bx	lr
 800056e:	bf00      	nop

08000570 <_Unwind_SetGR>:
 8000570:	2300      	movs	r3, #0
 8000572:	b510      	push	{r4, lr}
 8000574:	b084      	sub	sp, #16
 8000576:	ac03      	add	r4, sp, #12
 8000578:	9203      	str	r2, [sp, #12]
 800057a:	9400      	str	r4, [sp, #0]
 800057c:	460a      	mov	r2, r1
 800057e:	4619      	mov	r1, r3
 8000580:	f7ff ffde 	bl	8000540 <_Unwind_VRS_Set>
 8000584:	b004      	add	sp, #16
 8000586:	bd10      	pop	{r4, pc}

08000588 <__gnu_Unwind_Backtrace>:
 8000588:	b570      	push	{r4, r5, r6, lr}
 800058a:	f04f 36ff 	mov.w	r6, #4294967295
 800058e:	6bd3      	ldr	r3, [r2, #60]	; 0x3c
 8000590:	f5ad 7d0e 	sub.w	sp, sp, #568	; 0x238
 8000594:	6413      	str	r3, [r2, #64]	; 0x40
 8000596:	f10d 0e5c 	add.w	lr, sp, #92	; 0x5c
 800059a:	f102 0c04 	add.w	ip, r2, #4
 800059e:	4605      	mov	r5, r0
 80005a0:	460c      	mov	r4, r1
 80005a2:	e8bc 000f 	ldmia.w	ip!, {r0, r1, r2, r3}
 80005a6:	e8ae 000f 	stmia.w	lr!, {r0, r1, r2, r3}
 80005aa:	e8bc 000f 	ldmia.w	ip!, {r0, r1, r2, r3}
 80005ae:	e8ae 000f 	stmia.w	lr!, {r0, r1, r2, r3}
 80005b2:	e8bc 000f 	ldmia.w	ip!, {r0, r1, r2, r3}
 80005b6:	e8ae 000f 	stmia.w	lr!, {r0, r1, r2, r3}
 80005ba:	e89c 000f 	ldmia.w	ip, {r0, r1, r2, r3}
 80005be:	e88e 000f 	stmia.w	lr, {r0, r1, r2, r3}
 80005c2:	9616      	str	r6, [sp, #88]	; 0x58
 80005c4:	e012      	b.n	80005ec <__gnu_Unwind_Backtrace+0x64>
 80005c6:	210c      	movs	r1, #12
 80005c8:	a816      	add	r0, sp, #88	; 0x58
 80005ca:	466a      	mov	r2, sp
 80005cc:	f7ff ffd0 	bl	8000570 <_Unwind_SetGR>
 80005d0:	4621      	mov	r1, r4
 80005d2:	a816      	add	r0, sp, #88	; 0x58
 80005d4:	47a8      	blx	r5
 80005d6:	b978      	cbnz	r0, 80005f8 <__gnu_Unwind_Backtrace+0x70>
 80005d8:	4669      	mov	r1, sp
 80005da:	2008      	movs	r0, #8
 80005dc:	9b04      	ldr	r3, [sp, #16]
 80005de:	aa16      	add	r2, sp, #88	; 0x58
 80005e0:	4798      	blx	r3
 80005e2:	2805      	cmp	r0, #5
 80005e4:	4606      	mov	r6, r0
 80005e6:	d008      	beq.n	80005fa <__gnu_Unwind_Backtrace+0x72>
 80005e8:	2809      	cmp	r0, #9
 80005ea:	d005      	beq.n	80005f8 <__gnu_Unwind_Backtrace+0x70>
 80005ec:	4668      	mov	r0, sp
 80005ee:	9926      	ldr	r1, [sp, #152]	; 0x98
 80005f0:	f7ff fdfa 	bl	80001e8 <get_eit_entry>
 80005f4:	2800      	cmp	r0, #0
 80005f6:	d0e6      	beq.n	80005c6 <__gnu_Unwind_Backtrace+0x3e>
 80005f8:	2609      	movs	r6, #9
 80005fa:	a816      	add	r0, sp, #88	; 0x58
 80005fc:	f7ff fe44 	bl	8000288 <restore_non_core_regs>
 8000600:	4630      	mov	r0, r6
 8000602:	f50d 7d0e 	add.w	sp, sp, #568	; 0x238
 8000606:	bd70      	pop	{r4, r5, r6, pc}

08000608 <__gnu_unwind_pr_common>:
 8000608:	e92d 4ff0 	stmdb	sp!, {r4, r5, r6, r7, r8, r9, sl, fp, lr}
 800060c:	461e      	mov	r6, r3
 800060e:	6ccc      	ldr	r4, [r1, #76]	; 0x4c
 8000610:	b089      	sub	sp, #36	; 0x24
 8000612:	f854 3b04 	ldr.w	r3, [r4], #4
 8000616:	460d      	mov	r5, r1
 8000618:	4617      	mov	r7, r2
 800061a:	f000 0803 	and.w	r8, r0, #3
 800061e:	9406      	str	r4, [sp, #24]
 8000620:	2e00      	cmp	r6, #0
 8000622:	d079      	beq.n	8000718 <__gnu_unwind_pr_common+0x110>
 8000624:	2202      	movs	r2, #2
 8000626:	f88d 201c 	strb.w	r2, [sp, #28]
 800062a:	0c1a      	lsrs	r2, r3, #16
 800062c:	f88d 201d 	strb.w	r2, [sp, #29]
 8000630:	041b      	lsls	r3, r3, #16
 8000632:	b2d2      	uxtb	r2, r2
 8000634:	9305      	str	r3, [sp, #20]
 8000636:	eb04 0482 	add.w	r4, r4, r2, lsl #2
 800063a:	6d2b      	ldr	r3, [r5, #80]	; 0x50
 800063c:	f1b8 0f02 	cmp.w	r8, #2
 8000640:	bf08      	it	eq
 8000642:	6bac      	ldreq	r4, [r5, #56]	; 0x38
 8000644:	f013 0301 	ands.w	r3, r3, #1
 8000648:	d00c      	beq.n	8000664 <__gnu_unwind_pr_common+0x5c>
 800064a:	4638      	mov	r0, r7
 800064c:	a905      	add	r1, sp, #20
 800064e:	f000 fb71 	bl	8000d34 <__gnu_unwind_execute>
 8000652:	b918      	cbnz	r0, 800065c <__gnu_unwind_pr_common+0x54>
 8000654:	2008      	movs	r0, #8
 8000656:	b009      	add	sp, #36	; 0x24
 8000658:	e8bd 8ff0 	ldmia.w	sp!, {r4, r5, r6, r7, r8, r9, sl, fp, pc}
 800065c:	2009      	movs	r0, #9
 800065e:	b009      	add	sp, #36	; 0x24
 8000660:	e8bd 8ff0 	ldmia.w	sp!, {r4, r5, r6, r7, r8, r9, sl, fp, pc}
 8000664:	f8d4 a000 	ldr.w	sl, [r4]
 8000668:	f1ba 0f00 	cmp.w	sl, #0
 800066c:	d0ed      	beq.n	800064a <__gnu_unwind_pr_common+0x42>
 800066e:	9301      	str	r3, [sp, #4]
 8000670:	f000 0308 	and.w	r3, r0, #8
 8000674:	9302      	str	r3, [sp, #8]
 8000676:	2e02      	cmp	r6, #2
 8000678:	d04a      	beq.n	8000710 <__gnu_unwind_pr_common+0x108>
 800067a:	f8b4 a000 	ldrh.w	sl, [r4]
 800067e:	f8b4 9002 	ldrh.w	r9, [r4, #2]
 8000682:	3404      	adds	r4, #4
 8000684:	6caa      	ldr	r2, [r5, #72]	; 0x48
 8000686:	210f      	movs	r1, #15
 8000688:	4638      	mov	r0, r7
 800068a:	f029 0b01 	bic.w	fp, r9, #1
 800068e:	4493      	add	fp, r2
 8000690:	f7ff ff48 	bl	8000524 <_Unwind_GetGR>
 8000694:	4583      	cmp	fp, r0
 8000696:	d839      	bhi.n	800070c <__gnu_unwind_pr_common+0x104>
 8000698:	f02a 0201 	bic.w	r2, sl, #1
 800069c:	445a      	add	r2, fp
 800069e:	4282      	cmp	r2, r0
 80006a0:	bf94      	ite	ls
 80006a2:	2000      	movls	r0, #0
 80006a4:	2001      	movhi	r0, #1
 80006a6:	ea4f 0349 	mov.w	r3, r9, lsl #1
 80006aa:	f003 0302 	and.w	r3, r3, #2
 80006ae:	f00a 0a01 	and.w	sl, sl, #1
 80006b2:	ea43 030a 	orr.w	r3, r3, sl
 80006b6:	2b01      	cmp	r3, #1
 80006b8:	d049      	beq.n	800074e <__gnu_unwind_pr_common+0x146>
 80006ba:	2b02      	cmp	r3, #2
 80006bc:	d032      	beq.n	8000724 <__gnu_unwind_pr_common+0x11c>
 80006be:	2b00      	cmp	r3, #0
 80006c0:	d1cc      	bne.n	800065c <__gnu_unwind_pr_common+0x54>
 80006c2:	f1b8 0f00 	cmp.w	r8, #0
 80006c6:	d002      	beq.n	80006ce <__gnu_unwind_pr_common+0xc6>
 80006c8:	2800      	cmp	r0, #0
 80006ca:	f040 80ce 	bne.w	800086a <__gnu_unwind_pr_common+0x262>
 80006ce:	3404      	adds	r4, #4
 80006d0:	f8d4 a000 	ldr.w	sl, [r4]
 80006d4:	f1ba 0f00 	cmp.w	sl, #0
 80006d8:	d1cd      	bne.n	8000676 <__gnu_unwind_pr_common+0x6e>
 80006da:	4638      	mov	r0, r7
 80006dc:	a905      	add	r1, sp, #20
 80006de:	f000 fb29 	bl	8000d34 <__gnu_unwind_execute>
 80006e2:	2800      	cmp	r0, #0
 80006e4:	d1ba      	bne.n	800065c <__gnu_unwind_pr_common+0x54>
 80006e6:	9b01      	ldr	r3, [sp, #4]
 80006e8:	2b00      	cmp	r3, #0
 80006ea:	d0b3      	beq.n	8000654 <__gnu_unwind_pr_common+0x4c>
 80006ec:	210f      	movs	r1, #15
 80006ee:	4638      	mov	r0, r7
 80006f0:	f7ff ff18 	bl	8000524 <_Unwind_GetGR>
 80006f4:	210e      	movs	r1, #14
 80006f6:	4602      	mov	r2, r0
 80006f8:	4638      	mov	r0, r7
 80006fa:	f7ff ff39 	bl	8000570 <_Unwind_SetGR>
 80006fe:	4638      	mov	r0, r7
 8000700:	210f      	movs	r1, #15
 8000702:	4a6a      	ldr	r2, [pc, #424]	; (80008ac <__gnu_unwind_pr_common+0x2a4>)
 8000704:	f7ff ff34 	bl	8000570 <_Unwind_SetGR>
 8000708:	2007      	movs	r0, #7
 800070a:	e7a8      	b.n	800065e <__gnu_unwind_pr_common+0x56>
 800070c:	2000      	movs	r0, #0
 800070e:	e7ca      	b.n	80006a6 <__gnu_unwind_pr_common+0x9e>
 8000710:	f8d4 9004 	ldr.w	r9, [r4, #4]
 8000714:	3408      	adds	r4, #8
 8000716:	e7b5      	b.n	8000684 <__gnu_unwind_pr_common+0x7c>
 8000718:	021b      	lsls	r3, r3, #8
 800071a:	9305      	str	r3, [sp, #20]
 800071c:	2303      	movs	r3, #3
 800071e:	f8ad 301c 	strh.w	r3, [sp, #28]
 8000722:	e78a      	b.n	800063a <__gnu_unwind_pr_common+0x32>
 8000724:	6823      	ldr	r3, [r4, #0]
 8000726:	f023 4b00 	bic.w	fp, r3, #2147483648	; 0x80000000
 800072a:	f1b8 0f00 	cmp.w	r8, #0
 800072e:	d145      	bne.n	80007bc <__gnu_unwind_pr_common+0x1b4>
 8000730:	b128      	cbz	r0, 800073e <__gnu_unwind_pr_common+0x136>
 8000732:	9a02      	ldr	r2, [sp, #8]
 8000734:	2a00      	cmp	r2, #0
 8000736:	d05c      	beq.n	80007f2 <__gnu_unwind_pr_common+0x1ea>
 8000738:	f1bb 0f00 	cmp.w	fp, #0
 800073c:	d074      	beq.n	8000828 <__gnu_unwind_pr_common+0x220>
 800073e:	2b00      	cmp	r3, #0
 8000740:	da00      	bge.n	8000744 <__gnu_unwind_pr_common+0x13c>
 8000742:	3404      	adds	r4, #4
 8000744:	f10b 0b01 	add.w	fp, fp, #1
 8000748:	eb04 048b 	add.w	r4, r4, fp, lsl #2
 800074c:	e7c0      	b.n	80006d0 <__gnu_unwind_pr_common+0xc8>
 800074e:	f1b8 0f00 	cmp.w	r8, #0
 8000752:	d119      	bne.n	8000788 <__gnu_unwind_pr_common+0x180>
 8000754:	b1b0      	cbz	r0, 8000784 <__gnu_unwind_pr_common+0x17c>
 8000756:	6863      	ldr	r3, [r4, #4]
 8000758:	6822      	ldr	r2, [r4, #0]
 800075a:	1c99      	adds	r1, r3, #2
 800075c:	ea4f 72d2 	mov.w	r2, r2, lsr #31
 8000760:	f43f af7c 	beq.w	800065c <__gnu_unwind_pr_common+0x54>
 8000764:	f105 0158 	add.w	r1, r5, #88	; 0x58
 8000768:	3301      	adds	r3, #1
 800076a:	9104      	str	r1, [sp, #16]
 800076c:	f000 8091 	beq.w	8000892 <__gnu_unwind_pr_common+0x28a>
 8000770:	1d20      	adds	r0, r4, #4
 8000772:	f7ff fdb7 	bl	80002e4 <_Unwind_decode_typeinfo_ptr.constprop.0>
 8000776:	ab04      	add	r3, sp, #16
 8000778:	4601      	mov	r1, r0
 800077a:	4628      	mov	r0, r5
 800077c:	f3af 8000 	nop.w
 8000780:	2800      	cmp	r0, #0
 8000782:	d15c      	bne.n	800083e <__gnu_unwind_pr_common+0x236>
 8000784:	3408      	adds	r4, #8
 8000786:	e7a3      	b.n	80006d0 <__gnu_unwind_pr_common+0xc8>
 8000788:	210d      	movs	r1, #13
 800078a:	4638      	mov	r0, r7
 800078c:	f8d5 9020 	ldr.w	r9, [r5, #32]
 8000790:	f7ff fec8 	bl	8000524 <_Unwind_GetGR>
 8000794:	4581      	cmp	r9, r0
 8000796:	d1f5      	bne.n	8000784 <__gnu_unwind_pr_common+0x17c>
 8000798:	6aab      	ldr	r3, [r5, #40]	; 0x28
 800079a:	429c      	cmp	r4, r3
 800079c:	d1f2      	bne.n	8000784 <__gnu_unwind_pr_common+0x17c>
 800079e:	4620      	mov	r0, r4
 80007a0:	f7ff fcd4 	bl	800014c <selfrel_offset31>
 80007a4:	210f      	movs	r1, #15
 80007a6:	4602      	mov	r2, r0
 80007a8:	4638      	mov	r0, r7
 80007aa:	f7ff fee1 	bl	8000570 <_Unwind_SetGR>
 80007ae:	4638      	mov	r0, r7
 80007b0:	462a      	mov	r2, r5
 80007b2:	2100      	movs	r1, #0
 80007b4:	f7ff fedc 	bl	8000570 <_Unwind_SetGR>
 80007b8:	2007      	movs	r0, #7
 80007ba:	e750      	b.n	800065e <__gnu_unwind_pr_common+0x56>
 80007bc:	210d      	movs	r1, #13
 80007be:	4638      	mov	r0, r7
 80007c0:	f8d5 9020 	ldr.w	r9, [r5, #32]
 80007c4:	f7ff feae 	bl	8000524 <_Unwind_GetGR>
 80007c8:	4581      	cmp	r9, r0
 80007ca:	d001      	beq.n	80007d0 <__gnu_unwind_pr_common+0x1c8>
 80007cc:	6823      	ldr	r3, [r4, #0]
 80007ce:	e7b6      	b.n	800073e <__gnu_unwind_pr_common+0x136>
 80007d0:	6aab      	ldr	r3, [r5, #40]	; 0x28
 80007d2:	429c      	cmp	r4, r3
 80007d4:	d1fa      	bne.n	80007cc <__gnu_unwind_pr_common+0x1c4>
 80007d6:	2304      	movs	r3, #4
 80007d8:	2200      	movs	r2, #0
 80007da:	e9c5 230b 	strd	r2, r3, [r5, #44]	; 0x2c
 80007de:	18e3      	adds	r3, r4, r3
 80007e0:	f8c5 b028 	str.w	fp, [r5, #40]	; 0x28
 80007e4:	636b      	str	r3, [r5, #52]	; 0x34
 80007e6:	6823      	ldr	r3, [r4, #0]
 80007e8:	2b00      	cmp	r3, #0
 80007ea:	db5a      	blt.n	80008a2 <__gnu_unwind_pr_common+0x29a>
 80007ec:	2301      	movs	r3, #1
 80007ee:	9301      	str	r3, [sp, #4]
 80007f0:	e7a8      	b.n	8000744 <__gnu_unwind_pr_common+0x13c>
 80007f2:	f105 0358 	add.w	r3, r5, #88	; 0x58
 80007f6:	f8cd 800c 	str.w	r8, [sp, #12]
 80007fa:	4691      	mov	r9, r2
 80007fc:	46b0      	mov	r8, r6
 80007fe:	f104 0a04 	add.w	sl, r4, #4
 8000802:	461e      	mov	r6, r3
 8000804:	e00e      	b.n	8000824 <__gnu_unwind_pr_common+0x21c>
 8000806:	4650      	mov	r0, sl
 8000808:	9604      	str	r6, [sp, #16]
 800080a:	f7ff fd6b 	bl	80002e4 <_Unwind_decode_typeinfo_ptr.constprop.0>
 800080e:	2200      	movs	r2, #0
 8000810:	4601      	mov	r1, r0
 8000812:	ab04      	add	r3, sp, #16
 8000814:	4628      	mov	r0, r5
 8000816:	f109 0901 	add.w	r9, r9, #1
 800081a:	f10a 0a04 	add.w	sl, sl, #4
 800081e:	f3af 8000 	nop.w
 8000822:	b9e8      	cbnz	r0, 8000860 <__gnu_unwind_pr_common+0x258>
 8000824:	45d9      	cmp	r9, fp
 8000826:	d1ee      	bne.n	8000806 <__gnu_unwind_pr_common+0x1fe>
 8000828:	210d      	movs	r1, #13
 800082a:	4638      	mov	r0, r7
 800082c:	f7ff fe7a 	bl	8000524 <_Unwind_GetGR>
 8000830:	4603      	mov	r3, r0
 8000832:	9a04      	ldr	r2, [sp, #16]
 8000834:	2006      	movs	r0, #6
 8000836:	e9c5 2409 	strd	r2, r4, [r5, #36]	; 0x24
 800083a:	622b      	str	r3, [r5, #32]
 800083c:	e70f      	b.n	800065e <__gnu_unwind_pr_common+0x56>
 800083e:	4681      	mov	r9, r0
 8000840:	210d      	movs	r1, #13
 8000842:	4638      	mov	r0, r7
 8000844:	f7ff fe6e 	bl	8000524 <_Unwind_GetGR>
 8000848:	f1b9 0f02 	cmp.w	r9, #2
 800084c:	6228      	str	r0, [r5, #32]
 800084e:	d125      	bne.n	800089c <__gnu_unwind_pr_common+0x294>
 8000850:	462b      	mov	r3, r5
 8000852:	9a04      	ldr	r2, [sp, #16]
 8000854:	f843 2f2c 	str.w	r2, [r3, #44]!
 8000858:	626b      	str	r3, [r5, #36]	; 0x24
 800085a:	2006      	movs	r0, #6
 800085c:	62ac      	str	r4, [r5, #40]	; 0x28
 800085e:	e6fe      	b.n	800065e <__gnu_unwind_pr_common+0x56>
 8000860:	4646      	mov	r6, r8
 8000862:	6823      	ldr	r3, [r4, #0]
 8000864:	f8dd 800c 	ldr.w	r8, [sp, #12]
 8000868:	e769      	b.n	800073e <__gnu_unwind_pr_common+0x136>
 800086a:	4620      	mov	r0, r4
 800086c:	f7ff fc6e 	bl	800014c <selfrel_offset31>
 8000870:	4602      	mov	r2, r0
 8000872:	3404      	adds	r4, #4
 8000874:	63ac      	str	r4, [r5, #56]	; 0x38
 8000876:	4628      	mov	r0, r5
 8000878:	4614      	mov	r4, r2
 800087a:	f3af 8000 	nop.w
 800087e:	2800      	cmp	r0, #0
 8000880:	f43f aeec 	beq.w	800065c <__gnu_unwind_pr_common+0x54>
 8000884:	4638      	mov	r0, r7
 8000886:	4622      	mov	r2, r4
 8000888:	210f      	movs	r1, #15
 800088a:	f7ff fe71 	bl	8000570 <_Unwind_SetGR>
 800088e:	2007      	movs	r0, #7
 8000890:	e6e5      	b.n	800065e <__gnu_unwind_pr_common+0x56>
 8000892:	210d      	movs	r1, #13
 8000894:	4638      	mov	r0, r7
 8000896:	f7ff fe45 	bl	8000524 <_Unwind_GetGR>
 800089a:	6228      	str	r0, [r5, #32]
 800089c:	9b04      	ldr	r3, [sp, #16]
 800089e:	626b      	str	r3, [r5, #36]	; 0x24
 80008a0:	e7db      	b.n	800085a <__gnu_unwind_pr_common+0x252>
 80008a2:	f10b 0001 	add.w	r0, fp, #1
 80008a6:	eb04 0080 	add.w	r0, r4, r0, lsl #2
 80008aa:	e779      	b.n	80007a0 <__gnu_unwind_pr_common+0x198>
 80008ac:	00000000 	.word	0x00000000

080008b0 <__aeabi_unwind_cpp_pr0>:
 80008b0:	2300      	movs	r3, #0
 80008b2:	e6a9      	b.n	8000608 <__gnu_unwind_pr_common>

080008b4 <__aeabi_unwind_cpp_pr1>:
 80008b4:	2301      	movs	r3, #1
 80008b6:	e6a7      	b.n	8000608 <__gnu_unwind_pr_common>

080008b8 <__aeabi_unwind_cpp_pr2>:
 80008b8:	2302      	movs	r3, #2
 80008ba:	e6a5      	b.n	8000608 <__gnu_unwind_pr_common>

080008bc <_Unwind_VRS_Pop>:
 80008bc:	e92d 43f0 	stmdb	sp!, {r4, r5, r6, r7, r8, r9, lr}
 80008c0:	4606      	mov	r6, r0
 80008c2:	4615      	mov	r5, r2
 80008c4:	461c      	mov	r4, r3
 80008c6:	b0c3      	sub	sp, #268	; 0x10c
 80008c8:	2904      	cmp	r1, #4
 80008ca:	f200 80b8 	bhi.w	8000a3e <_Unwind_VRS_Pop+0x182>
 80008ce:	e8df f001 	tbb	[pc, r1]
 80008d2:	569c      	.short	0x569c
 80008d4:	2db6      	.short	0x2db6
 80008d6:	03          	.byte	0x03
 80008d7:	00          	.byte	0x00
 80008d8:	2c00      	cmp	r4, #0
 80008da:	f040 80b0 	bne.w	8000a3e <_Unwind_VRS_Pop+0x182>
 80008de:	2a10      	cmp	r2, #16
 80008e0:	f200 80ad 	bhi.w	8000a3e <_Unwind_VRS_Pop+0x182>
 80008e4:	6803      	ldr	r3, [r0, #0]
 80008e6:	06d8      	lsls	r0, r3, #27
 80008e8:	f100 80f1 	bmi.w	8000ace <_Unwind_VRS_Pop+0x212>
 80008ec:	af20      	add	r7, sp, #128	; 0x80
 80008ee:	4638      	mov	r0, r7
 80008f0:	f000 f990 	bl	8000c14 <__gnu_Unwind_Save_WMMXC>
 80008f4:	2401      	movs	r4, #1
 80008f6:	4638      	mov	r0, r7
 80008f8:	2300      	movs	r3, #0
 80008fa:	6bb1      	ldr	r1, [r6, #56]	; 0x38
 80008fc:	fa04 f203 	lsl.w	r2, r4, r3
 8000900:	422a      	tst	r2, r5
 8000902:	f103 0301 	add.w	r3, r3, #1
 8000906:	d005      	beq.n	8000914 <_Unwind_VRS_Pop+0x58>
 8000908:	460a      	mov	r2, r1
 800090a:	f852 cb04 	ldr.w	ip, [r2], #4
 800090e:	4611      	mov	r1, r2
 8000910:	f8c0 c000 	str.w	ip, [r0]
 8000914:	2b04      	cmp	r3, #4
 8000916:	f100 0004 	add.w	r0, r0, #4
 800091a:	d1ef      	bne.n	80008fc <_Unwind_VRS_Pop+0x40>
 800091c:	4638      	mov	r0, r7
 800091e:	63b1      	str	r1, [r6, #56]	; 0x38
 8000920:	f000 f96e 	bl	8000c00 <__gnu_Unwind_Restore_WMMXC>
 8000924:	2000      	movs	r0, #0
 8000926:	b043      	add	sp, #268	; 0x10c
 8000928:	e8bd 83f0 	ldmia.w	sp!, {r4, r5, r6, r7, r8, r9, pc}
 800092c:	2c03      	cmp	r4, #3
 800092e:	f040 8086 	bne.w	8000a3e <_Unwind_VRS_Pop+0x182>
 8000932:	b294      	uxth	r4, r2
 8000934:	eb04 4312 	add.w	r3, r4, r2, lsr #16
 8000938:	2b10      	cmp	r3, #16
 800093a:	ea4f 4512 	mov.w	r5, r2, lsr #16
 800093e:	d87e      	bhi.n	8000a3e <_Unwind_VRS_Pop+0x182>
 8000940:	6803      	ldr	r3, [r0, #0]
 8000942:	071f      	lsls	r7, r3, #28
 8000944:	f100 80cb 	bmi.w	8000ade <_Unwind_VRS_Pop+0x222>
 8000948:	af20      	add	r7, sp, #128	; 0x80
 800094a:	4638      	mov	r0, r7
 800094c:	f000 f936 	bl	8000bbc <__gnu_Unwind_Save_WMMXD>
 8000950:	6bb2      	ldr	r2, [r6, #56]	; 0x38
 8000952:	eb07 01c5 	add.w	r1, r7, r5, lsl #3
 8000956:	b154      	cbz	r4, 800096e <_Unwind_VRS_Pop+0xb2>
 8000958:	460b      	mov	r3, r1
 800095a:	eb01 01c4 	add.w	r1, r1, r4, lsl #3
 800095e:	1ad0      	subs	r0, r2, r3
 8000960:	00e4      	lsls	r4, r4, #3
 8000962:	581d      	ldr	r5, [r3, r0]
 8000964:	f843 5b04 	str.w	r5, [r3], #4
 8000968:	428b      	cmp	r3, r1
 800096a:	d1fa      	bne.n	8000962 <_Unwind_VRS_Pop+0xa6>
 800096c:	4422      	add	r2, r4
 800096e:	4638      	mov	r0, r7
 8000970:	63b2      	str	r2, [r6, #56]	; 0x38
 8000972:	f000 f901 	bl	8000b78 <__gnu_Unwind_Restore_WMMXD>
 8000976:	2000      	movs	r0, #0
 8000978:	b043      	add	sp, #268	; 0x10c
 800097a:	e8bd 83f0 	ldmia.w	sp!, {r4, r5, r6, r7, r8, r9, pc}
 800097e:	2c01      	cmp	r4, #1
 8000980:	ea4f 4812 	mov.w	r8, r2, lsr #16
 8000984:	b295      	uxth	r5, r2
 8000986:	d056      	beq.n	8000a36 <_Unwind_VRS_Pop+0x17a>
 8000988:	2c05      	cmp	r4, #5
 800098a:	d158      	bne.n	8000a3e <_Unwind_VRS_Pop+0x182>
 800098c:	eb08 0905 	add.w	r9, r8, r5
 8000990:	f1b9 0f20 	cmp.w	r9, #32
 8000994:	d853      	bhi.n	8000a3e <_Unwind_VRS_Pop+0x182>
 8000996:	f1b8 0f0f 	cmp.w	r8, #15
 800099a:	d973      	bls.n	8000a84 <_Unwind_VRS_Pop+0x1c8>
 800099c:	46a9      	mov	r9, r5
 800099e:	2d00      	cmp	r5, #0
 80009a0:	f040 8084 	bne.w	8000aac <_Unwind_VRS_Pop+0x1f0>
 80009a4:	6bb3      	ldr	r3, [r6, #56]	; 0x38
 80009a6:	b365      	cbz	r5, 8000a02 <_Unwind_VRS_Pop+0x146>
 80009a8:	af20      	add	r7, sp, #128	; 0x80
 80009aa:	f04f 0900 	mov.w	r9, #0
 80009ae:	eb07 07c8 	add.w	r7, r7, r8, lsl #3
 80009b2:	3f04      	subs	r7, #4
 80009b4:	eb03 05c5 	add.w	r5, r3, r5, lsl #3
 80009b8:	f853 1b04 	ldr.w	r1, [r3], #4
 80009bc:	42ab      	cmp	r3, r5
 80009be:	f847 1f04 	str.w	r1, [r7, #4]!
 80009c2:	d1f9      	bne.n	80009b8 <_Unwind_VRS_Pop+0xfc>
 80009c4:	f1b9 0f00 	cmp.w	r9, #0
 80009c8:	d00f      	beq.n	80009ea <_Unwind_VRS_Pop+0x12e>
 80009ca:	466f      	mov	r7, sp
 80009cc:	4641      	mov	r1, r8
 80009ce:	2910      	cmp	r1, #16
 80009d0:	bf38      	it	cc
 80009d2:	2110      	movcc	r1, #16
 80009d4:	eb07 01c1 	add.w	r1, r7, r1, lsl #3
 80009d8:	3984      	subs	r1, #132	; 0x84
 80009da:	eb03 05c9 	add.w	r5, r3, r9, lsl #3
 80009de:	f853 0b04 	ldr.w	r0, [r3], #4
 80009e2:	42ab      	cmp	r3, r5
 80009e4:	f841 0f04 	str.w	r0, [r1, #4]!
 80009e8:	d1f9      	bne.n	80009de <_Unwind_VRS_Pop+0x122>
 80009ea:	2c01      	cmp	r4, #1
 80009ec:	d07f      	beq.n	8000aee <_Unwind_VRS_Pop+0x232>
 80009ee:	f1b8 0f0f 	cmp.w	r8, #15
 80009f2:	63b5      	str	r5, [r6, #56]	; 0x38
 80009f4:	d942      	bls.n	8000a7c <_Unwind_VRS_Pop+0x1c0>
 80009f6:	f1b9 0f00 	cmp.w	r9, #0
 80009fa:	d002      	beq.n	8000a02 <_Unwind_VRS_Pop+0x146>
 80009fc:	4668      	mov	r0, sp
 80009fe:	f000 f8b3 	bl	8000b68 <__gnu_Unwind_Restore_VFP_D_16_to_31>
 8000a02:	2000      	movs	r0, #0
 8000a04:	b043      	add	sp, #268	; 0x10c
 8000a06:	e8bd 83f0 	ldmia.w	sp!, {r4, r5, r6, r7, r8, r9, pc}
 8000a0a:	b9c4      	cbnz	r4, 8000a3e <_Unwind_VRS_Pop+0x182>
 8000a0c:	4623      	mov	r3, r4
 8000a0e:	2401      	movs	r4, #1
 8000a10:	6b82      	ldr	r2, [r0, #56]	; 0x38
 8000a12:	1d37      	adds	r7, r6, #4
 8000a14:	b2a8      	uxth	r0, r5
 8000a16:	fa04 f103 	lsl.w	r1, r4, r3
 8000a1a:	4201      	tst	r1, r0
 8000a1c:	bf1c      	itt	ne
 8000a1e:	f852 1b04 	ldrne.w	r1, [r2], #4
 8000a22:	f847 1023 	strne.w	r1, [r7, r3, lsl #2]
 8000a26:	3301      	adds	r3, #1
 8000a28:	2b10      	cmp	r3, #16
 8000a2a:	d1f4      	bne.n	8000a16 <_Unwind_VRS_Pop+0x15a>
 8000a2c:	f415 5000 	ands.w	r0, r5, #8192	; 0x2000
 8000a30:	d1e7      	bne.n	8000a02 <_Unwind_VRS_Pop+0x146>
 8000a32:	63b2      	str	r2, [r6, #56]	; 0x38
 8000a34:	e004      	b.n	8000a40 <_Unwind_VRS_Pop+0x184>
 8000a36:	eb08 0305 	add.w	r3, r8, r5
 8000a3a:	2b10      	cmp	r3, #16
 8000a3c:	d903      	bls.n	8000a46 <_Unwind_VRS_Pop+0x18a>
 8000a3e:	2002      	movs	r0, #2
 8000a40:	b043      	add	sp, #268	; 0x10c
 8000a42:	e8bd 83f0 	ldmia.w	sp!, {r4, r5, r6, r7, r8, r9, pc}
 8000a46:	f1b8 0f0f 	cmp.w	r8, #15
 8000a4a:	d8f8      	bhi.n	8000a3e <_Unwind_VRS_Pop+0x182>
 8000a4c:	6833      	ldr	r3, [r6, #0]
 8000a4e:	07da      	lsls	r2, r3, #31
 8000a50:	d506      	bpl.n	8000a60 <_Unwind_VRS_Pop+0x1a4>
 8000a52:	4630      	mov	r0, r6
 8000a54:	f023 0303 	bic.w	r3, r3, #3
 8000a58:	f840 3b48 	str.w	r3, [r0], #72
 8000a5c:	f000 f878 	bl	8000b50 <__gnu_Unwind_Save_VFP>
 8000a60:	af20      	add	r7, sp, #128	; 0x80
 8000a62:	4638      	mov	r0, r7
 8000a64:	f000 f874 	bl	8000b50 <__gnu_Unwind_Save_VFP>
 8000a68:	6bb3      	ldr	r3, [r6, #56]	; 0x38
 8000a6a:	2d00      	cmp	r5, #0
 8000a6c:	d19d      	bne.n	80009aa <_Unwind_VRS_Pop+0xee>
 8000a6e:	461d      	mov	r5, r3
 8000a70:	3504      	adds	r5, #4
 8000a72:	4638      	mov	r0, r7
 8000a74:	63b5      	str	r5, [r6, #56]	; 0x38
 8000a76:	f000 f867 	bl	8000b48 <__gnu_Unwind_Restore_VFP>
 8000a7a:	e7c2      	b.n	8000a02 <_Unwind_VRS_Pop+0x146>
 8000a7c:	a820      	add	r0, sp, #128	; 0x80
 8000a7e:	f000 f86b 	bl	8000b58 <__gnu_Unwind_Restore_VFP_D>
 8000a82:	e7b8      	b.n	80009f6 <_Unwind_VRS_Pop+0x13a>
 8000a84:	f1b9 0f10 	cmp.w	r9, #16
 8000a88:	d93f      	bls.n	8000b0a <_Unwind_VRS_Pop+0x24e>
 8000a8a:	f1a9 0910 	sub.w	r9, r9, #16
 8000a8e:	6833      	ldr	r3, [r6, #0]
 8000a90:	07d9      	lsls	r1, r3, #31
 8000a92:	d508      	bpl.n	8000aa6 <_Unwind_VRS_Pop+0x1ea>
 8000a94:	4630      	mov	r0, r6
 8000a96:	f023 0301 	bic.w	r3, r3, #1
 8000a9a:	f043 0302 	orr.w	r3, r3, #2
 8000a9e:	f840 3b48 	str.w	r3, [r0], #72
 8000aa2:	f000 f85d 	bl	8000b60 <__gnu_Unwind_Save_VFP_D>
 8000aa6:	f1b9 0f00 	cmp.w	r9, #0
 8000aaa:	d031      	beq.n	8000b10 <_Unwind_VRS_Pop+0x254>
 8000aac:	6833      	ldr	r3, [r6, #0]
 8000aae:	075a      	lsls	r2, r3, #29
 8000ab0:	d41f      	bmi.n	8000af2 <_Unwind_VRS_Pop+0x236>
 8000ab2:	f1b8 0f0f 	cmp.w	r8, #15
 8000ab6:	d924      	bls.n	8000b02 <_Unwind_VRS_Pop+0x246>
 8000ab8:	466f      	mov	r7, sp
 8000aba:	f1c8 0510 	rsb	r5, r8, #16
 8000abe:	4638      	mov	r0, r7
 8000ac0:	f000 f856 	bl	8000b70 <__gnu_Unwind_Save_VFP_D_16_to_31>
 8000ac4:	2d00      	cmp	r5, #0
 8000ac6:	6bb3      	ldr	r3, [r6, #56]	; 0x38
 8000ac8:	dd80      	ble.n	80009cc <_Unwind_VRS_Pop+0x110>
 8000aca:	af20      	add	r7, sp, #128	; 0x80
 8000acc:	e76f      	b.n	80009ae <_Unwind_VRS_Pop+0xf2>
 8000ace:	f023 0310 	bic.w	r3, r3, #16
 8000ad2:	6033      	str	r3, [r6, #0]
 8000ad4:	f506 70e8 	add.w	r0, r6, #464	; 0x1d0
 8000ad8:	f000 f89c 	bl	8000c14 <__gnu_Unwind_Save_WMMXC>
 8000adc:	e706      	b.n	80008ec <_Unwind_VRS_Pop+0x30>
 8000ade:	f023 0308 	bic.w	r3, r3, #8
 8000ae2:	6003      	str	r3, [r0, #0]
 8000ae4:	f500 70a8 	add.w	r0, r0, #336	; 0x150
 8000ae8:	f000 f868 	bl	8000bbc <__gnu_Unwind_Save_WMMXD>
 8000aec:	e72c      	b.n	8000948 <_Unwind_VRS_Pop+0x8c>
 8000aee:	af20      	add	r7, sp, #128	; 0x80
 8000af0:	e7be      	b.n	8000a70 <_Unwind_VRS_Pop+0x1b4>
 8000af2:	4630      	mov	r0, r6
 8000af4:	f023 0304 	bic.w	r3, r3, #4
 8000af8:	f840 3bd0 	str.w	r3, [r0], #208
 8000afc:	f000 f838 	bl	8000b70 <__gnu_Unwind_Save_VFP_D_16_to_31>
 8000b00:	e7d7      	b.n	8000ab2 <_Unwind_VRS_Pop+0x1f6>
 8000b02:	a820      	add	r0, sp, #128	; 0x80
 8000b04:	f000 f82c 	bl	8000b60 <__gnu_Unwind_Save_VFP_D>
 8000b08:	e7d6      	b.n	8000ab8 <_Unwind_VRS_Pop+0x1fc>
 8000b0a:	f04f 0900 	mov.w	r9, #0
 8000b0e:	e7be      	b.n	8000a8e <_Unwind_VRS_Pop+0x1d2>
 8000b10:	f1b8 0f0f 	cmp.w	r8, #15
 8000b14:	f63f af46 	bhi.w	80009a4 <_Unwind_VRS_Pop+0xe8>
 8000b18:	af20      	add	r7, sp, #128	; 0x80
 8000b1a:	4638      	mov	r0, r7
 8000b1c:	f000 f820 	bl	8000b60 <__gnu_Unwind_Save_VFP_D>
 8000b20:	6bb3      	ldr	r3, [r6, #56]	; 0x38
 8000b22:	2d00      	cmp	r5, #0
 8000b24:	f47f af41 	bne.w	80009aa <_Unwind_VRS_Pop+0xee>
 8000b28:	4638      	mov	r0, r7
 8000b2a:	f000 f815 	bl	8000b58 <__gnu_Unwind_Restore_VFP_D>
 8000b2e:	e768      	b.n	8000a02 <_Unwind_VRS_Pop+0x146>

08000b30 <__restore_core_regs>:
 8000b30:	f100 0134 	add.w	r1, r0, #52	; 0x34
 8000b34:	e891 0038 	ldmia.w	r1, {r3, r4, r5}
 8000b38:	469c      	mov	ip, r3
 8000b3a:	46a6      	mov	lr, r4
 8000b3c:	f84c 5d04 	str.w	r5, [ip, #-4]!
 8000b40:	e890 0fff 	ldmia.w	r0, {r0, r1, r2, r3, r4, r5, r6, r7, r8, r9, sl, fp}
 8000b44:	46e5      	mov	sp, ip
 8000b46:	bd00      	pop	{pc}

08000b48 <__gnu_Unwind_Restore_VFP>:
 8000b48:	ec90 0b21 	fldmiax	r0, {d0-d15}	;@ Deprecated
 8000b4c:	4770      	bx	lr
 8000b4e:	bf00      	nop

08000b50 <__gnu_Unwind_Save_VFP>:
 8000b50:	ec80 0b21 	fstmiax	r0, {d0-d15}	;@ Deprecated
 8000b54:	4770      	bx	lr
 8000b56:	bf00      	nop

08000b58 <__gnu_Unwind_Restore_VFP_D>:
 8000b58:	ec90 0b20 	vldmia	r0, {d0-d15}
 8000b5c:	4770      	bx	lr
 8000b5e:	bf00      	nop

08000b60 <__gnu_Unwind_Save_VFP_D>:
 8000b60:	ec80 0b20 	vstmia	r0, {d0-d15}
 8000b64:	4770      	bx	lr
 8000b66:	bf00      	nop

08000b68 <__gnu_Unwind_Restore_VFP_D_16_to_31>:
 8000b68:	ecd0 0b20 	vldmia	r0, {d16-d31}
 8000b6c:	4770      	bx	lr
 8000b6e:	bf00      	nop

08000b70 <__gnu_Unwind_Save_VFP_D_16_to_31>:
 8000b70:	ecc0 0b20 	vstmia	r0, {d16-d31}
 8000b74:	4770      	bx	lr
 8000b76:	bf00      	nop

08000b78 <__gnu_Unwind_Restore_WMMXD>:
 8000b78:	ecf0 0102 	ldfe	f0, [r0], #8
 8000b7c:	ecf0 1102 	ldfe	f1, [r0], #8
 8000b80:	ecf0 2102 	ldfe	f2, [r0], #8
 8000b84:	ecf0 3102 	ldfe	f3, [r0], #8
 8000b88:	ecf0 4102 	ldfe	f4, [r0], #8
 8000b8c:	ecf0 5102 	ldfe	f5, [r0], #8
 8000b90:	ecf0 6102 	ldfe	f6, [r0], #8
 8000b94:	ecf0 7102 	ldfe	f7, [r0], #8
 8000b98:	ecf0 8102 	ldfp	f0, [r0], #8
 8000b9c:	ecf0 9102 	ldfp	f1, [r0], #8
 8000ba0:	ecf0 a102 	ldfp	f2, [r0], #8
 8000ba4:	ecf0 b102 	ldfp	f3, [r0], #8
 8000ba8:	ecf0 c102 	ldfp	f4, [r0], #8
 8000bac:	ecf0 d102 	ldfp	f5, [r0], #8
 8000bb0:	ecf0 e102 	ldfp	f6, [r0], #8
 8000bb4:	ecf0 f102 	ldfp	f7, [r0], #8
 8000bb8:	4770      	bx	lr
 8000bba:	bf00      	nop

08000bbc <__gnu_Unwind_Save_WMMXD>:
 8000bbc:	ece0 0102 	stfe	f0, [r0], #8
 8000bc0:	ece0 1102 	stfe	f1, [r0], #8
 8000bc4:	ece0 2102 	stfe	f2, [r0], #8
 8000bc8:	ece0 3102 	stfe	f3, [r0], #8
 8000bcc:	ece0 4102 	stfe	f4, [r0], #8
 8000bd0:	ece0 5102 	stfe	f5, [r0], #8
 8000bd4:	ece0 6102 	stfe	f6, [r0], #8
 8000bd8:	ece0 7102 	stfe	f7, [r0], #8
 8000bdc:	ece0 8102 	stfp	f0, [r0], #8
 8000be0:	ece0 9102 	stfp	f1, [r0], #8
 8000be4:	ece0 a102 	stfp	f2, [r0], #8
 8000be8:	ece0 b102 	stfp	f3, [r0], #8
 8000bec:	ece0 c102 	stfp	f4, [r0], #8
 8000bf0:	ece0 d102 	stfp	f5, [r0], #8
 8000bf4:	ece0 e102 	stfp	f6, [r0], #8
 8000bf8:	ece0 f102 	stfp	f7, [r0], #8
 8000bfc:	4770      	bx	lr
 8000bfe:	bf00      	nop

08000c00 <__gnu_Unwind_Restore_WMMXC>:
 8000c00:	fcb0 8101 	ldc2	1, cr8, [r0], #4
 8000c04:	fcb0 9101 	ldc2	1, cr9, [r0], #4
 8000c08:	fcb0 a101 	ldc2	1, cr10, [r0], #4
 8000c0c:	fcb0 b101 	ldc2	1, cr11, [r0], #4
 8000c10:	4770      	bx	lr
 8000c12:	bf00      	nop

08000c14 <__gnu_Unwind_Save_WMMXC>:
 8000c14:	fca0 8101 	stc2	1, cr8, [r0], #4
 8000c18:	fca0 9101 	stc2	1, cr9, [r0], #4
 8000c1c:	fca0 a101 	stc2	1, cr10, [r0], #4
 8000c20:	fca0 b101 	stc2	1, cr11, [r0], #4
 8000c24:	4770      	bx	lr
 8000c26:	bf00      	nop

08000c28 <_Unwind_RaiseException>:
 8000c28:	46ec      	mov	ip, sp
 8000c2a:	b500      	push	{lr}
 8000c2c:	e92d 5000 	stmdb	sp!, {ip, lr}
 8000c30:	e92d 1fff 	stmdb	sp!, {r0, r1, r2, r3, r4, r5, r6, r7, r8, r9, sl, fp, ip}
 8000c34:	f04f 0300 	mov.w	r3, #0
 8000c38:	e92d 000c 	stmdb	sp!, {r2, r3}
 8000c3c:	a901      	add	r1, sp, #4
 8000c3e:	f7ff fbe7 	bl	8000410 <__gnu_Unwind_RaiseException>
 8000c42:	f8dd e040 	ldr.w	lr, [sp, #64]	; 0x40
 8000c46:	b012      	add	sp, #72	; 0x48
 8000c48:	4770      	bx	lr
 8000c4a:	bf00      	nop

08000c4c <_Unwind_Resume>:
 8000c4c:	46ec      	mov	ip, sp
 8000c4e:	b500      	push	{lr}
 8000c50:	e92d 5000 	stmdb	sp!, {ip, lr}
 8000c54:	e92d 1fff 	stmdb	sp!, {r0, r1, r2, r3, r4, r5, r6, r7, r8, r9, sl, fp, ip}
 8000c58:	f04f 0300 	mov.w	r3, #0
 8000c5c:	e92d 000c 	stmdb	sp!, {r2, r3}
 8000c60:	a901      	add	r1, sp, #4
 8000c62:	f7ff fc13 	bl	800048c <__gnu_Unwind_Resume>
 8000c66:	f8dd e040 	ldr.w	lr, [sp, #64]	; 0x40
 8000c6a:	b012      	add	sp, #72	; 0x48
 8000c6c:	4770      	bx	lr
 8000c6e:	bf00      	nop

08000c70 <_Unwind_Resume_or_Rethrow>:
 8000c70:	46ec      	mov	ip, sp
 8000c72:	b500      	push	{lr}
 8000c74:	e92d 5000 	stmdb	sp!, {ip, lr}
 8000c78:	e92d 1fff 	stmdb	sp!, {r0, r1, r2, r3, r4, r5, r6, r7, r8, r9, sl, fp, ip}
 8000c7c:	f04f 0300 	mov.w	r3, #0
 8000c80:	e92d 000c 	stmdb	sp!, {r2, r3}
 8000c84:	a901      	add	r1, sp, #4
 8000c86:	f7ff fc23 	bl	80004d0 <__gnu_Unwind_Resume_or_Rethrow>
 8000c8a:	f8dd e040 	ldr.w	lr, [sp, #64]	; 0x40
 8000c8e:	b012      	add	sp, #72	; 0x48
 8000c90:	4770      	bx	lr
 8000c92:	bf00      	nop

08000c94 <_Unwind_ForcedUnwind>:
 8000c94:	46ec      	mov	ip, sp
 8000c96:	b500      	push	{lr}
 8000c98:	e92d 5000 	stmdb	sp!, {ip, lr}
 8000c9c:	e92d 1fff 	stmdb	sp!, {r0, r1, r2, r3, r4, r5, r6, r7, r8, r9, sl, fp, ip}
 8000ca0:	f04f 0300 	mov.w	r3, #0
 8000ca4:	e92d 000c 	stmdb	sp!, {r2, r3}
 8000ca8:	ab01      	add	r3, sp, #4
 8000caa:	f7ff fbe5 	bl	8000478 <__gnu_Unwind_ForcedUnwind>
 8000cae:	f8dd e040 	ldr.w	lr, [sp, #64]	; 0x40
 8000cb2:	b012      	add	sp, #72	; 0x48
 8000cb4:	4770      	bx	lr
 8000cb6:	bf00      	nop

08000cb8 <_Unwind_Backtrace>:
 8000cb8:	46ec      	mov	ip, sp
 8000cba:	b500      	push	{lr}
 8000cbc:	e92d 5000 	stmdb	sp!, {ip, lr}
 8000cc0:	e92d 1fff 	stmdb	sp!, {r0, r1, r2, r3, r4, r5, r6, r7, r8, r9, sl, fp, ip}
 8000cc4:	f04f 0300 	mov.w	r3, #0
 8000cc8:	e92d 000c 	stmdb	sp!, {r2, r3}
 8000ccc:	aa01      	add	r2, sp, #4
 8000cce:	f7ff fc5b 	bl	8000588 <__gnu_Unwind_Backtrace>
 8000cd2:	f8dd e040 	ldr.w	lr, [sp, #64]	; 0x40
 8000cd6:	b012      	add	sp, #72	; 0x48
 8000cd8:	4770      	bx	lr
 8000cda:	bf00      	nop

08000cdc <next_unwind_byte>:
 8000cdc:	7a02      	ldrb	r2, [r0, #8]
 8000cde:	4603      	mov	r3, r0
 8000ce0:	b97a      	cbnz	r2, 8000d02 <next_unwind_byte+0x26>
 8000ce2:	7a42      	ldrb	r2, [r0, #9]
 8000ce4:	b1a2      	cbz	r2, 8000d10 <next_unwind_byte+0x34>
 8000ce6:	f04f 0c03 	mov.w	ip, #3
 8000cea:	6841      	ldr	r1, [r0, #4]
 8000cec:	3a01      	subs	r2, #1
 8000cee:	7242      	strb	r2, [r0, #9]
 8000cf0:	6808      	ldr	r0, [r1, #0]
 8000cf2:	1d0a      	adds	r2, r1, #4
 8000cf4:	605a      	str	r2, [r3, #4]
 8000cf6:	0202      	lsls	r2, r0, #8
 8000cf8:	f883 c008 	strb.w	ip, [r3, #8]
 8000cfc:	0e00      	lsrs	r0, r0, #24
 8000cfe:	601a      	str	r2, [r3, #0]
 8000d00:	4770      	bx	lr
 8000d02:	6800      	ldr	r0, [r0, #0]
 8000d04:	3a01      	subs	r2, #1
 8000d06:	721a      	strb	r2, [r3, #8]
 8000d08:	0202      	lsls	r2, r0, #8
 8000d0a:	601a      	str	r2, [r3, #0]
 8000d0c:	0e00      	lsrs	r0, r0, #24
 8000d0e:	4770      	bx	lr
 8000d10:	20b0      	movs	r0, #176	; 0xb0
 8000d12:	4770      	bx	lr

08000d14 <_Unwind_GetGR.constprop.0>:
 8000d14:	2300      	movs	r3, #0
 8000d16:	b500      	push	{lr}
 8000d18:	b085      	sub	sp, #20
 8000d1a:	a903      	add	r1, sp, #12
 8000d1c:	9100      	str	r1, [sp, #0]
 8000d1e:	220c      	movs	r2, #12
 8000d20:	4619      	mov	r1, r3
 8000d22:	f7ff fbe7 	bl	80004f4 <_Unwind_VRS_Get>
 8000d26:	9803      	ldr	r0, [sp, #12]
 8000d28:	b005      	add	sp, #20
 8000d2a:	f85d fb04 	ldr.w	pc, [sp], #4
 8000d2e:	bf00      	nop

08000d30 <unwind_UCB_from_context>:
 8000d30:	e7f0      	b.n	8000d14 <_Unwind_GetGR.constprop.0>
 8000d32:	bf00      	nop

08000d34 <__gnu_unwind_execute>:
 8000d34:	e92d 43f0 	stmdb	sp!, {r4, r5, r6, r7, r8, r9, lr}
 8000d38:	f04f 0800 	mov.w	r8, #0
 8000d3c:	4605      	mov	r5, r0
 8000d3e:	460e      	mov	r6, r1
 8000d40:	b085      	sub	sp, #20
 8000d42:	4630      	mov	r0, r6
 8000d44:	f7ff ffca 	bl	8000cdc <next_unwind_byte>
 8000d48:	28b0      	cmp	r0, #176	; 0xb0
 8000d4a:	4604      	mov	r4, r0
 8000d4c:	f000 80ba 	beq.w	8000ec4 <__gnu_unwind_execute+0x190>
 8000d50:	0607      	lsls	r7, r0, #24
 8000d52:	d520      	bpl.n	8000d96 <__gnu_unwind_execute+0x62>
 8000d54:	f000 03f0 	and.w	r3, r0, #240	; 0xf0
 8000d58:	2b80      	cmp	r3, #128	; 0x80
 8000d5a:	d04d      	beq.n	8000df8 <__gnu_unwind_execute+0xc4>
 8000d5c:	2b90      	cmp	r3, #144	; 0x90
 8000d5e:	d036      	beq.n	8000dce <__gnu_unwind_execute+0x9a>
 8000d60:	2ba0      	cmp	r3, #160	; 0xa0
 8000d62:	d060      	beq.n	8000e26 <__gnu_unwind_execute+0xf2>
 8000d64:	2bb0      	cmp	r3, #176	; 0xb0
 8000d66:	d073      	beq.n	8000e50 <__gnu_unwind_execute+0x11c>
 8000d68:	2bc0      	cmp	r3, #192	; 0xc0
 8000d6a:	f000 808a 	beq.w	8000e82 <__gnu_unwind_execute+0x14e>
 8000d6e:	f000 03f8 	and.w	r3, r0, #248	; 0xf8
 8000d72:	2bd0      	cmp	r3, #208	; 0xd0
 8000d74:	d10b      	bne.n	8000d8e <__gnu_unwind_execute+0x5a>
 8000d76:	f000 0207 	and.w	r2, r0, #7
 8000d7a:	3201      	adds	r2, #1
 8000d7c:	2305      	movs	r3, #5
 8000d7e:	2101      	movs	r1, #1
 8000d80:	4628      	mov	r0, r5
 8000d82:	f442 2200 	orr.w	r2, r2, #524288	; 0x80000
 8000d86:	f7ff fd99 	bl	80008bc <_Unwind_VRS_Pop>
 8000d8a:	2800      	cmp	r0, #0
 8000d8c:	d0d9      	beq.n	8000d42 <__gnu_unwind_execute+0xe>
 8000d8e:	2009      	movs	r0, #9
 8000d90:	b005      	add	sp, #20
 8000d92:	e8bd 83f0 	ldmia.w	sp!, {r4, r5, r6, r7, r8, r9, pc}
 8000d96:	0083      	lsls	r3, r0, #2
 8000d98:	b2db      	uxtb	r3, r3
 8000d9a:	1d1f      	adds	r7, r3, #4
 8000d9c:	2300      	movs	r3, #0
 8000d9e:	f10d 090c 	add.w	r9, sp, #12
 8000da2:	4619      	mov	r1, r3
 8000da4:	220d      	movs	r2, #13
 8000da6:	4628      	mov	r0, r5
 8000da8:	f8cd 9000 	str.w	r9, [sp]
 8000dac:	f7ff fba2 	bl	80004f4 <_Unwind_VRS_Get>
 8000db0:	9b03      	ldr	r3, [sp, #12]
 8000db2:	0660      	lsls	r0, r4, #25
 8000db4:	bf4c      	ite	mi
 8000db6:	1bdf      	submi	r7, r3, r7
 8000db8:	18ff      	addpl	r7, r7, r3
 8000dba:	2300      	movs	r3, #0
 8000dbc:	220d      	movs	r2, #13
 8000dbe:	4628      	mov	r0, r5
 8000dc0:	4619      	mov	r1, r3
 8000dc2:	f8cd 9000 	str.w	r9, [sp]
 8000dc6:	9703      	str	r7, [sp, #12]
 8000dc8:	f7ff fbba 	bl	8000540 <_Unwind_VRS_Set>
 8000dcc:	e7b9      	b.n	8000d42 <__gnu_unwind_execute+0xe>
 8000dce:	f000 030d 	and.w	r3, r0, #13
 8000dd2:	2b0d      	cmp	r3, #13
 8000dd4:	d0db      	beq.n	8000d8e <__gnu_unwind_execute+0x5a>
 8000dd6:	2300      	movs	r3, #0
 8000dd8:	af03      	add	r7, sp, #12
 8000dda:	4619      	mov	r1, r3
 8000ddc:	f000 020f 	and.w	r2, r0, #15
 8000de0:	9700      	str	r7, [sp, #0]
 8000de2:	4628      	mov	r0, r5
 8000de4:	f7ff fb86 	bl	80004f4 <_Unwind_VRS_Get>
 8000de8:	2300      	movs	r3, #0
 8000dea:	220d      	movs	r2, #13
 8000dec:	4628      	mov	r0, r5
 8000dee:	4619      	mov	r1, r3
 8000df0:	9700      	str	r7, [sp, #0]
 8000df2:	f7ff fba5 	bl	8000540 <_Unwind_VRS_Set>
 8000df6:	e7a4      	b.n	8000d42 <__gnu_unwind_execute+0xe>
 8000df8:	4630      	mov	r0, r6
 8000dfa:	f7ff ff6f 	bl	8000cdc <next_unwind_byte>
 8000dfe:	0224      	lsls	r4, r4, #8
 8000e00:	4320      	orrs	r0, r4
 8000e02:	f5b0 4f00 	cmp.w	r0, #32768	; 0x8000
 8000e06:	d0c2      	beq.n	8000d8e <__gnu_unwind_execute+0x5a>
 8000e08:	2300      	movs	r3, #0
 8000e0a:	0104      	lsls	r4, r0, #4
 8000e0c:	4619      	mov	r1, r3
 8000e0e:	4628      	mov	r0, r5
 8000e10:	b2a2      	uxth	r2, r4
 8000e12:	f7ff fd53 	bl	80008bc <_Unwind_VRS_Pop>
 8000e16:	2800      	cmp	r0, #0
 8000e18:	d1b9      	bne.n	8000d8e <__gnu_unwind_execute+0x5a>
 8000e1a:	f414 4f00 	tst.w	r4, #32768	; 0x8000
 8000e1e:	bf18      	it	ne
 8000e20:	f04f 0801 	movne.w	r8, #1
 8000e24:	e78d      	b.n	8000d42 <__gnu_unwind_execute+0xe>
 8000e26:	43c3      	mvns	r3, r0
 8000e28:	f44f 627f 	mov.w	r2, #4080	; 0xff0
 8000e2c:	f003 0307 	and.w	r3, r3, #7
 8000e30:	411a      	asrs	r2, r3
 8000e32:	2300      	movs	r3, #0
 8000e34:	0701      	lsls	r1, r0, #28
 8000e36:	f402 627f 	and.w	r2, r2, #4080	; 0xff0
 8000e3a:	bf48      	it	mi
 8000e3c:	f442 4280 	orrmi.w	r2, r2, #16384	; 0x4000
 8000e40:	4628      	mov	r0, r5
 8000e42:	4619      	mov	r1, r3
 8000e44:	f7ff fd3a 	bl	80008bc <_Unwind_VRS_Pop>
 8000e48:	2800      	cmp	r0, #0
 8000e4a:	f43f af7a 	beq.w	8000d42 <__gnu_unwind_execute+0xe>
 8000e4e:	e79e      	b.n	8000d8e <__gnu_unwind_execute+0x5a>
 8000e50:	28b1      	cmp	r0, #177	; 0xb1
 8000e52:	d03c      	beq.n	8000ece <__gnu_unwind_execute+0x19a>
 8000e54:	28b2      	cmp	r0, #178	; 0xb2
 8000e56:	f000 80b0 	beq.w	8000fba <__gnu_unwind_execute+0x286>
 8000e5a:	28b3      	cmp	r0, #179	; 0xb3
 8000e5c:	d04a      	beq.n	8000ef4 <__gnu_unwind_execute+0x1c0>
 8000e5e:	f000 03fc 	and.w	r3, r0, #252	; 0xfc
 8000e62:	2bb4      	cmp	r3, #180	; 0xb4
 8000e64:	d093      	beq.n	8000d8e <__gnu_unwind_execute+0x5a>
 8000e66:	2301      	movs	r3, #1
 8000e68:	f000 0207 	and.w	r2, r0, #7
 8000e6c:	441a      	add	r2, r3
 8000e6e:	4628      	mov	r0, r5
 8000e70:	4619      	mov	r1, r3
 8000e72:	f442 2200 	orr.w	r2, r2, #524288	; 0x80000
 8000e76:	f7ff fd21 	bl	80008bc <_Unwind_VRS_Pop>
 8000e7a:	2800      	cmp	r0, #0
 8000e7c:	f43f af61 	beq.w	8000d42 <__gnu_unwind_execute+0xe>
 8000e80:	e785      	b.n	8000d8e <__gnu_unwind_execute+0x5a>
 8000e82:	28c6      	cmp	r0, #198	; 0xc6
 8000e84:	d04f      	beq.n	8000f26 <__gnu_unwind_execute+0x1f2>
 8000e86:	28c7      	cmp	r0, #199	; 0xc7
 8000e88:	d061      	beq.n	8000f4e <__gnu_unwind_execute+0x21a>
 8000e8a:	f000 03f8 	and.w	r3, r0, #248	; 0xf8
 8000e8e:	2bc0      	cmp	r3, #192	; 0xc0
 8000e90:	d070      	beq.n	8000f74 <__gnu_unwind_execute+0x240>
 8000e92:	28c8      	cmp	r0, #200	; 0xc8
 8000e94:	d07c      	beq.n	8000f90 <__gnu_unwind_execute+0x25c>
 8000e96:	28c9      	cmp	r0, #201	; 0xc9
 8000e98:	f47f af79 	bne.w	8000d8e <__gnu_unwind_execute+0x5a>
 8000e9c:	4630      	mov	r0, r6
 8000e9e:	f7ff ff1d 	bl	8000cdc <next_unwind_byte>
 8000ea2:	2305      	movs	r3, #5
 8000ea4:	4602      	mov	r2, r0
 8000ea6:	2101      	movs	r1, #1
 8000ea8:	4628      	mov	r0, r5
 8000eaa:	0314      	lsls	r4, r2, #12
 8000eac:	f002 020f 	and.w	r2, r2, #15
 8000eb0:	f404 2470 	and.w	r4, r4, #983040	; 0xf0000
 8000eb4:	440a      	add	r2, r1
 8000eb6:	4322      	orrs	r2, r4
 8000eb8:	f7ff fd00 	bl	80008bc <_Unwind_VRS_Pop>
 8000ebc:	2800      	cmp	r0, #0
 8000ebe:	f43f af40 	beq.w	8000d42 <__gnu_unwind_execute+0xe>
 8000ec2:	e764      	b.n	8000d8e <__gnu_unwind_execute+0x5a>
 8000ec4:	f1b8 0f00 	cmp.w	r8, #0
 8000ec8:	d01c      	beq.n	8000f04 <__gnu_unwind_execute+0x1d0>
 8000eca:	2000      	movs	r0, #0
 8000ecc:	e760      	b.n	8000d90 <__gnu_unwind_execute+0x5c>
 8000ece:	4630      	mov	r0, r6
 8000ed0:	f7ff ff04 	bl	8000cdc <next_unwind_byte>
 8000ed4:	4602      	mov	r2, r0
 8000ed6:	2800      	cmp	r0, #0
 8000ed8:	f43f af59 	beq.w	8000d8e <__gnu_unwind_execute+0x5a>
 8000edc:	f010 03f0 	ands.w	r3, r0, #240	; 0xf0
 8000ee0:	f47f af55 	bne.w	8000d8e <__gnu_unwind_execute+0x5a>
 8000ee4:	4619      	mov	r1, r3
 8000ee6:	4628      	mov	r0, r5
 8000ee8:	f7ff fce8 	bl	80008bc <_Unwind_VRS_Pop>
 8000eec:	2800      	cmp	r0, #0
 8000eee:	f43f af28 	beq.w	8000d42 <__gnu_unwind_execute+0xe>
 8000ef2:	e74c      	b.n	8000d8e <__gnu_unwind_execute+0x5a>
 8000ef4:	4630      	mov	r0, r6
 8000ef6:	f7ff fef1 	bl	8000cdc <next_unwind_byte>
 8000efa:	2301      	movs	r3, #1
 8000efc:	4602      	mov	r2, r0
 8000efe:	4619      	mov	r1, r3
 8000f00:	4628      	mov	r0, r5
 8000f02:	e7d2      	b.n	8000eaa <__gnu_unwind_execute+0x176>
 8000f04:	ac03      	add	r4, sp, #12
 8000f06:	4643      	mov	r3, r8
 8000f08:	220e      	movs	r2, #14
 8000f0a:	4641      	mov	r1, r8
 8000f0c:	4628      	mov	r0, r5
 8000f0e:	9400      	str	r4, [sp, #0]
 8000f10:	f7ff faf0 	bl	80004f4 <_Unwind_VRS_Get>
 8000f14:	4643      	mov	r3, r8
 8000f16:	220f      	movs	r2, #15
 8000f18:	4628      	mov	r0, r5
 8000f1a:	4641      	mov	r1, r8
 8000f1c:	9400      	str	r4, [sp, #0]
 8000f1e:	f7ff fb0f 	bl	8000540 <_Unwind_VRS_Set>
 8000f22:	4640      	mov	r0, r8
 8000f24:	e734      	b.n	8000d90 <__gnu_unwind_execute+0x5c>
 8000f26:	4630      	mov	r0, r6
 8000f28:	f7ff fed8 	bl	8000cdc <next_unwind_byte>
 8000f2c:	4602      	mov	r2, r0
 8000f2e:	2303      	movs	r3, #3
 8000f30:	0314      	lsls	r4, r2, #12
 8000f32:	f002 020f 	and.w	r2, r2, #15
 8000f36:	f404 2470 	and.w	r4, r4, #983040	; 0xf0000
 8000f3a:	3201      	adds	r2, #1
 8000f3c:	4628      	mov	r0, r5
 8000f3e:	4619      	mov	r1, r3
 8000f40:	4322      	orrs	r2, r4
 8000f42:	f7ff fcbb 	bl	80008bc <_Unwind_VRS_Pop>
 8000f46:	2800      	cmp	r0, #0
 8000f48:	f43f aefb 	beq.w	8000d42 <__gnu_unwind_execute+0xe>
 8000f4c:	e71f      	b.n	8000d8e <__gnu_unwind_execute+0x5a>
 8000f4e:	4630      	mov	r0, r6
 8000f50:	f7ff fec4 	bl	8000cdc <next_unwind_byte>
 8000f54:	4602      	mov	r2, r0
 8000f56:	2800      	cmp	r0, #0
 8000f58:	f43f af19 	beq.w	8000d8e <__gnu_unwind_execute+0x5a>
 8000f5c:	f010 03f0 	ands.w	r3, r0, #240	; 0xf0
 8000f60:	f47f af15 	bne.w	8000d8e <__gnu_unwind_execute+0x5a>
 8000f64:	2104      	movs	r1, #4
 8000f66:	4628      	mov	r0, r5
 8000f68:	f7ff fca8 	bl	80008bc <_Unwind_VRS_Pop>
 8000f6c:	2800      	cmp	r0, #0
 8000f6e:	f43f aee8 	beq.w	8000d42 <__gnu_unwind_execute+0xe>
 8000f72:	e70c      	b.n	8000d8e <__gnu_unwind_execute+0x5a>
 8000f74:	2303      	movs	r3, #3
 8000f76:	f000 020f 	and.w	r2, r0, #15
 8000f7a:	3201      	adds	r2, #1
 8000f7c:	4628      	mov	r0, r5
 8000f7e:	4619      	mov	r1, r3
 8000f80:	f442 2220 	orr.w	r2, r2, #655360	; 0xa0000
 8000f84:	f7ff fc9a 	bl	80008bc <_Unwind_VRS_Pop>
 8000f88:	2800      	cmp	r0, #0
 8000f8a:	f43f aeda 	beq.w	8000d42 <__gnu_unwind_execute+0xe>
 8000f8e:	e6fe      	b.n	8000d8e <__gnu_unwind_execute+0x5a>
 8000f90:	4630      	mov	r0, r6
 8000f92:	f7ff fea3 	bl	8000cdc <next_unwind_byte>
 8000f96:	4602      	mov	r2, r0
 8000f98:	2101      	movs	r1, #1
 8000f9a:	f002 04f0 	and.w	r4, r2, #240	; 0xf0
 8000f9e:	f002 020f 	and.w	r2, r2, #15
 8000fa2:	3410      	adds	r4, #16
 8000fa4:	440a      	add	r2, r1
 8000fa6:	2305      	movs	r3, #5
 8000fa8:	4628      	mov	r0, r5
 8000faa:	ea42 3204 	orr.w	r2, r2, r4, lsl #12
 8000fae:	f7ff fc85 	bl	80008bc <_Unwind_VRS_Pop>
 8000fb2:	2800      	cmp	r0, #0
 8000fb4:	f43f aec5 	beq.w	8000d42 <__gnu_unwind_execute+0xe>
 8000fb8:	e6e9      	b.n	8000d8e <__gnu_unwind_execute+0x5a>
 8000fba:	2300      	movs	r3, #0
 8000fbc:	f10d 090c 	add.w	r9, sp, #12
 8000fc0:	220d      	movs	r2, #13
 8000fc2:	4619      	mov	r1, r3
 8000fc4:	4628      	mov	r0, r5
 8000fc6:	f8cd 9000 	str.w	r9, [sp]
 8000fca:	f7ff fa93 	bl	80004f4 <_Unwind_VRS_Get>
 8000fce:	4630      	mov	r0, r6
 8000fd0:	f7ff fe84 	bl	8000cdc <next_unwind_byte>
 8000fd4:	0602      	lsls	r2, r0, #24
 8000fd6:	f04f 0402 	mov.w	r4, #2
 8000fda:	d50c      	bpl.n	8000ff6 <__gnu_unwind_execute+0x2c2>
 8000fdc:	9b03      	ldr	r3, [sp, #12]
 8000fde:	f000 007f 	and.w	r0, r0, #127	; 0x7f
 8000fe2:	40a0      	lsls	r0, r4
 8000fe4:	4418      	add	r0, r3
 8000fe6:	9003      	str	r0, [sp, #12]
 8000fe8:	4630      	mov	r0, r6
 8000fea:	f7ff fe77 	bl	8000cdc <next_unwind_byte>
 8000fee:	0603      	lsls	r3, r0, #24
 8000ff0:	f104 0407 	add.w	r4, r4, #7
 8000ff4:	d4f2      	bmi.n	8000fdc <__gnu_unwind_execute+0x2a8>
 8000ff6:	9b03      	ldr	r3, [sp, #12]
 8000ff8:	f000 027f 	and.w	r2, r0, #127	; 0x7f
 8000ffc:	40a2      	lsls	r2, r4
 8000ffe:	f503 7301 	add.w	r3, r3, #516	; 0x204
 8001002:	441a      	add	r2, r3
 8001004:	2300      	movs	r3, #0
 8001006:	9203      	str	r2, [sp, #12]
 8001008:	4628      	mov	r0, r5
 800100a:	220d      	movs	r2, #13
 800100c:	4619      	mov	r1, r3
 800100e:	f8cd 9000 	str.w	r9, [sp]
 8001012:	f7ff fa95 	bl	8000540 <_Unwind_VRS_Set>
 8001016:	e694      	b.n	8000d42 <__gnu_unwind_execute+0xe>

08001018 <__gnu_unwind_frame>:
 8001018:	460b      	mov	r3, r1
 800101a:	f04f 0c03 	mov.w	ip, #3
 800101e:	b500      	push	{lr}
 8001020:	6cc2      	ldr	r2, [r0, #76]	; 0x4c
 8001022:	4618      	mov	r0, r3
 8001024:	6853      	ldr	r3, [r2, #4]
 8001026:	b085      	sub	sp, #20
 8001028:	3208      	adds	r2, #8
 800102a:	9202      	str	r2, [sp, #8]
 800102c:	a901      	add	r1, sp, #4
 800102e:	0e1a      	lsrs	r2, r3, #24
 8001030:	021b      	lsls	r3, r3, #8
 8001032:	f88d c00c 	strb.w	ip, [sp, #12]
 8001036:	9301      	str	r3, [sp, #4]
 8001038:	f88d 200d 	strb.w	r2, [sp, #13]
 800103c:	f7ff fe7a 	bl	8000d34 <__gnu_unwind_execute>
 8001040:	b005      	add	sp, #20
 8001042:	f85d fb04 	ldr.w	pc, [sp], #4
 8001046:	bf00      	nop

08001048 <_Unwind_GetRegionStart>:
 8001048:	b508      	push	{r3, lr}
 800104a:	f7ff fe71 	bl	8000d30 <unwind_UCB_from_context>
 800104e:	6c80      	ldr	r0, [r0, #72]	; 0x48
 8001050:	bd08      	pop	{r3, pc}
 8001052:	bf00      	nop

08001054 <_Unwind_GetLanguageSpecificData>:
 8001054:	b508      	push	{r3, lr}
 8001056:	f7ff fe6b 	bl	8000d30 <unwind_UCB_from_context>
 800105a:	6cc0      	ldr	r0, [r0, #76]	; 0x4c
 800105c:	79c3      	ldrb	r3, [r0, #7]
 800105e:	3302      	adds	r3, #2
 8001060:	eb00 0083 	add.w	r0, r0, r3, lsl #2
 8001064:	bd08      	pop	{r3, pc}
 8001066:	bf00      	nop

08001068 <main>:
/**
  * @brief  The application entry point.
  * @retval int
  */
int main(void)
{
 8001068:	b580      	push	{r7, lr}
 800106a:	af00      	add	r7, sp, #0
  /* USER CODE END 1 */

  /* MCU Configuration--------------------------------------------------------*/

  /* Reset of all peripherals, Initializes the Flash interface and the Systick. */
  HAL_Init();
 800106c:	f000 f91e 	bl	80012ac <HAL_Init>
  /* USER CODE BEGIN Init */

  /* USER CODE END Init */

  /* Configure the system clock */
  SystemClock_Config();
 8001070:	f000 f805 	bl	800107e <_Z18SystemClock_Configv>
  /* USER CODE BEGIN SysInit */

  /* USER CODE END SysInit */

  /* Initialize all configured peripherals */
  MX_GPIO_Init();
 8001074:	f000 f86e 	bl	8001154 <_ZL12MX_GPIO_Initv>
  MX_USB_DEVICE_Init();
 8001078:	f002 fd46 	bl	8003b08 <MX_USB_DEVICE_Init>

  /* USER CODE END 2 */

  /* Infinite loop */
  /* USER CODE BEGIN WHILE */
  while (1)
 800107c:	e7fe      	b.n	800107c <main+0x14>

0800107e <_Z18SystemClock_Configv>:
/**
  * @brief System Clock Configuration
  * @retval None
  */
void SystemClock_Config(void)
{
 800107e:	b580      	push	{r7, lr}
 8001080:	b094      	sub	sp, #80	; 0x50
 8001082:	af00      	add	r7, sp, #0
  RCC_OscInitTypeDef RCC_OscInitStruct = {0};
 8001084:	f107 0328 	add.w	r3, r7, #40	; 0x28
 8001088:	2228      	movs	r2, #40	; 0x28
 800108a:	2100      	movs	r1, #0
 800108c:	4618      	mov	r0, r3
 800108e:	f002 ff55 	bl	8003f3c <memset>
  RCC_ClkInitTypeDef RCC_ClkInitStruct = {0};
 8001092:	f107 0314 	add.w	r3, r7, #20
 8001096:	2200      	movs	r2, #0
 8001098:	601a      	str	r2, [r3, #0]
 800109a:	605a      	str	r2, [r3, #4]
 800109c:	609a      	str	r2, [r3, #8]
 800109e:	60da      	str	r2, [r3, #12]
 80010a0:	611a      	str	r2, [r3, #16]
  RCC_PeriphCLKInitTypeDef PeriphClkInit = {0};
 80010a2:	1d3b      	adds	r3, r7, #4
 80010a4:	2200      	movs	r2, #0
 80010a6:	601a      	str	r2, [r3, #0]
 80010a8:	605a      	str	r2, [r3, #4]
 80010aa:	609a      	str	r2, [r3, #8]
 80010ac:	60da      	str	r2, [r3, #12]

  /** Initializes the RCC Oscillators according to the specified parameters
  * in the RCC_OscInitTypeDef structure.
  */
  RCC_OscInitStruct.OscillatorType = RCC_OSCILLATORTYPE_HSE;
 80010ae:	2301      	movs	r3, #1
 80010b0:	62bb      	str	r3, [r7, #40]	; 0x28
  RCC_OscInitStruct.HSEState = RCC_HSE_ON;
 80010b2:	f44f 3380 	mov.w	r3, #65536	; 0x10000
 80010b6:	62fb      	str	r3, [r7, #44]	; 0x2c
  RCC_OscInitStruct.HSEPredivValue = RCC_HSE_PREDIV_DIV1;
 80010b8:	2300      	movs	r3, #0
 80010ba:	633b      	str	r3, [r7, #48]	; 0x30
  RCC_OscInitStruct.HSIState = RCC_HSI_ON;
 80010bc:	2301      	movs	r3, #1
 80010be:	63bb      	str	r3, [r7, #56]	; 0x38
  RCC_OscInitStruct.PLL.PLLState = RCC_PLL_ON;
 80010c0:	2302      	movs	r3, #2
 80010c2:	647b      	str	r3, [r7, #68]	; 0x44
  RCC_OscInitStruct.PLL.PLLSource = RCC_PLLSOURCE_HSE;
 80010c4:	f44f 3380 	mov.w	r3, #65536	; 0x10000
 80010c8:	64bb      	str	r3, [r7, #72]	; 0x48
  RCC_OscInitStruct.PLL.PLLMUL = RCC_PLL_MUL6;
 80010ca:	f44f 1380 	mov.w	r3, #1048576	; 0x100000
 80010ce:	64fb      	str	r3, [r7, #76]	; 0x4c
  if (HAL_RCC_OscConfig(&RCC_OscInitStruct) != HAL_OK)
 80010d0:	f107 0328 	add.w	r3, r7, #40	; 0x28
 80010d4:	4618      	mov	r0, r3
 80010d6:	f001 f805 	bl	80020e4 <HAL_RCC_OscConfig>
 80010da:	4603      	mov	r3, r0
 80010dc:	2b00      	cmp	r3, #0
 80010de:	bf14      	ite	ne
 80010e0:	2301      	movne	r3, #1
 80010e2:	2300      	moveq	r3, #0
 80010e4:	b2db      	uxtb	r3, r3
 80010e6:	2b00      	cmp	r3, #0
 80010e8:	d001      	beq.n	80010ee <_Z18SystemClock_Configv+0x70>
  {
    Error_Handler();
 80010ea:	f000 f855 	bl	8001198 <Error_Handler>
  }

  /** Initializes the CPU, AHB and APB buses clocks
  */
  RCC_ClkInitStruct.ClockType = RCC_CLOCKTYPE_HCLK|RCC_CLOCKTYPE_SYSCLK
 80010ee:	230f      	movs	r3, #15
 80010f0:	617b      	str	r3, [r7, #20]
                              |RCC_CLOCKTYPE_PCLK1|RCC_CLOCKTYPE_PCLK2;
  RCC_ClkInitStruct.SYSCLKSource = RCC_SYSCLKSOURCE_PLLCLK;
 80010f2:	2302      	movs	r3, #2
 80010f4:	61bb      	str	r3, [r7, #24]
  RCC_ClkInitStruct.AHBCLKDivider = RCC_SYSCLK_DIV1;
 80010f6:	2300      	movs	r3, #0
 80010f8:	61fb      	str	r3, [r7, #28]
  RCC_ClkInitStruct.APB1CLKDivider = RCC_HCLK_DIV2;
 80010fa:	f44f 6380 	mov.w	r3, #1024	; 0x400
 80010fe:	623b      	str	r3, [r7, #32]
  RCC_ClkInitStruct.APB2CLKDivider = RCC_HCLK_DIV1;
 8001100:	2300      	movs	r3, #0
 8001102:	627b      	str	r3, [r7, #36]	; 0x24

  if (HAL_RCC_ClockConfig(&RCC_ClkInitStruct, FLASH_LATENCY_1) != HAL_OK)
 8001104:	f107 0314 	add.w	r3, r7, #20
 8001108:	2101      	movs	r1, #1
 800110a:	4618      	mov	r0, r3
 800110c:	f001 f9ac 	bl	8002468 <HAL_RCC_ClockConfig>
 8001110:	4603      	mov	r3, r0
 8001112:	2b00      	cmp	r3, #0
 8001114:	bf14      	ite	ne
 8001116:	2301      	movne	r3, #1
 8001118:	2300      	moveq	r3, #0
 800111a:	b2db      	uxtb	r3, r3
 800111c:	2b00      	cmp	r3, #0
 800111e:	d001      	beq.n	8001124 <_Z18SystemClock_Configv+0xa6>
  {
    Error_Handler();
 8001120:	f000 f83a 	bl	8001198 <Error_Handler>
  }
  PeriphClkInit.PeriphClockSelection = RCC_PERIPHCLK_USB;
 8001124:	2310      	movs	r3, #16
 8001126:	607b      	str	r3, [r7, #4]
  PeriphClkInit.UsbClockSelection = RCC_USBCLKSOURCE_PLL;
 8001128:	f44f 0380 	mov.w	r3, #4194304	; 0x400000
 800112c:	613b      	str	r3, [r7, #16]
  if (HAL_RCCEx_PeriphCLKConfig(&PeriphClkInit) != HAL_OK)
 800112e:	1d3b      	adds	r3, r7, #4
 8001130:	4618      	mov	r0, r3
 8001132:	f001 fa35 	bl	80025a0 <HAL_RCCEx_PeriphCLKConfig>
 8001136:	4603      	mov	r3, r0
 8001138:	2b00      	cmp	r3, #0
 800113a:	bf14      	ite	ne
 800113c:	2301      	movne	r3, #1
 800113e:	2300      	moveq	r3, #0
 8001140:	b2db      	uxtb	r3, r3
 8001142:	2b00      	cmp	r3, #0
 8001144:	d001      	beq.n	800114a <_Z18SystemClock_Configv+0xcc>
  {
    Error_Handler();
 8001146:	f000 f827 	bl	8001198 <Error_Handler>
  }
}
 800114a:	bf00      	nop
 800114c:	3750      	adds	r7, #80	; 0x50
 800114e:	46bd      	mov	sp, r7
 8001150:	bd80      	pop	{r7, pc}
	...

08001154 <_ZL12MX_GPIO_Initv>:
  * @brief GPIO Initialization Function
  * @param None
  * @retval None
  */
static void MX_GPIO_Init(void)
{
 8001154:	b480      	push	{r7}
 8001156:	b083      	sub	sp, #12
 8001158:	af00      	add	r7, sp, #0
/* USER CODE BEGIN MX_GPIO_Init_1 */
/* USER CODE END MX_GPIO_Init_1 */

  /* GPIO Ports Clock Enable */
  __HAL_RCC_GPIOD_CLK_ENABLE();
 800115a:	4b0e      	ldr	r3, [pc, #56]	; (8001194 <_ZL12MX_GPIO_Initv+0x40>)
 800115c:	699b      	ldr	r3, [r3, #24]
 800115e:	4a0d      	ldr	r2, [pc, #52]	; (8001194 <_ZL12MX_GPIO_Initv+0x40>)
 8001160:	f043 0320 	orr.w	r3, r3, #32
 8001164:	6193      	str	r3, [r2, #24]
 8001166:	4b0b      	ldr	r3, [pc, #44]	; (8001194 <_ZL12MX_GPIO_Initv+0x40>)
 8001168:	699b      	ldr	r3, [r3, #24]
 800116a:	f003 0320 	and.w	r3, r3, #32
 800116e:	607b      	str	r3, [r7, #4]
 8001170:	687b      	ldr	r3, [r7, #4]
  __HAL_RCC_GPIOA_CLK_ENABLE();
 8001172:	4b08      	ldr	r3, [pc, #32]	; (8001194 <_ZL12MX_GPIO_Initv+0x40>)
 8001174:	699b      	ldr	r3, [r3, #24]
 8001176:	4a07      	ldr	r2, [pc, #28]	; (8001194 <_ZL12MX_GPIO_Initv+0x40>)
 8001178:	f043 0304 	orr.w	r3, r3, #4
 800117c:	6193      	str	r3, [r2, #24]
 800117e:	4b05      	ldr	r3, [pc, #20]	; (8001194 <_ZL12MX_GPIO_Initv+0x40>)
 8001180:	699b      	ldr	r3, [r3, #24]
 8001182:	f003 0304 	and.w	r3, r3, #4
 8001186:	603b      	str	r3, [r7, #0]
 8001188:	683b      	ldr	r3, [r7, #0]

/* USER CODE BEGIN MX_GPIO_Init_2 */
/* USER CODE END MX_GPIO_Init_2 */
}
 800118a:	bf00      	nop
 800118c:	370c      	adds	r7, #12
 800118e:	46bd      	mov	sp, r7
 8001190:	bc80      	pop	{r7}
 8001192:	4770      	bx	lr
 8001194:	40021000 	.word	0x40021000

08001198 <Error_Handler>:
/**
  * @brief  This function is executed in case of error occurrence.
  * @retval None
  */
void Error_Handler(void)
{
 8001198:	b480      	push	{r7}
 800119a:	af00      	add	r7, sp, #0
  \details Disables IRQ interrupts by setting the I-bit in the CPSR.
           Can only be executed in Privileged modes.
 */
__STATIC_FORCEINLINE void __disable_irq(void)
{
  __ASM volatile ("cpsid i" : : : "memory");
 800119c:	b672      	cpsid	i
}
 800119e:	bf00      	nop
  /* USER CODE BEGIN Error_Handler_Debug */
  /* User can add his own implementation to report the HAL error return state */
  __disable_irq();
  while (1)
 80011a0:	e7fe      	b.n	80011a0 <Error_Handler+0x8>
	...

080011a4 <HAL_MspInit>:
{
  /* USER CODE BEGIN MspInit 0 */

  /* USER CODE END MspInit 0 */

  __HAL_RCC_AFIO_CLK_ENABLE();
 80011a4:	4b0a      	ldr	r3, [pc, #40]	; (80011d0 <HAL_MspInit+0x2c>)
{
 80011a6:	b082      	sub	sp, #8
  __HAL_RCC_AFIO_CLK_ENABLE();
 80011a8:	699a      	ldr	r2, [r3, #24]
 80011aa:	f042 0201 	orr.w	r2, r2, #1
 80011ae:	619a      	str	r2, [r3, #24]
 80011b0:	699a      	ldr	r2, [r3, #24]
 80011b2:	f002 0201 	and.w	r2, r2, #1
 80011b6:	9200      	str	r2, [sp, #0]
 80011b8:	9a00      	ldr	r2, [sp, #0]
  __HAL_RCC_PWR_CLK_ENABLE();
 80011ba:	69da      	ldr	r2, [r3, #28]
 80011bc:	f042 5280 	orr.w	r2, r2, #268435456	; 0x10000000
 80011c0:	61da      	str	r2, [r3, #28]
 80011c2:	69db      	ldr	r3, [r3, #28]
 80011c4:	f003 5380 	and.w	r3, r3, #268435456	; 0x10000000
 80011c8:	9301      	str	r3, [sp, #4]
 80011ca:	9b01      	ldr	r3, [sp, #4]
  /* System interrupt init*/

  /* USER CODE BEGIN MspInit 1 */

  /* USER CODE END MspInit 1 */
}
 80011cc:	b002      	add	sp, #8
 80011ce:	4770      	bx	lr
 80011d0:	40021000 	.word	0x40021000

080011d4 <NMI_Handler>:
{
  /* USER CODE BEGIN NonMaskableInt_IRQn 0 */

  /* USER CODE END NonMaskableInt_IRQn 0 */
  /* USER CODE BEGIN NonMaskableInt_IRQn 1 */
  while (1)
 80011d4:	e7fe      	b.n	80011d4 <NMI_Handler>

080011d6 <HardFault_Handler>:
void HardFault_Handler(void)
{
  /* USER CODE BEGIN HardFault_IRQn 0 */

  /* USER CODE END HardFault_IRQn 0 */
  while (1)
 80011d6:	e7fe      	b.n	80011d6 <HardFault_Handler>

080011d8 <MemManage_Handler>:
void MemManage_Handler(void)
{
  /* USER CODE BEGIN MemoryManagement_IRQn 0 */

  /* USER CODE END MemoryManagement_IRQn 0 */
  while (1)
 80011d8:	e7fe      	b.n	80011d8 <MemManage_Handler>

080011da <BusFault_Handler>:
void BusFault_Handler(void)
{
  /* USER CODE BEGIN BusFault_IRQn 0 */

  /* USER CODE END BusFault_IRQn 0 */
  while (1)
 80011da:	e7fe      	b.n	80011da <BusFault_Handler>

080011dc <UsageFault_Handler>:
void UsageFault_Handler(void)
{
  /* USER CODE BEGIN UsageFault_IRQn 0 */

  /* USER CODE END UsageFault_IRQn 0 */
  while (1)
 80011dc:	e7fe      	b.n	80011dc <UsageFault_Handler>

080011de <SVC_Handler>:

  /* USER CODE END SVCall_IRQn 0 */
  /* USER CODE BEGIN SVCall_IRQn 1 */

  /* USER CODE END SVCall_IRQn 1 */
}
 80011de:	4770      	bx	lr

080011e0 <DebugMon_Handler>:
 80011e0:	4770      	bx	lr

080011e2 <PendSV_Handler>:
 80011e2:	4770      	bx	lr

080011e4 <SysTick_Handler>:
void SysTick_Handler(void)
{
  /* USER CODE BEGIN SysTick_IRQn 0 */

  /* USER CODE END SysTick_IRQn 0 */
  HAL_IncTick();
 80011e4:	f000 b874 	b.w	80012d0 <HAL_IncTick>

080011e8 <USB_LP_CAN1_RX0_IRQHandler>:
void USB_LP_CAN1_RX0_IRQHandler(void)
{
  /* USER CODE BEGIN USB_LP_CAN1_RX0_IRQn 0 */

  /* USER CODE END USB_LP_CAN1_RX0_IRQn 0 */
  HAL_PCD_IRQHandler(&hpcd_USB_FS);
 80011e8:	4801      	ldr	r0, [pc, #4]	; (80011f0 <USB_LP_CAN1_RX0_IRQHandler+0x8>)
 80011ea:	f000 b98f 	b.w	800150c <HAL_PCD_IRQHandler>
 80011ee:	bf00      	nop
 80011f0:	20000ec8 	.word	0x20000ec8

080011f4 <_getpid>:
 80011f4:	2001      	movs	r0, #1
 80011f6:	4770      	bx	lr

080011f8 <_kill>:
 80011f8:	b508      	push	{r3, lr}
 80011fa:	f002 fe67 	bl	8003ecc <__errno>
 80011fe:	2316      	movs	r3, #22
 8001200:	6003      	str	r3, [r0, #0]
 8001202:	f04f 30ff 	mov.w	r0, #4294967295
 8001206:	bd08      	pop	{r3, pc}

08001208 <_exit>:
 8001208:	b508      	push	{r3, lr}
 800120a:	f002 fe5f 	bl	8003ecc <__errno>
 800120e:	2316      	movs	r3, #22
 8001210:	6003      	str	r3, [r0, #0]
 8001212:	e7fe      	b.n	8001212 <_exit+0xa>

08001214 <SystemInit>:

  /* Configure the Vector Table location -------------------------------------*/
#if defined(USER_VECT_TAB_ADDRESS)
  SCB->VTOR = VECT_TAB_BASE_ADDRESS | VECT_TAB_OFFSET; /* Vector Table Relocation in Internal SRAM. */
#endif /* USER_VECT_TAB_ADDRESS */
}
 8001214:	4770      	bx	lr
	...

08001218 <Reset_Handler>:
  .weak Reset_Handler
  .type Reset_Handler, %function
Reset_Handler:

/* Call the clock system initialization function.*/
    bl  SystemInit
 8001218:	f7ff fffc 	bl	8001214 <SystemInit>

/* Copy the data segment initializers from flash to SRAM */
  ldr r0, =_sdata
 800121c:	480b      	ldr	r0, [pc, #44]	; (800124c <LoopFillZerobss+0xe>)
  ldr r1, =_edata
 800121e:	490c      	ldr	r1, [pc, #48]	; (8001250 <LoopFillZerobss+0x12>)
  ldr r2, =_sidata
 8001220:	4a0c      	ldr	r2, [pc, #48]	; (8001254 <LoopFillZerobss+0x16>)
  movs r3, #0
 8001222:	2300      	movs	r3, #0
  b LoopCopyDataInit
 8001224:	e002      	b.n	800122c <LoopCopyDataInit>

08001226 <CopyDataInit>:

CopyDataInit:
  ldr r4, [r2, r3]
 8001226:	58d4      	ldr	r4, [r2, r3]
  str r4, [r0, r3]
 8001228:	50c4      	str	r4, [r0, r3]
  adds r3, r3, #4
 800122a:	3304      	adds	r3, #4

0800122c <LoopCopyDataInit>:

LoopCopyDataInit:
  adds r4, r0, r3
 800122c:	18c4      	adds	r4, r0, r3
  cmp r4, r1
 800122e:	428c      	cmp	r4, r1
  bcc CopyDataInit
 8001230:	d3f9      	bcc.n	8001226 <CopyDataInit>
  
/* Zero fill the bss segment. */
  ldr r2, =_sbss
 8001232:	4a09      	ldr	r2, [pc, #36]	; (8001258 <LoopFillZerobss+0x1a>)
  ldr r4, =_ebss
 8001234:	4c09      	ldr	r4, [pc, #36]	; (800125c <LoopFillZerobss+0x1e>)
  movs r3, #0
 8001236:	2300      	movs	r3, #0
  b LoopFillZerobss
 8001238:	e001      	b.n	800123e <LoopFillZerobss>

0800123a <FillZerobss>:

FillZerobss:
  str  r3, [r2]
 800123a:	6013      	str	r3, [r2, #0]
  adds r2, r2, #4
 800123c:	3204      	adds	r2, #4

0800123e <LoopFillZerobss>:

LoopFillZerobss:
  cmp r2, r4
 800123e:	42a2      	cmp	r2, r4
  bcc FillZerobss
 8001240:	d3fb      	bcc.n	800123a <FillZerobss>

/* Call static constructors */
    bl __libc_init_array
 8001242:	f002 fe49 	bl	8003ed8 <__libc_init_array>
/* Call the application's entry point.*/
  bl main
 8001246:	f7ff ff0f 	bl	8001068 <main>
  bx lr
 800124a:	4770      	bx	lr
  ldr r0, =_sdata
 800124c:	20000000 	.word	0x20000000
  ldr r1, =_edata
 8001250:	200001e0 	.word	0x200001e0
  ldr r2, =_sidata
 8001254:	080044b8 	.word	0x080044b8
  ldr r2, =_sbss
 8001258:	200001e0 	.word	0x200001e0
  ldr r4, =_ebss
 800125c:	200013dc 	.word	0x200013dc

08001260 <ADC1_2_IRQHandler>:
 * @retval : None
*/
    .section .text.Default_Handler,"ax",%progbits
Default_Handler:
Infinite_Loop:
  b Infinite_Loop
 8001260:	e7fe      	b.n	8001260 <ADC1_2_IRQHandler>
	...

08001264 <HAL_InitTick>:
  *       implementation  in user file.
  * @param TickPriority Tick interrupt priority.
  * @retval HAL status
  */
__weak HAL_StatusTypeDef HAL_InitTick(uint32_t TickPriority)
{
 8001264:	b538      	push	{r3, r4, r5, lr}
  /* Configure the SysTick to have interrupt in 1ms time basis*/
  if (HAL_SYSTICK_Config(SystemCoreClock / (1000U / uwTickFreq)) > 0U)
 8001266:	4b0e      	ldr	r3, [pc, #56]	; (80012a0 <HAL_InitTick+0x3c>)
{
 8001268:	4605      	mov	r5, r0
  if (HAL_SYSTICK_Config(SystemCoreClock / (1000U / uwTickFreq)) > 0U)
 800126a:	7818      	ldrb	r0, [r3, #0]
 800126c:	f44f 737a 	mov.w	r3, #1000	; 0x3e8
 8001270:	fbb3 f3f0 	udiv	r3, r3, r0
 8001274:	4a0b      	ldr	r2, [pc, #44]	; (80012a4 <HAL_InitTick+0x40>)
 8001276:	6810      	ldr	r0, [r2, #0]
 8001278:	fbb0 f0f3 	udiv	r0, r0, r3
 800127c:	f000 f88c 	bl	8001398 <HAL_SYSTICK_Config>
 8001280:	4604      	mov	r4, r0
 8001282:	b958      	cbnz	r0, 800129c <HAL_InitTick+0x38>
  {
    return HAL_ERROR;
  }

  /* Configure the SysTick IRQ priority */
  if (TickPriority < (1UL << __NVIC_PRIO_BITS))
 8001284:	2d0f      	cmp	r5, #15
 8001286:	d809      	bhi.n	800129c <HAL_InitTick+0x38>
  {
    HAL_NVIC_SetPriority(SysTick_IRQn, TickPriority, 0U);
 8001288:	4602      	mov	r2, r0
 800128a:	4629      	mov	r1, r5
 800128c:	f04f 30ff 	mov.w	r0, #4294967295
 8001290:	f000 f842 	bl	8001318 <HAL_NVIC_SetPriority>
    uwTickPrio = TickPriority;
 8001294:	4620      	mov	r0, r4
 8001296:	4b04      	ldr	r3, [pc, #16]	; (80012a8 <HAL_InitTick+0x44>)
 8001298:	601d      	str	r5, [r3, #0]
    return HAL_ERROR;
  }

  /* Return function status */
  return HAL_OK;
}
 800129a:	bd38      	pop	{r3, r4, r5, pc}
    return HAL_ERROR;
 800129c:	2001      	movs	r0, #1
 800129e:	e7fc      	b.n	800129a <HAL_InitTick+0x36>
 80012a0:	20000004 	.word	0x20000004
 80012a4:	20000000 	.word	0x20000000
 80012a8:	20000008 	.word	0x20000008

080012ac <HAL_Init>:
  __HAL_FLASH_PREFETCH_BUFFER_ENABLE();
 80012ac:	4a07      	ldr	r2, [pc, #28]	; (80012cc <HAL_Init+0x20>)
{
 80012ae:	b508      	push	{r3, lr}
  __HAL_FLASH_PREFETCH_BUFFER_ENABLE();
 80012b0:	6813      	ldr	r3, [r2, #0]
  HAL_NVIC_SetPriorityGrouping(NVIC_PRIORITYGROUP_4);
 80012b2:	2003      	movs	r0, #3
  __HAL_FLASH_PREFETCH_BUFFER_ENABLE();
 80012b4:	f043 0310 	orr.w	r3, r3, #16
 80012b8:	6013      	str	r3, [r2, #0]
  HAL_NVIC_SetPriorityGrouping(NVIC_PRIORITYGROUP_4);
 80012ba:	f000 f81b 	bl	80012f4 <HAL_NVIC_SetPriorityGrouping>
  HAL_InitTick(TICK_INT_PRIORITY);
 80012be:	200f      	movs	r0, #15
 80012c0:	f7ff ffd0 	bl	8001264 <HAL_InitTick>
  HAL_MspInit();
 80012c4:	f7ff ff6e 	bl	80011a4 <HAL_MspInit>
}
 80012c8:	2000      	movs	r0, #0
 80012ca:	bd08      	pop	{r3, pc}
 80012cc:	40022000 	.word	0x40022000

080012d0 <HAL_IncTick>:
  *      implementations in user file.
  * @retval None
  */
__weak void HAL_IncTick(void)
{
  uwTick += uwTickFreq;
 80012d0:	4a03      	ldr	r2, [pc, #12]	; (80012e0 <HAL_IncTick+0x10>)
 80012d2:	4b04      	ldr	r3, [pc, #16]	; (80012e4 <HAL_IncTick+0x14>)
 80012d4:	6811      	ldr	r1, [r2, #0]
 80012d6:	781b      	ldrb	r3, [r3, #0]
 80012d8:	440b      	add	r3, r1
 80012da:	6013      	str	r3, [r2, #0]
}
 80012dc:	4770      	bx	lr
 80012de:	bf00      	nop
 80012e0:	200001fc 	.word	0x200001fc
 80012e4:	20000004 	.word	0x20000004

080012e8 <HAL_GetTick>:
  *       implementations in user file.
  * @retval tick value
  */
__weak uint32_t HAL_GetTick(void)
{
  return uwTick;
 80012e8:	4b01      	ldr	r3, [pc, #4]	; (80012f0 <HAL_GetTick+0x8>)
 80012ea:	6818      	ldr	r0, [r3, #0]
}
 80012ec:	4770      	bx	lr
 80012ee:	bf00      	nop
 80012f0:	200001fc 	.word	0x200001fc

080012f4 <HAL_NVIC_SetPriorityGrouping>:
__STATIC_INLINE void __NVIC_SetPriorityGrouping(uint32_t PriorityGroup)
{
  uint32_t reg_value;
  uint32_t PriorityGroupTmp = (PriorityGroup & (uint32_t)0x07UL);             /* only values 0..7 are used          */

  reg_value  =  SCB->AIRCR;                                                   /* read old register configuration    */
 80012f4:	4907      	ldr	r1, [pc, #28]	; (8001314 <HAL_NVIC_SetPriorityGrouping+0x20>)
  reg_value &= ~((uint32_t)(SCB_AIRCR_VECTKEY_Msk | SCB_AIRCR_PRIGROUP_Msk)); /* clear bits to change               */
  reg_value  =  (reg_value                                   |
                ((uint32_t)0x5FAUL << SCB_AIRCR_VECTKEY_Pos) |
                (PriorityGroupTmp << SCB_AIRCR_PRIGROUP_Pos) );               /* Insert write key and priority group */
 80012f6:	0203      	lsls	r3, r0, #8
  reg_value  =  SCB->AIRCR;                                                   /* read old register configuration    */
 80012f8:	68ca      	ldr	r2, [r1, #12]
                (PriorityGroupTmp << SCB_AIRCR_PRIGROUP_Pos) );               /* Insert write key and priority group */
 80012fa:	f403 63e0 	and.w	r3, r3, #1792	; 0x700
  reg_value &= ~((uint32_t)(SCB_AIRCR_VECTKEY_Msk | SCB_AIRCR_PRIGROUP_Msk)); /* clear bits to change               */
 80012fe:	f422 62e0 	bic.w	r2, r2, #1792	; 0x700
 8001302:	0412      	lsls	r2, r2, #16
 8001304:	0c12      	lsrs	r2, r2, #16
                ((uint32_t)0x5FAUL << SCB_AIRCR_VECTKEY_Pos) |
 8001306:	4313      	orrs	r3, r2
  reg_value  =  (reg_value                                   |
 8001308:	f043 63bf 	orr.w	r3, r3, #100139008	; 0x5f80000
 800130c:	f443 3300 	orr.w	r3, r3, #131072	; 0x20000
  SCB->AIRCR =  reg_value;
 8001310:	60cb      	str	r3, [r1, #12]
  /* Check the parameters */
  assert_param(IS_NVIC_PRIORITY_GROUP(PriorityGroup));
  
  /* Set the PRIGROUP[10:8] bits according to the PriorityGroup parameter value */
  NVIC_SetPriorityGrouping(PriorityGroup);
}
 8001312:	4770      	bx	lr
 8001314:	e000ed00 	.word	0xe000ed00

08001318 <HAL_NVIC_SetPriority>:
  \details Reads the priority grouping field from the NVIC Interrupt Controller.
  \return                Priority grouping field (SCB->AIRCR [10:8] PRIGROUP field).
 */
__STATIC_INLINE uint32_t __NVIC_GetPriorityGrouping(void)
{
  return ((uint32_t)((SCB->AIRCR & SCB_AIRCR_PRIGROUP_Msk) >> SCB_AIRCR_PRIGROUP_Pos));
 8001318:	4b16      	ldr	r3, [pc, #88]	; (8001374 <HAL_NVIC_SetPriority+0x5c>)
  *         This parameter can be a value between 0 and 15
  *         A lower priority value indicates a higher priority.          
  * @retval None
  */
void HAL_NVIC_SetPriority(IRQn_Type IRQn, uint32_t PreemptPriority, uint32_t SubPriority)
{ 
 800131a:	b530      	push	{r4, r5, lr}
 800131c:	68dc      	ldr	r4, [r3, #12]
 800131e:	f3c4 2402 	ubfx	r4, r4, #8, #3
{
  uint32_t PriorityGroupTmp = (PriorityGroup & (uint32_t)0x07UL);   /* only values 0..7 are used          */
  uint32_t PreemptPriorityBits;
  uint32_t SubPriorityBits;

  PreemptPriorityBits = ((7UL - PriorityGroupTmp) > (uint32_t)(__NVIC_PRIO_BITS)) ? (uint32_t)(__NVIC_PRIO_BITS) : (uint32_t)(7UL - PriorityGroupTmp);
 8001322:	f1c4 0307 	rsb	r3, r4, #7
  SubPriorityBits     = ((PriorityGroupTmp + (uint32_t)(__NVIC_PRIO_BITS)) < (uint32_t)7UL) ? (uint32_t)0UL : (uint32_t)((PriorityGroupTmp - 7UL) + (uint32_t)(__NVIC_PRIO_BITS));
 8001326:	1d25      	adds	r5, r4, #4
  PreemptPriorityBits = ((7UL - PriorityGroupTmp) > (uint32_t)(__NVIC_PRIO_BITS)) ? (uint32_t)(__NVIC_PRIO_BITS) : (uint32_t)(7UL - PriorityGroupTmp);
 8001328:	2b04      	cmp	r3, #4
 800132a:	bf28      	it	cs
 800132c:	2304      	movcs	r3, #4
  SubPriorityBits     = ((PriorityGroupTmp + (uint32_t)(__NVIC_PRIO_BITS)) < (uint32_t)7UL) ? (uint32_t)0UL : (uint32_t)((PriorityGroupTmp - 7UL) + (uint32_t)(__NVIC_PRIO_BITS));
 800132e:	2d06      	cmp	r5, #6

  return (
           ((PreemptPriority & (uint32_t)((1UL << (PreemptPriorityBits)) - 1UL)) << SubPriorityBits) |
 8001330:	f04f 35ff 	mov.w	r5, #4294967295
  SubPriorityBits     = ((PriorityGroupTmp + (uint32_t)(__NVIC_PRIO_BITS)) < (uint32_t)7UL) ? (uint32_t)0UL : (uint32_t)((PriorityGroupTmp - 7UL) + (uint32_t)(__NVIC_PRIO_BITS));
 8001334:	bf98      	it	ls
 8001336:	2400      	movls	r4, #0
           ((PreemptPriority & (uint32_t)((1UL << (PreemptPriorityBits)) - 1UL)) << SubPriorityBits) |
 8001338:	fa05 f303 	lsl.w	r3, r5, r3
  SubPriorityBits     = ((PriorityGroupTmp + (uint32_t)(__NVIC_PRIO_BITS)) < (uint32_t)7UL) ? (uint32_t)0UL : (uint32_t)((PriorityGroupTmp - 7UL) + (uint32_t)(__NVIC_PRIO_BITS));
 800133c:	bf88      	it	hi
 800133e:	3c03      	subhi	r4, #3
           ((PreemptPriority & (uint32_t)((1UL << (PreemptPriorityBits)) - 1UL)) << SubPriorityBits) |
 8001340:	ea21 0303 	bic.w	r3, r1, r3
 8001344:	40a3      	lsls	r3, r4
           ((SubPriority     & (uint32_t)((1UL << (SubPriorityBits    )) - 1UL)))
 8001346:	fa05 f404 	lsl.w	r4, r5, r4
 800134a:	ea22 0204 	bic.w	r2, r2, r4
  if ((int32_t)(IRQn) >= 0)
 800134e:	2800      	cmp	r0, #0
           ((PreemptPriority & (uint32_t)((1UL << (PreemptPriorityBits)) - 1UL)) << SubPriorityBits) |
 8001350:	ea43 0302 	orr.w	r3, r3, r2
    NVIC->IP[((uint32_t)IRQn)]               = (uint8_t)((priority << (8U - __NVIC_PRIO_BITS)) & (uint32_t)0xFFUL);
 8001354:	bfac      	ite	ge
 8001356:	f100 4060 	addge.w	r0, r0, #3758096384	; 0xe0000000
    SCB->SHP[(((uint32_t)IRQn) & 0xFUL)-4UL] = (uint8_t)((priority << (8U - __NVIC_PRIO_BITS)) & (uint32_t)0xFFUL);
 800135a:	4a07      	ldrlt	r2, [pc, #28]	; (8001378 <HAL_NVIC_SetPriority+0x60>)
    NVIC->IP[((uint32_t)IRQn)]               = (uint8_t)((priority << (8U - __NVIC_PRIO_BITS)) & (uint32_t)0xFFUL);
 800135c:	ea4f 1303 	mov.w	r3, r3, lsl #4
 8001360:	b2db      	uxtb	r3, r3
 8001362:	bfab      	itete	ge
 8001364:	f500 4061 	addge.w	r0, r0, #57600	; 0xe100
    SCB->SHP[(((uint32_t)IRQn) & 0xFUL)-4UL] = (uint8_t)((priority << (8U - __NVIC_PRIO_BITS)) & (uint32_t)0xFFUL);
 8001368:	f000 000f 	andlt.w	r0, r0, #15
    NVIC->IP[((uint32_t)IRQn)]               = (uint8_t)((priority << (8U - __NVIC_PRIO_BITS)) & (uint32_t)0xFFUL);
 800136c:	f880 3300 	strbge.w	r3, [r0, #768]	; 0x300
    SCB->SHP[(((uint32_t)IRQn) & 0xFUL)-4UL] = (uint8_t)((priority << (8U - __NVIC_PRIO_BITS)) & (uint32_t)0xFFUL);
 8001370:	5413      	strblt	r3, [r2, r0]
  assert_param(IS_NVIC_PREEMPTION_PRIORITY(PreemptPriority));
  
  prioritygroup = NVIC_GetPriorityGrouping();
  
  NVIC_SetPriority(IRQn, NVIC_EncodePriority(prioritygroup, PreemptPriority, SubPriority));
}
 8001372:	bd30      	pop	{r4, r5, pc}
 8001374:	e000ed00 	.word	0xe000ed00
 8001378:	e000ed14 	.word	0xe000ed14

0800137c <HAL_NVIC_EnableIRQ>:
  if ((int32_t)(IRQn) >= 0)
 800137c:	2800      	cmp	r0, #0
 800137e:	db08      	blt.n	8001392 <HAL_NVIC_EnableIRQ+0x16>
    NVIC->ISER[(((uint32_t)IRQn) >> 5UL)] = (uint32_t)(1UL << (((uint32_t)IRQn) & 0x1FUL));
 8001380:	2301      	movs	r3, #1
 8001382:	0942      	lsrs	r2, r0, #5
 8001384:	f000 001f 	and.w	r0, r0, #31
 8001388:	fa03 f000 	lsl.w	r0, r3, r0
 800138c:	4b01      	ldr	r3, [pc, #4]	; (8001394 <HAL_NVIC_EnableIRQ+0x18>)
 800138e:	f843 0022 	str.w	r0, [r3, r2, lsl #2]
  /* Check the parameters */
  assert_param(IS_NVIC_DEVICE_IRQ(IRQn));

  /* Enable interrupt */
  NVIC_EnableIRQ(IRQn);
}
 8001392:	4770      	bx	lr
 8001394:	e000e100 	.word	0xe000e100

08001398 <HAL_SYSTICK_Config>:
           function <b>SysTick_Config</b> is not included. In this case, the file <b><i>device</i>.h</b>
           must contain a vendor-specific implementation of this function.
 */
__STATIC_INLINE uint32_t SysTick_Config(uint32_t ticks)
{
  if ((ticks - 1UL) > SysTick_LOAD_RELOAD_Msk)
 8001398:	3801      	subs	r0, #1
 800139a:	f1b0 7f80 	cmp.w	r0, #16777216	; 0x1000000
 800139e:	d20b      	bcs.n	80013b8 <HAL_SYSTICK_Config+0x20>
  {
    return (1UL);                                                   /* Reload value impossible */
  }

  SysTick->LOAD  = (uint32_t)(ticks - 1UL);                         /* set reload register */
 80013a0:	f04f 23e0 	mov.w	r3, #3758153728	; 0xe000e000
    SCB->SHP[(((uint32_t)IRQn) & 0xFUL)-4UL] = (uint8_t)((priority << (8U - __NVIC_PRIO_BITS)) & (uint32_t)0xFFUL);
 80013a4:	21f0      	movs	r1, #240	; 0xf0
 80013a6:	4a05      	ldr	r2, [pc, #20]	; (80013bc <HAL_SYSTICK_Config+0x24>)
  SysTick->LOAD  = (uint32_t)(ticks - 1UL);                         /* set reload register */
 80013a8:	6158      	str	r0, [r3, #20]
    SCB->SHP[(((uint32_t)IRQn) & 0xFUL)-4UL] = (uint8_t)((priority << (8U - __NVIC_PRIO_BITS)) & (uint32_t)0xFFUL);
 80013aa:	f882 1023 	strb.w	r1, [r2, #35]	; 0x23
  NVIC_SetPriority (SysTick_IRQn, (1UL << __NVIC_PRIO_BITS) - 1UL); /* set Priority for Systick Interrupt */
  SysTick->VAL   = 0UL;                                             /* Load the SysTick Counter Value */
 80013ae:	2000      	movs	r0, #0
  SysTick->CTRL  = SysTick_CTRL_CLKSOURCE_Msk |
 80013b0:	2207      	movs	r2, #7
  SysTick->VAL   = 0UL;                                             /* Load the SysTick Counter Value */
 80013b2:	6198      	str	r0, [r3, #24]
  SysTick->CTRL  = SysTick_CTRL_CLKSOURCE_Msk |
 80013b4:	611a      	str	r2, [r3, #16]
                   SysTick_CTRL_TICKINT_Msk   |
                   SysTick_CTRL_ENABLE_Msk;                         /* Enable SysTick IRQ and SysTick Timer */
  return (0UL);                                                     /* Function successful */
 80013b6:	4770      	bx	lr
    return (1UL);                                                   /* Reload value impossible */
 80013b8:	2001      	movs	r0, #1
  *                  - 1  Function failed.
  */
uint32_t HAL_SYSTICK_Config(uint32_t TicksNumb)
{
   return SysTick_Config(TicksNumb);
}
 80013ba:	4770      	bx	lr
 80013bc:	e000ed00 	.word	0xe000ed00

080013c0 <HAL_PCD_Init>:
  *         parameters in the PCD_InitTypeDef and initialize the associated handle.
  * @param  hpcd PCD handle
  * @retval HAL status
  */
HAL_StatusTypeDef HAL_PCD_Init(PCD_HandleTypeDef *hpcd)
{
 80013c0:	b5f0      	push	{r4, r5, r6, r7, lr}
  USB_OTG_GlobalTypeDef *USBx;
#endif /* defined (USB_OTG_FS) */
  uint8_t i;

  /* Check the PCD handle allocation */
  if (hpcd == NULL)
 80013c2:	4604      	mov	r4, r0
{
 80013c4:	b087      	sub	sp, #28
  if (hpcd == NULL)
 80013c6:	b310      	cbz	r0, 800140e <HAL_PCD_Init+0x4e>

#if defined (USB_OTG_FS)
  USBx = hpcd->Instance;
#endif /* defined (USB_OTG_FS) */

  if (hpcd->State == HAL_PCD_STATE_RESET)
 80013c8:	f890 32a9 	ldrb.w	r3, [r0, #681]	; 0x2a9
 80013cc:	f003 02ff 	and.w	r2, r3, #255	; 0xff
 80013d0:	b91b      	cbnz	r3, 80013da <HAL_PCD_Init+0x1a>
  {
    /* Allocate lock resource and initialize it */
    hpcd->Lock = HAL_UNLOCKED;
 80013d2:	f880 22a8 	strb.w	r2, [r0, #680]	; 0x2a8

    /* Init the low level hardware */
    hpcd->MspInitCallback(hpcd);
#else
    /* Init the low level hardware : GPIO, CLOCK, NVIC... */
    HAL_PCD_MspInit(hpcd);
 80013d6:	f002 fc65 	bl	8003ca4 <HAL_PCD_MspInit>
#endif /* (USE_HAL_PCD_REGISTER_CALLBACKS) */
  }

  hpcd->State = HAL_PCD_STATE_BUSY;
 80013da:	2303      	movs	r3, #3
    hpcd->Init.dma_enable = 0U;
  }
#endif /* defined (USB_OTG_FS) */

  /* Disable the Interrupts */
  __HAL_PCD_DISABLE(hpcd);
 80013dc:	4625      	mov	r5, r4

  /*Init the Core (common init.) */
  if (USB_CoreInit(hpcd->Instance, hpcd->Init) != HAL_OK)
 80013de:	466e      	mov	r6, sp
  hpcd->State = HAL_PCD_STATE_BUSY;
 80013e0:	f884 32a9 	strb.w	r3, [r4, #681]	; 0x2a9
  __HAL_PCD_DISABLE(hpcd);
 80013e4:	f855 0b10 	ldr.w	r0, [r5], #16
 80013e8:	f001 f964 	bl	80026b4 <USB_DisableGlobalInt>
  if (USB_CoreInit(hpcd->Instance, hpcd->Init) != HAL_OK)
 80013ec:	cd0f      	ldmia	r5!, {r0, r1, r2, r3}
 80013ee:	c60f      	stmia	r6!, {r0, r1, r2, r3}
 80013f0:	682b      	ldr	r3, [r5, #0]
 80013f2:	1d27      	adds	r7, r4, #4
 80013f4:	6033      	str	r3, [r6, #0]
 80013f6:	4626      	mov	r6, r4
 80013f8:	e897 000e 	ldmia.w	r7, {r1, r2, r3}
 80013fc:	f856 0b10 	ldr.w	r0, [r6], #16
 8001400:	f001 f948 	bl	8002694 <USB_CoreInit>
 8001404:	4605      	mov	r5, r0
 8001406:	b120      	cbz	r0, 8001412 <HAL_PCD_Init+0x52>
  {
    hpcd->State = HAL_PCD_STATE_ERROR;
 8001408:	2302      	movs	r3, #2
 800140a:	f884 32a9 	strb.w	r3, [r4, #681]	; 0x2a9
    return HAL_ERROR;
 800140e:	2501      	movs	r5, #1
 8001410:	e04b      	b.n	80014aa <HAL_PCD_Init+0xea>
    return HAL_ERROR;
  }

  /* Force Device Mode*/
  (void)USB_SetCurrentMode(hpcd->Instance, USB_DEVICE_MODE);
 8001412:	4601      	mov	r1, r0
 8001414:	6820      	ldr	r0, [r4, #0]
 8001416:	f001 f957 	bl	80026c8 <USB_SetCurrentMode>

  /* Init endpoints structures */
  for (i = 0U; i < hpcd->Init.dev_endpoints; i++)
 800141a:	4629      	mov	r1, r5
  {
    /* Init ep structure */
    hpcd->IN_ep[i].is_in = 1U;
 800141c:	f04f 0e01 	mov.w	lr, #1
 8001420:	2528      	movs	r5, #40	; 0x28
    hpcd->IN_ep[i].num = i;
#if defined (USB_OTG_FS)
    hpcd->IN_ep[i].tx_fifo_num = i;
#endif /* defined (USB_OTG_FS) */
    /* Control until ep is activated */
    hpcd->IN_ep[i].type = EP_TYPE_CTRL;
 8001422:	460a      	mov	r2, r1
  for (i = 0U; i < hpcd->Init.dev_endpoints; i++)
 8001424:	f8d4 c004 	ldr.w	ip, [r4, #4]
 8001428:	b2c8      	uxtb	r0, r1
 800142a:	4584      	cmp	ip, r0
 800142c:	f101 0101 	add.w	r1, r1, #1
 8001430:	d81b      	bhi.n	800146a <HAL_PCD_Init+0xaa>
 8001432:	2300      	movs	r3, #0
    hpcd->IN_ep[i].xfer_len = 0U;
  }

  for (i = 0U; i < hpcd->Init.dev_endpoints; i++)
  {
    hpcd->OUT_ep[i].is_in = 0U;
 8001434:	2528      	movs	r5, #40	; 0x28
 8001436:	4619      	mov	r1, r3
 8001438:	b2d8      	uxtb	r0, r3
  for (i = 0U; i < hpcd->Init.dev_endpoints; i++)
 800143a:	4584      	cmp	ip, r0
 800143c:	f103 0301 	add.w	r3, r3, #1
 8001440:	d81f      	bhi.n	8001482 <HAL_PCD_Init+0xc2>
    hpcd->OUT_ep[i].xfer_buff = 0U;
    hpcd->OUT_ep[i].xfer_len = 0U;
  }

  /* Init Device */
  if (USB_DevInit(hpcd->Instance, hpcd->Init) != HAL_OK)
 8001442:	46ec      	mov	ip, sp
 8001444:	4635      	mov	r5, r6
 8001446:	cd0f      	ldmia	r5!, {r0, r1, r2, r3}
 8001448:	e8ac 000f 	stmia.w	ip!, {r0, r1, r2, r3}
 800144c:	682b      	ldr	r3, [r5, #0]
 800144e:	f8cc 3000 	str.w	r3, [ip]
 8001452:	e897 000e 	ldmia.w	r7, {r1, r2, r3}
 8001456:	6820      	ldr	r0, [r4, #0]
 8001458:	f001 f938 	bl	80026cc <USB_DevInit>
 800145c:	2301      	movs	r3, #1
 800145e:	4605      	mov	r5, r0
 8001460:	b1e0      	cbz	r0, 800149c <HAL_PCD_Init+0xdc>
  {
    hpcd->State = HAL_PCD_STATE_ERROR;
 8001462:	2202      	movs	r2, #2
 8001464:	f884 22a9 	strb.w	r2, [r4, #681]	; 0x2a9
    return HAL_ERROR;
 8001468:	e7d1      	b.n	800140e <HAL_PCD_Init+0x4e>
    hpcd->IN_ep[i].is_in = 1U;
 800146a:	fb05 4300 	mla	r3, r5, r0, r4
    hpcd->IN_ep[i].xfer_buff = 0U;
 800146e:	e9c3 220e 	strd	r2, r2, [r3, #56]	; 0x38
    hpcd->IN_ep[i].is_in = 1U;
 8001472:	f883 e029 	strb.w	lr, [r3, #41]	; 0x29
    hpcd->IN_ep[i].num = i;
 8001476:	f883 0028 	strb.w	r0, [r3, #40]	; 0x28
    hpcd->IN_ep[i].type = EP_TYPE_CTRL;
 800147a:	f883 202b 	strb.w	r2, [r3, #43]	; 0x2b
    hpcd->IN_ep[i].xfer_len = 0U;
 800147e:	641a      	str	r2, [r3, #64]	; 0x40
  for (i = 0U; i < hpcd->Init.dev_endpoints; i++)
 8001480:	e7d2      	b.n	8001428 <HAL_PCD_Init+0x68>
    hpcd->OUT_ep[i].is_in = 0U;
 8001482:	fb05 4200 	mla	r2, r5, r0, r4
    hpcd->OUT_ep[i].xfer_buff = 0U;
 8001486:	e9c2 115e 	strd	r1, r1, [r2, #376]	; 0x178
    hpcd->OUT_ep[i].is_in = 0U;
 800148a:	f882 1169 	strb.w	r1, [r2, #361]	; 0x169
    hpcd->OUT_ep[i].num = i;
 800148e:	f882 0168 	strb.w	r0, [r2, #360]	; 0x168
    hpcd->OUT_ep[i].type = EP_TYPE_CTRL;
 8001492:	f882 116b 	strb.w	r1, [r2, #363]	; 0x16b
    hpcd->OUT_ep[i].xfer_len = 0U;
 8001496:	f8c2 1180 	str.w	r1, [r2, #384]	; 0x180
  for (i = 0U; i < hpcd->Init.dev_endpoints; i++)
 800149a:	e7cd      	b.n	8001438 <HAL_PCD_Init+0x78>
  }

  hpcd->USB_Address = 0U;
 800149c:	f884 0024 	strb.w	r0, [r4, #36]	; 0x24
  hpcd->State = HAL_PCD_STATE_READY;
  (void)USB_DevDisconnect(hpcd->Instance);
 80014a0:	6820      	ldr	r0, [r4, #0]
  hpcd->State = HAL_PCD_STATE_READY;
 80014a2:	f884 32a9 	strb.w	r3, [r4, #681]	; 0x2a9
  (void)USB_DevDisconnect(hpcd->Instance);
 80014a6:	f001 fbc9 	bl	8002c3c <USB_DevDisconnect>

  return HAL_OK;
}
 80014aa:	4628      	mov	r0, r5
 80014ac:	b007      	add	sp, #28
 80014ae:	bdf0      	pop	{r4, r5, r6, r7, pc}

080014b0 <HAL_PCD_Start>:
  * @brief  Start the USB device
  * @param  hpcd PCD handle
  * @retval HAL status
  */
HAL_StatusTypeDef HAL_PCD_Start(PCD_HandleTypeDef *hpcd)
{
 80014b0:	b538      	push	{r3, r4, r5, lr}
  __HAL_LOCK(hpcd);
 80014b2:	f890 32a8 	ldrb.w	r3, [r0, #680]	; 0x2a8
{
 80014b6:	4604      	mov	r4, r0
  __HAL_LOCK(hpcd);
 80014b8:	2b01      	cmp	r3, #1
 80014ba:	d010      	beq.n	80014de <HAL_PCD_Start+0x2e>
 80014bc:	2501      	movs	r5, #1
 80014be:	f880 52a8 	strb.w	r5, [r0, #680]	; 0x2a8
  __HAL_PCD_ENABLE(hpcd);
 80014c2:	6800      	ldr	r0, [r0, #0]
 80014c4:	f001 f8ed 	bl	80026a2 <USB_EnableGlobalInt>

#if defined (USB)
  HAL_PCDEx_SetConnectionState(hpcd, 1U);
 80014c8:	4629      	mov	r1, r5
 80014ca:	4620      	mov	r0, r4
 80014cc:	f002 fcf5 	bl	8003eba <HAL_PCDEx_SetConnectionState>
#endif /* defined (USB) */

  (void)USB_DevConnect(hpcd->Instance);
 80014d0:	6820      	ldr	r0, [r4, #0]
 80014d2:	f001 fbb1 	bl	8002c38 <USB_DevConnect>
  __HAL_UNLOCK(hpcd);
 80014d6:	2000      	movs	r0, #0
 80014d8:	f884 02a8 	strb.w	r0, [r4, #680]	; 0x2a8

  return HAL_OK;
}
 80014dc:	bd38      	pop	{r3, r4, r5, pc}
  __HAL_LOCK(hpcd);
 80014de:	2002      	movs	r0, #2
 80014e0:	e7fc      	b.n	80014dc <HAL_PCD_Start+0x2c>

080014e2 <HAL_PCD_SetAddress>:
  * @param  hpcd PCD handle
  * @param  address new device address
  * @retval HAL status
  */
HAL_StatusTypeDef HAL_PCD_SetAddress(PCD_HandleTypeDef *hpcd, uint8_t address)
{
 80014e2:	b510      	push	{r4, lr}
  __HAL_LOCK(hpcd);
 80014e4:	f890 22a8 	ldrb.w	r2, [r0, #680]	; 0x2a8
{
 80014e8:	4604      	mov	r4, r0
  __HAL_LOCK(hpcd);
 80014ea:	2a01      	cmp	r2, #1
 80014ec:	d00b      	beq.n	8001506 <HAL_PCD_SetAddress+0x24>
 80014ee:	2201      	movs	r2, #1
  hpcd->USB_Address = address;
 80014f0:	f880 1024 	strb.w	r1, [r0, #36]	; 0x24
  __HAL_LOCK(hpcd);
 80014f4:	f880 22a8 	strb.w	r2, [r0, #680]	; 0x2a8
  (void)USB_SetDevAddress(hpcd->Instance, address);
 80014f8:	6800      	ldr	r0, [r0, #0]
 80014fa:	f001 fb97 	bl	8002c2c <USB_SetDevAddress>
  __HAL_UNLOCK(hpcd);
 80014fe:	2000      	movs	r0, #0
 8001500:	f884 02a8 	strb.w	r0, [r4, #680]	; 0x2a8

  return HAL_OK;
}
 8001504:	bd10      	pop	{r4, pc}
  __HAL_LOCK(hpcd);
 8001506:	2002      	movs	r0, #2
 8001508:	e7fc      	b.n	8001504 <HAL_PCD_SetAddress+0x22>
	...

0800150c <HAL_PCD_IRQHandler>:
{
 800150c:	e92d 4ff0 	stmdb	sp!, {r4, r5, r6, r7, r8, r9, sl, fp, lr}
 8001510:	4604      	mov	r4, r0
 8001512:	b085      	sub	sp, #20
  uint32_t wIstr = USB_ReadInterrupts(hpcd->Instance);
 8001514:	6800      	ldr	r0, [r0, #0]
 8001516:	f001 fb93 	bl	8002c40 <USB_ReadInterrupts>
  if ((wIstr & USB_ISTR_CTR) == USB_ISTR_CTR)
 800151a:	f410 4500 	ands.w	r5, r0, #32768	; 0x8000
 800151e:	f000 8428 	beq.w	8001d72 <HAL_PCD_IRQHandler+0x866>
      if ((wEPVal & USB_EP_CTR_TX) != 0U)
      {
        ep = &hpcd->IN_ep[epindex];

        /* clear int flag */
        PCD_CLEAR_TX_EP_CTR(hpcd->Instance, epindex);
 8001522:	f8df 9320 	ldr.w	r9, [pc, #800]	; 8001844 <HAL_PCD_IRQHandler+0x338>
 8001526:	f8df 8320 	ldr.w	r8, [pc, #800]	; 8001848 <HAL_PCD_IRQHandler+0x33c>
  while ((hpcd->Instance->ISTR & USB_ISTR_CTR) != 0U)
 800152a:	6820      	ldr	r0, [r4, #0]
 800152c:	f8b0 3044 	ldrh.w	r3, [r0, #68]	; 0x44
 8001530:	041f      	lsls	r7, r3, #16
 8001532:	d402      	bmi.n	800153a <HAL_PCD_IRQHandler+0x2e>
}
 8001534:	b005      	add	sp, #20
 8001536:	e8bd 8ff0 	ldmia.w	sp!, {r4, r5, r6, r7, r8, r9, sl, fp, pc}
    wIstr = hpcd->Instance->ISTR;
 800153a:	f8b0 6044 	ldrh.w	r6, [r0, #68]	; 0x44
 800153e:	b2b1      	uxth	r1, r6
    if (epindex == 0U)
 8001540:	f016 060f 	ands.w	r6, r6, #15
 8001544:	f040 80c6 	bne.w	80016d4 <HAL_PCD_IRQHandler+0x1c8>
      if ((wIstr & USB_ISTR_DIR) == 0U)
 8001548:	f011 0110 	ands.w	r1, r1, #16
 800154c:	d12b      	bne.n	80015a6 <HAL_PCD_IRQHandler+0x9a>
        PCD_CLEAR_TX_EP_CTR(hpcd->Instance, PCD_ENDP0);
 800154e:	8803      	ldrh	r3, [r0, #0]
 8001550:	b29b      	uxth	r3, r3
 8001552:	ea03 0309 	and.w	r3, r3, r9
 8001556:	f443 4300 	orr.w	r3, r3, #32768	; 0x8000
 800155a:	8003      	strh	r3, [r0, #0]
        ep->xfer_count = PCD_GET_EP_TX_CNT(hpcd->Instance, ep->num);
 800155c:	f8b0 3050 	ldrh.w	r3, [r0, #80]	; 0x50
 8001560:	f894 2028 	ldrb.w	r2, [r4, #40]	; 0x28
 8001564:	b29b      	uxth	r3, r3
 8001566:	eb03 03c2 	add.w	r3, r3, r2, lsl #3
 800156a:	eb00 0043 	add.w	r0, r0, r3, lsl #1
 800156e:	f8b0 3404 	ldrh.w	r3, [r0, #1028]	; 0x404
        ep->xfer_buff += ep->xfer_count;
 8001572:	6be2      	ldr	r2, [r4, #60]	; 0x3c
        ep->xfer_count = PCD_GET_EP_TX_CNT(hpcd->Instance, ep->num);
 8001574:	f3c3 0309 	ubfx	r3, r3, #0, #10
 8001578:	6463      	str	r3, [r4, #68]	; 0x44
        ep->xfer_buff += ep->xfer_count;
 800157a:	4413      	add	r3, r2
 800157c:	63e3      	str	r3, [r4, #60]	; 0x3c
        HAL_PCD_DataInStageCallback(hpcd, 0U);
 800157e:	4620      	mov	r0, r4
 8001580:	f002 fbbf 	bl	8003d02 <HAL_PCD_DataInStageCallback>
        if ((hpcd->USB_Address > 0U) && (ep->xfer_len == 0U))
 8001584:	f894 3024 	ldrb.w	r3, [r4, #36]	; 0x24
 8001588:	2b00      	cmp	r3, #0
 800158a:	d0ce      	beq.n	800152a <HAL_PCD_IRQHandler+0x1e>
 800158c:	6c22      	ldr	r2, [r4, #64]	; 0x40
 800158e:	2a00      	cmp	r2, #0
 8001590:	d1cb      	bne.n	800152a <HAL_PCD_IRQHandler+0x1e>
          hpcd->Instance->DADDR = ((uint16_t)hpcd->USB_Address | USB_DADDR_EF);
 8001592:	f894 3024 	ldrb.w	r3, [r4, #36]	; 0x24
 8001596:	6821      	ldr	r1, [r4, #0]
 8001598:	f043 0380 	orr.w	r3, r3, #128	; 0x80
 800159c:	f8a1 304c 	strh.w	r3, [r1, #76]	; 0x4c
          hpcd->USB_Address = 0U;
 80015a0:	f884 2024 	strb.w	r2, [r4, #36]	; 0x24
 80015a4:	e7c1      	b.n	800152a <HAL_PCD_IRQHandler+0x1e>
        wEPVal = PCD_GET_ENDPOINT(hpcd->Instance, PCD_ENDP0);
 80015a6:	8805      	ldrh	r5, [r0, #0]
 80015a8:	b2ab      	uxth	r3, r5
        if ((wEPVal & USB_EP_SETUP) != 0U)
 80015aa:	f415 6500 	ands.w	r5, r5, #2048	; 0x800
 80015ae:	d021      	beq.n	80015f4 <HAL_PCD_IRQHandler+0xe8>
          ep->xfer_count = PCD_GET_EP_RX_CNT(hpcd->Instance, ep->num);
 80015b0:	f8b0 3050 	ldrh.w	r3, [r0, #80]	; 0x50
 80015b4:	f894 2168 	ldrb.w	r2, [r4, #360]	; 0x168
 80015b8:	b29b      	uxth	r3, r3
 80015ba:	eb03 03c2 	add.w	r3, r3, r2, lsl #3
 80015be:	eb00 0343 	add.w	r3, r0, r3, lsl #1
 80015c2:	f8b3 340c 	ldrh.w	r3, [r3, #1036]	; 0x40c
          USB_ReadPMA(hpcd->Instance, (uint8_t *)hpcd->Setup,
 80015c6:	f8b4 216e 	ldrh.w	r2, [r4, #366]	; 0x16e
 80015ca:	f3c3 0309 	ubfx	r3, r3, #0, #10
          ep->xfer_count = PCD_GET_EP_RX_CNT(hpcd->Instance, ep->num);
 80015ce:	f8c4 3184 	str.w	r3, [r4, #388]	; 0x184
          USB_ReadPMA(hpcd->Instance, (uint8_t *)hpcd->Setup,
 80015d2:	f504 712c 	add.w	r1, r4, #688	; 0x2b0
 80015d6:	f001 fd81 	bl	80030dc <USB_ReadPMA>
          PCD_CLEAR_RX_EP_CTR(hpcd->Instance, PCD_ENDP0);
 80015da:	6822      	ldr	r2, [r4, #0]
          HAL_PCD_SetupStageCallback(hpcd);
 80015dc:	4620      	mov	r0, r4
          PCD_CLEAR_RX_EP_CTR(hpcd->Instance, PCD_ENDP0);
 80015de:	8813      	ldrh	r3, [r2, #0]
 80015e0:	f023 0370 	bic.w	r3, r3, #112	; 0x70
 80015e4:	051b      	lsls	r3, r3, #20
 80015e6:	0d1b      	lsrs	r3, r3, #20
 80015e8:	f043 0380 	orr.w	r3, r3, #128	; 0x80
 80015ec:	8013      	strh	r3, [r2, #0]
          HAL_PCD_SetupStageCallback(hpcd);
 80015ee:	f002 fb79 	bl	8003ce4 <HAL_PCD_SetupStageCallback>
 80015f2:	e79a      	b.n	800152a <HAL_PCD_IRQHandler+0x1e>
        else if ((wEPVal & USB_EP_CTR_RX) != 0U)
 80015f4:	0419      	lsls	r1, r3, #16
 80015f6:	d598      	bpl.n	800152a <HAL_PCD_IRQHandler+0x1e>
          PCD_CLEAR_RX_EP_CTR(hpcd->Instance, PCD_ENDP0);
 80015f8:	8803      	ldrh	r3, [r0, #0]
 80015fa:	f023 0370 	bic.w	r3, r3, #112	; 0x70
 80015fe:	051b      	lsls	r3, r3, #20
 8001600:	0d1b      	lsrs	r3, r3, #20
 8001602:	f043 0380 	orr.w	r3, r3, #128	; 0x80
 8001606:	8003      	strh	r3, [r0, #0]
          ep->xfer_count = PCD_GET_EP_RX_CNT(hpcd->Instance, ep->num);
 8001608:	f8b0 3050 	ldrh.w	r3, [r0, #80]	; 0x50
 800160c:	f894 2168 	ldrb.w	r2, [r4, #360]	; 0x168
 8001610:	b29b      	uxth	r3, r3
 8001612:	eb03 03c2 	add.w	r3, r3, r2, lsl #3
 8001616:	eb00 0343 	add.w	r3, r0, r3, lsl #1
 800161a:	f8b3 340c 	ldrh.w	r3, [r3, #1036]	; 0x40c
 800161e:	f3c3 0309 	ubfx	r3, r3, #0, #10
 8001622:	f8c4 3184 	str.w	r3, [r4, #388]	; 0x184
          if ((ep->xfer_count != 0U) && (ep->xfer_buff != 0U))
 8001626:	b18b      	cbz	r3, 800164c <HAL_PCD_IRQHandler+0x140>
 8001628:	f8d4 117c 	ldr.w	r1, [r4, #380]	; 0x17c
 800162c:	b171      	cbz	r1, 800164c <HAL_PCD_IRQHandler+0x140>
            USB_ReadPMA(hpcd->Instance, ep->xfer_buff,
 800162e:	f8b4 216e 	ldrh.w	r2, [r4, #366]	; 0x16e
 8001632:	f001 fd53 	bl	80030dc <USB_ReadPMA>
            ep->xfer_buff += ep->xfer_count;
 8001636:	f8d4 317c 	ldr.w	r3, [r4, #380]	; 0x17c
 800163a:	f8d4 2184 	ldr.w	r2, [r4, #388]	; 0x184
            HAL_PCD_DataOutStageCallback(hpcd, 0U);
 800163e:	4629      	mov	r1, r5
            ep->xfer_buff += ep->xfer_count;
 8001640:	4413      	add	r3, r2
            HAL_PCD_DataOutStageCallback(hpcd, 0U);
 8001642:	4620      	mov	r0, r4
            ep->xfer_buff += ep->xfer_count;
 8001644:	f8c4 317c 	str.w	r3, [r4, #380]	; 0x17c
            HAL_PCD_DataOutStageCallback(hpcd, 0U);
 8001648:	f002 fb52 	bl	8003cf0 <HAL_PCD_DataOutStageCallback>
          wEPVal = (uint16_t)PCD_GET_ENDPOINT(hpcd->Instance, PCD_ENDP0);
 800164c:	6821      	ldr	r1, [r4, #0]
 800164e:	880a      	ldrh	r2, [r1, #0]
 8001650:	b293      	uxth	r3, r2
          if (((wEPVal & USB_EP_SETUP) == 0U) && ((wEPVal & USB_EP_RX_STRX) != USB_EP_RX_VALID))
 8001652:	0512      	lsls	r2, r2, #20
 8001654:	f53f af69 	bmi.w	800152a <HAL_PCD_IRQHandler+0x1e>
 8001658:	f403 5340 	and.w	r3, r3, #12288	; 0x3000
 800165c:	f5b3 5f40 	cmp.w	r3, #12288	; 0x3000
 8001660:	f43f af63 	beq.w	800152a <HAL_PCD_IRQHandler+0x1e>
            PCD_SET_EP_RX_CNT(hpcd->Instance, PCD_ENDP0, ep->maxpacket);
 8001664:	f8b1 3050 	ldrh.w	r3, [r1, #80]	; 0x50
 8001668:	f201 400c 	addw	r0, r1, #1036	; 0x40c
 800166c:	b29b      	uxth	r3, r3
 800166e:	5ac2      	ldrh	r2, [r0, r3]
 8001670:	f8d4 5178 	ldr.w	r5, [r4, #376]	; 0x178
 8001674:	f3c2 0209 	ubfx	r2, r2, #0, #10
 8001678:	2d3e      	cmp	r5, #62	; 0x3e
 800167a:	52c2      	strh	r2, [r0, r3]
 800167c:	d90c      	bls.n	8001698 <HAL_PCD_IRQHandler+0x18c>
 800167e:	5ac2      	ldrh	r2, [r0, r3]
 8001680:	096e      	lsrs	r6, r5, #5
 8001682:	06ef      	lsls	r7, r5, #27
 8001684:	bf08      	it	eq
 8001686:	f106 36ff 	addeq.w	r6, r6, #4294967295
 800168a:	b292      	uxth	r2, r2
 800168c:	ea42 2286 	orr.w	r2, r2, r6, lsl #10
 8001690:	ea42 0208 	orr.w	r2, r2, r8
 8001694:	b292      	uxth	r2, r2
 8001696:	e004      	b.n	80016a2 <HAL_PCD_IRQHandler+0x196>
 8001698:	b99d      	cbnz	r5, 80016c2 <HAL_PCD_IRQHandler+0x1b6>
 800169a:	5ac2      	ldrh	r2, [r0, r3]
 800169c:	b292      	uxth	r2, r2
 800169e:	f442 4200 	orr.w	r2, r2, #32768	; 0x8000
 80016a2:	52c2      	strh	r2, [r0, r3]
            PCD_SET_EP_RX_STATUS(hpcd->Instance, PCD_ENDP0, USB_EP_RX_VALID);
 80016a4:	880b      	ldrh	r3, [r1, #0]
 80016a6:	f423 4380 	bic.w	r3, r3, #16384	; 0x4000
 80016aa:	f023 0370 	bic.w	r3, r3, #112	; 0x70
 80016ae:	041b      	lsls	r3, r3, #16
 80016b0:	0c1b      	lsrs	r3, r3, #16
 80016b2:	f483 5340 	eor.w	r3, r3, #12288	; 0x3000
 80016b6:	f443 4300 	orr.w	r3, r3, #32768	; 0x8000
 80016ba:	f043 0380 	orr.w	r3, r3, #128	; 0x80
 80016be:	800b      	strh	r3, [r1, #0]
 80016c0:	e733      	b.n	800152a <HAL_PCD_IRQHandler+0x1e>
            PCD_SET_EP_RX_CNT(hpcd->Instance, PCD_ENDP0, ep->maxpacket);
 80016c2:	5ac2      	ldrh	r2, [r0, r3]
 80016c4:	086e      	lsrs	r6, r5, #1
 80016c6:	07ed      	lsls	r5, r5, #31
 80016c8:	bf48      	it	mi
 80016ca:	3601      	addmi	r6, #1
 80016cc:	b292      	uxth	r2, r2
 80016ce:	ea42 2286 	orr.w	r2, r2, r6, lsl #10
 80016d2:	e7df      	b.n	8001694 <HAL_PCD_IRQHandler+0x188>
      wEPVal = PCD_GET_ENDPOINT(hpcd->Instance, epindex);
 80016d4:	f830 3026 	ldrh.w	r3, [r0, r6, lsl #2]
      if ((wEPVal & USB_EP_CTR_RX) != 0U)
 80016d8:	041a      	lsls	r2, r3, #16
      wEPVal = PCD_GET_ENDPOINT(hpcd->Instance, epindex);
 80016da:	b29f      	uxth	r7, r3
      if ((wEPVal & USB_EP_CTR_RX) != 0U)
 80016dc:	f140 80f4 	bpl.w	80018c8 <HAL_PCD_IRQHandler+0x3bc>
        if (ep->doublebuffer == 0U)
 80016e0:	2128      	movs	r1, #40	; 0x28
        PCD_CLEAR_RX_EP_CTR(hpcd->Instance, epindex);
 80016e2:	f830 3026 	ldrh.w	r3, [r0, r6, lsl #2]
        if (ep->doublebuffer == 0U)
 80016e6:	fb01 4106 	mla	r1, r1, r6, r4
        PCD_CLEAR_RX_EP_CTR(hpcd->Instance, epindex);
 80016ea:	f023 0370 	bic.w	r3, r3, #112	; 0x70
 80016ee:	051b      	lsls	r3, r3, #20
 80016f0:	0d1b      	lsrs	r3, r3, #20
 80016f2:	f043 0380 	orr.w	r3, r3, #128	; 0x80
 80016f6:	f820 3026 	strh.w	r3, [r0, r6, lsl #2]
        if (ep->doublebuffer == 0U)
 80016fa:	f891 3174 	ldrb.w	r3, [r1, #372]	; 0x174
 80016fe:	f500 6c80 	add.w	ip, r0, #1024	; 0x400
 8001702:	b9b3      	cbnz	r3, 8001732 <HAL_PCD_IRQHandler+0x226>
          count = (uint16_t)PCD_GET_EP_RX_CNT(hpcd->Instance, ep->num);
 8001704:	f8b0 3050 	ldrh.w	r3, [r0, #80]	; 0x50
 8001708:	f891 2168 	ldrb.w	r2, [r1, #360]	; 0x168
 800170c:	b29b      	uxth	r3, r3
 800170e:	3306      	adds	r3, #6
 8001710:	eb03 03c2 	add.w	r3, r3, r2, lsl #3
 8001714:	f83c 5013 	ldrh.w	r5, [ip, r3, lsl #1]
 8001718:	f3c5 0509 	ubfx	r5, r5, #0, #10
          if (count != 0U)
 800171c:	2d00      	cmp	r5, #0
 800171e:	f000 80b7 	beq.w	8001890 <HAL_PCD_IRQHandler+0x384>
            USB_ReadPMA(hpcd->Instance, ep->xfer_buff, ep->pmaadress, count);
 8001722:	462b      	mov	r3, r5
 8001724:	f8b1 216e 	ldrh.w	r2, [r1, #366]	; 0x16e
                USB_ReadPMA(hpcd->Instance, ep->xfer_buff, ep->pmaaddr1, count);
 8001728:	f8d1 117c 	ldr.w	r1, [r1, #380]	; 0x17c
 800172c:	f001 fcd6 	bl	80030dc <USB_ReadPMA>
 8001730:	e0ae      	b.n	8001890 <HAL_PCD_IRQHandler+0x384>
          if (ep->type == EP_TYPE_BULK)
 8001732:	f891 216b 	ldrb.w	r2, [r1, #363]	; 0x16b
          count = (uint16_t)PCD_GET_EP_RX_CNT(hpcd->Instance, ep->num);
 8001736:	f891 3168 	ldrb.w	r3, [r1, #360]	; 0x168
          if (ep->type == EP_TYPE_BULK)
 800173a:	2a02      	cmp	r2, #2
 800173c:	f040 8086 	bne.w	800184c <HAL_PCD_IRQHandler+0x340>

  /* Manage Buffer0 OUT */
  if ((wEPVal & USB_EP_DTOG_RX) != 0U)
  {
    /* Get count of received Data on buffer0 */
    count = (uint16_t)PCD_GET_EP_DBUF0_CNT(hpcd->Instance, ep->num);
 8001740:	f8b0 5050 	ldrh.w	r5, [r0, #80]	; 0x50
  if ((wEPVal & USB_EP_DTOG_RX) != 0U)
 8001744:	f417 4a80 	ands.w	sl, r7, #16384	; 0x4000

    if (ep->xfer_len >= count)
 8001748:	f8d1 2180 	ldr.w	r2, [r1, #384]	; 0x180
          count = (uint16_t)PCD_GET_EP_RX_CNT(hpcd->Instance, ep->num);
 800174c:	ea4f 0bc3 	mov.w	fp, r3, lsl #3
    count = (uint16_t)PCD_GET_EP_DBUF0_CNT(hpcd->Instance, ep->num);
 8001750:	b2ad      	uxth	r5, r5
 8001752:	f007 0e40 	and.w	lr, r7, #64	; 0x40
  if ((wEPVal & USB_EP_DTOG_RX) != 0U)
 8001756:	d03b      	beq.n	80017d0 <HAL_PCD_IRQHandler+0x2c4>
    count = (uint16_t)PCD_GET_EP_DBUF0_CNT(hpcd->Instance, ep->num);
 8001758:	44ab      	add	fp, r5
 800175a:	f10b 0b02 	add.w	fp, fp, #2
 800175e:	f83c 501b 	ldrh.w	r5, [ip, fp, lsl #1]
 8001762:	f3c5 0509 	ubfx	r5, r5, #0, #10
    if (ep->xfer_len >= count)
 8001766:	4295      	cmp	r5, r2
 8001768:	d913      	bls.n	8001792 <HAL_PCD_IRQHandler+0x286>
 800176a:	2200      	movs	r2, #0
 800176c:	f8c1 2180 	str.w	r2, [r1, #384]	; 0x180
    }

    if (ep->xfer_len == 0U)
    {
      /* set NAK to OUT endpoint since double buffer is enabled */
      PCD_SET_EP_RX_STATUS(hpcd->Instance, ep->num, USB_EP_RX_NAK);
 8001770:	f830 2023 	ldrh.w	r2, [r0, r3, lsl #2]
 8001774:	f422 4280 	bic.w	r2, r2, #16384	; 0x4000
 8001778:	f022 0270 	bic.w	r2, r2, #112	; 0x70
 800177c:	0412      	lsls	r2, r2, #16
 800177e:	0c12      	lsrs	r2, r2, #16
 8001780:	f482 5200 	eor.w	r2, r2, #8192	; 0x2000
 8001784:	f442 4200 	orr.w	r2, r2, #32768	; 0x8000
 8001788:	f042 0280 	orr.w	r2, r2, #128	; 0x80
 800178c:	f820 2023 	strh.w	r2, [r0, r3, lsl #2]
 8001790:	e004      	b.n	800179c <HAL_PCD_IRQHandler+0x290>
      ep->xfer_len -= count;
 8001792:	1b52      	subs	r2, r2, r5
 8001794:	f8c1 2180 	str.w	r2, [r1, #384]	; 0x180
    if (ep->xfer_len == 0U)
 8001798:	2a00      	cmp	r2, #0
 800179a:	d0e9      	beq.n	8001770 <HAL_PCD_IRQHandler+0x264>
    }

    /* Check if Buffer1 is in blocked state which requires to toggle */
    if ((wEPVal & USB_EP_DTOG_TX) != 0U)
 800179c:	f1be 0f00 	cmp.w	lr, #0
 80017a0:	d00d      	beq.n	80017be <HAL_PCD_IRQHandler+0x2b2>
    {
      PCD_FREE_USER_BUFFER(hpcd->Instance, ep->num, 0U);
 80017a2:	f830 2023 	ldrh.w	r2, [r0, r3, lsl #2]
 80017a6:	f422 42e0 	bic.w	r2, r2, #28672	; 0x7000
 80017aa:	f022 0270 	bic.w	r2, r2, #112	; 0x70
 80017ae:	0412      	lsls	r2, r2, #16
 80017b0:	0c12      	lsrs	r2, r2, #16
 80017b2:	f442 4200 	orr.w	r2, r2, #32768	; 0x8000
 80017b6:	f042 02c0 	orr.w	r2, r2, #192	; 0xc0
 80017ba:	f820 2023 	strh.w	r2, [r0, r3, lsl #2]
    }

    if (count != 0U)
 80017be:	2d00      	cmp	r5, #0
 80017c0:	d066      	beq.n	8001890 <HAL_PCD_IRQHandler+0x384>
    {
      USB_ReadPMA(hpcd->Instance, ep->xfer_buff, ep->pmaaddr0, count);
 80017c2:	2128      	movs	r1, #40	; 0x28
 80017c4:	fb01 4106 	mla	r1, r1, r6, r4
                USB_ReadPMA(hpcd->Instance, ep->xfer_buff, ep->pmaaddr0, count);
 80017c8:	462b      	mov	r3, r5
 80017ca:	f8b1 2170 	ldrh.w	r2, [r1, #368]	; 0x170
 80017ce:	e7ab      	b.n	8001728 <HAL_PCD_IRQHandler+0x21c>
  }
  /* Manage Buffer 1 DTOG_RX=0 */
  else
  {
    /* Get count of received data */
    count = (uint16_t)PCD_GET_EP_DBUF1_CNT(hpcd->Instance, ep->num);
 80017d0:	445d      	add	r5, fp
 80017d2:	3506      	adds	r5, #6
 80017d4:	f83c 5015 	ldrh.w	r5, [ip, r5, lsl #1]
 80017d8:	f3c5 0509 	ubfx	r5, r5, #0, #10

    if (ep->xfer_len >= count)
 80017dc:	4295      	cmp	r5, r2
 80017de:	d912      	bls.n	8001806 <HAL_PCD_IRQHandler+0x2fa>
 80017e0:	f8c1 a180 	str.w	sl, [r1, #384]	; 0x180
    }

    if (ep->xfer_len == 0U)
    {
      /* set NAK on the current endpoint */
      PCD_SET_EP_RX_STATUS(hpcd->Instance, ep->num, USB_EP_RX_NAK);
 80017e4:	f830 2023 	ldrh.w	r2, [r0, r3, lsl #2]
 80017e8:	f422 4280 	bic.w	r2, r2, #16384	; 0x4000
 80017ec:	f022 0270 	bic.w	r2, r2, #112	; 0x70
 80017f0:	0412      	lsls	r2, r2, #16
 80017f2:	0c12      	lsrs	r2, r2, #16
 80017f4:	f482 5200 	eor.w	r2, r2, #8192	; 0x2000
 80017f8:	f442 4200 	orr.w	r2, r2, #32768	; 0x8000
 80017fc:	f042 0280 	orr.w	r2, r2, #128	; 0x80
 8001800:	f820 2023 	strh.w	r2, [r0, r3, lsl #2]
 8001804:	e004      	b.n	8001810 <HAL_PCD_IRQHandler+0x304>
      ep->xfer_len -= count;
 8001806:	1b52      	subs	r2, r2, r5
 8001808:	f8c1 2180 	str.w	r2, [r1, #384]	; 0x180
    if (ep->xfer_len == 0U)
 800180c:	2a00      	cmp	r2, #0
 800180e:	d0e9      	beq.n	80017e4 <HAL_PCD_IRQHandler+0x2d8>
    }

    /*Need to FreeUser Buffer*/
    if ((wEPVal & USB_EP_DTOG_TX) == 0U)
 8001810:	f1be 0f00 	cmp.w	lr, #0
 8001814:	d10d      	bne.n	8001832 <HAL_PCD_IRQHandler+0x326>
    {
      PCD_FREE_USER_BUFFER(hpcd->Instance, ep->num, 0U);
 8001816:	f830 2023 	ldrh.w	r2, [r0, r3, lsl #2]
 800181a:	f422 42e0 	bic.w	r2, r2, #28672	; 0x7000
 800181e:	f022 0270 	bic.w	r2, r2, #112	; 0x70
 8001822:	0412      	lsls	r2, r2, #16
 8001824:	0c12      	lsrs	r2, r2, #16
 8001826:	f442 4200 	orr.w	r2, r2, #32768	; 0x8000
 800182a:	f042 02c0 	orr.w	r2, r2, #192	; 0xc0
 800182e:	f820 2023 	strh.w	r2, [r0, r3, lsl #2]
    }

    if (count != 0U)
 8001832:	b36d      	cbz	r5, 8001890 <HAL_PCD_IRQHandler+0x384>
    {
      USB_ReadPMA(hpcd->Instance, ep->xfer_buff, ep->pmaaddr1, count);
 8001834:	2128      	movs	r1, #40	; 0x28
 8001836:	fb01 4106 	mla	r1, r1, r6, r4
                USB_ReadPMA(hpcd->Instance, ep->xfer_buff, ep->pmaaddr1, count);
 800183a:	462b      	mov	r3, r5
 800183c:	f8b1 2172 	ldrh.w	r2, [r1, #370]	; 0x172
 8001840:	e772      	b.n	8001728 <HAL_PCD_IRQHandler+0x21c>
 8001842:	bf00      	nop
 8001844:	ffff8f0f 	.word	0xffff8f0f
 8001848:	ffff8000 	.word	0xffff8000
            PCD_FREE_USER_BUFFER(hpcd->Instance, ep->num, 0U);
 800184c:	f830 2023 	ldrh.w	r2, [r0, r3, lsl #2]
 8001850:	f422 42e0 	bic.w	r2, r2, #28672	; 0x7000
 8001854:	f022 0270 	bic.w	r2, r2, #112	; 0x70
 8001858:	0412      	lsls	r2, r2, #16
 800185a:	0c12      	lsrs	r2, r2, #16
 800185c:	f442 4200 	orr.w	r2, r2, #32768	; 0x8000
 8001860:	f042 02c0 	orr.w	r2, r2, #192	; 0xc0
 8001864:	f820 2023 	strh.w	r2, [r0, r3, lsl #2]
            if ((PCD_GET_ENDPOINT(hpcd->Instance, ep->num) & USB_EP_DTOG_RX) != 0U)
 8001868:	f891 3168 	ldrb.w	r3, [r1, #360]	; 0x168
 800186c:	f830 2023 	ldrh.w	r2, [r0, r3, lsl #2]
 8001870:	f412 4f80 	tst.w	r2, #16384	; 0x4000
 8001874:	ea4f 02c3 	mov.w	r2, r3, lsl #3
              count = (uint16_t)PCD_GET_EP_DBUF0_CNT(hpcd->Instance, ep->num);
 8001878:	f8b0 3050 	ldrh.w	r3, [r0, #80]	; 0x50
 800187c:	b29b      	uxth	r3, r3
            if ((PCD_GET_ENDPOINT(hpcd->Instance, ep->num) & USB_EP_DTOG_RX) != 0U)
 800187e:	d056      	beq.n	800192e <HAL_PCD_IRQHandler+0x422>
              count = (uint16_t)PCD_GET_EP_DBUF0_CNT(hpcd->Instance, ep->num);
 8001880:	3302      	adds	r3, #2
 8001882:	4413      	add	r3, r2
 8001884:	f83c 5013 	ldrh.w	r5, [ip, r3, lsl #1]
 8001888:	f3c5 0509 	ubfx	r5, r5, #0, #10
              if (count != 0U)
 800188c:	2d00      	cmp	r5, #0
 800188e:	d19b      	bne.n	80017c8 <HAL_PCD_IRQHandler+0x2bc>
        ep->xfer_count += count;
 8001890:	2128      	movs	r1, #40	; 0x28
 8001892:	4371      	muls	r1, r6
 8001894:	1863      	adds	r3, r4, r1
 8001896:	f8d3 2184 	ldr.w	r2, [r3, #388]	; 0x184
 800189a:	442a      	add	r2, r5
 800189c:	f8c3 2184 	str.w	r2, [r3, #388]	; 0x184
        ep->xfer_buff += count;
 80018a0:	f8d3 217c 	ldr.w	r2, [r3, #380]	; 0x17c
 80018a4:	442a      	add	r2, r5
 80018a6:	f8c3 217c 	str.w	r2, [r3, #380]	; 0x17c
        if ((ep->xfer_len == 0U) || (count < ep->maxpacket))
 80018aa:	f8d3 2180 	ldr.w	r2, [r3, #384]	; 0x180
 80018ae:	b11a      	cbz	r2, 80018b8 <HAL_PCD_IRQHandler+0x3ac>
 80018b0:	f8d3 3178 	ldr.w	r3, [r3, #376]	; 0x178
 80018b4:	429d      	cmp	r5, r3
 80018b6:	d243      	bcs.n	8001940 <HAL_PCD_IRQHandler+0x434>
          HAL_PCD_DataOutStageCallback(hpcd, ep->num);
 80018b8:	2328      	movs	r3, #40	; 0x28
 80018ba:	fb03 4306 	mla	r3, r3, r6, r4
 80018be:	4620      	mov	r0, r4
 80018c0:	f893 1168 	ldrb.w	r1, [r3, #360]	; 0x168
 80018c4:	f002 fa14 	bl	8003cf0 <HAL_PCD_DataOutStageCallback>
      if ((wEPVal & USB_EP_CTR_TX) != 0U)
 80018c8:	063b      	lsls	r3, r7, #24
 80018ca:	f57f ae2e 	bpl.w	800152a <HAL_PCD_IRQHandler+0x1e>
 80018ce:	f04f 0c28 	mov.w	ip, #40	; 0x28
        PCD_CLEAR_TX_EP_CTR(hpcd->Instance, epindex);
 80018d2:	6820      	ldr	r0, [r4, #0]
 80018d4:	fb0c 4506 	mla	r5, ip, r6, r4
 80018d8:	f830 3026 	ldrh.w	r3, [r0, r6, lsl #2]
 80018dc:	b29b      	uxth	r3, r3
 80018de:	ea03 0309 	and.w	r3, r3, r9
 80018e2:	f443 4300 	orr.w	r3, r3, #32768	; 0x8000
 80018e6:	f820 3026 	strh.w	r3, [r0, r6, lsl #2]
        if (ep->type == EP_TYPE_ISOC)
 80018ea:	f895 302b 	ldrb.w	r3, [r5, #43]	; 0x2b
 80018ee:	2b01      	cmp	r3, #1
 80018f0:	d150      	bne.n	8001994 <HAL_PCD_IRQHandler+0x488>
          ep->xfer_len = 0U;
 80018f2:	2100      	movs	r1, #0
          if (ep->doublebuffer != 0U)
 80018f4:	f895 3034 	ldrb.w	r3, [r5, #52]	; 0x34
          ep->xfer_len = 0U;
 80018f8:	6429      	str	r1, [r5, #64]	; 0x40
          if (ep->doublebuffer != 0U)
 80018fa:	b393      	cbz	r3, 8001962 <HAL_PCD_IRQHandler+0x456>
            if ((wEPVal & USB_EP_DTOG_TX) != 0U)
 80018fc:	f017 0740 	ands.w	r7, r7, #64	; 0x40
 8001900:	f895 2029 	ldrb.w	r2, [r5, #41]	; 0x29
 8001904:	f895 3028 	ldrb.w	r3, [r5, #40]	; 0x28
 8001908:	d031      	beq.n	800196e <HAL_PCD_IRQHandler+0x462>
              PCD_SET_EP_DBUF0_CNT(hpcd->Instance, ep->num, ep->is_in, 0U);
 800190a:	bb02      	cbnz	r2, 800194e <HAL_PCD_IRQHandler+0x442>
 800190c:	f8b0 2050 	ldrh.w	r2, [r0, #80]	; 0x50
 8001910:	011b      	lsls	r3, r3, #4
 8001912:	b292      	uxth	r2, r2
 8001914:	f200 4004 	addw	r0, r0, #1028	; 0x404
              PCD_SET_EP_DBUF1_CNT(hpcd->Instance, ep->num, ep->is_in, 0U);
 8001918:	4410      	add	r0, r2
 800191a:	5a1a      	ldrh	r2, [r3, r0]
 800191c:	f3c2 0209 	ubfx	r2, r2, #0, #10
 8001920:	521a      	strh	r2, [r3, r0]
 8001922:	5a1a      	ldrh	r2, [r3, r0]
 8001924:	b292      	uxth	r2, r2
 8001926:	f442 4200 	orr.w	r2, r2, #32768	; 0x8000
 800192a:	521a      	strh	r2, [r3, r0]
 800192c:	e019      	b.n	8001962 <HAL_PCD_IRQHandler+0x456>
              count = (uint16_t)PCD_GET_EP_DBUF1_CNT(hpcd->Instance, ep->num);
 800192e:	3306      	adds	r3, #6
 8001930:	4413      	add	r3, r2
 8001932:	f83c 5013 	ldrh.w	r5, [ip, r3, lsl #1]
 8001936:	f3c5 0509 	ubfx	r5, r5, #0, #10
              if (count != 0U)
 800193a:	2d00      	cmp	r5, #0
 800193c:	d0a8      	beq.n	8001890 <HAL_PCD_IRQHandler+0x384>
 800193e:	e77c      	b.n	800183a <HAL_PCD_IRQHandler+0x32e>
        ep = &hpcd->OUT_ep[epindex];
 8001940:	f501 71b4 	add.w	r1, r1, #360	; 0x168
          (void)USB_EPStartXfer(hpcd->Instance, ep);
 8001944:	6820      	ldr	r0, [r4, #0]
 8001946:	4421      	add	r1, r4
 8001948:	f001 f990 	bl	8002c6c <USB_EPStartXfer>
 800194c:	e7bc      	b.n	80018c8 <HAL_PCD_IRQHandler+0x3bc>
              PCD_SET_EP_DBUF0_CNT(hpcd->Instance, ep->num, ep->is_in, 0U);
 800194e:	2a01      	cmp	r2, #1
 8001950:	d107      	bne.n	8001962 <HAL_PCD_IRQHandler+0x456>
 8001952:	f8b0 2050 	ldrh.w	r2, [r0, #80]	; 0x50
 8001956:	f200 4004 	addw	r0, r0, #1028	; 0x404
 800195a:	b292      	uxth	r2, r2
 800195c:	011b      	lsls	r3, r3, #4
 800195e:	4410      	add	r0, r2
 8001960:	5219      	strh	r1, [r3, r0]
          HAL_PCD_DataInStageCallback(hpcd, ep->num);
 8001962:	f895 1028 	ldrb.w	r1, [r5, #40]	; 0x28
              HAL_PCD_DataInStageCallback(hpcd, ep->num);
 8001966:	4620      	mov	r0, r4
 8001968:	f002 f9cb 	bl	8003d02 <HAL_PCD_DataInStageCallback>
 800196c:	e5dd      	b.n	800152a <HAL_PCD_IRQHandler+0x1e>
              PCD_SET_EP_DBUF1_CNT(hpcd->Instance, ep->num, ep->is_in, 0U);
 800196e:	b932      	cbnz	r2, 800197e <HAL_PCD_IRQHandler+0x472>
 8001970:	f8b0 2050 	ldrh.w	r2, [r0, #80]	; 0x50
 8001974:	011b      	lsls	r3, r3, #4
 8001976:	b292      	uxth	r2, r2
 8001978:	f200 400c 	addw	r0, r0, #1036	; 0x40c
 800197c:	e7cc      	b.n	8001918 <HAL_PCD_IRQHandler+0x40c>
 800197e:	2a01      	cmp	r2, #1
 8001980:	d1ef      	bne.n	8001962 <HAL_PCD_IRQHandler+0x456>
 8001982:	f8b0 2050 	ldrh.w	r2, [r0, #80]	; 0x50
 8001986:	f200 400c 	addw	r0, r0, #1036	; 0x40c
 800198a:	b292      	uxth	r2, r2
 800198c:	011b      	lsls	r3, r3, #4
 800198e:	4410      	add	r0, r2
 8001990:	521f      	strh	r7, [r3, r0]
 8001992:	e7e6      	b.n	8001962 <HAL_PCD_IRQHandler+0x456>
            TxPctSize = (uint16_t)PCD_GET_EP_TX_CNT(hpcd->Instance, ep->num);
 8001994:	f895 1028 	ldrb.w	r1, [r5, #40]	; 0x28
          if ((wEPVal & USB_EP_KIND) == 0U)
 8001998:	f417 7280 	ands.w	r2, r7, #256	; 0x100
            if (ep->xfer_len > TxPctSize)
 800199c:	6c2b      	ldr	r3, [r5, #64]	; 0x40
            TxPctSize = (uint16_t)PCD_GET_EP_TX_CNT(hpcd->Instance, ep->num);
 800199e:	ea4f 0ac1 	mov.w	sl, r1, lsl #3
 80019a2:	f500 6e80 	add.w	lr, r0, #1024	; 0x400
          if ((wEPVal & USB_EP_KIND) == 0U)
 80019a6:	d11c      	bne.n	80019e2 <HAL_PCD_IRQHandler+0x4d6>
            TxPctSize = (uint16_t)PCD_GET_EP_TX_CNT(hpcd->Instance, ep->num);
 80019a8:	f8b0 7050 	ldrh.w	r7, [r0, #80]	; 0x50
 80019ac:	b2bf      	uxth	r7, r7
 80019ae:	44ba      	add	sl, r7
 80019b0:	f10a 0a02 	add.w	sl, sl, #2
 80019b4:	f83e 701a 	ldrh.w	r7, [lr, sl, lsl #1]
            if (ep->xfer_len > TxPctSize)
 80019b8:	f3c7 0709 	ubfx	r7, r7, #0, #10
 80019bc:	429f      	cmp	r7, r3
 80019be:	d301      	bcc.n	80019c4 <HAL_PCD_IRQHandler+0x4b8>
 80019c0:	642a      	str	r2, [r5, #64]	; 0x40
 80019c2:	e7d0      	b.n	8001966 <HAL_PCD_IRQHandler+0x45a>
              ep->xfer_len -= TxPctSize;
 80019c4:	1bdb      	subs	r3, r3, r7
 80019c6:	642b      	str	r3, [r5, #64]	; 0x40
              ep->xfer_buff += TxPctSize;
 80019c8:	6beb      	ldr	r3, [r5, #60]	; 0x3c
        ep = &hpcd->IN_ep[epindex];
 80019ca:	fb06 cc0c 	mla	ip, r6, ip, ip
              ep->xfer_buff += TxPctSize;
 80019ce:	443b      	add	r3, r7
 80019d0:	63eb      	str	r3, [r5, #60]	; 0x3c
              ep->xfer_count += TxPctSize;
 80019d2:	6c6b      	ldr	r3, [r5, #68]	; 0x44
              (void)USB_EPStartXfer(hpcd->Instance, ep);
 80019d4:	eb04 010c 	add.w	r1, r4, ip
              ep->xfer_count += TxPctSize;
 80019d8:	443b      	add	r3, r7
 80019da:	646b      	str	r3, [r5, #68]	; 0x44
              (void)USB_EPStartXfer(hpcd->Instance, ep);
 80019dc:	f001 f946 	bl	8002c6c <USB_EPStartXfer>
 80019e0:	e5a3      	b.n	800152a <HAL_PCD_IRQHandler+0x1e>

  /* Data Buffer0 ACK received */
  if ((wEPVal & USB_EP_DTOG_TX) != 0U)
  {
    /* multi-packet on the NON control IN endpoint */
    TxPctSize = (uint16_t)PCD_GET_EP_DBUF0_CNT(hpcd->Instance, ep->num);
 80019e2:	f8b0 2050 	ldrh.w	r2, [r0, #80]	; 0x50
  if ((wEPVal & USB_EP_DTOG_TX) != 0U)
 80019e6:	f017 0c40 	ands.w	ip, r7, #64	; 0x40
    TxPctSize = (uint16_t)PCD_GET_EP_DBUF0_CNT(hpcd->Instance, ep->num);
 80019ea:	b292      	uxth	r2, r2
 80019ec:	4452      	add	r2, sl
 80019ee:	f407 4780 	and.w	r7, r7, #16384	; 0x4000
  if ((wEPVal & USB_EP_DTOG_TX) != 0U)
 80019f2:	f000 80dc 	beq.w	8001bae <HAL_PCD_IRQHandler+0x6a2>
    TxPctSize = (uint16_t)PCD_GET_EP_DBUF0_CNT(hpcd->Instance, ep->num);
 80019f6:	3202      	adds	r2, #2
 80019f8:	f83e 2012 	ldrh.w	r2, [lr, r2, lsl #1]
 80019fc:	f04f 0c28 	mov.w	ip, #40	; 0x28

    if (ep->xfer_len > TxPctSize)
 8001a00:	f3c2 0209 	ubfx	r2, r2, #0, #10
 8001a04:	429a      	cmp	r2, r3
    {
      ep->xfer_len -= TxPctSize;
    }
    else
    {
      ep->xfer_len = 0U;
 8001a06:	bf28      	it	cs
 8001a08:	2300      	movcs	r3, #0
 8001a0a:	fb0c 4c06 	mla	ip, ip, r6, r4
      ep->xfer_len -= TxPctSize;
 8001a0e:	bf38      	it	cc
 8001a10:	1a9b      	subcc	r3, r3, r2
 8001a12:	f8cc 3040 	str.w	r3, [ip, #64]	; 0x40
    }

    /* Transfer is completed */
    if (ep->xfer_len == 0U)
 8001a16:	b2bf      	uxth	r7, r7
 8001a18:	2b00      	cmp	r3, #0
 8001a1a:	d14d      	bne.n	8001ab8 <HAL_PCD_IRQHandler+0x5ac>
    {
      PCD_SET_EP_DBUF0_CNT(hpcd->Instance, ep->num, ep->is_in, 0U);
 8001a1c:	f895 2029 	ldrb.w	r2, [r5, #41]	; 0x29
 8001a20:	2a00      	cmp	r2, #0
 8001a22:	d136      	bne.n	8001a92 <HAL_PCD_IRQHandler+0x586>
 8001a24:	f8b0 6050 	ldrh.w	r6, [r0, #80]	; 0x50
 8001a28:	010b      	lsls	r3, r1, #4
 8001a2a:	b2b2      	uxth	r2, r6
 8001a2c:	f200 4604 	addw	r6, r0, #1028	; 0x404
 8001a30:	4416      	add	r6, r2
 8001a32:	5af2      	ldrh	r2, [r6, r3]
 8001a34:	f3c2 0209 	ubfx	r2, r2, #0, #10
 8001a38:	52f2      	strh	r2, [r6, r3]
 8001a3a:	5af2      	ldrh	r2, [r6, r3]
 8001a3c:	b292      	uxth	r2, r2
 8001a3e:	f442 4200 	orr.w	r2, r2, #32768	; 0x8000
 8001a42:	52f2      	strh	r2, [r6, r3]
      PCD_SET_EP_DBUF1_CNT(hpcd->Instance, ep->num, ep->is_in, 0U);
 8001a44:	f8b0 2050 	ldrh.w	r2, [r0, #80]	; 0x50
 8001a48:	f200 400c 	addw	r0, r0, #1036	; 0x40c
 8001a4c:	b292      	uxth	r2, r2
 8001a4e:	4410      	add	r0, r2
 8001a50:	5ac2      	ldrh	r2, [r0, r3]
 8001a52:	f3c2 0209 	ubfx	r2, r2, #0, #10
 8001a56:	52c2      	strh	r2, [r0, r3]
 8001a58:	5ac2      	ldrh	r2, [r0, r3]
 8001a5a:	b292      	uxth	r2, r2
 8001a5c:	f442 4200 	orr.w	r2, r2, #32768	; 0x8000
 8001a60:	52c2      	strh	r2, [r0, r3]

      /* TX COMPLETE */
#if (USE_HAL_PCD_REGISTER_CALLBACKS == 1U)
      hpcd->DataInStageCallback(hpcd, ep->num);
#else
      HAL_PCD_DataInStageCallback(hpcd, ep->num);
 8001a62:	4620      	mov	r0, r4
 8001a64:	f002 f94d 	bl	8003d02 <HAL_PCD_DataInStageCallback>
#endif /* USE_HAL_PCD_REGISTER_CALLBACKS */

      if ((wEPVal & USB_EP_DTOG_RX) != 0U)
 8001a68:	2f00      	cmp	r7, #0
 8001a6a:	f000 80dc 	beq.w	8001c26 <HAL_PCD_IRQHandler+0x71a>
#endif /* USE_HAL_PCD_REGISTER_CALLBACKS */

      /* need to Free USB Buff */
      if ((wEPVal & USB_EP_DTOG_RX) == 0U)
      {
        PCD_FREE_USER_BUFFER(hpcd->Instance, ep->num, 1U);
 8001a6e:	f895 1028 	ldrb.w	r1, [r5, #40]	; 0x28
 8001a72:	6822      	ldr	r2, [r4, #0]
 8001a74:	f832 3021 	ldrh.w	r3, [r2, r1, lsl #2]
 8001a78:	f423 43e0 	bic.w	r3, r3, #28672	; 0x7000
 8001a7c:	f023 0370 	bic.w	r3, r3, #112	; 0x70
 8001a80:	041b      	lsls	r3, r3, #16
 8001a82:	0c1b      	lsrs	r3, r3, #16
 8001a84:	f443 4340 	orr.w	r3, r3, #49152	; 0xc000
 8001a88:	f043 0380 	orr.w	r3, r3, #128	; 0x80
 8001a8c:	f822 3021 	strh.w	r3, [r2, r1, lsl #2]
 8001a90:	e0c9      	b.n	8001c26 <HAL_PCD_IRQHandler+0x71a>
      PCD_SET_EP_DBUF0_CNT(hpcd->Instance, ep->num, ep->is_in, 0U);
 8001a92:	2a01      	cmp	r2, #1
 8001a94:	d1e5      	bne.n	8001a62 <HAL_PCD_IRQHandler+0x556>
 8001a96:	f8b0 6050 	ldrh.w	r6, [r0, #80]	; 0x50
 8001a9a:	010a      	lsls	r2, r1, #4
 8001a9c:	fa1f fc86 	uxth.w	ip, r6
 8001aa0:	f200 4604 	addw	r6, r0, #1028	; 0x404
 8001aa4:	4466      	add	r6, ip
 8001aa6:	52b3      	strh	r3, [r6, r2]
      PCD_SET_EP_DBUF1_CNT(hpcd->Instance, ep->num, ep->is_in, 0U);
 8001aa8:	f8b0 6050 	ldrh.w	r6, [r0, #80]	; 0x50
 8001aac:	f200 400c 	addw	r0, r0, #1036	; 0x40c
 8001ab0:	b2b6      	uxth	r6, r6
 8001ab2:	4430      	add	r0, r6
 8001ab4:	5283      	strh	r3, [r0, r2]
 8001ab6:	e7d4      	b.n	8001a62 <HAL_PCD_IRQHandler+0x556>
      if ((wEPVal & USB_EP_DTOG_RX) != 0U)
 8001ab8:	b16f      	cbz	r7, 8001ad6 <HAL_PCD_IRQHandler+0x5ca>
        PCD_FREE_USER_BUFFER(hpcd->Instance, ep->num, 1U);
 8001aba:	f830 3021 	ldrh.w	r3, [r0, r1, lsl #2]
 8001abe:	f423 43e0 	bic.w	r3, r3, #28672	; 0x7000
 8001ac2:	f023 0370 	bic.w	r3, r3, #112	; 0x70
 8001ac6:	041b      	lsls	r3, r3, #16
 8001ac8:	0c1b      	lsrs	r3, r3, #16
 8001aca:	f443 4340 	orr.w	r3, r3, #49152	; 0xc000
 8001ace:	f043 0380 	orr.w	r3, r3, #128	; 0x80
 8001ad2:	f820 3021 	strh.w	r3, [r0, r1, lsl #2]
      if (ep->xfer_fill_db == 1U)
 8001ad6:	2728      	movs	r7, #40	; 0x28
 8001ad8:	fb07 4706 	mla	r7, r7, r6, r4
 8001adc:	f897 304c 	ldrb.w	r3, [r7, #76]	; 0x4c
 8001ae0:	2b01      	cmp	r3, #1
 8001ae2:	f040 80a0 	bne.w	8001c26 <HAL_PCD_IRQHandler+0x71a>
        ep->xfer_buff += TxPctSize;
 8001ae6:	6bfb      	ldr	r3, [r7, #60]	; 0x3c
        if (ep->xfer_len_db >= ep->maxpacket)
 8001ae8:	f8d7 e048 	ldr.w	lr, [r7, #72]	; 0x48
        ep->xfer_buff += TxPctSize;
 8001aec:	eb03 0c02 	add.w	ip, r3, r2
        ep->xfer_count += TxPctSize;
 8001af0:	6c7b      	ldr	r3, [r7, #68]	; 0x44
        ep->xfer_buff += TxPctSize;
 8001af2:	f8c7 c03c 	str.w	ip, [r7, #60]	; 0x3c
        ep->xfer_count += TxPctSize;
 8001af6:	4413      	add	r3, r2
 8001af8:	647b      	str	r3, [r7, #68]	; 0x44
        if (ep->xfer_len_db >= ep->maxpacket)
 8001afa:	6bbb      	ldr	r3, [r7, #56]	; 0x38
 8001afc:	459e      	cmp	lr, r3
 8001afe:	d32c      	bcc.n	8001b5a <HAL_PCD_IRQHandler+0x64e>
          ep->xfer_len_db -= len;
 8001b00:	ebae 0203 	sub.w	r2, lr, r3
 8001b04:	64ba      	str	r2, [r7, #72]	; 0x48
        PCD_SET_EP_DBUF0_CNT(hpcd->Instance, ep->num, ep->is_in, len);
 8001b06:	f895 2029 	ldrb.w	r2, [r5, #41]	; 0x29
 8001b0a:	fa1f fe83 	uxth.w	lr, r3
 8001b0e:	2a00      	cmp	r2, #0
 8001b10:	d141      	bne.n	8001b96 <HAL_PCD_IRQHandler+0x68a>
 8001b12:	f8b0 2050 	ldrh.w	r2, [r0, #80]	; 0x50
 8001b16:	f200 4704 	addw	r7, r0, #1028	; 0x404
 8001b1a:	b292      	uxth	r2, r2
 8001b1c:	443a      	add	r2, r7
 8001b1e:	0109      	lsls	r1, r1, #4
 8001b20:	5a57      	ldrh	r7, [r2, r1]
 8001b22:	2b3e      	cmp	r3, #62	; 0x3e
 8001b24:	f3c7 0709 	ubfx	r7, r7, #0, #10
 8001b28:	5257      	strh	r7, [r2, r1]
 8001b2a:	d923      	bls.n	8001b74 <HAL_PCD_IRQHandler+0x668>
 8001b2c:	06df      	lsls	r7, r3, #27
 8001b2e:	5a57      	ldrh	r7, [r2, r1]
 8001b30:	ea4f 1a53 	mov.w	sl, r3, lsr #5
 8001b34:	bf08      	it	eq
 8001b36:	f10a 3aff 	addeq.w	sl, sl, #4294967295
 8001b3a:	b2bf      	uxth	r7, r7
 8001b3c:	ea47 278a 	orr.w	r7, r7, sl, lsl #10
 8001b40:	ea47 0708 	orr.w	r7, r7, r8
 8001b44:	b2bf      	uxth	r7, r7
 8001b46:	5257      	strh	r7, [r2, r1]
        USB_WritePMA(hpcd->Instance, ep->xfer_buff,  ep->pmaaddr0, (uint16_t)len);
 8001b48:	2128      	movs	r1, #40	; 0x28
 8001b4a:	4673      	mov	r3, lr
 8001b4c:	fb01 4606 	mla	r6, r1, r6, r4
 8001b50:	4661      	mov	r1, ip
 8001b52:	8e32      	ldrh	r2, [r6, #48]	; 0x30

        /* Set the Double buffer counter for pmabuffer1 */
        PCD_SET_EP_DBUF1_CNT(hpcd->Instance, ep->num, ep->is_in, len);

        /* Copy the user buffer to USB PMA */
        USB_WritePMA(hpcd->Instance, ep->xfer_buff,  ep->pmaaddr1, (uint16_t)len);
 8001b54:	f001 f87a 	bl	8002c4c <USB_WritePMA>
 8001b58:	e065      	b.n	8001c26 <HAL_PCD_IRQHandler+0x71a>
        else if (ep->xfer_len_db == 0U)
 8001b5a:	f1be 0f00 	cmp.w	lr, #0
 8001b5e:	d103      	bne.n	8001b68 <HAL_PCD_IRQHandler+0x65c>
    if (ep->xfer_len > TxPctSize)
 8001b60:	4613      	mov	r3, r2
          ep->xfer_fill_db = 0U;
 8001b62:	f887 e04c 	strb.w	lr, [r7, #76]	; 0x4c
 8001b66:	e7ce      	b.n	8001b06 <HAL_PCD_IRQHandler+0x5fa>
          ep->xfer_fill_db = 0U;
 8001b68:	2300      	movs	r3, #0
 8001b6a:	f887 304c 	strb.w	r3, [r7, #76]	; 0x4c
          ep->xfer_len_db = 0U;
 8001b6e:	64bb      	str	r3, [r7, #72]	; 0x48
 8001b70:	4673      	mov	r3, lr
 8001b72:	e7c8      	b.n	8001b06 <HAL_PCD_IRQHandler+0x5fa>
        PCD_SET_EP_DBUF0_CNT(hpcd->Instance, ep->num, ep->is_in, len);
 8001b74:	b92b      	cbnz	r3, 8001b82 <HAL_PCD_IRQHandler+0x676>
 8001b76:	5a53      	ldrh	r3, [r2, r1]
 8001b78:	b29b      	uxth	r3, r3
 8001b7a:	f443 4300 	orr.w	r3, r3, #32768	; 0x8000
 8001b7e:	5253      	strh	r3, [r2, r1]
 8001b80:	e7e2      	b.n	8001b48 <HAL_PCD_IRQHandler+0x63c>
 8001b82:	085f      	lsrs	r7, r3, #1
 8001b84:	07db      	lsls	r3, r3, #31
 8001b86:	5a53      	ldrh	r3, [r2, r1]
 8001b88:	bf48      	it	mi
 8001b8a:	3701      	addmi	r7, #1
 8001b8c:	b29b      	uxth	r3, r3
 8001b8e:	ea43 2387 	orr.w	r3, r3, r7, lsl #10
 8001b92:	b29b      	uxth	r3, r3
 8001b94:	e7f3      	b.n	8001b7e <HAL_PCD_IRQHandler+0x672>
 8001b96:	2a01      	cmp	r2, #1
 8001b98:	d1d6      	bne.n	8001b48 <HAL_PCD_IRQHandler+0x63c>
 8001b9a:	f8b0 3050 	ldrh.w	r3, [r0, #80]	; 0x50
 8001b9e:	0109      	lsls	r1, r1, #4
 8001ba0:	b29a      	uxth	r2, r3
 8001ba2:	f200 4304 	addw	r3, r0, #1028	; 0x404
 8001ba6:	4413      	add	r3, r2
 8001ba8:	f823 e001 	strh.w	lr, [r3, r1]
 8001bac:	e7cc      	b.n	8001b48 <HAL_PCD_IRQHandler+0x63c>
    TxPctSize = (uint16_t)PCD_GET_EP_DBUF1_CNT(hpcd->Instance, ep->num);
 8001bae:	3206      	adds	r2, #6
 8001bb0:	f83e 2012 	ldrh.w	r2, [lr, r2, lsl #1]
 8001bb4:	b2bf      	uxth	r7, r7
    if (ep->xfer_len >= TxPctSize)
 8001bb6:	f3c2 0209 	ubfx	r2, r2, #0, #10
 8001bba:	429a      	cmp	r2, r3
      ep->xfer_len = 0U;
 8001bbc:	bf88      	it	hi
 8001bbe:	4663      	movhi	r3, ip
 8001bc0:	f04f 0c28 	mov.w	ip, #40	; 0x28
 8001bc4:	fb0c 4c06 	mla	ip, ip, r6, r4
      ep->xfer_len -= TxPctSize;
 8001bc8:	bf98      	it	ls
 8001bca:	1a9b      	subls	r3, r3, r2
 8001bcc:	f8cc 3040 	str.w	r3, [ip, #64]	; 0x40
    if (ep->xfer_len == 0U)
 8001bd0:	2b00      	cmp	r3, #0
 8001bd2:	d14e      	bne.n	8001c72 <HAL_PCD_IRQHandler+0x766>
      PCD_SET_EP_DBUF0_CNT(hpcd->Instance, ep->num, ep->is_in, 0U);
 8001bd4:	f895 2029 	ldrb.w	r2, [r5, #41]	; 0x29
 8001bd8:	2a00      	cmp	r2, #0
 8001bda:	d137      	bne.n	8001c4c <HAL_PCD_IRQHandler+0x740>
 8001bdc:	f8b0 6050 	ldrh.w	r6, [r0, #80]	; 0x50
 8001be0:	010b      	lsls	r3, r1, #4
 8001be2:	b2b2      	uxth	r2, r6
 8001be4:	f200 4604 	addw	r6, r0, #1028	; 0x404
 8001be8:	4416      	add	r6, r2
 8001bea:	5af2      	ldrh	r2, [r6, r3]
 8001bec:	f3c2 0209 	ubfx	r2, r2, #0, #10
 8001bf0:	52f2      	strh	r2, [r6, r3]
 8001bf2:	5af2      	ldrh	r2, [r6, r3]
 8001bf4:	b292      	uxth	r2, r2
 8001bf6:	f442 4200 	orr.w	r2, r2, #32768	; 0x8000
 8001bfa:	52f2      	strh	r2, [r6, r3]
      PCD_SET_EP_DBUF1_CNT(hpcd->Instance, ep->num, ep->is_in, 0U);
 8001bfc:	f8b0 2050 	ldrh.w	r2, [r0, #80]	; 0x50
 8001c00:	f200 400c 	addw	r0, r0, #1036	; 0x40c
 8001c04:	b292      	uxth	r2, r2
 8001c06:	4410      	add	r0, r2
 8001c08:	5ac2      	ldrh	r2, [r0, r3]
 8001c0a:	f3c2 0209 	ubfx	r2, r2, #0, #10
 8001c0e:	52c2      	strh	r2, [r0, r3]
 8001c10:	5ac2      	ldrh	r2, [r0, r3]
 8001c12:	b292      	uxth	r2, r2
 8001c14:	f442 4200 	orr.w	r2, r2, #32768	; 0x8000
 8001c18:	52c2      	strh	r2, [r0, r3]
      HAL_PCD_DataInStageCallback(hpcd, ep->num);
 8001c1a:	4620      	mov	r0, r4
 8001c1c:	f002 f871 	bl	8003d02 <HAL_PCD_DataInStageCallback>
      if ((wEPVal & USB_EP_DTOG_RX) == 0U)
 8001c20:	2f00      	cmp	r7, #0
 8001c22:	f43f af24 	beq.w	8001a6e <HAL_PCD_IRQHandler+0x562>
      }
    }
  }

  /*enable endpoint IN*/
  PCD_SET_EP_TX_STATUS(hpcd->Instance, ep->num, USB_EP_TX_VALID);
 8001c26:	f895 1028 	ldrb.w	r1, [r5, #40]	; 0x28
 8001c2a:	6822      	ldr	r2, [r4, #0]
 8001c2c:	f832 3021 	ldrh.w	r3, [r2, r1, lsl #2]
 8001c30:	b29b      	uxth	r3, r3
 8001c32:	f423 43e0 	bic.w	r3, r3, #28672	; 0x7000
 8001c36:	f023 0340 	bic.w	r3, r3, #64	; 0x40
 8001c3a:	f083 0330 	eor.w	r3, r3, #48	; 0x30
 8001c3e:	f443 4300 	orr.w	r3, r3, #32768	; 0x8000
 8001c42:	f043 0380 	orr.w	r3, r3, #128	; 0x80
 8001c46:	f822 3021 	strh.w	r3, [r2, r1, lsl #2]

  return HAL_OK;
 8001c4a:	e46e      	b.n	800152a <HAL_PCD_IRQHandler+0x1e>
      PCD_SET_EP_DBUF0_CNT(hpcd->Instance, ep->num, ep->is_in, 0U);
 8001c4c:	2a01      	cmp	r2, #1
 8001c4e:	d1e4      	bne.n	8001c1a <HAL_PCD_IRQHandler+0x70e>
 8001c50:	f8b0 6050 	ldrh.w	r6, [r0, #80]	; 0x50
 8001c54:	010a      	lsls	r2, r1, #4
 8001c56:	fa1f fc86 	uxth.w	ip, r6
 8001c5a:	f200 4604 	addw	r6, r0, #1028	; 0x404
 8001c5e:	4466      	add	r6, ip
 8001c60:	52b3      	strh	r3, [r6, r2]
      PCD_SET_EP_DBUF1_CNT(hpcd->Instance, ep->num, ep->is_in, 0U);
 8001c62:	f8b0 6050 	ldrh.w	r6, [r0, #80]	; 0x50
 8001c66:	f200 400c 	addw	r0, r0, #1036	; 0x40c
 8001c6a:	b2b6      	uxth	r6, r6
 8001c6c:	4430      	add	r0, r6
 8001c6e:	5283      	strh	r3, [r0, r2]
 8001c70:	e7d3      	b.n	8001c1a <HAL_PCD_IRQHandler+0x70e>
      if ((wEPVal & USB_EP_DTOG_RX) == 0U)
 8001c72:	b96f      	cbnz	r7, 8001c90 <HAL_PCD_IRQHandler+0x784>
        PCD_FREE_USER_BUFFER(hpcd->Instance, ep->num, 1U);
 8001c74:	f830 3021 	ldrh.w	r3, [r0, r1, lsl #2]
 8001c78:	f423 43e0 	bic.w	r3, r3, #28672	; 0x7000
 8001c7c:	f023 0370 	bic.w	r3, r3, #112	; 0x70
 8001c80:	041b      	lsls	r3, r3, #16
 8001c82:	0c1b      	lsrs	r3, r3, #16
 8001c84:	f443 4340 	orr.w	r3, r3, #49152	; 0xc000
 8001c88:	f043 0380 	orr.w	r3, r3, #128	; 0x80
 8001c8c:	f820 3021 	strh.w	r3, [r0, r1, lsl #2]
      if (ep->xfer_fill_db == 1U)
 8001c90:	f04f 0c28 	mov.w	ip, #40	; 0x28
 8001c94:	fb0c 4c06 	mla	ip, ip, r6, r4
 8001c98:	f89c 304c 	ldrb.w	r3, [ip, #76]	; 0x4c
 8001c9c:	2b01      	cmp	r3, #1
 8001c9e:	d1c2      	bne.n	8001c26 <HAL_PCD_IRQHandler+0x71a>
        ep->xfer_count += TxPctSize;
 8001ca0:	f8dc 3044 	ldr.w	r3, [ip, #68]	; 0x44
        ep->xfer_buff += TxPctSize;
 8001ca4:	f8dc 703c 	ldr.w	r7, [ip, #60]	; 0x3c
        ep->xfer_count += TxPctSize;
 8001ca8:	4413      	add	r3, r2
        if (ep->xfer_len_db >= ep->maxpacket)
 8001caa:	f8dc e048 	ldr.w	lr, [ip, #72]	; 0x48
        ep->xfer_count += TxPctSize;
 8001cae:	f8cc 3044 	str.w	r3, [ip, #68]	; 0x44
        if (ep->xfer_len_db >= ep->maxpacket)
 8001cb2:	f8dc 3038 	ldr.w	r3, [ip, #56]	; 0x38
        ep->xfer_buff += TxPctSize;
 8001cb6:	4417      	add	r7, r2
        if (ep->xfer_len_db >= ep->maxpacket)
 8001cb8:	459e      	cmp	lr, r3
        ep->xfer_buff += TxPctSize;
 8001cba:	f8cc 703c 	str.w	r7, [ip, #60]	; 0x3c
        if (ep->xfer_len_db >= ep->maxpacket)
 8001cbe:	d326      	bcc.n	8001d0e <HAL_PCD_IRQHandler+0x802>
          ep->xfer_len_db -= len;
 8001cc0:	ebae 0203 	sub.w	r2, lr, r3
 8001cc4:	f8cc 2048 	str.w	r2, [ip, #72]	; 0x48
        PCD_SET_EP_DBUF1_CNT(hpcd->Instance, ep->num, ep->is_in, len);
 8001cc8:	f895 2029 	ldrb.w	r2, [r5, #41]	; 0x29
 8001ccc:	fa1f fc83 	uxth.w	ip, r3
 8001cd0:	2a00      	cmp	r2, #0
 8001cd2:	d142      	bne.n	8001d5a <HAL_PCD_IRQHandler+0x84e>
 8001cd4:	f8b0 2050 	ldrh.w	r2, [r0, #80]	; 0x50
 8001cd8:	f200 4e0c 	addw	lr, r0, #1036	; 0x40c
 8001cdc:	b292      	uxth	r2, r2
 8001cde:	4472      	add	r2, lr
 8001ce0:	0109      	lsls	r1, r1, #4
 8001ce2:	f832 e001 	ldrh.w	lr, [r2, r1]
 8001ce6:	2b3e      	cmp	r3, #62	; 0x3e
 8001ce8:	f3ce 0e09 	ubfx	lr, lr, #0, #10
 8001cec:	f822 e001 	strh.w	lr, [r2, r1]
 8001cf0:	d91b      	bls.n	8001d2a <HAL_PCD_IRQHandler+0x81e>
 8001cf2:	ea4f 1e53 	mov.w	lr, r3, lsr #5
 8001cf6:	06db      	lsls	r3, r3, #27
 8001cf8:	5a53      	ldrh	r3, [r2, r1]
 8001cfa:	bf08      	it	eq
 8001cfc:	f10e 3eff 	addeq.w	lr, lr, #4294967295
 8001d00:	b29b      	uxth	r3, r3
 8001d02:	ea43 238e 	orr.w	r3, r3, lr, lsl #10
 8001d06:	ea43 0308 	orr.w	r3, r3, r8
 8001d0a:	b29b      	uxth	r3, r3
 8001d0c:	e012      	b.n	8001d34 <HAL_PCD_IRQHandler+0x828>
        else if (ep->xfer_len_db == 0U)
 8001d0e:	f1be 0f00 	cmp.w	lr, #0
 8001d12:	d103      	bne.n	8001d1c <HAL_PCD_IRQHandler+0x810>
    if (ep->xfer_len >= TxPctSize)
 8001d14:	4613      	mov	r3, r2
          ep->xfer_fill_db = 0U;
 8001d16:	f88c e04c 	strb.w	lr, [ip, #76]	; 0x4c
 8001d1a:	e7d5      	b.n	8001cc8 <HAL_PCD_IRQHandler+0x7bc>
          ep->xfer_len_db = 0U;
 8001d1c:	2300      	movs	r3, #0
 8001d1e:	f8cc 3048 	str.w	r3, [ip, #72]	; 0x48
          ep->xfer_fill_db = 0;
 8001d22:	f88c 304c 	strb.w	r3, [ip, #76]	; 0x4c
 8001d26:	4673      	mov	r3, lr
 8001d28:	e7ce      	b.n	8001cc8 <HAL_PCD_IRQHandler+0x7bc>
        PCD_SET_EP_DBUF1_CNT(hpcd->Instance, ep->num, ep->is_in, len);
 8001d2a:	b95b      	cbnz	r3, 8001d44 <HAL_PCD_IRQHandler+0x838>
 8001d2c:	5a53      	ldrh	r3, [r2, r1]
 8001d2e:	b29b      	uxth	r3, r3
 8001d30:	f443 4300 	orr.w	r3, r3, #32768	; 0x8000
 8001d34:	5253      	strh	r3, [r2, r1]
        USB_WritePMA(hpcd->Instance, ep->xfer_buff,  ep->pmaaddr1, (uint16_t)len);
 8001d36:	2128      	movs	r1, #40	; 0x28
 8001d38:	fb01 4606 	mla	r6, r1, r6, r4
 8001d3c:	4663      	mov	r3, ip
 8001d3e:	4639      	mov	r1, r7
 8001d40:	8e72      	ldrh	r2, [r6, #50]	; 0x32
 8001d42:	e707      	b.n	8001b54 <HAL_PCD_IRQHandler+0x648>
        PCD_SET_EP_DBUF1_CNT(hpcd->Instance, ep->num, ep->is_in, len);
 8001d44:	ea4f 0e53 	mov.w	lr, r3, lsr #1
 8001d48:	07db      	lsls	r3, r3, #31
 8001d4a:	5a53      	ldrh	r3, [r2, r1]
 8001d4c:	bf48      	it	mi
 8001d4e:	f10e 0e01 	addmi.w	lr, lr, #1
 8001d52:	b29b      	uxth	r3, r3
 8001d54:	ea43 238e 	orr.w	r3, r3, lr, lsl #10
 8001d58:	e7d7      	b.n	8001d0a <HAL_PCD_IRQHandler+0x7fe>
 8001d5a:	2a01      	cmp	r2, #1
 8001d5c:	d1eb      	bne.n	8001d36 <HAL_PCD_IRQHandler+0x82a>
 8001d5e:	f8b0 3050 	ldrh.w	r3, [r0, #80]	; 0x50
 8001d62:	b29a      	uxth	r2, r3
 8001d64:	f200 430c 	addw	r3, r0, #1036	; 0x40c
 8001d68:	4413      	add	r3, r2
 8001d6a:	010a      	lsls	r2, r1, #4
 8001d6c:	f823 c002 	strh.w	ip, [r3, r2]
 8001d70:	e7e1      	b.n	8001d36 <HAL_PCD_IRQHandler+0x82a>
  if ((wIstr & USB_ISTR_RESET) == USB_ISTR_RESET)
 8001d72:	0546      	lsls	r6, r0, #21
 8001d74:	d512      	bpl.n	8001d9c <HAL_PCD_IRQHandler+0x890>
    __HAL_PCD_CLEAR_FLAG(hpcd, USB_ISTR_RESET);
 8001d76:	6822      	ldr	r2, [r4, #0]
    HAL_PCD_ResetCallback(hpcd);
 8001d78:	4620      	mov	r0, r4
    __HAL_PCD_CLEAR_FLAG(hpcd, USB_ISTR_RESET);
 8001d7a:	f8b2 3044 	ldrh.w	r3, [r2, #68]	; 0x44
 8001d7e:	f423 6380 	bic.w	r3, r3, #1024	; 0x400
 8001d82:	041b      	lsls	r3, r3, #16
 8001d84:	0c1b      	lsrs	r3, r3, #16
 8001d86:	f8a2 3044 	strh.w	r3, [r2, #68]	; 0x44
    HAL_PCD_ResetCallback(hpcd);
 8001d8a:	f001 ffc6 	bl	8003d1a <HAL_PCD_ResetCallback>
    (void)HAL_PCD_SetAddress(hpcd, 0U);
 8001d8e:	4629      	mov	r1, r5
 8001d90:	4620      	mov	r0, r4
}
 8001d92:	b005      	add	sp, #20
 8001d94:	e8bd 4ff0 	ldmia.w	sp!, {r4, r5, r6, r7, r8, r9, sl, fp, lr}
    (void)HAL_PCD_SetAddress(hpcd, 0U);
 8001d98:	f7ff bba3 	b.w	80014e2 <HAL_PCD_SetAddress>
  if ((wIstr & USB_ISTR_PMAOVR) == USB_ISTR_PMAOVR)
 8001d9c:	0441      	lsls	r1, r0, #17
 8001d9e:	d50a      	bpl.n	8001db6 <HAL_PCD_IRQHandler+0x8aa>
    __HAL_PCD_CLEAR_FLAG(hpcd, USB_ISTR_PMAOVR);
 8001da0:	6822      	ldr	r2, [r4, #0]
 8001da2:	f8b2 3044 	ldrh.w	r3, [r2, #68]	; 0x44
 8001da6:	f423 4380 	bic.w	r3, r3, #16384	; 0x4000
    __HAL_PCD_CLEAR_FLAG(hpcd, USB_ISTR_ESOF);
 8001daa:	041b      	lsls	r3, r3, #16
 8001dac:	0c1b      	lsrs	r3, r3, #16
 8001dae:	f8a2 3044 	strh.w	r3, [r2, #68]	; 0x44
    return;
 8001db2:	f7ff bbbf 	b.w	8001534 <HAL_PCD_IRQHandler+0x28>
  if ((wIstr & USB_ISTR_ERR) == USB_ISTR_ERR)
 8001db6:	0482      	lsls	r2, r0, #18
 8001db8:	d505      	bpl.n	8001dc6 <HAL_PCD_IRQHandler+0x8ba>
    __HAL_PCD_CLEAR_FLAG(hpcd, USB_ISTR_ERR);
 8001dba:	6822      	ldr	r2, [r4, #0]
 8001dbc:	f8b2 3044 	ldrh.w	r3, [r2, #68]	; 0x44
 8001dc0:	f423 5300 	bic.w	r3, r3, #8192	; 0x2000
 8001dc4:	e7f1      	b.n	8001daa <HAL_PCD_IRQHandler+0x89e>
  if ((wIstr & USB_ISTR_WKUP) == USB_ISTR_WKUP)
 8001dc6:	04c3      	lsls	r3, r0, #19
 8001dc8:	d519      	bpl.n	8001dfe <HAL_PCD_IRQHandler+0x8f2>
    hpcd->Instance->CNTR &= (uint16_t) ~(USB_CNTR_LP_MODE);
 8001dca:	6822      	ldr	r2, [r4, #0]
    HAL_PCD_ResumeCallback(hpcd);
 8001dcc:	4620      	mov	r0, r4
    hpcd->Instance->CNTR &= (uint16_t) ~(USB_CNTR_LP_MODE);
 8001dce:	f8b2 3040 	ldrh.w	r3, [r2, #64]	; 0x40
 8001dd2:	f023 0304 	bic.w	r3, r3, #4
 8001dd6:	041b      	lsls	r3, r3, #16
 8001dd8:	0c1b      	lsrs	r3, r3, #16
 8001dda:	f8a2 3040 	strh.w	r3, [r2, #64]	; 0x40
    hpcd->Instance->CNTR &= (uint16_t) ~(USB_CNTR_FSUSP);
 8001dde:	f8b2 3040 	ldrh.w	r3, [r2, #64]	; 0x40
 8001de2:	f023 0308 	bic.w	r3, r3, #8
 8001de6:	041b      	lsls	r3, r3, #16
 8001de8:	0c1b      	lsrs	r3, r3, #16
 8001dea:	f8a2 3040 	strh.w	r3, [r2, #64]	; 0x40
    HAL_PCD_ResumeCallback(hpcd);
 8001dee:	f001 ffb7 	bl	8003d60 <HAL_PCD_ResumeCallback>
    __HAL_PCD_CLEAR_FLAG(hpcd, USB_ISTR_WKUP);
 8001df2:	6822      	ldr	r2, [r4, #0]
 8001df4:	f8b2 3044 	ldrh.w	r3, [r2, #68]	; 0x44
 8001df8:	f423 5380 	bic.w	r3, r3, #4096	; 0x1000
 8001dfc:	e7d5      	b.n	8001daa <HAL_PCD_IRQHandler+0x89e>
  if ((wIstr & USB_ISTR_SUSP) == USB_ISTR_SUSP)
 8001dfe:	0507      	lsls	r7, r0, #20
 8001e00:	d548      	bpl.n	8001e94 <HAL_PCD_IRQHandler+0x988>
 8001e02:	4668      	mov	r0, sp
      store_ep[i] = PCD_GET_ENDPOINT(hpcd->Instance, i);
 8001e04:	6822      	ldr	r2, [r4, #0]
 8001e06:	4606      	mov	r6, r0
 8001e08:	4611      	mov	r1, r2
 8001e0a:	4613      	mov	r3, r2
 8001e0c:	f102 0520 	add.w	r5, r2, #32
 8001e10:	f833 7b04 	ldrh.w	r7, [r3], #4
    for (i = 0U; i < 8U; i++)
 8001e14:	429d      	cmp	r5, r3
      store_ep[i] = PCD_GET_ENDPOINT(hpcd->Instance, i);
 8001e16:	f826 7b02 	strh.w	r7, [r6], #2
    for (i = 0U; i < 8U; i++)
 8001e1a:	d1f9      	bne.n	8001e10 <HAL_PCD_IRQHandler+0x904>
    hpcd->Instance->CNTR |= (uint16_t)(USB_CNTR_FRES);
 8001e1c:	f8b2 3040 	ldrh.w	r3, [r2, #64]	; 0x40
 8001e20:	b29b      	uxth	r3, r3
 8001e22:	f043 0301 	orr.w	r3, r3, #1
 8001e26:	f8a2 3040 	strh.w	r3, [r2, #64]	; 0x40
    hpcd->Instance->CNTR &= (uint16_t)(~USB_CNTR_FRES);
 8001e2a:	f8b2 3040 	ldrh.w	r3, [r2, #64]	; 0x40
 8001e2e:	f023 0301 	bic.w	r3, r3, #1
 8001e32:	041b      	lsls	r3, r3, #16
 8001e34:	0c1b      	lsrs	r3, r3, #16
 8001e36:	f8a2 3040 	strh.w	r3, [r2, #64]	; 0x40
    while ((hpcd->Instance->ISTR & USB_ISTR_RESET) == 0U)
 8001e3a:	f8b2 3044 	ldrh.w	r3, [r2, #68]	; 0x44
 8001e3e:	055e      	lsls	r6, r3, #21
 8001e40:	d5fb      	bpl.n	8001e3a <HAL_PCD_IRQHandler+0x92e>
    __HAL_PCD_CLEAR_FLAG(hpcd, USB_ISTR_RESET);
 8001e42:	f8b2 3044 	ldrh.w	r3, [r2, #68]	; 0x44
 8001e46:	f423 6380 	bic.w	r3, r3, #1024	; 0x400
 8001e4a:	041b      	lsls	r3, r3, #16
 8001e4c:	0c1b      	lsrs	r3, r3, #16
 8001e4e:	f8a2 3044 	strh.w	r3, [r2, #68]	; 0x44
      PCD_SET_ENDPOINT(hpcd->Instance, i, store_ep[i]);
 8001e52:	f830 3b02 	ldrh.w	r3, [r0], #2
 8001e56:	f821 3b04 	strh.w	r3, [r1], #4
    for (i = 0U; i < 8U; i++)
 8001e5a:	428d      	cmp	r5, r1
 8001e5c:	d1f9      	bne.n	8001e52 <HAL_PCD_IRQHandler+0x946>
    hpcd->Instance->CNTR |= (uint16_t)USB_CNTR_FSUSP;
 8001e5e:	f8b2 3040 	ldrh.w	r3, [r2, #64]	; 0x40
    HAL_PCD_SuspendCallback(hpcd);
 8001e62:	4620      	mov	r0, r4
    hpcd->Instance->CNTR |= (uint16_t)USB_CNTR_FSUSP;
 8001e64:	b29b      	uxth	r3, r3
 8001e66:	f043 0308 	orr.w	r3, r3, #8
 8001e6a:	f8a2 3040 	strh.w	r3, [r2, #64]	; 0x40
    __HAL_PCD_CLEAR_FLAG(hpcd, USB_ISTR_SUSP);
 8001e6e:	f8b2 3044 	ldrh.w	r3, [r2, #68]	; 0x44
 8001e72:	f423 6300 	bic.w	r3, r3, #2048	; 0x800
 8001e76:	041b      	lsls	r3, r3, #16
 8001e78:	0c1b      	lsrs	r3, r3, #16
 8001e7a:	f8a2 3044 	strh.w	r3, [r2, #68]	; 0x44
    hpcd->Instance->CNTR |= (uint16_t)USB_CNTR_LP_MODE;
 8001e7e:	f8b2 3040 	ldrh.w	r3, [r2, #64]	; 0x40
 8001e82:	b29b      	uxth	r3, r3
 8001e84:	f043 0304 	orr.w	r3, r3, #4
 8001e88:	f8a2 3040 	strh.w	r3, [r2, #64]	; 0x40
    HAL_PCD_SuspendCallback(hpcd);
 8001e8c:	f001 ff58 	bl	8003d40 <HAL_PCD_SuspendCallback>
    return;
 8001e90:	f7ff bb50 	b.w	8001534 <HAL_PCD_IRQHandler+0x28>
  if ((wIstr & USB_ISTR_SOF) == USB_ISTR_SOF)
 8001e94:	0582      	lsls	r2, r0, #22
 8001e96:	d50d      	bpl.n	8001eb4 <HAL_PCD_IRQHandler+0x9a8>
    __HAL_PCD_CLEAR_FLAG(hpcd, USB_ISTR_SOF);
 8001e98:	6822      	ldr	r2, [r4, #0]
    HAL_PCD_SOFCallback(hpcd);
 8001e9a:	4620      	mov	r0, r4
    __HAL_PCD_CLEAR_FLAG(hpcd, USB_ISTR_SOF);
 8001e9c:	f8b2 3044 	ldrh.w	r3, [r2, #68]	; 0x44
 8001ea0:	f423 7300 	bic.w	r3, r3, #512	; 0x200
 8001ea4:	041b      	lsls	r3, r3, #16
 8001ea6:	0c1b      	lsrs	r3, r3, #16
 8001ea8:	f8a2 3044 	strh.w	r3, [r2, #68]	; 0x44
    HAL_PCD_SOFCallback(hpcd);
 8001eac:	f001 ff31 	bl	8003d12 <HAL_PCD_SOFCallback>
    return;
 8001eb0:	f7ff bb40 	b.w	8001534 <HAL_PCD_IRQHandler+0x28>
  if ((wIstr & USB_ISTR_ESOF) == USB_ISTR_ESOF)
 8001eb4:	05c3      	lsls	r3, r0, #23
 8001eb6:	f57f ab3d 	bpl.w	8001534 <HAL_PCD_IRQHandler+0x28>
    __HAL_PCD_CLEAR_FLAG(hpcd, USB_ISTR_ESOF);
 8001eba:	6822      	ldr	r2, [r4, #0]
 8001ebc:	f8b2 3044 	ldrh.w	r3, [r2, #68]	; 0x44
 8001ec0:	f423 7380 	bic.w	r3, r3, #256	; 0x100
 8001ec4:	e771      	b.n	8001daa <HAL_PCD_IRQHandler+0x89e>
 8001ec6:	bf00      	nop

08001ec8 <HAL_PCD_EP_Open>:
  if ((ep_addr & 0x80U) == 0x80U)
 8001ec8:	f011 0f80 	tst.w	r1, #128	; 0x80
{
 8001ecc:	b570      	push	{r4, r5, r6, lr}
 8001ece:	4605      	mov	r5, r0
 8001ed0:	f04f 0428 	mov.w	r4, #40	; 0x28
 8001ed4:	f001 0007 	and.w	r0, r1, #7
  if ((ep_addr & 0x80U) == 0x80U)
 8001ed8:	d01a      	beq.n	8001f10 <HAL_PCD_EP_Open+0x48>
    ep->is_in = 1U;
 8001eda:	2601      	movs	r6, #1
    ep = &hpcd->IN_ep[ep_addr & EP_ADDR_MSK];
 8001edc:	fb00 4104 	mla	r1, r0, r4, r4
 8001ee0:	4429      	add	r1, r5
    ep->is_in = 1U;
 8001ee2:	704e      	strb	r6, [r1, #1]
  if (ep_type == EP_TYPE_BULK)
 8001ee4:	2b02      	cmp	r3, #2
  ep->type = ep_type;
 8001ee6:	70cb      	strb	r3, [r1, #3]
    ep->data_pid_start = 0U;
 8001ee8:	bf08      	it	eq
 8001eea:	2300      	moveq	r3, #0
  ep->num = ep_addr & EP_ADDR_MSK;
 8001eec:	7008      	strb	r0, [r1, #0]
    ep->data_pid_start = 0U;
 8001eee:	bf08      	it	eq
 8001ef0:	710b      	strbeq	r3, [r1, #4]
  ep->maxpacket = ep_mps;
 8001ef2:	610a      	str	r2, [r1, #16]
  __HAL_LOCK(hpcd);
 8001ef4:	f895 32a8 	ldrb.w	r3, [r5, #680]	; 0x2a8
 8001ef8:	2b01      	cmp	r3, #1
 8001efa:	d012      	beq.n	8001f22 <HAL_PCD_EP_Open+0x5a>
 8001efc:	2301      	movs	r3, #1
  (void)USB_ActivateEndpoint(hpcd->Instance, ep);
 8001efe:	6828      	ldr	r0, [r5, #0]
  __HAL_LOCK(hpcd);
 8001f00:	f885 32a8 	strb.w	r3, [r5, #680]	; 0x2a8
  (void)USB_ActivateEndpoint(hpcd->Instance, ep);
 8001f04:	f000 fbf6 	bl	80026f4 <USB_ActivateEndpoint>
  __HAL_UNLOCK(hpcd);
 8001f08:	2000      	movs	r0, #0
 8001f0a:	f885 02a8 	strb.w	r0, [r5, #680]	; 0x2a8
}
 8001f0e:	bd70      	pop	{r4, r5, r6, pc}
    ep->is_in = 0U;
 8001f10:	2600      	movs	r6, #0
    ep = &hpcd->OUT_ep[ep_addr & EP_ADDR_MSK];
 8001f12:	4344      	muls	r4, r0
 8001f14:	f504 71b4 	add.w	r1, r4, #360	; 0x168
    ep->is_in = 0U;
 8001f18:	442c      	add	r4, r5
    ep = &hpcd->OUT_ep[ep_addr & EP_ADDR_MSK];
 8001f1a:	4429      	add	r1, r5
    ep->is_in = 0U;
 8001f1c:	f884 6169 	strb.w	r6, [r4, #361]	; 0x169
 8001f20:	e7e0      	b.n	8001ee4 <HAL_PCD_EP_Open+0x1c>
  __HAL_LOCK(hpcd);
 8001f22:	2002      	movs	r0, #2
 8001f24:	e7f3      	b.n	8001f0e <HAL_PCD_EP_Open+0x46>

08001f26 <HAL_PCD_EP_Close>:
  if ((ep_addr & 0x80U) == 0x80U)
 8001f26:	f011 0f80 	tst.w	r1, #128	; 0x80
{
 8001f2a:	b510      	push	{r4, lr}
 8001f2c:	f04f 0328 	mov.w	r3, #40	; 0x28
 8001f30:	4604      	mov	r4, r0
 8001f32:	f001 0207 	and.w	r2, r1, #7
  if ((ep_addr & 0x80U) == 0x80U)
 8001f36:	d013      	beq.n	8001f60 <HAL_PCD_EP_Close+0x3a>
    ep = &hpcd->IN_ep[ep_addr & EP_ADDR_MSK];
 8001f38:	fb02 3103 	mla	r1, r2, r3, r3
 8001f3c:	4401      	add	r1, r0
    ep->is_in = 1U;
 8001f3e:	2001      	movs	r0, #1
 8001f40:	7048      	strb	r0, [r1, #1]
  ep->num = ep_addr & EP_ADDR_MSK;
 8001f42:	700a      	strb	r2, [r1, #0]
  __HAL_LOCK(hpcd);
 8001f44:	f894 32a8 	ldrb.w	r3, [r4, #680]	; 0x2a8
 8001f48:	2b01      	cmp	r3, #1
 8001f4a:	d012      	beq.n	8001f72 <HAL_PCD_EP_Close+0x4c>
 8001f4c:	2301      	movs	r3, #1
  (void)USB_DeactivateEndpoint(hpcd->Instance, ep);
 8001f4e:	6820      	ldr	r0, [r4, #0]
  __HAL_LOCK(hpcd);
 8001f50:	f884 32a8 	strb.w	r3, [r4, #680]	; 0x2a8
  (void)USB_DeactivateEndpoint(hpcd->Instance, ep);
 8001f54:	f000 fd30 	bl	80029b8 <USB_DeactivateEndpoint>
  __HAL_UNLOCK(hpcd);
 8001f58:	2000      	movs	r0, #0
 8001f5a:	f884 02a8 	strb.w	r0, [r4, #680]	; 0x2a8
}
 8001f5e:	bd10      	pop	{r4, pc}
    ep = &hpcd->OUT_ep[ep_addr & EP_ADDR_MSK];
 8001f60:	4353      	muls	r3, r2
 8001f62:	f503 71b4 	add.w	r1, r3, #360	; 0x168
 8001f66:	4401      	add	r1, r0
    ep->is_in = 0U;
 8001f68:	4403      	add	r3, r0
 8001f6a:	2000      	movs	r0, #0
 8001f6c:	f883 0169 	strb.w	r0, [r3, #361]	; 0x169
 8001f70:	e7e7      	b.n	8001f42 <HAL_PCD_EP_Close+0x1c>
  __HAL_LOCK(hpcd);
 8001f72:	2002      	movs	r0, #2
 8001f74:	e7f3      	b.n	8001f5e <HAL_PCD_EP_Close+0x38>

08001f76 <HAL_PCD_EP_Receive>:
{
 8001f76:	b570      	push	{r4, r5, r6, lr}
 8001f78:	f001 0507 	and.w	r5, r1, #7
  ep->xfer_buff = pBuf;
 8001f7c:	2128      	movs	r1, #40	; 0x28
  ep->xfer_count = 0U;
 8001f7e:	2600      	movs	r6, #0
  ep->xfer_buff = pBuf;
 8001f80:	4369      	muls	r1, r5
 8001f82:	1844      	adds	r4, r0, r1
  ep = &hpcd->OUT_ep[ep_addr & EP_ADDR_MSK];
 8001f84:	f501 71b4 	add.w	r1, r1, #360	; 0x168
  (void)USB_EPStartXfer(hpcd->Instance, ep);
 8001f88:	4401      	add	r1, r0
  ep->xfer_len = len;
 8001f8a:	e9c4 235f 	strd	r2, r3, [r4, #380]	; 0x17c
  ep->xfer_count = 0U;
 8001f8e:	f8c4 6184 	str.w	r6, [r4, #388]	; 0x184
  ep->is_in = 0U;
 8001f92:	f884 6169 	strb.w	r6, [r4, #361]	; 0x169
  ep->num = ep_addr & EP_ADDR_MSK;
 8001f96:	f884 5168 	strb.w	r5, [r4, #360]	; 0x168
  (void)USB_EPStartXfer(hpcd->Instance, ep);
 8001f9a:	6800      	ldr	r0, [r0, #0]
 8001f9c:	f000 fe66 	bl	8002c6c <USB_EPStartXfer>
}
 8001fa0:	4630      	mov	r0, r6
 8001fa2:	bd70      	pop	{r4, r5, r6, pc}

08001fa4 <HAL_PCD_EP_GetRxCount>:
  return hpcd->OUT_ep[ep_addr & EP_ADDR_MSK].xfer_count;
 8001fa4:	2328      	movs	r3, #40	; 0x28
 8001fa6:	f001 0107 	and.w	r1, r1, #7
 8001faa:	fb03 0001 	mla	r0, r3, r1, r0
}
 8001fae:	f8d0 0184 	ldr.w	r0, [r0, #388]	; 0x184
 8001fb2:	4770      	bx	lr

08001fb4 <HAL_PCD_EP_Transmit>:
{
 8001fb4:	b570      	push	{r4, r5, r6, lr}
 8001fb6:	f001 0507 	and.w	r5, r1, #7
  ep->xfer_buff = pBuf;
 8001fba:	2128      	movs	r1, #40	; 0x28
 8001fbc:	fb01 0405 	mla	r4, r1, r5, r0
  ep->xfer_count = 0U;
 8001fc0:	2600      	movs	r6, #0
  ep->xfer_len = len;
 8001fc2:	e9c4 230f 	strd	r2, r3, [r4, #60]	; 0x3c
  ep->xfer_fill_db = 1U;
 8001fc6:	2201      	movs	r2, #1
  ep = &hpcd->IN_ep[ep_addr & EP_ADDR_MSK];
 8001fc8:	fb05 1101 	mla	r1, r5, r1, r1
  ep->xfer_fill_db = 1U;
 8001fcc:	f884 204c 	strb.w	r2, [r4, #76]	; 0x4c
  (void)USB_EPStartXfer(hpcd->Instance, ep);
 8001fd0:	4401      	add	r1, r0
  ep->xfer_len_db = len;
 8001fd2:	64a3      	str	r3, [r4, #72]	; 0x48
  ep->xfer_count = 0U;
 8001fd4:	6466      	str	r6, [r4, #68]	; 0x44
  ep->is_in = 1U;
 8001fd6:	f884 2029 	strb.w	r2, [r4, #41]	; 0x29
  ep->num = ep_addr & EP_ADDR_MSK;
 8001fda:	f884 5028 	strb.w	r5, [r4, #40]	; 0x28
  (void)USB_EPStartXfer(hpcd->Instance, ep);
 8001fde:	6800      	ldr	r0, [r0, #0]
 8001fe0:	f000 fe44 	bl	8002c6c <USB_EPStartXfer>
}
 8001fe4:	4630      	mov	r0, r6
 8001fe6:	bd70      	pop	{r4, r5, r6, pc}

08001fe8 <HAL_PCD_EP_SetStall>:
{
 8001fe8:	b538      	push	{r3, r4, r5, lr}
  if (((uint32_t)ep_addr & EP_ADDR_MSK) > hpcd->Init.dev_endpoints)
 8001fea:	6843      	ldr	r3, [r0, #4]
 8001fec:	f001 0507 	and.w	r5, r1, #7
 8001ff0:	429d      	cmp	r5, r3
{
 8001ff2:	4604      	mov	r4, r0
  if (((uint32_t)ep_addr & EP_ADDR_MSK) > hpcd->Init.dev_endpoints)
 8001ff4:	d828      	bhi.n	8002048 <HAL_PCD_EP_SetStall+0x60>
  if ((0x80U & ep_addr) == 0x80U)
 8001ff6:	f011 0f80 	tst.w	r1, #128	; 0x80
 8001ffa:	f04f 0328 	mov.w	r3, #40	; 0x28
 8001ffe:	d01a      	beq.n	8002036 <HAL_PCD_EP_SetStall+0x4e>
    ep->is_in = 1U;
 8002000:	2201      	movs	r2, #1
    ep = &hpcd->IN_ep[ep_addr & EP_ADDR_MSK];
 8002002:	fb05 3103 	mla	r1, r5, r3, r3
 8002006:	4401      	add	r1, r0
    ep->is_in = 1U;
 8002008:	704a      	strb	r2, [r1, #1]
  ep->is_stall = 1U;
 800200a:	2301      	movs	r3, #1
  ep->num = ep_addr & EP_ADDR_MSK;
 800200c:	700d      	strb	r5, [r1, #0]
  ep->is_stall = 1U;
 800200e:	708b      	strb	r3, [r1, #2]
  __HAL_LOCK(hpcd);
 8002010:	f894 22a8 	ldrb.w	r2, [r4, #680]	; 0x2a8
 8002014:	429a      	cmp	r2, r3
 8002016:	d019      	beq.n	800204c <HAL_PCD_EP_SetStall+0x64>
  (void)USB_EPSetStall(hpcd->Instance, ep);
 8002018:	6820      	ldr	r0, [r4, #0]
  __HAL_LOCK(hpcd);
 800201a:	f884 32a8 	strb.w	r3, [r4, #680]	; 0x2a8
  (void)USB_EPSetStall(hpcd->Instance, ep);
 800201e:	f000 fd9c 	bl	8002b5a <USB_EPSetStall>
  if ((ep_addr & EP_ADDR_MSK) == 0U)
 8002022:	b925      	cbnz	r5, 800202e <HAL_PCD_EP_SetStall+0x46>
    (void)USB_EP0_OutStart(hpcd->Instance, (uint8_t *)hpcd->Setup);
 8002024:	6820      	ldr	r0, [r4, #0]
 8002026:	f504 712c 	add.w	r1, r4, #688	; 0x2b0
 800202a:	f000 fe0d 	bl	8002c48 <USB_EP0_OutStart>
  __HAL_UNLOCK(hpcd);
 800202e:	2000      	movs	r0, #0
 8002030:	f884 02a8 	strb.w	r0, [r4, #680]	; 0x2a8
}
 8002034:	bd38      	pop	{r3, r4, r5, pc}
    ep->is_in = 0U;
 8002036:	2200      	movs	r2, #0
    ep = &hpcd->OUT_ep[ep_addr];
 8002038:	434b      	muls	r3, r1
 800203a:	f503 71b4 	add.w	r1, r3, #360	; 0x168
    ep->is_in = 0U;
 800203e:	4403      	add	r3, r0
    ep = &hpcd->OUT_ep[ep_addr];
 8002040:	4401      	add	r1, r0
    ep->is_in = 0U;
 8002042:	f883 2169 	strb.w	r2, [r3, #361]	; 0x169
 8002046:	e7e0      	b.n	800200a <HAL_PCD_EP_SetStall+0x22>
    return HAL_ERROR;
 8002048:	2001      	movs	r0, #1
 800204a:	e7f3      	b.n	8002034 <HAL_PCD_EP_SetStall+0x4c>
  __HAL_LOCK(hpcd);
 800204c:	2002      	movs	r0, #2
 800204e:	e7f1      	b.n	8002034 <HAL_PCD_EP_SetStall+0x4c>

08002050 <HAL_PCD_EP_ClrStall>:
{
 8002050:	b538      	push	{r3, r4, r5, lr}
  if (((uint32_t)ep_addr & 0x0FU) > hpcd->Init.dev_endpoints)
 8002052:	6843      	ldr	r3, [r0, #4]
 8002054:	f001 020f 	and.w	r2, r1, #15
 8002058:	429a      	cmp	r2, r3
{
 800205a:	4604      	mov	r4, r0
  if (((uint32_t)ep_addr & 0x0FU) > hpcd->Init.dev_endpoints)
 800205c:	d825      	bhi.n	80020aa <HAL_PCD_EP_ClrStall+0x5a>
  if ((0x80U & ep_addr) == 0x80U)
 800205e:	f011 0f80 	tst.w	r1, #128	; 0x80
 8002062:	f04f 0328 	mov.w	r3, #40	; 0x28
 8002066:	f001 0207 	and.w	r2, r1, #7
 800206a:	d015      	beq.n	8002098 <HAL_PCD_EP_ClrStall+0x48>
    ep = &hpcd->IN_ep[ep_addr & EP_ADDR_MSK];
 800206c:	fb02 3103 	mla	r1, r2, r3, r3
 8002070:	4401      	add	r1, r0
    ep->is_in = 1U;
 8002072:	2001      	movs	r0, #1
 8002074:	7048      	strb	r0, [r1, #1]
  ep->is_stall = 0U;
 8002076:	2500      	movs	r5, #0
  ep->num = ep_addr & EP_ADDR_MSK;
 8002078:	700a      	strb	r2, [r1, #0]
  ep->is_stall = 0U;
 800207a:	708d      	strb	r5, [r1, #2]
  __HAL_LOCK(hpcd);
 800207c:	f894 32a8 	ldrb.w	r3, [r4, #680]	; 0x2a8
 8002080:	2b01      	cmp	r3, #1
 8002082:	d014      	beq.n	80020ae <HAL_PCD_EP_ClrStall+0x5e>
 8002084:	2301      	movs	r3, #1
  (void)USB_EPClearStall(hpcd->Instance, ep);
 8002086:	6820      	ldr	r0, [r4, #0]
  __HAL_LOCK(hpcd);
 8002088:	f884 32a8 	strb.w	r3, [r4, #680]	; 0x2a8
  (void)USB_EPClearStall(hpcd->Instance, ep);
 800208c:	f000 fd85 	bl	8002b9a <USB_EPClearStall>
  return HAL_OK;
 8002090:	4628      	mov	r0, r5
  __HAL_UNLOCK(hpcd);
 8002092:	f884 52a8 	strb.w	r5, [r4, #680]	; 0x2a8
}
 8002096:	bd38      	pop	{r3, r4, r5, pc}
    ep = &hpcd->OUT_ep[ep_addr & EP_ADDR_MSK];
 8002098:	4353      	muls	r3, r2
 800209a:	f503 71b4 	add.w	r1, r3, #360	; 0x168
 800209e:	4401      	add	r1, r0
    ep->is_in = 0U;
 80020a0:	4403      	add	r3, r0
 80020a2:	2000      	movs	r0, #0
 80020a4:	f883 0169 	strb.w	r0, [r3, #361]	; 0x169
 80020a8:	e7e5      	b.n	8002076 <HAL_PCD_EP_ClrStall+0x26>
    return HAL_ERROR;
 80020aa:	2001      	movs	r0, #1
 80020ac:	e7f3      	b.n	8002096 <HAL_PCD_EP_ClrStall+0x46>
  __HAL_LOCK(hpcd);
 80020ae:	2002      	movs	r0, #2
 80020b0:	e7f1      	b.n	8002096 <HAL_PCD_EP_ClrStall+0x46>

080020b2 <HAL_PCDEx_PMAConfig>:
  * @retval HAL status
  */

HAL_StatusTypeDef  HAL_PCDEx_PMAConfig(PCD_HandleTypeDef *hpcd, uint16_t ep_addr,
                                       uint16_t ep_kind, uint32_t pmaadress)
{
 80020b2:	b510      	push	{r4, lr}
 80020b4:	2428      	movs	r4, #40	; 0x28
  PCD_EPTypeDef *ep;

  /* initialize ep structure*/
  if ((0x80U & ep_addr) == 0x80U)
 80020b6:	f011 0f80 	tst.w	r1, #128	; 0x80
  {
    ep = &hpcd->IN_ep[ep_addr & EP_ADDR_MSK];
 80020ba:	bf1b      	ittet	ne
 80020bc:	f001 0107 	andne.w	r1, r1, #7
 80020c0:	fb01 4104 	mlane	r1, r1, r4, r4
  }
  else
  {
    ep = &hpcd->OUT_ep[ep_addr];
 80020c4:	fb04 0001 	mlaeq	r0, r4, r1, r0
    ep = &hpcd->IN_ep[ep_addr & EP_ADDR_MSK];
 80020c8:	1840      	addne	r0, r0, r1
    ep = &hpcd->OUT_ep[ep_addr];
 80020ca:	bf08      	it	eq
 80020cc:	f500 70b4 	addeq.w	r0, r0, #360	; 0x168
  if (ep_kind == PCD_SNG_BUF)
  {
    /* Single Buffer */
    ep->doublebuffer = 0U;
    /* Configure the PMA */
    ep->pmaadress = (uint16_t)pmaadress;
 80020d0:	b299      	uxth	r1, r3
  if (ep_kind == PCD_SNG_BUF)
 80020d2:	b91a      	cbnz	r2, 80020dc <HAL_PCDEx_PMAConfig+0x2a>
    ep->doublebuffer = 0U;
 80020d4:	7302      	strb	r2, [r0, #12]
    ep->pmaadress = (uint16_t)pmaadress;
 80020d6:	80c1      	strh	r1, [r0, #6]
    ep->pmaaddr1 = (uint16_t)((pmaadress & 0xFFFF0000U) >> 16);
  }
#endif /* (USE_USB_DOUBLE_BUFFER == 1U) */

  return HAL_OK;
}
 80020d8:	2000      	movs	r0, #0
 80020da:	bd10      	pop	{r4, pc}
    ep->doublebuffer = 1U;
 80020dc:	2201      	movs	r2, #1
    ep->pmaaddr0 = (uint16_t)(pmaadress & 0xFFFFU);
 80020de:	6083      	str	r3, [r0, #8]
    ep->doublebuffer = 1U;
 80020e0:	7302      	strb	r2, [r0, #12]
    ep->pmaaddr1 = (uint16_t)((pmaadress & 0xFFFF0000U) >> 16);
 80020e2:	e7f9      	b.n	80020d8 <HAL_PCDEx_PMAConfig+0x26>

080020e4 <HAL_RCC_OscConfig>:
  *         supported by this macro. User should request a transition to HSE Off
  *         first and then HSE On or HSE Bypass.
  * @retval HAL status
  */
HAL_StatusTypeDef HAL_RCC_OscConfig(RCC_OscInitTypeDef  *RCC_OscInitStruct)
{
 80020e4:	e92d 41f3 	stmdb	sp!, {r0, r1, r4, r5, r6, r7, r8, lr}
  uint32_t tickstart;
  uint32_t pll_config;

  /* Check Null pointer */
  if (RCC_OscInitStruct == NULL)
 80020e8:	4605      	mov	r5, r0
 80020ea:	b338      	cbz	r0, 800213c <HAL_RCC_OscConfig+0x58>

  /* Check the parameters */
  assert_param(IS_RCC_OSCILLATORTYPE(RCC_OscInitStruct->OscillatorType));

  /*------------------------------- HSE Configuration ------------------------*/
  if (((RCC_OscInitStruct->OscillatorType) & RCC_OSCILLATORTYPE_HSE) == RCC_OSCILLATORTYPE_HSE)
 80020ec:	6803      	ldr	r3, [r0, #0]
 80020ee:	07db      	lsls	r3, r3, #31
 80020f0:	d410      	bmi.n	8002114 <HAL_RCC_OscConfig+0x30>
        }
      }
    }
  }
  /*----------------------------- HSI Configuration --------------------------*/
  if (((RCC_OscInitStruct->OscillatorType) & RCC_OSCILLATORTYPE_HSI) == RCC_OSCILLATORTYPE_HSI)
 80020f2:	682b      	ldr	r3, [r5, #0]
 80020f4:	079f      	lsls	r7, r3, #30
 80020f6:	d45e      	bmi.n	80021b6 <HAL_RCC_OscConfig+0xd2>
        }
      }
    }
  }
  /*------------------------------ LSI Configuration -------------------------*/
  if (((RCC_OscInitStruct->OscillatorType) & RCC_OSCILLATORTYPE_LSI) == RCC_OSCILLATORTYPE_LSI)
 80020f8:	682b      	ldr	r3, [r5, #0]
 80020fa:	0719      	lsls	r1, r3, #28
 80020fc:	f100 8095 	bmi.w	800222a <HAL_RCC_OscConfig+0x146>
        }
      }
    }
  }
  /*------------------------------ LSE Configuration -------------------------*/
  if (((RCC_OscInitStruct->OscillatorType) & RCC_OSCILLATORTYPE_LSE) == RCC_OSCILLATORTYPE_LSE)
 8002100:	682b      	ldr	r3, [r5, #0]
 8002102:	075a      	lsls	r2, r3, #29
 8002104:	f100 80c1 	bmi.w	800228a <HAL_RCC_OscConfig+0x1a6>

#endif /* RCC_CR_PLL2ON */
  /*-------------------------------- PLL Configuration -----------------------*/
  /* Check the parameters */
  assert_param(IS_RCC_PLL(RCC_OscInitStruct->PLL.PLLState));
  if ((RCC_OscInitStruct->PLL.PLLState) != RCC_PLL_NONE)
 8002108:	69e8      	ldr	r0, [r5, #28]
 800210a:	2800      	cmp	r0, #0
 800210c:	f040 812c 	bne.w	8002368 <HAL_RCC_OscConfig+0x284>
        }
      }
    }
  }

  return HAL_OK;
 8002110:	2000      	movs	r0, #0
 8002112:	e029      	b.n	8002168 <HAL_RCC_OscConfig+0x84>
    if ((__HAL_RCC_GET_SYSCLK_SOURCE() == RCC_SYSCLKSOURCE_STATUS_HSE)
 8002114:	4c90      	ldr	r4, [pc, #576]	; (8002358 <HAL_RCC_OscConfig+0x274>)
 8002116:	6863      	ldr	r3, [r4, #4]
 8002118:	f003 030c 	and.w	r3, r3, #12
 800211c:	2b04      	cmp	r3, #4
 800211e:	d007      	beq.n	8002130 <HAL_RCC_OscConfig+0x4c>
        || ((__HAL_RCC_GET_SYSCLK_SOURCE() == RCC_SYSCLKSOURCE_STATUS_PLLCLK) && (__HAL_RCC_GET_PLL_OSCSOURCE() == RCC_PLLSOURCE_HSE)))
 8002120:	6863      	ldr	r3, [r4, #4]
 8002122:	f003 030c 	and.w	r3, r3, #12
 8002126:	2b08      	cmp	r3, #8
 8002128:	d10a      	bne.n	8002140 <HAL_RCC_OscConfig+0x5c>
 800212a:	6863      	ldr	r3, [r4, #4]
 800212c:	03de      	lsls	r6, r3, #15
 800212e:	d507      	bpl.n	8002140 <HAL_RCC_OscConfig+0x5c>
      if ((__HAL_RCC_GET_FLAG(RCC_FLAG_HSERDY) != RESET) && (RCC_OscInitStruct->HSEState == RCC_HSE_OFF))
 8002130:	6823      	ldr	r3, [r4, #0]
 8002132:	039c      	lsls	r4, r3, #14
 8002134:	d5dd      	bpl.n	80020f2 <HAL_RCC_OscConfig+0xe>
 8002136:	686b      	ldr	r3, [r5, #4]
 8002138:	2b00      	cmp	r3, #0
 800213a:	d1da      	bne.n	80020f2 <HAL_RCC_OscConfig+0xe>
          return HAL_ERROR;
 800213c:	2001      	movs	r0, #1
 800213e:	e013      	b.n	8002168 <HAL_RCC_OscConfig+0x84>
      __HAL_RCC_HSE_CONFIG(RCC_OscInitStruct->HSEState);
 8002140:	686b      	ldr	r3, [r5, #4]
 8002142:	f5b3 3f80 	cmp.w	r3, #65536	; 0x10000
 8002146:	d112      	bne.n	800216e <HAL_RCC_OscConfig+0x8a>
 8002148:	6823      	ldr	r3, [r4, #0]
 800214a:	f443 3380 	orr.w	r3, r3, #65536	; 0x10000
 800214e:	6023      	str	r3, [r4, #0]
        tickstart = HAL_GetTick();
 8002150:	f7ff f8ca 	bl	80012e8 <HAL_GetTick>
 8002154:	4606      	mov	r6, r0
        while (__HAL_RCC_GET_FLAG(RCC_FLAG_HSERDY) == RESET)
 8002156:	6823      	ldr	r3, [r4, #0]
 8002158:	0398      	lsls	r0, r3, #14
 800215a:	d4ca      	bmi.n	80020f2 <HAL_RCC_OscConfig+0xe>
          if ((HAL_GetTick() - tickstart) > HSE_TIMEOUT_VALUE)
 800215c:	f7ff f8c4 	bl	80012e8 <HAL_GetTick>
 8002160:	1b80      	subs	r0, r0, r6
 8002162:	2864      	cmp	r0, #100	; 0x64
 8002164:	d9f7      	bls.n	8002156 <HAL_RCC_OscConfig+0x72>
            return HAL_TIMEOUT;
 8002166:	2003      	movs	r0, #3
}
 8002168:	b002      	add	sp, #8
 800216a:	e8bd 81f0 	ldmia.w	sp!, {r4, r5, r6, r7, r8, pc}
      __HAL_RCC_HSE_CONFIG(RCC_OscInitStruct->HSEState);
 800216e:	b99b      	cbnz	r3, 8002198 <HAL_RCC_OscConfig+0xb4>
 8002170:	6823      	ldr	r3, [r4, #0]
 8002172:	f423 3380 	bic.w	r3, r3, #65536	; 0x10000
 8002176:	6023      	str	r3, [r4, #0]
 8002178:	6823      	ldr	r3, [r4, #0]
 800217a:	f423 2380 	bic.w	r3, r3, #262144	; 0x40000
 800217e:	6023      	str	r3, [r4, #0]
        tickstart = HAL_GetTick();
 8002180:	f7ff f8b2 	bl	80012e8 <HAL_GetTick>
 8002184:	4606      	mov	r6, r0
        while (__HAL_RCC_GET_FLAG(RCC_FLAG_HSERDY) != RESET)
 8002186:	6823      	ldr	r3, [r4, #0]
 8002188:	0399      	lsls	r1, r3, #14
 800218a:	d5b2      	bpl.n	80020f2 <HAL_RCC_OscConfig+0xe>
          if ((HAL_GetTick() - tickstart) > HSE_TIMEOUT_VALUE)
 800218c:	f7ff f8ac 	bl	80012e8 <HAL_GetTick>
 8002190:	1b80      	subs	r0, r0, r6
 8002192:	2864      	cmp	r0, #100	; 0x64
 8002194:	d9f7      	bls.n	8002186 <HAL_RCC_OscConfig+0xa2>
 8002196:	e7e6      	b.n	8002166 <HAL_RCC_OscConfig+0x82>
      __HAL_RCC_HSE_CONFIG(RCC_OscInitStruct->HSEState);
 8002198:	f5b3 2fa0 	cmp.w	r3, #327680	; 0x50000
 800219c:	6823      	ldr	r3, [r4, #0]
 800219e:	d103      	bne.n	80021a8 <HAL_RCC_OscConfig+0xc4>
 80021a0:	f443 2380 	orr.w	r3, r3, #262144	; 0x40000
 80021a4:	6023      	str	r3, [r4, #0]
 80021a6:	e7cf      	b.n	8002148 <HAL_RCC_OscConfig+0x64>
 80021a8:	f423 3380 	bic.w	r3, r3, #65536	; 0x10000
 80021ac:	6023      	str	r3, [r4, #0]
 80021ae:	6823      	ldr	r3, [r4, #0]
 80021b0:	f423 2380 	bic.w	r3, r3, #262144	; 0x40000
 80021b4:	e7cb      	b.n	800214e <HAL_RCC_OscConfig+0x6a>
    if ((__HAL_RCC_GET_SYSCLK_SOURCE() == RCC_SYSCLKSOURCE_STATUS_HSI)
 80021b6:	4c68      	ldr	r4, [pc, #416]	; (8002358 <HAL_RCC_OscConfig+0x274>)
 80021b8:	6863      	ldr	r3, [r4, #4]
 80021ba:	f013 0f0c 	tst.w	r3, #12
 80021be:	d007      	beq.n	80021d0 <HAL_RCC_OscConfig+0xec>
        || ((__HAL_RCC_GET_SYSCLK_SOURCE() == RCC_SYSCLKSOURCE_STATUS_PLLCLK) && (__HAL_RCC_GET_PLL_OSCSOURCE() == RCC_PLLSOURCE_HSI_DIV2)))
 80021c0:	6863      	ldr	r3, [r4, #4]
 80021c2:	f003 030c 	and.w	r3, r3, #12
 80021c6:	2b08      	cmp	r3, #8
 80021c8:	d110      	bne.n	80021ec <HAL_RCC_OscConfig+0x108>
 80021ca:	6863      	ldr	r3, [r4, #4]
 80021cc:	03da      	lsls	r2, r3, #15
 80021ce:	d40d      	bmi.n	80021ec <HAL_RCC_OscConfig+0x108>
      if ((__HAL_RCC_GET_FLAG(RCC_FLAG_HSIRDY) != RESET) && (RCC_OscInitStruct->HSIState != RCC_HSI_ON))
 80021d0:	6823      	ldr	r3, [r4, #0]
 80021d2:	079b      	lsls	r3, r3, #30
 80021d4:	d502      	bpl.n	80021dc <HAL_RCC_OscConfig+0xf8>
 80021d6:	692b      	ldr	r3, [r5, #16]
 80021d8:	2b01      	cmp	r3, #1
 80021da:	d1af      	bne.n	800213c <HAL_RCC_OscConfig+0x58>
        __HAL_RCC_HSI_CALIBRATIONVALUE_ADJUST(RCC_OscInitStruct->HSICalibrationValue);
 80021dc:	6823      	ldr	r3, [r4, #0]
 80021de:	696a      	ldr	r2, [r5, #20]
 80021e0:	f023 03f8 	bic.w	r3, r3, #248	; 0xf8
 80021e4:	ea43 03c2 	orr.w	r3, r3, r2, lsl #3
 80021e8:	6023      	str	r3, [r4, #0]
 80021ea:	e785      	b.n	80020f8 <HAL_RCC_OscConfig+0x14>
      if (RCC_OscInitStruct->HSIState != RCC_HSI_OFF)
 80021ec:	692a      	ldr	r2, [r5, #16]
 80021ee:	4b5b      	ldr	r3, [pc, #364]	; (800235c <HAL_RCC_OscConfig+0x278>)
 80021f0:	b16a      	cbz	r2, 800220e <HAL_RCC_OscConfig+0x12a>
        __HAL_RCC_HSI_ENABLE();
 80021f2:	2201      	movs	r2, #1
 80021f4:	601a      	str	r2, [r3, #0]
        tickstart = HAL_GetTick();
 80021f6:	f7ff f877 	bl	80012e8 <HAL_GetTick>
 80021fa:	4606      	mov	r6, r0
        while (__HAL_RCC_GET_FLAG(RCC_FLAG_HSIRDY) == RESET)
 80021fc:	6823      	ldr	r3, [r4, #0]
 80021fe:	079f      	lsls	r7, r3, #30
 8002200:	d4ec      	bmi.n	80021dc <HAL_RCC_OscConfig+0xf8>
          if ((HAL_GetTick() - tickstart) > HSI_TIMEOUT_VALUE)
 8002202:	f7ff f871 	bl	80012e8 <HAL_GetTick>
 8002206:	1b80      	subs	r0, r0, r6
 8002208:	2802      	cmp	r0, #2
 800220a:	d9f7      	bls.n	80021fc <HAL_RCC_OscConfig+0x118>
 800220c:	e7ab      	b.n	8002166 <HAL_RCC_OscConfig+0x82>
        __HAL_RCC_HSI_DISABLE();
 800220e:	601a      	str	r2, [r3, #0]
        tickstart = HAL_GetTick();
 8002210:	f7ff f86a 	bl	80012e8 <HAL_GetTick>
 8002214:	4606      	mov	r6, r0
        while (__HAL_RCC_GET_FLAG(RCC_FLAG_HSIRDY) != RESET)
 8002216:	6823      	ldr	r3, [r4, #0]
 8002218:	0798      	lsls	r0, r3, #30
 800221a:	f57f af6d 	bpl.w	80020f8 <HAL_RCC_OscConfig+0x14>
          if ((HAL_GetTick() - tickstart) > HSI_TIMEOUT_VALUE)
 800221e:	f7ff f863 	bl	80012e8 <HAL_GetTick>
 8002222:	1b80      	subs	r0, r0, r6
 8002224:	2802      	cmp	r0, #2
 8002226:	d9f6      	bls.n	8002216 <HAL_RCC_OscConfig+0x132>
 8002228:	e79d      	b.n	8002166 <HAL_RCC_OscConfig+0x82>
    if (RCC_OscInitStruct->LSIState != RCC_LSI_OFF)
 800222a:	69aa      	ldr	r2, [r5, #24]
 800222c:	4e4a      	ldr	r6, [pc, #296]	; (8002358 <HAL_RCC_OscConfig+0x274>)
 800222e:	4b4b      	ldr	r3, [pc, #300]	; (800235c <HAL_RCC_OscConfig+0x278>)
 8002230:	b1e2      	cbz	r2, 800226c <HAL_RCC_OscConfig+0x188>
      __HAL_RCC_LSI_ENABLE();
 8002232:	2201      	movs	r2, #1
 8002234:	f8c3 2480 	str.w	r2, [r3, #1152]	; 0x480
      tickstart = HAL_GetTick();
 8002238:	f7ff f856 	bl	80012e8 <HAL_GetTick>
 800223c:	4604      	mov	r4, r0
      while (__HAL_RCC_GET_FLAG(RCC_FLAG_LSIRDY) == RESET)
 800223e:	6a73      	ldr	r3, [r6, #36]	; 0x24
 8002240:	079b      	lsls	r3, r3, #30
 8002242:	d50d      	bpl.n	8002260 <HAL_RCC_OscConfig+0x17c>
  * @param  mdelay: specifies the delay time length, in milliseconds.
  * @retval None
  */
static void RCC_Delay(uint32_t mdelay)
{
  __IO uint32_t Delay = mdelay * (SystemCoreClock / 8U / 1000U);
 8002244:	f44f 52fa 	mov.w	r2, #8000	; 0x1f40
 8002248:	4b45      	ldr	r3, [pc, #276]	; (8002360 <HAL_RCC_OscConfig+0x27c>)
 800224a:	681b      	ldr	r3, [r3, #0]
 800224c:	fbb3 f3f2 	udiv	r3, r3, r2
 8002250:	9301      	str	r3, [sp, #4]
  do
  {
    __NOP();
 8002252:	bf00      	nop
  }
  while (Delay --);
 8002254:	9b01      	ldr	r3, [sp, #4]
 8002256:	1e5a      	subs	r2, r3, #1
 8002258:	9201      	str	r2, [sp, #4]
 800225a:	2b00      	cmp	r3, #0
 800225c:	d1f9      	bne.n	8002252 <HAL_RCC_OscConfig+0x16e>
 800225e:	e74f      	b.n	8002100 <HAL_RCC_OscConfig+0x1c>
        if ((HAL_GetTick() - tickstart) > LSI_TIMEOUT_VALUE)
 8002260:	f7ff f842 	bl	80012e8 <HAL_GetTick>
 8002264:	1b00      	subs	r0, r0, r4
 8002266:	2802      	cmp	r0, #2
 8002268:	d9e9      	bls.n	800223e <HAL_RCC_OscConfig+0x15a>
 800226a:	e77c      	b.n	8002166 <HAL_RCC_OscConfig+0x82>
      __HAL_RCC_LSI_DISABLE();
 800226c:	f8c3 2480 	str.w	r2, [r3, #1152]	; 0x480
      tickstart = HAL_GetTick();
 8002270:	f7ff f83a 	bl	80012e8 <HAL_GetTick>
 8002274:	4604      	mov	r4, r0
      while (__HAL_RCC_GET_FLAG(RCC_FLAG_LSIRDY) != RESET)
 8002276:	6a73      	ldr	r3, [r6, #36]	; 0x24
 8002278:	079f      	lsls	r7, r3, #30
 800227a:	f57f af41 	bpl.w	8002100 <HAL_RCC_OscConfig+0x1c>
        if ((HAL_GetTick() - tickstart) > LSI_TIMEOUT_VALUE)
 800227e:	f7ff f833 	bl	80012e8 <HAL_GetTick>
 8002282:	1b00      	subs	r0, r0, r4
 8002284:	2802      	cmp	r0, #2
 8002286:	d9f6      	bls.n	8002276 <HAL_RCC_OscConfig+0x192>
 8002288:	e76d      	b.n	8002166 <HAL_RCC_OscConfig+0x82>
    if (__HAL_RCC_PWR_IS_CLK_DISABLED())
 800228a:	4c33      	ldr	r4, [pc, #204]	; (8002358 <HAL_RCC_OscConfig+0x274>)
 800228c:	69e3      	ldr	r3, [r4, #28]
 800228e:	00d8      	lsls	r0, r3, #3
 8002290:	d424      	bmi.n	80022dc <HAL_RCC_OscConfig+0x1f8>
      pwrclkchanged = SET;
 8002292:	2701      	movs	r7, #1
      __HAL_RCC_PWR_CLK_ENABLE();
 8002294:	69e3      	ldr	r3, [r4, #28]
 8002296:	f043 5380 	orr.w	r3, r3, #268435456	; 0x10000000
 800229a:	61e3      	str	r3, [r4, #28]
 800229c:	69e3      	ldr	r3, [r4, #28]
 800229e:	f003 5380 	and.w	r3, r3, #268435456	; 0x10000000
 80022a2:	9300      	str	r3, [sp, #0]
 80022a4:	9b00      	ldr	r3, [sp, #0]
    if (HAL_IS_BIT_CLR(PWR->CR, PWR_CR_DBP))
 80022a6:	4e2f      	ldr	r6, [pc, #188]	; (8002364 <HAL_RCC_OscConfig+0x280>)
 80022a8:	6833      	ldr	r3, [r6, #0]
 80022aa:	05d9      	lsls	r1, r3, #23
 80022ac:	d518      	bpl.n	80022e0 <HAL_RCC_OscConfig+0x1fc>
    __HAL_RCC_LSE_CONFIG(RCC_OscInitStruct->LSEState);
 80022ae:	68eb      	ldr	r3, [r5, #12]
 80022b0:	2b01      	cmp	r3, #1
 80022b2:	d126      	bne.n	8002302 <HAL_RCC_OscConfig+0x21e>
 80022b4:	6a23      	ldr	r3, [r4, #32]
 80022b6:	f043 0301 	orr.w	r3, r3, #1
 80022ba:	6223      	str	r3, [r4, #32]
      tickstart = HAL_GetTick();
 80022bc:	f7ff f814 	bl	80012e8 <HAL_GetTick>
        if ((HAL_GetTick() - tickstart) > RCC_LSE_TIMEOUT_VALUE)
 80022c0:	f241 3888 	movw	r8, #5000	; 0x1388
      tickstart = HAL_GetTick();
 80022c4:	4606      	mov	r6, r0
      while (__HAL_RCC_GET_FLAG(RCC_FLAG_LSERDY) == RESET)
 80022c6:	6a23      	ldr	r3, [r4, #32]
 80022c8:	079b      	lsls	r3, r3, #30
 80022ca:	d53f      	bpl.n	800234c <HAL_RCC_OscConfig+0x268>
    if (pwrclkchanged == SET)
 80022cc:	2f00      	cmp	r7, #0
 80022ce:	f43f af1b 	beq.w	8002108 <HAL_RCC_OscConfig+0x24>
      __HAL_RCC_PWR_CLK_DISABLE();
 80022d2:	69e3      	ldr	r3, [r4, #28]
 80022d4:	f023 5380 	bic.w	r3, r3, #268435456	; 0x10000000
 80022d8:	61e3      	str	r3, [r4, #28]
 80022da:	e715      	b.n	8002108 <HAL_RCC_OscConfig+0x24>
    FlagStatus       pwrclkchanged = RESET;
 80022dc:	2700      	movs	r7, #0
 80022de:	e7e2      	b.n	80022a6 <HAL_RCC_OscConfig+0x1c2>
      SET_BIT(PWR->CR, PWR_CR_DBP);
 80022e0:	6833      	ldr	r3, [r6, #0]
 80022e2:	f443 7380 	orr.w	r3, r3, #256	; 0x100
 80022e6:	6033      	str	r3, [r6, #0]
      tickstart = HAL_GetTick();
 80022e8:	f7fe fffe 	bl	80012e8 <HAL_GetTick>
 80022ec:	4680      	mov	r8, r0
      while (HAL_IS_BIT_CLR(PWR->CR, PWR_CR_DBP))
 80022ee:	6833      	ldr	r3, [r6, #0]
 80022f0:	05da      	lsls	r2, r3, #23
 80022f2:	d4dc      	bmi.n	80022ae <HAL_RCC_OscConfig+0x1ca>
        if ((HAL_GetTick() - tickstart) > RCC_DBP_TIMEOUT_VALUE)
 80022f4:	f7fe fff8 	bl	80012e8 <HAL_GetTick>
 80022f8:	eba0 0008 	sub.w	r0, r0, r8
 80022fc:	2864      	cmp	r0, #100	; 0x64
 80022fe:	d9f6      	bls.n	80022ee <HAL_RCC_OscConfig+0x20a>
 8002300:	e731      	b.n	8002166 <HAL_RCC_OscConfig+0x82>
    __HAL_RCC_LSE_CONFIG(RCC_OscInitStruct->LSEState);
 8002302:	b9ab      	cbnz	r3, 8002330 <HAL_RCC_OscConfig+0x24c>
 8002304:	6a23      	ldr	r3, [r4, #32]
        if ((HAL_GetTick() - tickstart) > RCC_LSE_TIMEOUT_VALUE)
 8002306:	f241 3888 	movw	r8, #5000	; 0x1388
    __HAL_RCC_LSE_CONFIG(RCC_OscInitStruct->LSEState);
 800230a:	f023 0301 	bic.w	r3, r3, #1
 800230e:	6223      	str	r3, [r4, #32]
 8002310:	6a23      	ldr	r3, [r4, #32]
 8002312:	f023 0304 	bic.w	r3, r3, #4
 8002316:	6223      	str	r3, [r4, #32]
      tickstart = HAL_GetTick();
 8002318:	f7fe ffe6 	bl	80012e8 <HAL_GetTick>
 800231c:	4606      	mov	r6, r0
      while (__HAL_RCC_GET_FLAG(RCC_FLAG_LSERDY) != RESET)
 800231e:	6a23      	ldr	r3, [r4, #32]
 8002320:	0798      	lsls	r0, r3, #30
 8002322:	d5d3      	bpl.n	80022cc <HAL_RCC_OscConfig+0x1e8>
        if ((HAL_GetTick() - tickstart) > RCC_LSE_TIMEOUT_VALUE)
 8002324:	f7fe ffe0 	bl	80012e8 <HAL_GetTick>
 8002328:	1b80      	subs	r0, r0, r6
 800232a:	4540      	cmp	r0, r8
 800232c:	d9f7      	bls.n	800231e <HAL_RCC_OscConfig+0x23a>
 800232e:	e71a      	b.n	8002166 <HAL_RCC_OscConfig+0x82>
    __HAL_RCC_LSE_CONFIG(RCC_OscInitStruct->LSEState);
 8002330:	2b05      	cmp	r3, #5
 8002332:	6a23      	ldr	r3, [r4, #32]
 8002334:	d103      	bne.n	800233e <HAL_RCC_OscConfig+0x25a>
 8002336:	f043 0304 	orr.w	r3, r3, #4
 800233a:	6223      	str	r3, [r4, #32]
 800233c:	e7ba      	b.n	80022b4 <HAL_RCC_OscConfig+0x1d0>
 800233e:	f023 0301 	bic.w	r3, r3, #1
 8002342:	6223      	str	r3, [r4, #32]
 8002344:	6a23      	ldr	r3, [r4, #32]
 8002346:	f023 0304 	bic.w	r3, r3, #4
 800234a:	e7b6      	b.n	80022ba <HAL_RCC_OscConfig+0x1d6>
        if ((HAL_GetTick() - tickstart) > RCC_LSE_TIMEOUT_VALUE)
 800234c:	f7fe ffcc 	bl	80012e8 <HAL_GetTick>
 8002350:	1b80      	subs	r0, r0, r6
 8002352:	4540      	cmp	r0, r8
 8002354:	d9b7      	bls.n	80022c6 <HAL_RCC_OscConfig+0x1e2>
 8002356:	e706      	b.n	8002166 <HAL_RCC_OscConfig+0x82>
 8002358:	40021000 	.word	0x40021000
 800235c:	42420000 	.word	0x42420000
 8002360:	20000000 	.word	0x20000000
 8002364:	40007000 	.word	0x40007000
    if (__HAL_RCC_GET_SYSCLK_SOURCE() != RCC_SYSCLKSOURCE_STATUS_PLLCLK)
 8002368:	4c2a      	ldr	r4, [pc, #168]	; (8002414 <HAL_RCC_OscConfig+0x330>)
 800236a:	6863      	ldr	r3, [r4, #4]
 800236c:	f003 030c 	and.w	r3, r3, #12
 8002370:	2b08      	cmp	r3, #8
 8002372:	d03e      	beq.n	80023f2 <HAL_RCC_OscConfig+0x30e>
      if ((RCC_OscInitStruct->PLL.PLLState) == RCC_PLL_ON)
 8002374:	2200      	movs	r2, #0
 8002376:	4b28      	ldr	r3, [pc, #160]	; (8002418 <HAL_RCC_OscConfig+0x334>)
 8002378:	2802      	cmp	r0, #2
        __HAL_RCC_PLL_DISABLE();
 800237a:	661a      	str	r2, [r3, #96]	; 0x60
      if ((RCC_OscInitStruct->PLL.PLLState) == RCC_PLL_ON)
 800237c:	d12c      	bne.n	80023d8 <HAL_RCC_OscConfig+0x2f4>
        tickstart = HAL_GetTick();
 800237e:	f7fe ffb3 	bl	80012e8 <HAL_GetTick>
 8002382:	4606      	mov	r6, r0
        while (__HAL_RCC_GET_FLAG(RCC_FLAG_PLLRDY)  != RESET)
 8002384:	6823      	ldr	r3, [r4, #0]
 8002386:	0199      	lsls	r1, r3, #6
 8002388:	d420      	bmi.n	80023cc <HAL_RCC_OscConfig+0x2e8>
        if (RCC_OscInitStruct->PLL.PLLSource == RCC_PLLSOURCE_HSE)
 800238a:	6a2b      	ldr	r3, [r5, #32]
 800238c:	f5b3 3f80 	cmp.w	r3, #65536	; 0x10000
 8002390:	d105      	bne.n	800239e <HAL_RCC_OscConfig+0x2ba>
          __HAL_RCC_HSE_PREDIV_CONFIG(RCC_OscInitStruct->HSEPredivValue);
 8002392:	6862      	ldr	r2, [r4, #4]
 8002394:	68a9      	ldr	r1, [r5, #8]
 8002396:	f422 3200 	bic.w	r2, r2, #131072	; 0x20000
 800239a:	430a      	orrs	r2, r1
 800239c:	6062      	str	r2, [r4, #4]
        __HAL_RCC_PLL_CONFIG(RCC_OscInitStruct->PLL.PLLSource,
 800239e:	6a69      	ldr	r1, [r5, #36]	; 0x24
 80023a0:	6862      	ldr	r2, [r4, #4]
 80023a2:	430b      	orrs	r3, r1
 80023a4:	f422 1274 	bic.w	r2, r2, #3997696	; 0x3d0000
 80023a8:	4313      	orrs	r3, r2
        __HAL_RCC_PLL_ENABLE();
 80023aa:	2201      	movs	r2, #1
        __HAL_RCC_PLL_CONFIG(RCC_OscInitStruct->PLL.PLLSource,
 80023ac:	6063      	str	r3, [r4, #4]
        __HAL_RCC_PLL_ENABLE();
 80023ae:	4b1a      	ldr	r3, [pc, #104]	; (8002418 <HAL_RCC_OscConfig+0x334>)
 80023b0:	661a      	str	r2, [r3, #96]	; 0x60
        tickstart = HAL_GetTick();
 80023b2:	f7fe ff99 	bl	80012e8 <HAL_GetTick>
 80023b6:	4605      	mov	r5, r0
        while (__HAL_RCC_GET_FLAG(RCC_FLAG_PLLRDY)  == RESET)
 80023b8:	6823      	ldr	r3, [r4, #0]
 80023ba:	019a      	lsls	r2, r3, #6
 80023bc:	f53f aea8 	bmi.w	8002110 <HAL_RCC_OscConfig+0x2c>
          if ((HAL_GetTick() - tickstart) > PLL_TIMEOUT_VALUE)
 80023c0:	f7fe ff92 	bl	80012e8 <HAL_GetTick>
 80023c4:	1b40      	subs	r0, r0, r5
 80023c6:	2802      	cmp	r0, #2
 80023c8:	d9f6      	bls.n	80023b8 <HAL_RCC_OscConfig+0x2d4>
 80023ca:	e6cc      	b.n	8002166 <HAL_RCC_OscConfig+0x82>
          if ((HAL_GetTick() - tickstart) > PLL_TIMEOUT_VALUE)
 80023cc:	f7fe ff8c 	bl	80012e8 <HAL_GetTick>
 80023d0:	1b80      	subs	r0, r0, r6
 80023d2:	2802      	cmp	r0, #2
 80023d4:	d9d6      	bls.n	8002384 <HAL_RCC_OscConfig+0x2a0>
 80023d6:	e6c6      	b.n	8002166 <HAL_RCC_OscConfig+0x82>
        tickstart = HAL_GetTick();
 80023d8:	f7fe ff86 	bl	80012e8 <HAL_GetTick>
 80023dc:	4605      	mov	r5, r0
        while (__HAL_RCC_GET_FLAG(RCC_FLAG_PLLRDY)  != RESET)
 80023de:	6823      	ldr	r3, [r4, #0]
 80023e0:	019b      	lsls	r3, r3, #6
 80023e2:	f57f ae95 	bpl.w	8002110 <HAL_RCC_OscConfig+0x2c>
          if ((HAL_GetTick() - tickstart) > PLL_TIMEOUT_VALUE)
 80023e6:	f7fe ff7f 	bl	80012e8 <HAL_GetTick>
 80023ea:	1b40      	subs	r0, r0, r5
 80023ec:	2802      	cmp	r0, #2
 80023ee:	d9f6      	bls.n	80023de <HAL_RCC_OscConfig+0x2fa>
 80023f0:	e6b9      	b.n	8002166 <HAL_RCC_OscConfig+0x82>
      if ((RCC_OscInitStruct->PLL.PLLState) == RCC_PLL_OFF)
 80023f2:	2801      	cmp	r0, #1
 80023f4:	f43f aeb8 	beq.w	8002168 <HAL_RCC_OscConfig+0x84>
        pll_config = RCC->CFGR;
 80023f8:	6863      	ldr	r3, [r4, #4]
        if ((READ_BIT(pll_config, RCC_CFGR_PLLSRC) != RCC_OscInitStruct->PLL.PLLSource) ||
 80023fa:	6a2a      	ldr	r2, [r5, #32]
 80023fc:	f403 3180 	and.w	r1, r3, #65536	; 0x10000
 8002400:	4291      	cmp	r1, r2
 8002402:	f47f ae9b 	bne.w	800213c <HAL_RCC_OscConfig+0x58>
 8002406:	6a6a      	ldr	r2, [r5, #36]	; 0x24
            (READ_BIT(pll_config, RCC_CFGR_PLLMULL) != RCC_OscInitStruct->PLL.PLLMUL))
 8002408:	f403 1370 	and.w	r3, r3, #3932160	; 0x3c0000
        if ((READ_BIT(pll_config, RCC_CFGR_PLLSRC) != RCC_OscInitStruct->PLL.PLLSource) ||
 800240c:	4293      	cmp	r3, r2
 800240e:	f43f ae7f 	beq.w	8002110 <HAL_RCC_OscConfig+0x2c>
 8002412:	e693      	b.n	800213c <HAL_RCC_OscConfig+0x58>
 8002414:	40021000 	.word	0x40021000
 8002418:	42420000 	.word	0x42420000

0800241c <HAL_RCC_GetSysClockFreq>:
  tmpreg = RCC->CFGR;
 800241c:	4a0d      	ldr	r2, [pc, #52]	; (8002454 <HAL_RCC_GetSysClockFreq+0x38>)
 800241e:	6853      	ldr	r3, [r2, #4]
  switch (tmpreg & RCC_CFGR_SWS)
 8002420:	f003 010c 	and.w	r1, r3, #12
 8002424:	2908      	cmp	r1, #8
 8002426:	d112      	bne.n	800244e <HAL_RCC_GetSysClockFreq+0x32>
      pllmul = aPLLMULFactorTable[(uint32_t)(tmpreg & RCC_CFGR_PLLMULL) >> RCC_CFGR_PLLMULL_Pos];
 8002428:	480b      	ldr	r0, [pc, #44]	; (8002458 <HAL_RCC_GetSysClockFreq+0x3c>)
 800242a:	f3c3 4183 	ubfx	r1, r3, #18, #4
      if ((tmpreg & RCC_CFGR_PLLSRC) != RCC_PLLSOURCE_HSI_DIV2)
 800242e:	03db      	lsls	r3, r3, #15
      pllmul = aPLLMULFactorTable[(uint32_t)(tmpreg & RCC_CFGR_PLLMULL) >> RCC_CFGR_PLLMULL_Pos];
 8002430:	5c40      	ldrb	r0, [r0, r1]
      if ((tmpreg & RCC_CFGR_PLLSRC) != RCC_PLLSOURCE_HSI_DIV2)
 8002432:	d509      	bpl.n	8002448 <HAL_RCC_GetSysClockFreq+0x2c>
        prediv = aPredivFactorTable[(uint32_t)(RCC->CFGR & RCC_CFGR_PLLXTPRE) >> RCC_CFGR_PLLXTPRE_Pos];
 8002434:	6853      	ldr	r3, [r2, #4]
        pllclk = (uint32_t)((HSE_VALUE  * pllmul) / prediv);
 8002436:	4a09      	ldr	r2, [pc, #36]	; (800245c <HAL_RCC_GetSysClockFreq+0x40>)
        prediv = aPredivFactorTable[(uint32_t)(RCC->CFGR & RCC_CFGR_PLLXTPRE) >> RCC_CFGR_PLLXTPRE_Pos];
 8002438:	f3c3 4340 	ubfx	r3, r3, #17, #1
        pllclk = (uint32_t)((HSE_VALUE  * pllmul) / prediv);
 800243c:	4350      	muls	r0, r2
        prediv = aPredivFactorTable[(uint32_t)(RCC->CFGR & RCC_CFGR_PLLXTPRE) >> RCC_CFGR_PLLXTPRE_Pos];
 800243e:	4a08      	ldr	r2, [pc, #32]	; (8002460 <HAL_RCC_GetSysClockFreq+0x44>)
 8002440:	5cd3      	ldrb	r3, [r2, r3]
        pllclk = (uint32_t)((HSE_VALUE  * pllmul) / prediv);
 8002442:	fbb0 f0f3 	udiv	r0, r0, r3
 8002446:	4770      	bx	lr
        pllclk = (uint32_t)((HSI_VALUE >> 1) * pllmul);
 8002448:	4b06      	ldr	r3, [pc, #24]	; (8002464 <HAL_RCC_GetSysClockFreq+0x48>)
 800244a:	4358      	muls	r0, r3
 800244c:	4770      	bx	lr
      sysclockfreq = HSE_VALUE;
 800244e:	4803      	ldr	r0, [pc, #12]	; (800245c <HAL_RCC_GetSysClockFreq+0x40>)
}
 8002450:	4770      	bx	lr
 8002452:	bf00      	nop
 8002454:	40021000 	.word	0x40021000
 8002458:	08003ffc 	.word	0x08003ffc
 800245c:	007a1200 	.word	0x007a1200
 8002460:	0800400c 	.word	0x0800400c
 8002464:	003d0900 	.word	0x003d0900

08002468 <HAL_RCC_ClockConfig>:
{
 8002468:	e92d 41f0 	stmdb	sp!, {r4, r5, r6, r7, r8, lr}
 800246c:	460d      	mov	r5, r1
  if (RCC_ClkInitStruct == NULL)
 800246e:	4604      	mov	r4, r0
 8002470:	b910      	cbnz	r0, 8002478 <HAL_RCC_ClockConfig+0x10>
    return HAL_ERROR;
 8002472:	2001      	movs	r0, #1
}
 8002474:	e8bd 81f0 	ldmia.w	sp!, {r4, r5, r6, r7, r8, pc}
  if (FLatency > __HAL_FLASH_GET_LATENCY())
 8002478:	4a44      	ldr	r2, [pc, #272]	; (800258c <HAL_RCC_ClockConfig+0x124>)
 800247a:	6813      	ldr	r3, [r2, #0]
 800247c:	f003 0307 	and.w	r3, r3, #7
 8002480:	428b      	cmp	r3, r1
 8002482:	d328      	bcc.n	80024d6 <HAL_RCC_ClockConfig+0x6e>
if (((RCC_ClkInitStruct->ClockType) & RCC_CLOCKTYPE_HCLK) == RCC_CLOCKTYPE_HCLK)
 8002484:	6821      	ldr	r1, [r4, #0]
 8002486:	078e      	lsls	r6, r1, #30
 8002488:	d430      	bmi.n	80024ec <HAL_RCC_ClockConfig+0x84>
  if (((RCC_ClkInitStruct->ClockType) & RCC_CLOCKTYPE_SYSCLK) == RCC_CLOCKTYPE_SYSCLK)
 800248a:	07ca      	lsls	r2, r1, #31
 800248c:	d443      	bmi.n	8002516 <HAL_RCC_ClockConfig+0xae>
  if (FLatency < __HAL_FLASH_GET_LATENCY())
 800248e:	4a3f      	ldr	r2, [pc, #252]	; (800258c <HAL_RCC_ClockConfig+0x124>)
 8002490:	6813      	ldr	r3, [r2, #0]
 8002492:	f003 0307 	and.w	r3, r3, #7
 8002496:	42ab      	cmp	r3, r5
 8002498:	d865      	bhi.n	8002566 <HAL_RCC_ClockConfig+0xfe>
if (((RCC_ClkInitStruct->ClockType) & RCC_CLOCKTYPE_PCLK1) == RCC_CLOCKTYPE_PCLK1)
 800249a:	6822      	ldr	r2, [r4, #0]
 800249c:	4d3c      	ldr	r5, [pc, #240]	; (8002590 <HAL_RCC_ClockConfig+0x128>)
 800249e:	f012 0f04 	tst.w	r2, #4
 80024a2:	d16c      	bne.n	800257e <HAL_RCC_ClockConfig+0x116>
  if (((RCC_ClkInitStruct->ClockType) & RCC_CLOCKTYPE_PCLK2) == RCC_CLOCKTYPE_PCLK2)
 80024a4:	0713      	lsls	r3, r2, #28
 80024a6:	d506      	bpl.n	80024b6 <HAL_RCC_ClockConfig+0x4e>
    MODIFY_REG(RCC->CFGR, RCC_CFGR_PPRE2, ((RCC_ClkInitStruct->APB2CLKDivider) << 3));
 80024a8:	686b      	ldr	r3, [r5, #4]
 80024aa:	6922      	ldr	r2, [r4, #16]
 80024ac:	f423 5360 	bic.w	r3, r3, #14336	; 0x3800
 80024b0:	ea43 03c2 	orr.w	r3, r3, r2, lsl #3
 80024b4:	606b      	str	r3, [r5, #4]
  SystemCoreClock = HAL_RCC_GetSysClockFreq() >> AHBPrescTable[(RCC->CFGR & RCC_CFGR_HPRE) >> RCC_CFGR_HPRE_Pos];
 80024b6:	f7ff ffb1 	bl	800241c <HAL_RCC_GetSysClockFreq>
 80024ba:	686b      	ldr	r3, [r5, #4]
 80024bc:	4a35      	ldr	r2, [pc, #212]	; (8002594 <HAL_RCC_ClockConfig+0x12c>)
 80024be:	f3c3 1303 	ubfx	r3, r3, #4, #4
 80024c2:	5cd3      	ldrb	r3, [r2, r3]
 80024c4:	40d8      	lsrs	r0, r3
 80024c6:	4b34      	ldr	r3, [pc, #208]	; (8002598 <HAL_RCC_ClockConfig+0x130>)
 80024c8:	6018      	str	r0, [r3, #0]
  HAL_InitTick(uwTickPrio);
 80024ca:	4b34      	ldr	r3, [pc, #208]	; (800259c <HAL_RCC_ClockConfig+0x134>)
 80024cc:	6818      	ldr	r0, [r3, #0]
 80024ce:	f7fe fec9 	bl	8001264 <HAL_InitTick>
  return HAL_OK;
 80024d2:	2000      	movs	r0, #0
 80024d4:	e7ce      	b.n	8002474 <HAL_RCC_ClockConfig+0xc>
    __HAL_FLASH_SET_LATENCY(FLatency);
 80024d6:	6813      	ldr	r3, [r2, #0]
 80024d8:	f023 0307 	bic.w	r3, r3, #7
 80024dc:	430b      	orrs	r3, r1
 80024de:	6013      	str	r3, [r2, #0]
    if (__HAL_FLASH_GET_LATENCY() != FLatency)
 80024e0:	6813      	ldr	r3, [r2, #0]
 80024e2:	f003 0307 	and.w	r3, r3, #7
 80024e6:	428b      	cmp	r3, r1
 80024e8:	d1c3      	bne.n	8002472 <HAL_RCC_ClockConfig+0xa>
 80024ea:	e7cb      	b.n	8002484 <HAL_RCC_ClockConfig+0x1c>
    if (((RCC_ClkInitStruct->ClockType) & RCC_CLOCKTYPE_PCLK1) == RCC_CLOCKTYPE_PCLK1)
 80024ec:	4b28      	ldr	r3, [pc, #160]	; (8002590 <HAL_RCC_ClockConfig+0x128>)
 80024ee:	f011 0f04 	tst.w	r1, #4
      MODIFY_REG(RCC->CFGR, RCC_CFGR_PPRE1, RCC_HCLK_DIV16);
 80024f2:	bf1e      	ittt	ne
 80024f4:	685a      	ldrne	r2, [r3, #4]
 80024f6:	f442 62e0 	orrne.w	r2, r2, #1792	; 0x700
 80024fa:	605a      	strne	r2, [r3, #4]
    if (((RCC_ClkInitStruct->ClockType) & RCC_CLOCKTYPE_PCLK2) == RCC_CLOCKTYPE_PCLK2)
 80024fc:	0708      	lsls	r0, r1, #28
      MODIFY_REG(RCC->CFGR, RCC_CFGR_PPRE2, (RCC_HCLK_DIV16 << 3));
 80024fe:	bf42      	ittt	mi
 8002500:	685a      	ldrmi	r2, [r3, #4]
 8002502:	f442 5260 	orrmi.w	r2, r2, #14336	; 0x3800
 8002506:	605a      	strmi	r2, [r3, #4]
    MODIFY_REG(RCC->CFGR, RCC_CFGR_HPRE, RCC_ClkInitStruct->AHBCLKDivider);
 8002508:	685a      	ldr	r2, [r3, #4]
 800250a:	68a0      	ldr	r0, [r4, #8]
 800250c:	f022 02f0 	bic.w	r2, r2, #240	; 0xf0
 8002510:	4302      	orrs	r2, r0
 8002512:	605a      	str	r2, [r3, #4]
 8002514:	e7b9      	b.n	800248a <HAL_RCC_ClockConfig+0x22>
    if (RCC_ClkInitStruct->SYSCLKSource == RCC_SYSCLKSOURCE_HSE)
 8002516:	6862      	ldr	r2, [r4, #4]
 8002518:	4e1d      	ldr	r6, [pc, #116]	; (8002590 <HAL_RCC_ClockConfig+0x128>)
 800251a:	2a01      	cmp	r2, #1
      if (__HAL_RCC_GET_FLAG(RCC_FLAG_HSERDY) == RESET)
 800251c:	6833      	ldr	r3, [r6, #0]
    if (RCC_ClkInitStruct->SYSCLKSource == RCC_SYSCLKSOURCE_HSE)
 800251e:	d11a      	bne.n	8002556 <HAL_RCC_ClockConfig+0xee>
      if (__HAL_RCC_GET_FLAG(RCC_FLAG_HSERDY) == RESET)
 8002520:	f413 3f00 	tst.w	r3, #131072	; 0x20000
      if (__HAL_RCC_GET_FLAG(RCC_FLAG_HSIRDY) == RESET)
 8002524:	d0a5      	beq.n	8002472 <HAL_RCC_ClockConfig+0xa>
    __HAL_RCC_SYSCLK_CONFIG(RCC_ClkInitStruct->SYSCLKSource);
 8002526:	6873      	ldr	r3, [r6, #4]
      if ((HAL_GetTick() - tickstart) > CLOCKSWITCH_TIMEOUT_VALUE)
 8002528:	f241 3888 	movw	r8, #5000	; 0x1388
    __HAL_RCC_SYSCLK_CONFIG(RCC_ClkInitStruct->SYSCLKSource);
 800252c:	f023 0303 	bic.w	r3, r3, #3
 8002530:	4313      	orrs	r3, r2
 8002532:	6073      	str	r3, [r6, #4]
    tickstart = HAL_GetTick();
 8002534:	f7fe fed8 	bl	80012e8 <HAL_GetTick>
 8002538:	4607      	mov	r7, r0
    while (__HAL_RCC_GET_SYSCLK_SOURCE() != (RCC_ClkInitStruct->SYSCLKSource << RCC_CFGR_SWS_Pos))
 800253a:	6873      	ldr	r3, [r6, #4]
 800253c:	6862      	ldr	r2, [r4, #4]
 800253e:	f003 030c 	and.w	r3, r3, #12
 8002542:	ebb3 0f82 	cmp.w	r3, r2, lsl #2
 8002546:	d0a2      	beq.n	800248e <HAL_RCC_ClockConfig+0x26>
      if ((HAL_GetTick() - tickstart) > CLOCKSWITCH_TIMEOUT_VALUE)
 8002548:	f7fe fece 	bl	80012e8 <HAL_GetTick>
 800254c:	1bc0      	subs	r0, r0, r7
 800254e:	4540      	cmp	r0, r8
 8002550:	d9f3      	bls.n	800253a <HAL_RCC_ClockConfig+0xd2>
        return HAL_TIMEOUT;
 8002552:	2003      	movs	r0, #3
 8002554:	e78e      	b.n	8002474 <HAL_RCC_ClockConfig+0xc>
    else if (RCC_ClkInitStruct->SYSCLKSource == RCC_SYSCLKSOURCE_PLLCLK)
 8002556:	2a02      	cmp	r2, #2
 8002558:	d102      	bne.n	8002560 <HAL_RCC_ClockConfig+0xf8>
      if (__HAL_RCC_GET_FLAG(RCC_FLAG_PLLRDY) == RESET)
 800255a:	f013 7f00 	tst.w	r3, #33554432	; 0x2000000
 800255e:	e7e1      	b.n	8002524 <HAL_RCC_ClockConfig+0xbc>
      if (__HAL_RCC_GET_FLAG(RCC_FLAG_HSIRDY) == RESET)
 8002560:	f013 0f02 	tst.w	r3, #2
 8002564:	e7de      	b.n	8002524 <HAL_RCC_ClockConfig+0xbc>
    __HAL_FLASH_SET_LATENCY(FLatency);
 8002566:	6813      	ldr	r3, [r2, #0]
 8002568:	f023 0307 	bic.w	r3, r3, #7
 800256c:	432b      	orrs	r3, r5
 800256e:	6013      	str	r3, [r2, #0]
    if (__HAL_FLASH_GET_LATENCY() != FLatency)
 8002570:	6813      	ldr	r3, [r2, #0]
 8002572:	f003 0307 	and.w	r3, r3, #7
 8002576:	42ab      	cmp	r3, r5
 8002578:	f47f af7b 	bne.w	8002472 <HAL_RCC_ClockConfig+0xa>
 800257c:	e78d      	b.n	800249a <HAL_RCC_ClockConfig+0x32>
    MODIFY_REG(RCC->CFGR, RCC_CFGR_PPRE1, RCC_ClkInitStruct->APB1CLKDivider);
 800257e:	686b      	ldr	r3, [r5, #4]
 8002580:	68e1      	ldr	r1, [r4, #12]
 8002582:	f423 63e0 	bic.w	r3, r3, #1792	; 0x700
 8002586:	430b      	orrs	r3, r1
 8002588:	606b      	str	r3, [r5, #4]
 800258a:	e78b      	b.n	80024a4 <HAL_RCC_ClockConfig+0x3c>
 800258c:	40022000 	.word	0x40022000
 8002590:	40021000 	.word	0x40021000
 8002594:	08003fec 	.word	0x08003fec
 8002598:	20000000 	.word	0x20000000
 800259c:	20000008 	.word	0x20000008

080025a0 <HAL_RCCEx_PeriphCLKConfig>:

  /* Check the parameters */
  assert_param(IS_RCC_PERIPHCLOCK(PeriphClkInit->PeriphClockSelection));

  /*------------------------------- RTC/LCD Configuration ------------------------*/
  if ((((PeriphClkInit->PeriphClockSelection) & RCC_PERIPHCLK_RTC) == RCC_PERIPHCLK_RTC))
 80025a0:	6803      	ldr	r3, [r0, #0]
{
 80025a2:	e92d 41f3 	stmdb	sp!, {r0, r1, r4, r5, r6, r7, r8, lr}
  if ((((PeriphClkInit->PeriphClockSelection) & RCC_PERIPHCLK_RTC) == RCC_PERIPHCLK_RTC))
 80025a6:	07d9      	lsls	r1, r3, #31
{
 80025a8:	4605      	mov	r5, r0
  if ((((PeriphClkInit->PeriphClockSelection) & RCC_PERIPHCLK_RTC) == RCC_PERIPHCLK_RTC))
 80025aa:	d520      	bpl.n	80025ee <HAL_RCCEx_PeriphCLKConfig+0x4e>
    assert_param(IS_RCC_RTCCLKSOURCE(PeriphClkInit->RTCClockSelection));

    /* As soon as function is called to change RTC clock source, activation of the
       power domain is done. */
    /* Requires to enable write access to Backup Domain of necessary */
    if (__HAL_RCC_PWR_IS_CLK_DISABLED())
 80025ac:	4c36      	ldr	r4, [pc, #216]	; (8002688 <HAL_RCCEx_PeriphCLKConfig+0xe8>)
 80025ae:	69e3      	ldr	r3, [r4, #28]
 80025b0:	00da      	lsls	r2, r3, #3
 80025b2:	d432      	bmi.n	800261a <HAL_RCCEx_PeriphCLKConfig+0x7a>
    {
      __HAL_RCC_PWR_CLK_ENABLE();
      pwrclkchanged = SET;
 80025b4:	2601      	movs	r6, #1
      __HAL_RCC_PWR_CLK_ENABLE();
 80025b6:	69e3      	ldr	r3, [r4, #28]
 80025b8:	f043 5380 	orr.w	r3, r3, #268435456	; 0x10000000
 80025bc:	61e3      	str	r3, [r4, #28]
 80025be:	69e3      	ldr	r3, [r4, #28]
 80025c0:	f003 5380 	and.w	r3, r3, #268435456	; 0x10000000
 80025c4:	9301      	str	r3, [sp, #4]
 80025c6:	9b01      	ldr	r3, [sp, #4]
    }

    if (HAL_IS_BIT_CLR(PWR->CR, PWR_CR_DBP))
 80025c8:	4f30      	ldr	r7, [pc, #192]	; (800268c <HAL_RCCEx_PeriphCLKConfig+0xec>)
 80025ca:	683b      	ldr	r3, [r7, #0]
 80025cc:	05db      	lsls	r3, r3, #23
 80025ce:	d526      	bpl.n	800261e <HAL_RCCEx_PeriphCLKConfig+0x7e>
        }
      }
    }

    /* Reset the Backup domain only if the RTC Clock source selection is modified from reset value */
    temp_reg = (RCC->BDCR & RCC_BDCR_RTCSEL);
 80025d0:	6a23      	ldr	r3, [r4, #32]
    if ((temp_reg != 0x00000000U) && (temp_reg != (PeriphClkInit->RTCClockSelection & RCC_BDCR_RTCSEL)))
 80025d2:	f413 7340 	ands.w	r3, r3, #768	; 0x300
 80025d6:	d136      	bne.n	8002646 <HAL_RCCEx_PeriphCLKConfig+0xa6>
            return HAL_TIMEOUT;
          }
        }
      }
    }
    __HAL_RCC_RTC_CONFIG(PeriphClkInit->RTCClockSelection);
 80025d8:	6a23      	ldr	r3, [r4, #32]
 80025da:	686a      	ldr	r2, [r5, #4]
 80025dc:	f423 7340 	bic.w	r3, r3, #768	; 0x300
 80025e0:	4313      	orrs	r3, r2
 80025e2:	6223      	str	r3, [r4, #32]

    /* Require to disable power clock if necessary */
    if (pwrclkchanged == SET)
 80025e4:	b11e      	cbz	r6, 80025ee <HAL_RCCEx_PeriphCLKConfig+0x4e>
    {
      __HAL_RCC_PWR_CLK_DISABLE();
 80025e6:	69e3      	ldr	r3, [r4, #28]
 80025e8:	f023 5380 	bic.w	r3, r3, #268435456	; 0x10000000
 80025ec:	61e3      	str	r3, [r4, #28]
    }
  }

  /*------------------------------ ADC clock Configuration ------------------*/
  if (((PeriphClkInit->PeriphClockSelection) & RCC_PERIPHCLK_ADC) == RCC_PERIPHCLK_ADC)
 80025ee:	6828      	ldr	r0, [r5, #0]
 80025f0:	0783      	lsls	r3, r0, #30
 80025f2:	d506      	bpl.n	8002602 <HAL_RCCEx_PeriphCLKConfig+0x62>
  {
    /* Check the parameters */
    assert_param(IS_RCC_ADCPLLCLK_DIV(PeriphClkInit->AdcClockSelection));

    /* Configure the ADC clock source */
    __HAL_RCC_ADC_CONFIG(PeriphClkInit->AdcClockSelection);
 80025f4:	4924      	ldr	r1, [pc, #144]	; (8002688 <HAL_RCCEx_PeriphCLKConfig+0xe8>)
 80025f6:	68ab      	ldr	r3, [r5, #8]
 80025f8:	684a      	ldr	r2, [r1, #4]
 80025fa:	f422 4240 	bic.w	r2, r2, #49152	; 0xc000
 80025fe:	431a      	orrs	r2, r3
 8002600:	604a      	str	r2, [r1, #4]

#if defined(STM32F102x6) || defined(STM32F102xB) || defined(STM32F103x6)\
 || defined(STM32F103xB) || defined(STM32F103xE) || defined(STM32F103xG)\
 || defined(STM32F105xC) || defined(STM32F107xC)
  /*------------------------------ USB clock Configuration ------------------*/
  if (((PeriphClkInit->PeriphClockSelection) & RCC_PERIPHCLK_USB) == RCC_PERIPHCLK_USB)
 8002602:	f010 0010 	ands.w	r0, r0, #16
 8002606:	d01b      	beq.n	8002640 <HAL_RCCEx_PeriphCLKConfig+0xa0>
  {
    /* Check the parameters */
    assert_param(IS_RCC_USBPLLCLK_DIV(PeriphClkInit->UsbClockSelection));

    /* Configure the USB clock source */
    __HAL_RCC_USB_CONFIG(PeriphClkInit->UsbClockSelection);
 8002608:	4a1f      	ldr	r2, [pc, #124]	; (8002688 <HAL_RCCEx_PeriphCLKConfig+0xe8>)
 800260a:	68e9      	ldr	r1, [r5, #12]
 800260c:	6853      	ldr	r3, [r2, #4]
  }
#endif /* STM32F102x6 || STM32F102xB || STM32F103x6 || STM32F103xB || STM32F103xE || STM32F103xG || STM32F105xC || STM32F107xC */

  return HAL_OK;
 800260e:	2000      	movs	r0, #0
    __HAL_RCC_USB_CONFIG(PeriphClkInit->UsbClockSelection);
 8002610:	f423 0380 	bic.w	r3, r3, #4194304	; 0x400000
 8002614:	430b      	orrs	r3, r1
 8002616:	6053      	str	r3, [r2, #4]
 8002618:	e012      	b.n	8002640 <HAL_RCCEx_PeriphCLKConfig+0xa0>
    FlagStatus pwrclkchanged = RESET;
 800261a:	2600      	movs	r6, #0
 800261c:	e7d4      	b.n	80025c8 <HAL_RCCEx_PeriphCLKConfig+0x28>
      SET_BIT(PWR->CR, PWR_CR_DBP);
 800261e:	683b      	ldr	r3, [r7, #0]
 8002620:	f443 7380 	orr.w	r3, r3, #256	; 0x100
 8002624:	603b      	str	r3, [r7, #0]
      tickstart = HAL_GetTick();
 8002626:	f7fe fe5f 	bl	80012e8 <HAL_GetTick>
 800262a:	4680      	mov	r8, r0
      while (HAL_IS_BIT_CLR(PWR->CR, PWR_CR_DBP))
 800262c:	683b      	ldr	r3, [r7, #0]
 800262e:	05d8      	lsls	r0, r3, #23
 8002630:	d4ce      	bmi.n	80025d0 <HAL_RCCEx_PeriphCLKConfig+0x30>
        if ((HAL_GetTick() - tickstart) > RCC_DBP_TIMEOUT_VALUE)
 8002632:	f7fe fe59 	bl	80012e8 <HAL_GetTick>
 8002636:	eba0 0008 	sub.w	r0, r0, r8
 800263a:	2864      	cmp	r0, #100	; 0x64
 800263c:	d9f6      	bls.n	800262c <HAL_RCCEx_PeriphCLKConfig+0x8c>
          return HAL_TIMEOUT;
 800263e:	2003      	movs	r0, #3
}
 8002640:	b002      	add	sp, #8
 8002642:	e8bd 81f0 	ldmia.w	sp!, {r4, r5, r6, r7, r8, pc}
    if ((temp_reg != 0x00000000U) && (temp_reg != (PeriphClkInit->RTCClockSelection & RCC_BDCR_RTCSEL)))
 8002646:	686a      	ldr	r2, [r5, #4]
 8002648:	f402 7240 	and.w	r2, r2, #768	; 0x300
 800264c:	429a      	cmp	r2, r3
 800264e:	d0c3      	beq.n	80025d8 <HAL_RCCEx_PeriphCLKConfig+0x38>
      __HAL_RCC_BACKUPRESET_FORCE();
 8002650:	2001      	movs	r0, #1
 8002652:	4a0f      	ldr	r2, [pc, #60]	; (8002690 <HAL_RCCEx_PeriphCLKConfig+0xf0>)
      temp_reg = (RCC->BDCR & ~(RCC_BDCR_RTCSEL));
 8002654:	6a23      	ldr	r3, [r4, #32]
      __HAL_RCC_BACKUPRESET_FORCE();
 8002656:	f8c2 0440 	str.w	r0, [r2, #1088]	; 0x440
      __HAL_RCC_BACKUPRESET_RELEASE();
 800265a:	2000      	movs	r0, #0
      temp_reg = (RCC->BDCR & ~(RCC_BDCR_RTCSEL));
 800265c:	f423 7140 	bic.w	r1, r3, #768	; 0x300
      __HAL_RCC_BACKUPRESET_RELEASE();
 8002660:	f8c2 0440 	str.w	r0, [r2, #1088]	; 0x440
      RCC->BDCR = temp_reg;
 8002664:	6221      	str	r1, [r4, #32]
      if (HAL_IS_BIT_SET(temp_reg, RCC_BDCR_LSEON))
 8002666:	07d9      	lsls	r1, r3, #31
 8002668:	d5b6      	bpl.n	80025d8 <HAL_RCCEx_PeriphCLKConfig+0x38>
        tickstart = HAL_GetTick();
 800266a:	f7fe fe3d 	bl	80012e8 <HAL_GetTick>
          if ((HAL_GetTick() - tickstart) > RCC_LSE_TIMEOUT_VALUE)
 800266e:	f241 3888 	movw	r8, #5000	; 0x1388
        tickstart = HAL_GetTick();
 8002672:	4607      	mov	r7, r0
        while (__HAL_RCC_GET_FLAG(RCC_FLAG_LSERDY) == RESET)
 8002674:	6a23      	ldr	r3, [r4, #32]
 8002676:	079a      	lsls	r2, r3, #30
 8002678:	d4ae      	bmi.n	80025d8 <HAL_RCCEx_PeriphCLKConfig+0x38>
          if ((HAL_GetTick() - tickstart) > RCC_LSE_TIMEOUT_VALUE)
 800267a:	f7fe fe35 	bl	80012e8 <HAL_GetTick>
 800267e:	1bc0      	subs	r0, r0, r7
 8002680:	4540      	cmp	r0, r8
 8002682:	d9f7      	bls.n	8002674 <HAL_RCCEx_PeriphCLKConfig+0xd4>
 8002684:	e7db      	b.n	800263e <HAL_RCCEx_PeriphCLKConfig+0x9e>
 8002686:	bf00      	nop
 8002688:	40021000 	.word	0x40021000
 800268c:	40007000 	.word	0x40007000
 8002690:	42420000 	.word	0x42420000

08002694 <USB_CoreInit>:
  * @param  cfg pointer to a USB_CfgTypeDef structure that contains
  *         the configuration information for the specified USBx peripheral.
  * @retval HAL status
  */
HAL_StatusTypeDef USB_CoreInit(USB_TypeDef *USBx, USB_CfgTypeDef cfg)
{
 8002694:	b084      	sub	sp, #16
 8002696:	a801      	add	r0, sp, #4
 8002698:	e880 000e 	stmia.w	r0, {r1, r2, r3}
              only by USB OTG FS peripheral.
            - This function is added to ensure compatibility across platforms.
   */

  return HAL_OK;
}
 800269c:	b004      	add	sp, #16
 800269e:	2000      	movs	r0, #0
 80026a0:	4770      	bx	lr

080026a2 <USB_EnableGlobalInt>:
  *         Enables the controller's Global Int in the AHB Config reg
  * @param  USBx Selected device
  * @retval HAL status
  */
HAL_StatusTypeDef USB_EnableGlobalInt(USB_TypeDef *USBx)
{
 80026a2:	4603      	mov	r3, r0
                   USB_CNTR_SUSPM | USB_CNTR_ERRM |
                   USB_CNTR_SOFM | USB_CNTR_ESOFM |
                   USB_CNTR_RESETM;

  /* Set interrupt mask */
  USBx->CNTR = (uint16_t)winterruptmask;
 80026a4:	f44f 423f 	mov.w	r2, #48896	; 0xbf00
  USBx->ISTR = 0U;
 80026a8:	2000      	movs	r0, #0
 80026aa:	f8a3 0044 	strh.w	r0, [r3, #68]	; 0x44
  USBx->CNTR = (uint16_t)winterruptmask;
 80026ae:	f8a3 2040 	strh.w	r2, [r3, #64]	; 0x40

  return HAL_OK;
}
 80026b2:	4770      	bx	lr

080026b4 <USB_DisableGlobalInt>:
                   USB_CNTR_SUSPM | USB_CNTR_ERRM |
                   USB_CNTR_SOFM | USB_CNTR_ESOFM |
                   USB_CNTR_RESETM;

  /* Clear interrupt mask */
  USBx->CNTR &= (uint16_t)(~winterruptmask);
 80026b4:	f8b0 3040 	ldrh.w	r3, [r0, #64]	; 0x40
 80026b8:	f423 537c 	bic.w	r3, r3, #16128	; 0x3f00
 80026bc:	045b      	lsls	r3, r3, #17
 80026be:	0c5b      	lsrs	r3, r3, #17
 80026c0:	f8a0 3040 	strh.w	r3, [r0, #64]	; 0x40

  return HAL_OK;
}
 80026c4:	2000      	movs	r0, #0
 80026c6:	4770      	bx	lr

080026c8 <USB_SetCurrentMode>:
  /* NOTE : - This function is not required by USB Device FS peripheral, it is used
              only by USB OTG FS peripheral.
            - This function is added to ensure compatibility across platforms.
   */
  return HAL_OK;
}
 80026c8:	2000      	movs	r0, #0
 80026ca:	4770      	bx	lr

080026cc <USB_DevInit>:
  * @param  cfg  pointer to a USB_CfgTypeDef structure that contains
  *         the configuration information for the specified USBx peripheral.
  * @retval HAL status
  */
HAL_StatusTypeDef USB_DevInit(USB_TypeDef *USBx, USB_CfgTypeDef cfg)
{
 80026cc:	b084      	sub	sp, #16
 80026ce:	b510      	push	{r4, lr}
 80026d0:	4604      	mov	r4, r0
 80026d2:	a803      	add	r0, sp, #12
 80026d4:	e880 000e 	stmia.w	r0, {r1, r2, r3}
  /* Init Device */
  /* CNTR_FRES = 1 */
  USBx->CNTR = (uint16_t)USB_CNTR_FRES;

  /* CNTR_FRES = 0 */
  USBx->CNTR = 0U;
 80026d8:	2000      	movs	r0, #0
  USBx->CNTR = (uint16_t)USB_CNTR_FRES;
 80026da:	2301      	movs	r3, #1
 80026dc:	f8a4 3040 	strh.w	r3, [r4, #64]	; 0x40
  USBx->CNTR = 0U;
 80026e0:	f8a4 0040 	strh.w	r0, [r4, #64]	; 0x40

  /* Clear pending interrupts */
  USBx->ISTR = 0U;
 80026e4:	f8a4 0044 	strh.w	r0, [r4, #68]	; 0x44

  /*Set Btable Address*/
  USBx->BTABLE = BTABLE_ADDRESS;
 80026e8:	f8a4 0050 	strh.w	r0, [r4, #80]	; 0x50

  return HAL_OK;
}
 80026ec:	e8bd 4010 	ldmia.w	sp!, {r4, lr}
 80026f0:	b004      	add	sp, #16
 80026f2:	4770      	bx	lr

080026f4 <USB_ActivateEndpoint>:
  * @param  USBx Selected device
  * @param  ep pointer to endpoint structure
  * @retval HAL status
  */
HAL_StatusTypeDef USB_ActivateEndpoint(USB_TypeDef *USBx, USB_EPTypeDef *ep)
{
 80026f4:	b5f0      	push	{r4, r5, r6, r7, lr}
  HAL_StatusTypeDef ret = HAL_OK;
  uint16_t wEpRegVal;

  wEpRegVal = PCD_GET_ENDPOINT(USBx, ep->num) & USB_EP_T_MASK;
 80026f6:	780a      	ldrb	r2, [r1, #0]

  /* initialize Endpoint */
  switch (ep->type)
 80026f8:	78ce      	ldrb	r6, [r1, #3]
  wEpRegVal = PCD_GET_ENDPOINT(USBx, ep->num) & USB_EP_T_MASK;
 80026fa:	f830 4022 	ldrh.w	r4, [r0, r2, lsl #2]
{
 80026fe:	4603      	mov	r3, r0
  wEpRegVal = PCD_GET_ENDPOINT(USBx, ep->num) & USB_EP_T_MASK;
 8002700:	f424 44ec 	bic.w	r4, r4, #30208	; 0x7600
 8002704:	f024 0470 	bic.w	r4, r4, #112	; 0x70
 8002708:	0424      	lsls	r4, r4, #16
 800270a:	0c24      	lsrs	r4, r4, #16
  switch (ep->type)
 800270c:	2e03      	cmp	r6, #3
 800270e:	d84c      	bhi.n	80027aa <USB_ActivateEndpoint+0xb6>
 8002710:	e8df f006 	tbb	[pc, r6]
 8002714:	44464802 	.word	0x44464802
  HAL_StatusTypeDef ret = HAL_OK;
 8002718:	4630      	mov	r0, r6
  {
    case EP_TYPE_CTRL:
      wEpRegVal |= USB_EP_CONTROL;
 800271a:	f444 7400 	orr.w	r4, r4, #512	; 0x200
    default:
      ret = HAL_ERROR;
      break;
  }

  PCD_SET_ENDPOINT(USBx, ep->num, (wEpRegVal | USB_EP_CTR_RX | USB_EP_CTR_TX));
 800271e:	f248 0780 	movw	r7, #32896	; 0x8080
 8002722:	433c      	orrs	r4, r7
 8002724:	f823 4022 	strh.w	r4, [r3, r2, lsl #2]

  PCD_SET_EP_ADDRESS(USBx, ep->num, ep->num);
 8002728:	f833 4022 	ldrh.w	r4, [r3, r2, lsl #2]
 800272c:	f8df c27c 	ldr.w	ip, [pc, #636]	; 80029ac <USB_ActivateEndpoint+0x2b8>
 8002730:	b2a4      	uxth	r4, r4
 8002732:	ea04 040c 	and.w	r4, r4, ip
 8002736:	4314      	orrs	r4, r2
 8002738:	433c      	orrs	r4, r7
 800273a:	f823 4022 	strh.w	r4, [r3, r2, lsl #2]

  if (ep->doublebuffer == 0U)
 800273e:	7b0c      	ldrb	r4, [r1, #12]
 8002740:	eb03 1e02 	add.w	lr, r3, r2, lsl #4
 8002744:	2c00      	cmp	r4, #0
 8002746:	f040 808b 	bne.w	8002860 <USB_ActivateEndpoint+0x16c>
  {
    if (ep->is_in != 0U)
    {
      /*Set the endpoint Transmit buffer address */
      PCD_SET_EP_TX_ADDRESS(USBx, ep->num, ep->pmaadress);
 800274a:	88cd      	ldrh	r5, [r1, #6]
    if (ep->is_in != 0U)
 800274c:	784c      	ldrb	r4, [r1, #1]
      PCD_SET_EP_TX_ADDRESS(USBx, ep->num, ep->pmaadress);
 800274e:	086d      	lsrs	r5, r5, #1
 8002750:	006d      	lsls	r5, r5, #1
    if (ep->is_in != 0U)
 8002752:	b364      	cbz	r4, 80027ae <USB_ActivateEndpoint+0xba>
      PCD_SET_EP_TX_ADDRESS(USBx, ep->num, ep->pmaadress);
 8002754:	f8b3 4050 	ldrh.w	r4, [r3, #80]	; 0x50
 8002758:	b2a4      	uxth	r4, r4
 800275a:	4474      	add	r4, lr
 800275c:	f8a4 5400 	strh.w	r5, [r4, #1024]	; 0x400
      PCD_CLEAR_TX_DTOG(USBx, ep->num);
 8002760:	f833 1022 	ldrh.w	r1, [r3, r2, lsl #2]
 8002764:	064f      	lsls	r7, r1, #25
 8002766:	d50a      	bpl.n	800277e <USB_ActivateEndpoint+0x8a>
 8002768:	f833 5022 	ldrh.w	r5, [r3, r2, lsl #2]
 800276c:	b2ad      	uxth	r5, r5
 800276e:	ea05 050c 	and.w	r5, r5, ip
 8002772:	f445 4500 	orr.w	r5, r5, #32768	; 0x8000
 8002776:	f045 05c0 	orr.w	r5, r5, #192	; 0xc0
 800277a:	f823 5022 	strh.w	r5, [r3, r2, lsl #2]

      if (ep->type != EP_TYPE_ISOC)
      {
        /* Configure NAK status for the Endpoint */
        PCD_SET_EP_TX_STATUS(USBx, ep->num, USB_EP_TX_NAK);
 800277e:	f833 1022 	ldrh.w	r1, [r3, r2, lsl #2]
 8002782:	4c8b      	ldr	r4, [pc, #556]	; (80029b0 <USB_ActivateEndpoint+0x2bc>)
 8002784:	b289      	uxth	r1, r1
      if (ep->type != EP_TYPE_ISOC)
 8002786:	2e01      	cmp	r6, #1
        PCD_SET_EP_TX_STATUS(USBx, ep->num, USB_EP_TX_NAK);
 8002788:	ea01 0104 	and.w	r1, r1, r4
      if (ep->type != EP_TYPE_ISOC)
 800278c:	d001      	beq.n	8002792 <USB_ActivateEndpoint+0x9e>
        PCD_SET_EP_TX_STATUS(USBx, ep->num, USB_EP_TX_NAK);
 800278e:	f081 0120 	eor.w	r1, r1, #32
      {
        /* Configure TX Endpoint to disabled state */
        PCD_SET_EP_TX_STATUS(USBx, ep->num, USB_EP_TX_DIS);
      }

      PCD_SET_EP_RX_STATUS(USBx, ep->num, USB_EP_RX_DIS);
 8002792:	f441 4100 	orr.w	r1, r1, #32768	; 0x8000
 8002796:	f041 0180 	orr.w	r1, r1, #128	; 0x80
 800279a:	e0bf      	b.n	800291c <USB_ActivateEndpoint+0x228>
      wEpRegVal |= USB_EP_INTERRUPT;
 800279c:	f444 64c0 	orr.w	r4, r4, #1536	; 0x600
  HAL_StatusTypeDef ret = HAL_OK;
 80027a0:	2000      	movs	r0, #0
      break;
 80027a2:	e7bc      	b.n	800271e <USB_ActivateEndpoint+0x2a>
      wEpRegVal |= USB_EP_ISOCHRONOUS;
 80027a4:	f444 6480 	orr.w	r4, r4, #1024	; 0x400
      break;
 80027a8:	e7fa      	b.n	80027a0 <USB_ActivateEndpoint+0xac>
  switch (ep->type)
 80027aa:	2001      	movs	r0, #1
 80027ac:	e7b7      	b.n	800271e <USB_ActivateEndpoint+0x2a>
      PCD_SET_EP_RX_ADDRESS(USBx, ep->num, ep->pmaadress);
 80027ae:	f8b3 4050 	ldrh.w	r4, [r3, #80]	; 0x50
 80027b2:	b2a4      	uxth	r4, r4
 80027b4:	4474      	add	r4, lr
 80027b6:	f8a4 5408 	strh.w	r5, [r4, #1032]	; 0x408
      PCD_SET_EP_RX_CNT(USBx, ep->num, ep->maxpacket);
 80027ba:	f8b3 4050 	ldrh.w	r4, [r3, #80]	; 0x50
 80027be:	b2a4      	uxth	r4, r4
 80027c0:	4474      	add	r4, lr
 80027c2:	f8b4 540c 	ldrh.w	r5, [r4, #1036]	; 0x40c
 80027c6:	f3c5 0509 	ubfx	r5, r5, #0, #10
 80027ca:	f8a4 540c 	strh.w	r5, [r4, #1036]	; 0x40c
 80027ce:	690d      	ldr	r5, [r1, #16]
 80027d0:	2d3e      	cmp	r5, #62	; 0x3e
 80027d2:	d92f      	bls.n	8002834 <USB_ActivateEndpoint+0x140>
 80027d4:	f8b4 140c 	ldrh.w	r1, [r4, #1036]	; 0x40c
 80027d8:	096e      	lsrs	r6, r5, #5
 80027da:	06ed      	lsls	r5, r5, #27
 80027dc:	bf08      	it	eq
 80027de:	f106 36ff 	addeq.w	r6, r6, #4294967295
 80027e2:	b289      	uxth	r1, r1
 80027e4:	ea41 2186 	orr.w	r1, r1, r6, lsl #10
 80027e8:	ea6f 4141 	mvn.w	r1, r1, lsl #17
 80027ec:	ea6f 4151 	mvn.w	r1, r1, lsr #17
 80027f0:	b289      	uxth	r1, r1
 80027f2:	f8a4 140c 	strh.w	r1, [r4, #1036]	; 0x40c
      PCD_CLEAR_RX_DTOG(USBx, ep->num);
 80027f6:	f833 1022 	ldrh.w	r1, [r3, r2, lsl #2]
 80027fa:	044f      	lsls	r7, r1, #17
 80027fc:	d50d      	bpl.n	800281a <USB_ActivateEndpoint+0x126>
 80027fe:	f833 1022 	ldrh.w	r1, [r3, r2, lsl #2]
 8002802:	f421 41e0 	bic.w	r1, r1, #28672	; 0x7000
 8002806:	f021 0170 	bic.w	r1, r1, #112	; 0x70
 800280a:	0409      	lsls	r1, r1, #16
 800280c:	0c09      	lsrs	r1, r1, #16
 800280e:	f441 4140 	orr.w	r1, r1, #49152	; 0xc000
 8002812:	f041 0180 	orr.w	r1, r1, #128	; 0x80
 8002816:	f823 1022 	strh.w	r1, [r3, r2, lsl #2]
      if (ep->num == 0U)
 800281a:	4c66      	ldr	r4, [pc, #408]	; (80029b4 <USB_ActivateEndpoint+0x2c0>)
 800281c:	b9ca      	cbnz	r2, 8002852 <USB_ActivateEndpoint+0x15e>
        PCD_SET_EP_RX_STATUS(USBx, ep->num, USB_EP_RX_VALID);
 800281e:	8819      	ldrh	r1, [r3, #0]
 8002820:	b289      	uxth	r1, r1
 8002822:	4021      	ands	r1, r4
 8002824:	f481 5140 	eor.w	r1, r1, #12288	; 0x3000
 8002828:	f441 4100 	orr.w	r1, r1, #32768	; 0x8000
 800282c:	f041 0180 	orr.w	r1, r1, #128	; 0x80
 8002830:	8019      	strh	r1, [r3, #0]
    }
  }
#endif /* (USE_USB_DOUBLE_BUFFER == 1U) */

  return ret;
}
 8002832:	bdf0      	pop	{r4, r5, r6, r7, pc}
      PCD_SET_EP_RX_CNT(USBx, ep->num, ep->maxpacket);
 8002834:	b915      	cbnz	r5, 800283c <USB_ActivateEndpoint+0x148>
 8002836:	f8b4 140c 	ldrh.w	r1, [r4, #1036]	; 0x40c
 800283a:	e7d5      	b.n	80027e8 <USB_ActivateEndpoint+0xf4>
 800283c:	07e9      	lsls	r1, r5, #31
 800283e:	f8b4 140c 	ldrh.w	r1, [r4, #1036]	; 0x40c
 8002842:	ea4f 0655 	mov.w	r6, r5, lsr #1
 8002846:	bf48      	it	mi
 8002848:	3601      	addmi	r6, #1
 800284a:	b289      	uxth	r1, r1
 800284c:	ea41 2186 	orr.w	r1, r1, r6, lsl #10
 8002850:	e7ce      	b.n	80027f0 <USB_ActivateEndpoint+0xfc>
        PCD_SET_EP_RX_STATUS(USBx, ep->num, USB_EP_RX_NAK);
 8002852:	f833 1022 	ldrh.w	r1, [r3, r2, lsl #2]
 8002856:	b289      	uxth	r1, r1
 8002858:	4021      	ands	r1, r4
 800285a:	f481 5100 	eor.w	r1, r1, #8192	; 0x2000
 800285e:	e798      	b.n	8002792 <USB_ActivateEndpoint+0x9e>
    if (ep->type == EP_TYPE_BULK)
 8002860:	2e02      	cmp	r6, #2
      PCD_SET_BULK_EP_DBUF(USBx, ep->num);
 8002862:	f833 5022 	ldrh.w	r5, [r3, r2, lsl #2]
    if (ep->type == EP_TYPE_BULK)
 8002866:	d15c      	bne.n	8002922 <USB_ActivateEndpoint+0x22e>
      PCD_SET_BULK_EP_DBUF(USBx, ep->num);
 8002868:	b2ad      	uxth	r5, r5
 800286a:	ea05 050c 	and.w	r5, r5, ip
 800286e:	f445 4501 	orr.w	r5, r5, #33024	; 0x8100
 8002872:	f045 0580 	orr.w	r5, r5, #128	; 0x80
      PCD_CLEAR_EP_KIND(USBx, ep->num);
 8002876:	f823 5022 	strh.w	r5, [r3, r2, lsl #2]
    PCD_SET_EP_DBUF_ADDR(USBx, ep->num, ep->pmaaddr0, ep->pmaaddr1);
 800287a:	f8b3 4050 	ldrh.w	r4, [r3, #80]	; 0x50
 800287e:	890d      	ldrh	r5, [r1, #8]
 8002880:	b2a4      	uxth	r4, r4
 8002882:	086d      	lsrs	r5, r5, #1
 8002884:	4474      	add	r4, lr
 8002886:	006d      	lsls	r5, r5, #1
 8002888:	f8a4 5400 	strh.w	r5, [r4, #1024]	; 0x400
 800288c:	894d      	ldrh	r5, [r1, #10]
 800288e:	f8b3 4050 	ldrh.w	r4, [r3, #80]	; 0x50
 8002892:	086d      	lsrs	r5, r5, #1
 8002894:	b2a4      	uxth	r4, r4
 8002896:	4474      	add	r4, lr
 8002898:	006d      	lsls	r5, r5, #1
 800289a:	f8a4 5408 	strh.w	r5, [r4, #1032]	; 0x408
    if (ep->is_in == 0U)
 800289e:	7849      	ldrb	r1, [r1, #1]
 80028a0:	2900      	cmp	r1, #0
 80028a2:	d146      	bne.n	8002932 <USB_ActivateEndpoint+0x23e>
      PCD_CLEAR_RX_DTOG(USBx, ep->num);
 80028a4:	f833 1022 	ldrh.w	r1, [r3, r2, lsl #2]
 80028a8:	044e      	lsls	r6, r1, #17
 80028aa:	d50d      	bpl.n	80028c8 <USB_ActivateEndpoint+0x1d4>
 80028ac:	f833 1022 	ldrh.w	r1, [r3, r2, lsl #2]
 80028b0:	f421 41e0 	bic.w	r1, r1, #28672	; 0x7000
 80028b4:	f021 0170 	bic.w	r1, r1, #112	; 0x70
 80028b8:	0409      	lsls	r1, r1, #16
 80028ba:	0c09      	lsrs	r1, r1, #16
 80028bc:	f441 4140 	orr.w	r1, r1, #49152	; 0xc000
 80028c0:	f041 0180 	orr.w	r1, r1, #128	; 0x80
 80028c4:	f823 1022 	strh.w	r1, [r3, r2, lsl #2]
      PCD_CLEAR_TX_DTOG(USBx, ep->num);
 80028c8:	f833 1022 	ldrh.w	r1, [r3, r2, lsl #2]
 80028cc:	064d      	lsls	r5, r1, #25
 80028ce:	d50d      	bpl.n	80028ec <USB_ActivateEndpoint+0x1f8>
 80028d0:	f833 1022 	ldrh.w	r1, [r3, r2, lsl #2]
 80028d4:	f421 41e0 	bic.w	r1, r1, #28672	; 0x7000
 80028d8:	f021 0170 	bic.w	r1, r1, #112	; 0x70
 80028dc:	0409      	lsls	r1, r1, #16
 80028de:	0c09      	lsrs	r1, r1, #16
 80028e0:	f441 4100 	orr.w	r1, r1, #32768	; 0x8000
 80028e4:	f041 01c0 	orr.w	r1, r1, #192	; 0xc0
 80028e8:	f823 1022 	strh.w	r1, [r3, r2, lsl #2]
      PCD_SET_EP_RX_STATUS(USBx, ep->num, USB_EP_RX_VALID);
 80028ec:	f248 0480 	movw	r4, #32896	; 0x8080
 80028f0:	f833 1022 	ldrh.w	r1, [r3, r2, lsl #2]
 80028f4:	f421 4180 	bic.w	r1, r1, #16384	; 0x4000
 80028f8:	f021 0170 	bic.w	r1, r1, #112	; 0x70
 80028fc:	0409      	lsls	r1, r1, #16
 80028fe:	0c09      	lsrs	r1, r1, #16
 8002900:	f481 5140 	eor.w	r1, r1, #12288	; 0x3000
 8002904:	4321      	orrs	r1, r4
 8002906:	f823 1022 	strh.w	r1, [r3, r2, lsl #2]
      PCD_SET_EP_TX_STATUS(USBx, ep->num, USB_EP_TX_DIS);
 800290a:	f833 1022 	ldrh.w	r1, [r3, r2, lsl #2]
 800290e:	f421 41e0 	bic.w	r1, r1, #28672	; 0x7000
 8002912:	f021 0140 	bic.w	r1, r1, #64	; 0x40
 8002916:	0409      	lsls	r1, r1, #16
 8002918:	0c09      	lsrs	r1, r1, #16
 800291a:	4321      	orrs	r1, r4
      PCD_SET_EP_RX_STATUS(USBx, ep->num, USB_EP_RX_DIS);
 800291c:	f823 1022 	strh.w	r1, [r3, r2, lsl #2]
 8002920:	e787      	b.n	8002832 <USB_ActivateEndpoint+0x13e>
      PCD_CLEAR_EP_KIND(USBx, ep->num);
 8002922:	f425 45e2 	bic.w	r5, r5, #28928	; 0x7100
 8002926:	f025 0570 	bic.w	r5, r5, #112	; 0x70
 800292a:	042d      	lsls	r5, r5, #16
 800292c:	0c2d      	lsrs	r5, r5, #16
 800292e:	433d      	orrs	r5, r7
 8002930:	e7a1      	b.n	8002876 <USB_ActivateEndpoint+0x182>
      PCD_CLEAR_RX_DTOG(USBx, ep->num);
 8002932:	f833 1022 	ldrh.w	r1, [r3, r2, lsl #2]
 8002936:	044c      	lsls	r4, r1, #17
 8002938:	d50d      	bpl.n	8002956 <USB_ActivateEndpoint+0x262>
 800293a:	f833 1022 	ldrh.w	r1, [r3, r2, lsl #2]
 800293e:	f421 41e0 	bic.w	r1, r1, #28672	; 0x7000
 8002942:	f021 0170 	bic.w	r1, r1, #112	; 0x70
 8002946:	0409      	lsls	r1, r1, #16
 8002948:	0c09      	lsrs	r1, r1, #16
 800294a:	f441 4140 	orr.w	r1, r1, #49152	; 0xc000
 800294e:	f041 0180 	orr.w	r1, r1, #128	; 0x80
 8002952:	f823 1022 	strh.w	r1, [r3, r2, lsl #2]
      PCD_CLEAR_TX_DTOG(USBx, ep->num);
 8002956:	f833 1022 	ldrh.w	r1, [r3, r2, lsl #2]
 800295a:	0649      	lsls	r1, r1, #25
 800295c:	d50d      	bpl.n	800297a <USB_ActivateEndpoint+0x286>
 800295e:	f833 1022 	ldrh.w	r1, [r3, r2, lsl #2]
 8002962:	f421 41e0 	bic.w	r1, r1, #28672	; 0x7000
 8002966:	f021 0170 	bic.w	r1, r1, #112	; 0x70
 800296a:	0409      	lsls	r1, r1, #16
 800296c:	0c09      	lsrs	r1, r1, #16
 800296e:	f441 4100 	orr.w	r1, r1, #32768	; 0x8000
 8002972:	f041 01c0 	orr.w	r1, r1, #192	; 0xc0
 8002976:	f823 1022 	strh.w	r1, [r3, r2, lsl #2]
        PCD_SET_EP_TX_STATUS(USBx, ep->num, USB_EP_TX_NAK);
 800297a:	f833 1022 	ldrh.w	r1, [r3, r2, lsl #2]
 800297e:	4c0c      	ldr	r4, [pc, #48]	; (80029b0 <USB_ActivateEndpoint+0x2bc>)
 8002980:	b289      	uxth	r1, r1
 8002982:	4021      	ands	r1, r4
      if (ep->type != EP_TYPE_ISOC)
 8002984:	2e01      	cmp	r6, #1
        PCD_SET_EP_TX_STATUS(USBx, ep->num, USB_EP_TX_NAK);
 8002986:	bf18      	it	ne
 8002988:	f081 0120 	eorne.w	r1, r1, #32
        PCD_SET_EP_TX_STATUS(USBx, ep->num, USB_EP_TX_DIS);
 800298c:	f441 4100 	orr.w	r1, r1, #32768	; 0x8000
 8002990:	f041 0180 	orr.w	r1, r1, #128	; 0x80
 8002994:	f823 1022 	strh.w	r1, [r3, r2, lsl #2]
      PCD_SET_EP_RX_STATUS(USBx, ep->num, USB_EP_RX_DIS);
 8002998:	f833 1022 	ldrh.w	r1, [r3, r2, lsl #2]
 800299c:	f421 4180 	bic.w	r1, r1, #16384	; 0x4000
 80029a0:	f021 0170 	bic.w	r1, r1, #112	; 0x70
 80029a4:	0409      	lsls	r1, r1, #16
 80029a6:	0c09      	lsrs	r1, r1, #16
 80029a8:	e6f3      	b.n	8002792 <USB_ActivateEndpoint+0x9e>
 80029aa:	bf00      	nop
 80029ac:	ffff8f8f 	.word	0xffff8f8f
 80029b0:	ffff8fbf 	.word	0xffff8fbf
 80029b4:	ffffbf8f 	.word	0xffffbf8f

080029b8 <USB_DeactivateEndpoint>:
  */
HAL_StatusTypeDef USB_DeactivateEndpoint(USB_TypeDef *USBx, USB_EPTypeDef *ep)
{
  if (ep->doublebuffer == 0U)
  {
    if (ep->is_in != 0U)
 80029b8:	784a      	ldrb	r2, [r1, #1]
    {
      PCD_CLEAR_TX_DTOG(USBx, ep->num);
 80029ba:	780b      	ldrb	r3, [r1, #0]
  if (ep->doublebuffer == 0U)
 80029bc:	7b09      	ldrb	r1, [r1, #12]
 80029be:	bbd9      	cbnz	r1, 8002a38 <USB_DeactivateEndpoint+0x80>
    if (ep->is_in != 0U)
 80029c0:	b30a      	cbz	r2, 8002a06 <USB_DeactivateEndpoint+0x4e>
      PCD_CLEAR_TX_DTOG(USBx, ep->num);
 80029c2:	f830 2023 	ldrh.w	r2, [r0, r3, lsl #2]
 80029c6:	0651      	lsls	r1, r2, #25
 80029c8:	d50d      	bpl.n	80029e6 <USB_DeactivateEndpoint+0x2e>
 80029ca:	f830 2023 	ldrh.w	r2, [r0, r3, lsl #2]
 80029ce:	f422 42e0 	bic.w	r2, r2, #28672	; 0x7000
 80029d2:	f022 0270 	bic.w	r2, r2, #112	; 0x70
 80029d6:	0412      	lsls	r2, r2, #16
 80029d8:	0c12      	lsrs	r2, r2, #16
 80029da:	f442 4200 	orr.w	r2, r2, #32768	; 0x8000
 80029de:	f042 02c0 	orr.w	r2, r2, #192	; 0xc0
 80029e2:	f820 2023 	strh.w	r2, [r0, r3, lsl #2]

      /* Configure DISABLE status for the Endpoint */
      PCD_SET_EP_TX_STATUS(USBx, ep->num, USB_EP_TX_DIS);
 80029e6:	f830 2023 	ldrh.w	r2, [r0, r3, lsl #2]
 80029ea:	f422 42e0 	bic.w	r2, r2, #28672	; 0x7000
 80029ee:	f022 0240 	bic.w	r2, r2, #64	; 0x40
    else
    {
      PCD_CLEAR_RX_DTOG(USBx, ep->num);

      /* Configure DISABLE status for the Endpoint */
      PCD_SET_EP_RX_STATUS(USBx, ep->num, USB_EP_RX_DIS);
 80029f2:	0412      	lsls	r2, r2, #16
 80029f4:	0c12      	lsrs	r2, r2, #16
 80029f6:	f442 4200 	orr.w	r2, r2, #32768	; 0x8000
 80029fa:	f042 0280 	orr.w	r2, r2, #128	; 0x80
      PCD_CLEAR_TX_DTOG(USBx, ep->num);
      PCD_RX_DTOG(USBx, ep->num);

      /* Configure DISABLE status for the Endpoint*/
      PCD_SET_EP_TX_STATUS(USBx, ep->num, USB_EP_TX_DIS);
      PCD_SET_EP_RX_STATUS(USBx, ep->num, USB_EP_RX_DIS);
 80029fe:	f820 2023 	strh.w	r2, [r0, r3, lsl #2]
    }
  }
#endif /* (USE_USB_DOUBLE_BUFFER == 1U) */

  return HAL_OK;
}
 8002a02:	2000      	movs	r0, #0
 8002a04:	4770      	bx	lr
      PCD_CLEAR_RX_DTOG(USBx, ep->num);
 8002a06:	f830 2023 	ldrh.w	r2, [r0, r3, lsl #2]
 8002a0a:	0452      	lsls	r2, r2, #17
 8002a0c:	d50d      	bpl.n	8002a2a <USB_DeactivateEndpoint+0x72>
 8002a0e:	f830 2023 	ldrh.w	r2, [r0, r3, lsl #2]
 8002a12:	f422 42e0 	bic.w	r2, r2, #28672	; 0x7000
 8002a16:	f022 0270 	bic.w	r2, r2, #112	; 0x70
 8002a1a:	0412      	lsls	r2, r2, #16
 8002a1c:	0c12      	lsrs	r2, r2, #16
 8002a1e:	f442 4240 	orr.w	r2, r2, #49152	; 0xc000
 8002a22:	f042 0280 	orr.w	r2, r2, #128	; 0x80
 8002a26:	f820 2023 	strh.w	r2, [r0, r3, lsl #2]
      PCD_SET_EP_RX_STATUS(USBx, ep->num, USB_EP_RX_DIS);
 8002a2a:	f830 2023 	ldrh.w	r2, [r0, r3, lsl #2]
 8002a2e:	f422 4280 	bic.w	r2, r2, #16384	; 0x4000
 8002a32:	f022 0270 	bic.w	r2, r2, #112	; 0x70
 8002a36:	e7dc      	b.n	80029f2 <USB_DeactivateEndpoint+0x3a>
    if (ep->is_in == 0U)
 8002a38:	2a00      	cmp	r2, #0
 8002a3a:	d148      	bne.n	8002ace <USB_DeactivateEndpoint+0x116>
      PCD_CLEAR_RX_DTOG(USBx, ep->num);
 8002a3c:	f830 2023 	ldrh.w	r2, [r0, r3, lsl #2]
 8002a40:	0451      	lsls	r1, r2, #17
 8002a42:	d50d      	bpl.n	8002a60 <USB_DeactivateEndpoint+0xa8>
 8002a44:	f830 2023 	ldrh.w	r2, [r0, r3, lsl #2]
 8002a48:	f422 42e0 	bic.w	r2, r2, #28672	; 0x7000
 8002a4c:	f022 0270 	bic.w	r2, r2, #112	; 0x70
 8002a50:	0412      	lsls	r2, r2, #16
 8002a52:	0c12      	lsrs	r2, r2, #16
 8002a54:	f442 4240 	orr.w	r2, r2, #49152	; 0xc000
 8002a58:	f042 0280 	orr.w	r2, r2, #128	; 0x80
 8002a5c:	f820 2023 	strh.w	r2, [r0, r3, lsl #2]
      PCD_CLEAR_TX_DTOG(USBx, ep->num);
 8002a60:	f830 2023 	ldrh.w	r2, [r0, r3, lsl #2]
 8002a64:	0652      	lsls	r2, r2, #25
 8002a66:	d50d      	bpl.n	8002a84 <USB_DeactivateEndpoint+0xcc>
 8002a68:	f830 2023 	ldrh.w	r2, [r0, r3, lsl #2]
 8002a6c:	f422 42e0 	bic.w	r2, r2, #28672	; 0x7000
 8002a70:	f022 0270 	bic.w	r2, r2, #112	; 0x70
 8002a74:	0412      	lsls	r2, r2, #16
 8002a76:	0c12      	lsrs	r2, r2, #16
 8002a78:	f442 4200 	orr.w	r2, r2, #32768	; 0x8000
 8002a7c:	f042 02c0 	orr.w	r2, r2, #192	; 0xc0
 8002a80:	f820 2023 	strh.w	r2, [r0, r3, lsl #2]
      PCD_SET_EP_RX_STATUS(USBx, ep->num, USB_EP_RX_DIS);
 8002a84:	f248 0180 	movw	r1, #32896	; 0x8080
      PCD_TX_DTOG(USBx, ep->num);
 8002a88:	f830 2023 	ldrh.w	r2, [r0, r3, lsl #2]
 8002a8c:	f422 42e0 	bic.w	r2, r2, #28672	; 0x7000
 8002a90:	f022 0270 	bic.w	r2, r2, #112	; 0x70
 8002a94:	0412      	lsls	r2, r2, #16
 8002a96:	0c12      	lsrs	r2, r2, #16
 8002a98:	f442 4200 	orr.w	r2, r2, #32768	; 0x8000
 8002a9c:	f042 02c0 	orr.w	r2, r2, #192	; 0xc0
 8002aa0:	f820 2023 	strh.w	r2, [r0, r3, lsl #2]
      PCD_SET_EP_RX_STATUS(USBx, ep->num, USB_EP_RX_DIS);
 8002aa4:	f830 2023 	ldrh.w	r2, [r0, r3, lsl #2]
 8002aa8:	f422 4280 	bic.w	r2, r2, #16384	; 0x4000
 8002aac:	f022 0270 	bic.w	r2, r2, #112	; 0x70
 8002ab0:	0412      	lsls	r2, r2, #16
 8002ab2:	0c12      	lsrs	r2, r2, #16
 8002ab4:	430a      	orrs	r2, r1
 8002ab6:	f820 2023 	strh.w	r2, [r0, r3, lsl #2]
      PCD_SET_EP_TX_STATUS(USBx, ep->num, USB_EP_TX_DIS);
 8002aba:	f830 2023 	ldrh.w	r2, [r0, r3, lsl #2]
 8002abe:	f422 42e0 	bic.w	r2, r2, #28672	; 0x7000
 8002ac2:	f022 0240 	bic.w	r2, r2, #64	; 0x40
      PCD_SET_EP_RX_STATUS(USBx, ep->num, USB_EP_RX_DIS);
 8002ac6:	0412      	lsls	r2, r2, #16
 8002ac8:	0c12      	lsrs	r2, r2, #16
 8002aca:	430a      	orrs	r2, r1
 8002acc:	e797      	b.n	80029fe <USB_DeactivateEndpoint+0x46>
      PCD_CLEAR_RX_DTOG(USBx, ep->num);
 8002ace:	f830 2023 	ldrh.w	r2, [r0, r3, lsl #2]
 8002ad2:	0451      	lsls	r1, r2, #17
 8002ad4:	d50d      	bpl.n	8002af2 <USB_DeactivateEndpoint+0x13a>
 8002ad6:	f830 2023 	ldrh.w	r2, [r0, r3, lsl #2]
 8002ada:	f422 42e0 	bic.w	r2, r2, #28672	; 0x7000
 8002ade:	f022 0270 	bic.w	r2, r2, #112	; 0x70
 8002ae2:	0412      	lsls	r2, r2, #16
 8002ae4:	0c12      	lsrs	r2, r2, #16
 8002ae6:	f442 4240 	orr.w	r2, r2, #49152	; 0xc000
 8002aea:	f042 0280 	orr.w	r2, r2, #128	; 0x80
 8002aee:	f820 2023 	strh.w	r2, [r0, r3, lsl #2]
      PCD_CLEAR_TX_DTOG(USBx, ep->num);
 8002af2:	f830 2023 	ldrh.w	r2, [r0, r3, lsl #2]
 8002af6:	0652      	lsls	r2, r2, #25
 8002af8:	d50d      	bpl.n	8002b16 <USB_DeactivateEndpoint+0x15e>
 8002afa:	f830 2023 	ldrh.w	r2, [r0, r3, lsl #2]
 8002afe:	f422 42e0 	bic.w	r2, r2, #28672	; 0x7000
 8002b02:	f022 0270 	bic.w	r2, r2, #112	; 0x70
 8002b06:	0412      	lsls	r2, r2, #16
 8002b08:	0c12      	lsrs	r2, r2, #16
 8002b0a:	f442 4200 	orr.w	r2, r2, #32768	; 0x8000
 8002b0e:	f042 02c0 	orr.w	r2, r2, #192	; 0xc0
 8002b12:	f820 2023 	strh.w	r2, [r0, r3, lsl #2]
      PCD_SET_EP_TX_STATUS(USBx, ep->num, USB_EP_TX_DIS);
 8002b16:	f248 0180 	movw	r1, #32896	; 0x8080
      PCD_RX_DTOG(USBx, ep->num);
 8002b1a:	f830 2023 	ldrh.w	r2, [r0, r3, lsl #2]
 8002b1e:	f422 42e0 	bic.w	r2, r2, #28672	; 0x7000
 8002b22:	f022 0270 	bic.w	r2, r2, #112	; 0x70
 8002b26:	0412      	lsls	r2, r2, #16
 8002b28:	0c12      	lsrs	r2, r2, #16
 8002b2a:	f442 4240 	orr.w	r2, r2, #49152	; 0xc000
 8002b2e:	f042 0280 	orr.w	r2, r2, #128	; 0x80
 8002b32:	f820 2023 	strh.w	r2, [r0, r3, lsl #2]
      PCD_SET_EP_TX_STATUS(USBx, ep->num, USB_EP_TX_DIS);
 8002b36:	f830 2023 	ldrh.w	r2, [r0, r3, lsl #2]
 8002b3a:	f422 42e0 	bic.w	r2, r2, #28672	; 0x7000
 8002b3e:	f022 0240 	bic.w	r2, r2, #64	; 0x40
 8002b42:	0412      	lsls	r2, r2, #16
 8002b44:	0c12      	lsrs	r2, r2, #16
 8002b46:	430a      	orrs	r2, r1
 8002b48:	f820 2023 	strh.w	r2, [r0, r3, lsl #2]
      PCD_SET_EP_RX_STATUS(USBx, ep->num, USB_EP_RX_DIS);
 8002b4c:	f830 2023 	ldrh.w	r2, [r0, r3, lsl #2]
 8002b50:	f422 4280 	bic.w	r2, r2, #16384	; 0x4000
 8002b54:	f022 0270 	bic.w	r2, r2, #112	; 0x70
 8002b58:	e7b5      	b.n	8002ac6 <USB_DeactivateEndpoint+0x10e>

08002b5a <USB_EPSetStall>:
  * @param  ep pointer to endpoint structure
  * @retval HAL status
  */
HAL_StatusTypeDef USB_EPSetStall(USB_TypeDef *USBx, USB_EPTypeDef *ep)
{
  if (ep->is_in != 0U)
 8002b5a:	784b      	ldrb	r3, [r1, #1]
  {
    PCD_SET_EP_TX_STATUS(USBx, ep->num, USB_EP_TX_STALL);
 8002b5c:	780a      	ldrb	r2, [r1, #0]
  if (ep->is_in != 0U)
 8002b5e:	b18b      	cbz	r3, 8002b84 <USB_EPSetStall+0x2a>
    PCD_SET_EP_TX_STATUS(USBx, ep->num, USB_EP_TX_STALL);
 8002b60:	f830 3022 	ldrh.w	r3, [r0, r2, lsl #2]
 8002b64:	f423 43e0 	bic.w	r3, r3, #28672	; 0x7000
 8002b68:	f023 0340 	bic.w	r3, r3, #64	; 0x40
 8002b6c:	041b      	lsls	r3, r3, #16
 8002b6e:	0c1b      	lsrs	r3, r3, #16
 8002b70:	f083 0310 	eor.w	r3, r3, #16
  }
  else
  {
    PCD_SET_EP_RX_STATUS(USBx, ep->num, USB_EP_RX_STALL);
 8002b74:	f443 4300 	orr.w	r3, r3, #32768	; 0x8000
 8002b78:	f043 0380 	orr.w	r3, r3, #128	; 0x80
 8002b7c:	f820 3022 	strh.w	r3, [r0, r2, lsl #2]
  }

  return HAL_OK;
}
 8002b80:	2000      	movs	r0, #0
 8002b82:	4770      	bx	lr
    PCD_SET_EP_RX_STATUS(USBx, ep->num, USB_EP_RX_STALL);
 8002b84:	f830 3022 	ldrh.w	r3, [r0, r2, lsl #2]
 8002b88:	f423 4380 	bic.w	r3, r3, #16384	; 0x4000
 8002b8c:	f023 0370 	bic.w	r3, r3, #112	; 0x70
 8002b90:	041b      	lsls	r3, r3, #16
 8002b92:	0c1b      	lsrs	r3, r3, #16
 8002b94:	f483 5380 	eor.w	r3, r3, #4096	; 0x1000
 8002b98:	e7ec      	b.n	8002b74 <USB_EPSetStall+0x1a>

08002b9a <USB_EPClearStall>:
  * @param  ep pointer to endpoint structure
  * @retval HAL status
  */
HAL_StatusTypeDef USB_EPClearStall(USB_TypeDef *USBx, USB_EPTypeDef *ep)
{
  if (ep->doublebuffer == 0U)
 8002b9a:	7b0b      	ldrb	r3, [r1, #12]
 8002b9c:	bb3b      	cbnz	r3, 8002bee <USB_EPClearStall+0x54>
  {
    if (ep->is_in != 0U)
 8002b9e:	784b      	ldrb	r3, [r1, #1]
    {
      PCD_CLEAR_TX_DTOG(USBx, ep->num);
 8002ba0:	780a      	ldrb	r2, [r1, #0]
    if (ep->is_in != 0U)
 8002ba2:	b333      	cbz	r3, 8002bf2 <USB_EPClearStall+0x58>
      PCD_CLEAR_TX_DTOG(USBx, ep->num);
 8002ba4:	f830 3022 	ldrh.w	r3, [r0, r2, lsl #2]
 8002ba8:	065b      	lsls	r3, r3, #25
 8002baa:	d50d      	bpl.n	8002bc8 <USB_EPClearStall+0x2e>
 8002bac:	f830 3022 	ldrh.w	r3, [r0, r2, lsl #2]
 8002bb0:	f423 43e0 	bic.w	r3, r3, #28672	; 0x7000
 8002bb4:	f023 0370 	bic.w	r3, r3, #112	; 0x70
 8002bb8:	041b      	lsls	r3, r3, #16
 8002bba:	0c1b      	lsrs	r3, r3, #16
 8002bbc:	f443 4300 	orr.w	r3, r3, #32768	; 0x8000
 8002bc0:	f043 03c0 	orr.w	r3, r3, #192	; 0xc0
 8002bc4:	f820 3022 	strh.w	r3, [r0, r2, lsl #2]

      if (ep->type != EP_TYPE_ISOC)
 8002bc8:	78cb      	ldrb	r3, [r1, #3]
 8002bca:	2b01      	cmp	r3, #1
 8002bcc:	d00f      	beq.n	8002bee <USB_EPClearStall+0x54>
      {
        /* Configure NAK status for the Endpoint */
        PCD_SET_EP_TX_STATUS(USBx, ep->num, USB_EP_TX_NAK);
 8002bce:	f830 3022 	ldrh.w	r3, [r0, r2, lsl #2]
 8002bd2:	f423 43e0 	bic.w	r3, r3, #28672	; 0x7000
 8002bd6:	f023 0340 	bic.w	r3, r3, #64	; 0x40
 8002bda:	041b      	lsls	r3, r3, #16
 8002bdc:	0c1b      	lsrs	r3, r3, #16
 8002bde:	f083 0320 	eor.w	r3, r3, #32
    else
    {
      PCD_CLEAR_RX_DTOG(USBx, ep->num);

      /* Configure VALID status for the Endpoint */
      PCD_SET_EP_RX_STATUS(USBx, ep->num, USB_EP_RX_VALID);
 8002be2:	f443 4300 	orr.w	r3, r3, #32768	; 0x8000
 8002be6:	f043 0380 	orr.w	r3, r3, #128	; 0x80
 8002bea:	f820 3022 	strh.w	r3, [r0, r2, lsl #2]
    }
  }

  return HAL_OK;
}
 8002bee:	2000      	movs	r0, #0
 8002bf0:	4770      	bx	lr
      PCD_CLEAR_RX_DTOG(USBx, ep->num);
 8002bf2:	f830 3022 	ldrh.w	r3, [r0, r2, lsl #2]
 8002bf6:	045b      	lsls	r3, r3, #17
 8002bf8:	d50d      	bpl.n	8002c16 <USB_EPClearStall+0x7c>
 8002bfa:	f830 3022 	ldrh.w	r3, [r0, r2, lsl #2]
 8002bfe:	f423 43e0 	bic.w	r3, r3, #28672	; 0x7000
 8002c02:	f023 0370 	bic.w	r3, r3, #112	; 0x70
 8002c06:	041b      	lsls	r3, r3, #16
 8002c08:	0c1b      	lsrs	r3, r3, #16
 8002c0a:	f443 4340 	orr.w	r3, r3, #49152	; 0xc000
 8002c0e:	f043 0380 	orr.w	r3, r3, #128	; 0x80
 8002c12:	f820 3022 	strh.w	r3, [r0, r2, lsl #2]
      PCD_SET_EP_RX_STATUS(USBx, ep->num, USB_EP_RX_VALID);
 8002c16:	f830 3022 	ldrh.w	r3, [r0, r2, lsl #2]
 8002c1a:	f423 4380 	bic.w	r3, r3, #16384	; 0x4000
 8002c1e:	f023 0370 	bic.w	r3, r3, #112	; 0x70
 8002c22:	041b      	lsls	r3, r3, #16
 8002c24:	0c1b      	lsrs	r3, r3, #16
 8002c26:	f483 5340 	eor.w	r3, r3, #12288	; 0x3000
 8002c2a:	e7da      	b.n	8002be2 <USB_EPClearStall+0x48>

08002c2c <USB_SetDevAddress>:
  *          This parameter can be a value from 0 to 255
  * @retval HAL status
  */
HAL_StatusTypeDef  USB_SetDevAddress(USB_TypeDef *USBx, uint8_t address)
{
  if (address == 0U)
 8002c2c:	b911      	cbnz	r1, 8002c34 <USB_SetDevAddress+0x8>
  {
    /* set device address and enable function */
    USBx->DADDR = (uint16_t)USB_DADDR_EF;
 8002c2e:	2380      	movs	r3, #128	; 0x80
 8002c30:	f8a0 304c 	strh.w	r3, [r0, #76]	; 0x4c
  }

  return HAL_OK;
}
 8002c34:	2000      	movs	r0, #0
 8002c36:	4770      	bx	lr

08002c38 <USB_DevConnect>:
 8002c38:	2000      	movs	r0, #0
 8002c3a:	4770      	bx	lr

08002c3c <USB_DevDisconnect>:
 8002c3c:	2000      	movs	r0, #0
 8002c3e:	4770      	bx	lr

08002c40 <USB_ReadInterrupts>:
  */
uint32_t USB_ReadInterrupts(USB_TypeDef const *USBx)
{
  uint32_t tmpreg;

  tmpreg = USBx->ISTR;
 8002c40:	f8b0 0044 	ldrh.w	r0, [r0, #68]	; 0x44
  return tmpreg;
}
 8002c44:	b280      	uxth	r0, r0
 8002c46:	4770      	bx	lr

08002c48 <USB_EP0_OutStart>:
  /* NOTE : - This function is not required by USB Device FS peripheral, it is used
              only by USB OTG FS peripheral.
            - This function is added to ensure compatibility across platforms.
   */
  return HAL_OK;
}
 8002c48:	2000      	movs	r0, #0
 8002c4a:	4770      	bx	lr

08002c4c <USB_WritePMA>:
  uint32_t count;
  uint16_t WrVal;
  __IO uint16_t *pdwVal;
  uint8_t *pBuf = pbUsrBuf;

  pdwVal = (__IO uint16_t *)(BaseAddr + 0x400U + ((uint32_t)wPMABufAddr * PMA_ACCESS));
 8002c4c:	eb00 0242 	add.w	r2, r0, r2, lsl #1
  uint32_t n = ((uint32_t)wNBytes + 1U) >> 1;
 8002c50:	3301      	adds	r3, #1
  pdwVal = (__IO uint16_t *)(BaseAddr + 0x400U + ((uint32_t)wPMABufAddr * PMA_ACCESS));
 8002c52:	f502 6280 	add.w	r2, r2, #1024	; 0x400
  uint32_t n = ((uint32_t)wNBytes + 1U) >> 1;
 8002c56:	085b      	lsrs	r3, r3, #1
 8002c58:	eb02 0383 	add.w	r3, r2, r3, lsl #2

  for (count = n; count != 0U; count--)
 8002c5c:	4293      	cmp	r3, r2
 8002c5e:	d100      	bne.n	8002c62 <USB_WritePMA+0x16>
#endif /* PMA_ACCESS */

    pBuf++;
    pBuf++;
  }
}
 8002c60:	4770      	bx	lr
    WrVal |= (uint16_t)pBuf[1] << 8;
 8002c62:	f831 0b02 	ldrh.w	r0, [r1], #2
    *pdwVal = (WrVal & 0xFFFFU);
 8002c66:	f822 0b04 	strh.w	r0, [r2], #4
  for (count = n; count != 0U; count--)
 8002c6a:	e7f7      	b.n	8002c5c <USB_WritePMA+0x10>

08002c6c <USB_EPStartXfer>:
{
 8002c6c:	e92d 41f0 	stmdb	sp!, {r4, r5, r6, r7, r8, lr}
 8002c70:	460c      	mov	r4, r1
  if (ep->is_in == 1U)
 8002c72:	7849      	ldrb	r1, [r1, #1]
{
 8002c74:	4605      	mov	r5, r0
  if (ep->is_in == 1U)
 8002c76:	2901      	cmp	r1, #1
    if (ep->doublebuffer == 0U)
 8002c78:	7b22      	ldrb	r2, [r4, #12]
  if (ep->is_in == 1U)
 8002c7a:	f040 811e 	bne.w	8002eba <USB_EPStartXfer+0x24e>
    if (ep->xfer_len > ep->maxpacket)
 8002c7e:	f8d4 e010 	ldr.w	lr, [r4, #16]
 8002c82:	69a6      	ldr	r6, [r4, #24]
      USB_WritePMA(USBx, ep->xfer_buff, ep->pmaadress, (uint16_t)len);
 8002c84:	6961      	ldr	r1, [r4, #20]
 8002c86:	4576      	cmp	r6, lr
 8002c88:	bf28      	it	cs
 8002c8a:	4676      	movcs	r6, lr
    if (ep->doublebuffer == 0U)
 8002c8c:	bb0a      	cbnz	r2, 8002cd2 <USB_EPStartXfer+0x66>
      USB_WritePMA(USBx, ep->xfer_buff, ep->pmaadress, (uint16_t)len);
 8002c8e:	b2b6      	uxth	r6, r6
 8002c90:	88e2      	ldrh	r2, [r4, #6]
 8002c92:	4633      	mov	r3, r6
 8002c94:	f7ff ffda 	bl	8002c4c <USB_WritePMA>
      PCD_SET_EP_TX_CNT(USBx, ep->num, len);
 8002c98:	f8b5 2050 	ldrh.w	r2, [r5, #80]	; 0x50
 8002c9c:	7821      	ldrb	r1, [r4, #0]
 8002c9e:	b290      	uxth	r0, r2
 8002ca0:	f205 4204 	addw	r2, r5, #1028	; 0x404
 8002ca4:	0109      	lsls	r1, r1, #4
 8002ca6:	4402      	add	r2, r0
 8002ca8:	528e      	strh	r6, [r1, r2]
    PCD_SET_EP_TX_STATUS(USBx, ep->num, USB_EP_TX_VALID);
 8002caa:	7822      	ldrb	r2, [r4, #0]
 8002cac:	f835 3022 	ldrh.w	r3, [r5, r2, lsl #2]
 8002cb0:	f423 43e0 	bic.w	r3, r3, #28672	; 0x7000
 8002cb4:	f023 0340 	bic.w	r3, r3, #64	; 0x40
 8002cb8:	041b      	lsls	r3, r3, #16
 8002cba:	0c1b      	lsrs	r3, r3, #16
 8002cbc:	f083 0330 	eor.w	r3, r3, #48	; 0x30
  return HAL_OK;
 8002cc0:	2000      	movs	r0, #0
    PCD_SET_EP_RX_STATUS(USBx, ep->num, USB_EP_RX_VALID);
 8002cc2:	f443 4300 	orr.w	r3, r3, #32768	; 0x8000
 8002cc6:	f043 0380 	orr.w	r3, r3, #128	; 0x80
 8002cca:	f825 3022 	strh.w	r3, [r5, r2, lsl #2]
}
 8002cce:	e8bd 81f0 	ldmia.w	sp!, {r4, r5, r6, r7, r8, pc}
      if (ep->type == EP_TYPE_BULK)
 8002cd2:	78e2      	ldrb	r2, [r4, #3]
          PCD_SET_BULK_EP_DBUF(USBx, ep->num);
 8002cd4:	7827      	ldrb	r7, [r4, #0]
      if (ep->type == EP_TYPE_BULK)
 8002cd6:	2a02      	cmp	r2, #2
        if (ep->xfer_len_db > ep->maxpacket)
 8002cd8:	6a23      	ldr	r3, [r4, #32]
            PCD_SET_EP_DBUF1_CNT(USBx, ep->num, ep->is_in, len);
 8002cda:	ea4f 1c07 	mov.w	ip, r7, lsl #4
      if (ep->type == EP_TYPE_BULK)
 8002cde:	f040 80d6 	bne.w	8002e8e <USB_EPStartXfer+0x222>
        if (ep->xfer_len_db > ep->maxpacket)
 8002ce2:	459e      	cmp	lr, r3
          PCD_SET_BULK_EP_DBUF(USBx, ep->num);
 8002ce4:	f830 2027 	ldrh.w	r2, [r0, r7, lsl #2]
        if (ep->xfer_len_db > ep->maxpacket)
 8002ce8:	f080 80ba 	bcs.w	8002e60 <USB_EPStartXfer+0x1f4>
          PCD_SET_BULK_EP_DBUF(USBx, ep->num);
 8002cec:	f422 42e0 	bic.w	r2, r2, #28672	; 0x7000
 8002cf0:	f022 0270 	bic.w	r2, r2, #112	; 0x70
 8002cf4:	0412      	lsls	r2, r2, #16
 8002cf6:	0c12      	lsrs	r2, r2, #16
 8002cf8:	f442 4201 	orr.w	r2, r2, #33024	; 0x8100
 8002cfc:	f042 0280 	orr.w	r2, r2, #128	; 0x80
 8002d00:	f820 2027 	strh.w	r2, [r0, r7, lsl #2]
          if ((PCD_GET_ENDPOINT(USBx, ep->num) & USB_EP_DTOG_TX) != 0U)
 8002d04:	f830 8027 	ldrh.w	r8, [r0, r7, lsl #2]
            PCD_SET_EP_DBUF1_CNT(USBx, ep->num, ep->is_in, len);
 8002d08:	f8b0 2050 	ldrh.w	r2, [r0, #80]	; 0x50
          ep->xfer_len_db -= len;
 8002d0c:	1b9b      	subs	r3, r3, r6
          if ((PCD_GET_ENDPOINT(USBx, ep->num) & USB_EP_DTOG_TX) != 0U)
 8002d0e:	f018 0840 	ands.w	r8, r8, #64	; 0x40
          ep->xfer_len_db -= len;
 8002d12:	6223      	str	r3, [r4, #32]
            PCD_SET_EP_DBUF1_CNT(USBx, ep->num, ep->is_in, len);
 8002d14:	b297      	uxth	r7, r2
      USB_WritePMA(USBx, ep->xfer_buff, ep->pmaadress, (uint16_t)len);
 8002d16:	b2b3      	uxth	r3, r6
          if ((PCD_GET_ENDPOINT(USBx, ep->num) & USB_EP_DTOG_TX) != 0U)
 8002d18:	d052      	beq.n	8002dc0 <USB_EPStartXfer+0x154>
            PCD_SET_EP_DBUF1_CNT(USBx, ep->num, ep->is_in, len);
 8002d1a:	f200 420c 	addw	r2, r0, #1036	; 0x40c
 8002d1e:	443a      	add	r2, r7
 8002d20:	f822 300c 	strh.w	r3, [r2, ip]
            USB_WritePMA(USBx, ep->xfer_buff, pmabuffer, (uint16_t)len);
 8002d24:	8962      	ldrh	r2, [r4, #10]
 8002d26:	f7ff ff91 	bl	8002c4c <USB_WritePMA>
            if (ep->xfer_len_db > ep->maxpacket)
 8002d2a:	6a27      	ldr	r7, [r4, #32]
 8002d2c:	6923      	ldr	r3, [r4, #16]
            ep->xfer_buff += len;
 8002d2e:	6961      	ldr	r1, [r4, #20]
            if (ep->xfer_len_db > ep->maxpacket)
 8002d30:	429f      	cmp	r7, r3
              ep->xfer_len_db -= len;
 8002d32:	bf8a      	itet	hi
 8002d34:	1bbb      	subhi	r3, r7, r6
              ep->xfer_len_db = 0U;
 8002d36:	2300      	movls	r3, #0
 8002d38:	4637      	movhi	r7, r6
            PCD_SET_EP_DBUF0_CNT(USBx, ep->num, ep->is_in, len);
 8002d3a:	7862      	ldrb	r2, [r4, #1]
            ep->xfer_buff += len;
 8002d3c:	4431      	add	r1, r6
 8002d3e:	6223      	str	r3, [r4, #32]
 8002d40:	6161      	str	r1, [r4, #20]
            PCD_SET_EP_DBUF0_CNT(USBx, ep->num, ep->is_in, len);
 8002d42:	b2bb      	uxth	r3, r7
 8002d44:	bb82      	cbnz	r2, 8002da8 <USB_EPStartXfer+0x13c>
 8002d46:	f8b5 0050 	ldrh.w	r0, [r5, #80]	; 0x50
 8002d4a:	7826      	ldrb	r6, [r4, #0]
 8002d4c:	b282      	uxth	r2, r0
 8002d4e:	f205 4004 	addw	r0, r5, #1028	; 0x404
 8002d52:	0136      	lsls	r6, r6, #4
 8002d54:	4410      	add	r0, r2
 8002d56:	5a32      	ldrh	r2, [r6, r0]
 8002d58:	2f3e      	cmp	r7, #62	; 0x3e
 8002d5a:	f3c2 0209 	ubfx	r2, r2, #0, #10
 8002d5e:	5232      	strh	r2, [r6, r0]
 8002d60:	d914      	bls.n	8002d8c <USB_EPStartXfer+0x120>
 8002d62:	06fa      	lsls	r2, r7, #27
 8002d64:	5a32      	ldrh	r2, [r6, r0]
 8002d66:	ea4f 1c57 	mov.w	ip, r7, lsr #5
 8002d6a:	bf08      	it	eq
 8002d6c:	f10c 3cff 	addeq.w	ip, ip, #4294967295
 8002d70:	b292      	uxth	r2, r2
 8002d72:	ea42 228c 	orr.w	r2, r2, ip, lsl #10
 8002d76:	ea6f 4242 	mvn.w	r2, r2, lsl #17
 8002d7a:	ea6f 4252 	mvn.w	r2, r2, lsr #17
 8002d7e:	b292      	uxth	r2, r2
 8002d80:	5232      	strh	r2, [r6, r0]
            USB_WritePMA(USBx, ep->xfer_buff, pmabuffer, (uint16_t)len);
 8002d82:	8922      	ldrh	r2, [r4, #8]
            USB_WritePMA(USBx, ep->xfer_buff, pmabuffer, (uint16_t)len);
 8002d84:	4628      	mov	r0, r5
          USB_WritePMA(USBx, ep->xfer_buff, pmabuffer, (uint16_t)len);
 8002d86:	f7ff ff61 	bl	8002c4c <USB_WritePMA>
 8002d8a:	e78e      	b.n	8002caa <USB_EPStartXfer+0x3e>
            PCD_SET_EP_DBUF0_CNT(USBx, ep->num, ep->is_in, len);
 8002d8c:	b90f      	cbnz	r7, 8002d92 <USB_EPStartXfer+0x126>
 8002d8e:	5a32      	ldrh	r2, [r6, r0]
 8002d90:	e7f1      	b.n	8002d76 <USB_EPStartXfer+0x10a>
 8002d92:	5a32      	ldrh	r2, [r6, r0]
 8002d94:	ea4f 0c57 	mov.w	ip, r7, lsr #1
 8002d98:	07ff      	lsls	r7, r7, #31
 8002d9a:	bf48      	it	mi
 8002d9c:	f10c 0c01 	addmi.w	ip, ip, #1
 8002da0:	b292      	uxth	r2, r2
 8002da2:	ea42 228c 	orr.w	r2, r2, ip, lsl #10
 8002da6:	e7ea      	b.n	8002d7e <USB_EPStartXfer+0x112>
 8002da8:	2a01      	cmp	r2, #1
 8002daa:	d1ea      	bne.n	8002d82 <USB_EPStartXfer+0x116>
 8002dac:	f8b5 2050 	ldrh.w	r2, [r5, #80]	; 0x50
 8002db0:	7820      	ldrb	r0, [r4, #0]
 8002db2:	b296      	uxth	r6, r2
 8002db4:	f205 4204 	addw	r2, r5, #1028	; 0x404
 8002db8:	0100      	lsls	r0, r0, #4
 8002dba:	4432      	add	r2, r6
 8002dbc:	5283      	strh	r3, [r0, r2]
 8002dbe:	e7e0      	b.n	8002d82 <USB_EPStartXfer+0x116>
            PCD_SET_EP_DBUF0_CNT(USBx, ep->num, ep->is_in, len);
 8002dc0:	f200 4204 	addw	r2, r0, #1028	; 0x404
 8002dc4:	443a      	add	r2, r7
 8002dc6:	f822 300c 	strh.w	r3, [r2, ip]
            USB_WritePMA(USBx, ep->xfer_buff, pmabuffer, (uint16_t)len);
 8002dca:	8922      	ldrh	r2, [r4, #8]
 8002dcc:	f7ff ff3e 	bl	8002c4c <USB_WritePMA>
            if (ep->xfer_len_db > ep->maxpacket)
 8002dd0:	6a27      	ldr	r7, [r4, #32]
 8002dd2:	6923      	ldr	r3, [r4, #16]
            ep->xfer_buff += len;
 8002dd4:	6961      	ldr	r1, [r4, #20]
            if (ep->xfer_len_db > ep->maxpacket)
 8002dd6:	429f      	cmp	r7, r3
              ep->xfer_len_db -= len;
 8002dd8:	bf8a      	itet	hi
 8002dda:	1bbb      	subhi	r3, r7, r6
              ep->xfer_len_db = 0U;
 8002ddc:	4643      	movls	r3, r8
 8002dde:	4637      	movhi	r7, r6
            PCD_SET_EP_DBUF1_CNT(USBx, ep->num, ep->is_in, len);
 8002de0:	7862      	ldrb	r2, [r4, #1]
            ep->xfer_buff += len;
 8002de2:	4431      	add	r1, r6
 8002de4:	6223      	str	r3, [r4, #32]
 8002de6:	6161      	str	r1, [r4, #20]
            PCD_SET_EP_DBUF1_CNT(USBx, ep->num, ep->is_in, len);
 8002de8:	b2bb      	uxth	r3, r7
 8002dea:	bb6a      	cbnz	r2, 8002e48 <USB_EPStartXfer+0x1dc>
 8002dec:	f8b5 0050 	ldrh.w	r0, [r5, #80]	; 0x50
 8002df0:	7826      	ldrb	r6, [r4, #0]
 8002df2:	b282      	uxth	r2, r0
 8002df4:	f205 400c 	addw	r0, r5, #1036	; 0x40c
 8002df8:	0136      	lsls	r6, r6, #4
 8002dfa:	4410      	add	r0, r2
 8002dfc:	5a32      	ldrh	r2, [r6, r0]
 8002dfe:	2f3e      	cmp	r7, #62	; 0x3e
 8002e00:	f3c2 0209 	ubfx	r2, r2, #0, #10
 8002e04:	5232      	strh	r2, [r6, r0]
 8002e06:	d911      	bls.n	8002e2c <USB_EPStartXfer+0x1c0>
 8002e08:	06fa      	lsls	r2, r7, #27
 8002e0a:	5a32      	ldrh	r2, [r6, r0]
 8002e0c:	ea4f 1c57 	mov.w	ip, r7, lsr #5
 8002e10:	bf08      	it	eq
 8002e12:	f10c 3cff 	addeq.w	ip, ip, #4294967295
 8002e16:	b292      	uxth	r2, r2
 8002e18:	ea42 228c 	orr.w	r2, r2, ip, lsl #10
 8002e1c:	ea6f 4242 	mvn.w	r2, r2, lsl #17
 8002e20:	ea6f 4252 	mvn.w	r2, r2, lsr #17
 8002e24:	b292      	uxth	r2, r2
 8002e26:	5232      	strh	r2, [r6, r0]
            USB_WritePMA(USBx, ep->xfer_buff, pmabuffer, (uint16_t)len);
 8002e28:	8962      	ldrh	r2, [r4, #10]
 8002e2a:	e7ab      	b.n	8002d84 <USB_EPStartXfer+0x118>
            PCD_SET_EP_DBUF1_CNT(USBx, ep->num, ep->is_in, len);
 8002e2c:	b90f      	cbnz	r7, 8002e32 <USB_EPStartXfer+0x1c6>
 8002e2e:	5a32      	ldrh	r2, [r6, r0]
 8002e30:	e7f4      	b.n	8002e1c <USB_EPStartXfer+0x1b0>
 8002e32:	5a32      	ldrh	r2, [r6, r0]
 8002e34:	ea4f 0c57 	mov.w	ip, r7, lsr #1
 8002e38:	07ff      	lsls	r7, r7, #31
 8002e3a:	bf48      	it	mi
 8002e3c:	f10c 0c01 	addmi.w	ip, ip, #1
 8002e40:	b292      	uxth	r2, r2
 8002e42:	ea42 228c 	orr.w	r2, r2, ip, lsl #10
 8002e46:	e7ed      	b.n	8002e24 <USB_EPStartXfer+0x1b8>
 8002e48:	2a01      	cmp	r2, #1
 8002e4a:	d1ed      	bne.n	8002e28 <USB_EPStartXfer+0x1bc>
 8002e4c:	f8b5 2050 	ldrh.w	r2, [r5, #80]	; 0x50
 8002e50:	7820      	ldrb	r0, [r4, #0]
 8002e52:	b296      	uxth	r6, r2
 8002e54:	f205 420c 	addw	r2, r5, #1036	; 0x40c
 8002e58:	0100      	lsls	r0, r0, #4
 8002e5a:	4432      	add	r2, r6
 8002e5c:	5283      	strh	r3, [r0, r2]
 8002e5e:	e7e3      	b.n	8002e28 <USB_EPStartXfer+0x1bc>
          PCD_CLEAR_BULK_EP_DBUF(USBx, ep->num);
 8002e60:	f422 42e2 	bic.w	r2, r2, #28928	; 0x7100
 8002e64:	f022 0270 	bic.w	r2, r2, #112	; 0x70
 8002e68:	0412      	lsls	r2, r2, #16
 8002e6a:	0c12      	lsrs	r2, r2, #16
 8002e6c:	f442 4200 	orr.w	r2, r2, #32768	; 0x8000
 8002e70:	f042 0280 	orr.w	r2, r2, #128	; 0x80
 8002e74:	f820 2027 	strh.w	r2, [r0, r7, lsl #2]
          PCD_SET_EP_TX_CNT(USBx, ep->num, len);
 8002e78:	f8b0 2050 	ldrh.w	r2, [r0, #80]	; 0x50
 8002e7c:	b29b      	uxth	r3, r3
 8002e7e:	b296      	uxth	r6, r2
 8002e80:	f200 4204 	addw	r2, r0, #1028	; 0x404
 8002e84:	4432      	add	r2, r6
          PCD_SET_EP_DBUF0_CNT(USBx, ep->num, ep->is_in, len);
 8002e86:	f822 300c 	strh.w	r3, [r2, ip]
          USB_WritePMA(USBx, ep->xfer_buff, pmabuffer, (uint16_t)len);
 8002e8a:	8922      	ldrh	r2, [r4, #8]
 8002e8c:	e77b      	b.n	8002d86 <USB_EPStartXfer+0x11a>
        if ((PCD_GET_ENDPOINT(USBx, ep->num) & USB_EP_DTOG_TX) != 0U)
 8002e8e:	f830 2027 	ldrh.w	r2, [r0, r7, lsl #2]
        ep->xfer_len_db -= len;
 8002e92:	1b9b      	subs	r3, r3, r6
        if ((PCD_GET_ENDPOINT(USBx, ep->num) & USB_EP_DTOG_TX) != 0U)
 8002e94:	f012 0f40 	tst.w	r2, #64	; 0x40
          PCD_SET_EP_DBUF1_CNT(USBx, ep->num, ep->is_in, len);
 8002e98:	f8b0 2050 	ldrh.w	r2, [r0, #80]	; 0x50
        ep->xfer_len_db -= len;
 8002e9c:	6223      	str	r3, [r4, #32]
      USB_WritePMA(USBx, ep->xfer_buff, ep->pmaadress, (uint16_t)len);
 8002e9e:	b2b3      	uxth	r3, r6
          PCD_SET_EP_DBUF1_CNT(USBx, ep->num, ep->is_in, len);
 8002ea0:	b296      	uxth	r6, r2
        if ((PCD_GET_ENDPOINT(USBx, ep->num) & USB_EP_DTOG_TX) != 0U)
 8002ea2:	d006      	beq.n	8002eb2 <USB_EPStartXfer+0x246>
          PCD_SET_EP_DBUF1_CNT(USBx, ep->num, ep->is_in, len);
 8002ea4:	f200 420c 	addw	r2, r0, #1036	; 0x40c
 8002ea8:	4432      	add	r2, r6
 8002eaa:	f822 300c 	strh.w	r3, [r2, ip]
          USB_WritePMA(USBx, ep->xfer_buff, pmabuffer, (uint16_t)len);
 8002eae:	8962      	ldrh	r2, [r4, #10]
 8002eb0:	e769      	b.n	8002d86 <USB_EPStartXfer+0x11a>
          PCD_SET_EP_DBUF0_CNT(USBx, ep->num, ep->is_in, len);
 8002eb2:	f200 4204 	addw	r2, r0, #1028	; 0x404
 8002eb6:	4432      	add	r2, r6
 8002eb8:	e7e5      	b.n	8002e86 <USB_EPStartXfer+0x21a>
    if (ep->doublebuffer == 0U)
 8002eba:	2a00      	cmp	r2, #0
 8002ebc:	d131      	bne.n	8002f22 <USB_EPStartXfer+0x2b6>
      if (ep->xfer_len > ep->maxpacket)
 8002ebe:	69a0      	ldr	r0, [r4, #24]
 8002ec0:	6923      	ldr	r3, [r4, #16]
      PCD_SET_EP_RX_CNT(USBx, ep->num, len);
 8002ec2:	7821      	ldrb	r1, [r4, #0]
      if (ep->xfer_len > ep->maxpacket)
 8002ec4:	4298      	cmp	r0, r3
        ep->xfer_len -= len;
 8002ec6:	bf84      	itt	hi
 8002ec8:	1ac2      	subhi	r2, r0, r3
 8002eca:	4618      	movhi	r0, r3
 8002ecc:	61a2      	str	r2, [r4, #24]
      PCD_SET_EP_RX_CNT(USBx, ep->num, len);
 8002ece:	f8b5 2050 	ldrh.w	r2, [r5, #80]	; 0x50
 8002ed2:	0109      	lsls	r1, r1, #4
 8002ed4:	b293      	uxth	r3, r2
 8002ed6:	f205 420c 	addw	r2, r5, #1036	; 0x40c
 8002eda:	441a      	add	r2, r3
 8002edc:	5a8b      	ldrh	r3, [r1, r2]
 8002ede:	283e      	cmp	r0, #62	; 0x3e
 8002ee0:	f3c3 0309 	ubfx	r3, r3, #0, #10
 8002ee4:	528b      	strh	r3, [r1, r2]
 8002ee6:	d90d      	bls.n	8002f04 <USB_EPStartXfer+0x298>
 8002ee8:	5a8b      	ldrh	r3, [r1, r2]
 8002eea:	0946      	lsrs	r6, r0, #5
 8002eec:	06c0      	lsls	r0, r0, #27
 8002eee:	bf08      	it	eq
 8002ef0:	f106 36ff 	addeq.w	r6, r6, #4294967295
 8002ef4:	b29b      	uxth	r3, r3
 8002ef6:	ea43 2386 	orr.w	r3, r3, r6, lsl #10
        PCD_SET_EP_DBUF_CNT(USBx, ep->num, ep->is_in, len);
 8002efa:	ea6f 4343 	mvn.w	r3, r3, lsl #17
 8002efe:	ea6f 4353 	mvn.w	r3, r3, lsr #17
 8002f02:	e00b      	b.n	8002f1c <USB_EPStartXfer+0x2b0>
      PCD_SET_EP_RX_CNT(USBx, ep->num, len);
 8002f04:	b908      	cbnz	r0, 8002f0a <USB_EPStartXfer+0x29e>
        PCD_SET_EP_DBUF_CNT(USBx, ep->num, ep->is_in, len);
 8002f06:	5a53      	ldrh	r3, [r2, r1]
 8002f08:	e7f7      	b.n	8002efa <USB_EPStartXfer+0x28e>
      PCD_SET_EP_RX_CNT(USBx, ep->num, len);
 8002f0a:	07c3      	lsls	r3, r0, #31
 8002f0c:	5a8b      	ldrh	r3, [r1, r2]
 8002f0e:	ea4f 0650 	mov.w	r6, r0, lsr #1
 8002f12:	bf48      	it	mi
 8002f14:	3601      	addmi	r6, #1
 8002f16:	b29b      	uxth	r3, r3
 8002f18:	ea43 2386 	orr.w	r3, r3, r6, lsl #10
        PCD_SET_EP_DBUF_CNT(USBx, ep->num, ep->is_in, len);
 8002f1c:	b29b      	uxth	r3, r3
 8002f1e:	5253      	strh	r3, [r2, r1]
 8002f20:	e06a      	b.n	8002ff8 <USB_EPStartXfer+0x38c>
      if (ep->type == EP_TYPE_BULK)
 8002f22:	78e3      	ldrb	r3, [r4, #3]
 8002f24:	2b02      	cmp	r3, #2
 8002f26:	d17c      	bne.n	8003022 <USB_EPStartXfer+0x3b6>
        PCD_SET_EP_DBUF_CNT(USBx, ep->num, ep->is_in, ep->maxpacket);
 8002f28:	2900      	cmp	r1, #0
 8002f2a:	d14b      	bne.n	8002fc4 <USB_EPStartXfer+0x358>
 8002f2c:	f8b0 1050 	ldrh.w	r1, [r0, #80]	; 0x50
 8002f30:	7820      	ldrb	r0, [r4, #0]
 8002f32:	b28b      	uxth	r3, r1
 8002f34:	f205 4104 	addw	r1, r5, #1028	; 0x404
 8002f38:	0100      	lsls	r0, r0, #4
 8002f3a:	4419      	add	r1, r3
 8002f3c:	5a43      	ldrh	r3, [r0, r1]
 8002f3e:	f3c3 0309 	ubfx	r3, r3, #0, #10
 8002f42:	5243      	strh	r3, [r0, r1]
 8002f44:	6923      	ldr	r3, [r4, #16]
 8002f46:	2b3e      	cmp	r3, #62	; 0x3e
 8002f48:	d920      	bls.n	8002f8c <USB_EPStartXfer+0x320>
 8002f4a:	5a42      	ldrh	r2, [r0, r1]
 8002f4c:	095e      	lsrs	r6, r3, #5
 8002f4e:	06df      	lsls	r7, r3, #27
 8002f50:	bf08      	it	eq
 8002f52:	f106 36ff 	addeq.w	r6, r6, #4294967295
 8002f56:	b292      	uxth	r2, r2
 8002f58:	ea42 2286 	orr.w	r2, r2, r6, lsl #10
 8002f5c:	ea6f 4242 	mvn.w	r2, r2, lsl #17
 8002f60:	ea6f 4252 	mvn.w	r2, r2, lsr #17
 8002f64:	b292      	uxth	r2, r2
 8002f66:	5242      	strh	r2, [r0, r1]
 8002f68:	f8b5 1050 	ldrh.w	r1, [r5, #80]	; 0x50
 8002f6c:	7822      	ldrb	r2, [r4, #0]
 8002f6e:	f205 400c 	addw	r0, r5, #1036	; 0x40c
 8002f72:	b289      	uxth	r1, r1
 8002f74:	0112      	lsls	r2, r2, #4
 8002f76:	4401      	add	r1, r0
 8002f78:	5a50      	ldrh	r0, [r2, r1]
 8002f7a:	2b3e      	cmp	r3, #62	; 0x3e
 8002f7c:	f3c0 0009 	ubfx	r0, r0, #0, #10
 8002f80:	5250      	strh	r0, [r2, r1]
 8002f82:	d810      	bhi.n	8002fa6 <USB_EPStartXfer+0x33a>
 8002f84:	2b00      	cmp	r3, #0
 8002f86:	d143      	bne.n	8003010 <USB_EPStartXfer+0x3a4>
 8002f88:	5a53      	ldrh	r3, [r2, r1]
 8002f8a:	e015      	b.n	8002fb8 <USB_EPStartXfer+0x34c>
 8002f8c:	b90b      	cbnz	r3, 8002f92 <USB_EPStartXfer+0x326>
 8002f8e:	5a42      	ldrh	r2, [r0, r1]
 8002f90:	e7e4      	b.n	8002f5c <USB_EPStartXfer+0x2f0>
 8002f92:	07da      	lsls	r2, r3, #31
 8002f94:	5a42      	ldrh	r2, [r0, r1]
 8002f96:	ea4f 0653 	mov.w	r6, r3, lsr #1
 8002f9a:	bf48      	it	mi
 8002f9c:	3601      	addmi	r6, #1
 8002f9e:	b292      	uxth	r2, r2
 8002fa0:	ea42 2286 	orr.w	r2, r2, r6, lsl #10
 8002fa4:	e7de      	b.n	8002f64 <USB_EPStartXfer+0x2f8>
 8002fa6:	0958      	lsrs	r0, r3, #5
 8002fa8:	06df      	lsls	r7, r3, #27
 8002faa:	5a53      	ldrh	r3, [r2, r1]
 8002fac:	bf08      	it	eq
 8002fae:	f100 30ff 	addeq.w	r0, r0, #4294967295
 8002fb2:	b29b      	uxth	r3, r3
 8002fb4:	ea43 2380 	orr.w	r3, r3, r0, lsl #10
 8002fb8:	ea6f 4343 	mvn.w	r3, r3, lsl #17
 8002fbc:	ea6f 4353 	mvn.w	r3, r3, lsr #17
 8002fc0:	b29b      	uxth	r3, r3
 8002fc2:	5253      	strh	r3, [r2, r1]
        if (ep->xfer_count != 0U)
 8002fc4:	69e3      	ldr	r3, [r4, #28]
 8002fc6:	b1bb      	cbz	r3, 8002ff8 <USB_EPStartXfer+0x38c>
          wEPVal = PCD_GET_ENDPOINT(USBx, ep->num);
 8002fc8:	f244 0340 	movw	r3, #16448	; 0x4040
 8002fcc:	7822      	ldrb	r2, [r4, #0]
 8002fce:	f835 1022 	ldrh.w	r1, [r5, r2, lsl #2]
          if ((((wEPVal & USB_EP_DTOG_RX) != 0U) && ((wEPVal & USB_EP_DTOG_TX) != 0U)) ||
 8002fd2:	ea03 0001 	and.w	r0, r3, r1
 8002fd6:	438b      	bics	r3, r1
 8002fd8:	d000      	beq.n	8002fdc <USB_EPStartXfer+0x370>
 8002fda:	b968      	cbnz	r0, 8002ff8 <USB_EPStartXfer+0x38c>
            PCD_FREE_USER_BUFFER(USBx, ep->num, 0U);
 8002fdc:	f835 3022 	ldrh.w	r3, [r5, r2, lsl #2]
 8002fe0:	f423 43e0 	bic.w	r3, r3, #28672	; 0x7000
 8002fe4:	f023 0370 	bic.w	r3, r3, #112	; 0x70
 8002fe8:	041b      	lsls	r3, r3, #16
 8002fea:	0c1b      	lsrs	r3, r3, #16
 8002fec:	f443 4300 	orr.w	r3, r3, #32768	; 0x8000
 8002ff0:	f043 03c0 	orr.w	r3, r3, #192	; 0xc0
 8002ff4:	f825 3022 	strh.w	r3, [r5, r2, lsl #2]
    PCD_SET_EP_RX_STATUS(USBx, ep->num, USB_EP_RX_VALID);
 8002ff8:	7822      	ldrb	r2, [r4, #0]
 8002ffa:	f835 3022 	ldrh.w	r3, [r5, r2, lsl #2]
 8002ffe:	f423 4380 	bic.w	r3, r3, #16384	; 0x4000
 8003002:	f023 0370 	bic.w	r3, r3, #112	; 0x70
 8003006:	041b      	lsls	r3, r3, #16
 8003008:	0c1b      	lsrs	r3, r3, #16
 800300a:	f483 5340 	eor.w	r3, r3, #12288	; 0x3000
 800300e:	e657      	b.n	8002cc0 <USB_EPStartXfer+0x54>
        PCD_SET_EP_DBUF_CNT(USBx, ep->num, ep->is_in, ep->maxpacket);
 8003010:	0858      	lsrs	r0, r3, #1
 8003012:	07de      	lsls	r6, r3, #31
 8003014:	5a53      	ldrh	r3, [r2, r1]
 8003016:	bf48      	it	mi
 8003018:	3001      	addmi	r0, #1
 800301a:	b29b      	uxth	r3, r3
 800301c:	ea43 2380 	orr.w	r3, r3, r0, lsl #10
 8003020:	e7ce      	b.n	8002fc0 <USB_EPStartXfer+0x354>
      else if (ep->type == EP_TYPE_ISOC)
 8003022:	2b01      	cmp	r3, #1
 8003024:	d158      	bne.n	80030d8 <USB_EPStartXfer+0x46c>
        if (ep->xfer_len > ep->maxpacket)
 8003026:	69a3      	ldr	r3, [r4, #24]
 8003028:	6922      	ldr	r2, [r4, #16]
 800302a:	4293      	cmp	r3, r2
          ep->xfer_len = 0U;
 800302c:	bf94      	ite	ls
 800302e:	2000      	movls	r0, #0
          ep->xfer_len -= len;
 8003030:	1a98      	subhi	r0, r3, r2
 8003032:	61a0      	str	r0, [r4, #24]
 8003034:	bf88      	it	hi
 8003036:	4613      	movhi	r3, r2
        PCD_SET_EP_DBUF_CNT(USBx, ep->num, ep->is_in, len);
 8003038:	2900      	cmp	r1, #0
 800303a:	d1dd      	bne.n	8002ff8 <USB_EPStartXfer+0x38c>
 800303c:	f8b5 1050 	ldrh.w	r1, [r5, #80]	; 0x50
 8003040:	7820      	ldrb	r0, [r4, #0]
 8003042:	b28a      	uxth	r2, r1
 8003044:	f205 4104 	addw	r1, r5, #1028	; 0x404
 8003048:	0100      	lsls	r0, r0, #4
 800304a:	4411      	add	r1, r2
 800304c:	5a42      	ldrh	r2, [r0, r1]
 800304e:	2b3e      	cmp	r3, #62	; 0x3e
 8003050:	f3c2 0209 	ubfx	r2, r2, #0, #10
 8003054:	5242      	strh	r2, [r0, r1]
 8003056:	d929      	bls.n	80030ac <USB_EPStartXfer+0x440>
 8003058:	06da      	lsls	r2, r3, #27
 800305a:	5a42      	ldrh	r2, [r0, r1]
 800305c:	ea4f 1653 	mov.w	r6, r3, lsr #5
 8003060:	bf08      	it	eq
 8003062:	f106 36ff 	addeq.w	r6, r6, #4294967295
 8003066:	b292      	uxth	r2, r2
 8003068:	ea42 2286 	orr.w	r2, r2, r6, lsl #10
 800306c:	ea6f 4242 	mvn.w	r2, r2, lsl #17
 8003070:	ea6f 4252 	mvn.w	r2, r2, lsr #17
 8003074:	b292      	uxth	r2, r2
 8003076:	5242      	strh	r2, [r0, r1]
 8003078:	f8b5 1050 	ldrh.w	r1, [r5, #80]	; 0x50
 800307c:	7822      	ldrb	r2, [r4, #0]
 800307e:	f205 400c 	addw	r0, r5, #1036	; 0x40c
 8003082:	b289      	uxth	r1, r1
 8003084:	0112      	lsls	r2, r2, #4
 8003086:	4401      	add	r1, r0
 8003088:	5a50      	ldrh	r0, [r2, r1]
 800308a:	2b3e      	cmp	r3, #62	; 0x3e
 800308c:	f3c0 0009 	ubfx	r0, r0, #0, #10
 8003090:	5250      	strh	r0, [r2, r1]
 8003092:	d817      	bhi.n	80030c4 <USB_EPStartXfer+0x458>
 8003094:	2b00      	cmp	r3, #0
 8003096:	f43f af36 	beq.w	8002f06 <USB_EPStartXfer+0x29a>
 800309a:	0858      	lsrs	r0, r3, #1
 800309c:	07db      	lsls	r3, r3, #31
 800309e:	5a53      	ldrh	r3, [r2, r1]
 80030a0:	bf48      	it	mi
 80030a2:	3001      	addmi	r0, #1
 80030a4:	b29b      	uxth	r3, r3
 80030a6:	ea43 2380 	orr.w	r3, r3, r0, lsl #10
 80030aa:	e737      	b.n	8002f1c <USB_EPStartXfer+0x2b0>
 80030ac:	b90b      	cbnz	r3, 80030b2 <USB_EPStartXfer+0x446>
 80030ae:	5a42      	ldrh	r2, [r0, r1]
 80030b0:	e7dc      	b.n	800306c <USB_EPStartXfer+0x400>
 80030b2:	5a42      	ldrh	r2, [r0, r1]
 80030b4:	085e      	lsrs	r6, r3, #1
 80030b6:	07df      	lsls	r7, r3, #31
 80030b8:	bf48      	it	mi
 80030ba:	3601      	addmi	r6, #1
 80030bc:	b292      	uxth	r2, r2
 80030be:	ea42 2286 	orr.w	r2, r2, r6, lsl #10
 80030c2:	e7d7      	b.n	8003074 <USB_EPStartXfer+0x408>
 80030c4:	0958      	lsrs	r0, r3, #5
 80030c6:	06de      	lsls	r6, r3, #27
 80030c8:	5a53      	ldrh	r3, [r2, r1]
 80030ca:	bf08      	it	eq
 80030cc:	f100 30ff 	addeq.w	r0, r0, #4294967295
 80030d0:	b29b      	uxth	r3, r3
 80030d2:	ea43 2380 	orr.w	r3, r3, r0, lsl #10
 80030d6:	e710      	b.n	8002efa <USB_EPStartXfer+0x28e>
        return HAL_ERROR;
 80030d8:	2001      	movs	r0, #1
 80030da:	e5f8      	b.n	8002cce <USB_EPStartXfer+0x62>

080030dc <USB_ReadPMA>:
  uint32_t count;
  uint32_t RdVal;
  __IO uint16_t *pdwVal;
  uint8_t *pBuf = pbUsrBuf;

  pdwVal = (__IO uint16_t *)(BaseAddr + 0x400U + ((uint32_t)wPMABufAddr * PMA_ACCESS));
 80030dc:	eb00 0242 	add.w	r2, r0, r2, lsl #1
{
 80030e0:	b5f0      	push	{r4, r5, r6, r7, lr}
  pdwVal = (__IO uint16_t *)(BaseAddr + 0x400U + ((uint32_t)wPMABufAddr * PMA_ACCESS));
 80030e2:	f502 6280 	add.w	r2, r2, #1024	; 0x400
  uint32_t n = (uint32_t)wNBytes >> 1;
 80030e6:	085d      	lsrs	r5, r3, #1

  for (count = n; count != 0U; count--)
 80030e8:	460c      	mov	r4, r1
  pdwVal = (__IO uint16_t *)(BaseAddr + 0x400U + ((uint32_t)wPMABufAddr * PMA_ACCESS));
 80030ea:	4617      	mov	r7, r2
  for (count = n; count != 0U; count--)
 80030ec:	462e      	mov	r6, r5
 80030ee:	3402      	adds	r4, #2
 80030f0:	b936      	cbnz	r6, 8003100 <USB_ReadPMA+0x24>
#if PMA_ACCESS > 1U
    pdwVal++;
#endif /* PMA_ACCESS */
  }

  if ((wNBytes % 2U) != 0U)
 80030f2:	07db      	lsls	r3, r3, #31
  {
    RdVal = *pdwVal;
 80030f4:	bf44      	itt	mi
 80030f6:	f832 3025 	ldrhmi.w	r3, [r2, r5, lsl #2]
    *pBuf = (uint8_t)((RdVal >> 0) & 0xFFU);
 80030fa:	f801 3015 	strbmi.w	r3, [r1, r5, lsl #1]
  }
}
 80030fe:	bdf0      	pop	{r4, r5, r6, r7, pc}
    RdVal = *(__IO uint16_t *)pdwVal;
 8003100:	f837 0b04 	ldrh.w	r0, [r7], #4
  for (count = n; count != 0U; count--)
 8003104:	3e01      	subs	r6, #1
    RdVal = *(__IO uint16_t *)pdwVal;
 8003106:	b280      	uxth	r0, r0
    *pBuf = (uint8_t)((RdVal >> 0) & 0xFFU);
 8003108:	f804 0c02 	strb.w	r0, [r4, #-2]
    *pBuf = (uint8_t)((RdVal >> 8) & 0xFFU);
 800310c:	0a00      	lsrs	r0, r0, #8
 800310e:	f804 0c01 	strb.w	r0, [r4, #-1]
  for (count = n; count != 0U; count--)
 8003112:	e7ec      	b.n	80030ee <USB_ReadPMA+0x12>

08003114 <USBD_CDC_EP0_RxReady>:
  */
static uint8_t  USBD_CDC_EP0_RxReady(USBD_HandleTypeDef *pdev)
{
  USBD_CDC_HandleTypeDef   *hcdc = (USBD_CDC_HandleTypeDef *) pdev->pClassData;

  if ((pdev->pUserData != NULL) && (hcdc->CmdOpCode != 0xFFU))
 8003114:	f8d0 32bc 	ldr.w	r3, [r0, #700]	; 0x2bc
{
 8003118:	b510      	push	{r4, lr}
  if ((pdev->pUserData != NULL) && (hcdc->CmdOpCode != 0xFFU))
 800311a:	b16b      	cbz	r3, 8003138 <USBD_CDC_EP0_RxReady+0x24>
  USBD_CDC_HandleTypeDef   *hcdc = (USBD_CDC_HandleTypeDef *) pdev->pClassData;
 800311c:	f8d0 42b8 	ldr.w	r4, [r0, #696]	; 0x2b8
  if ((pdev->pUserData != NULL) && (hcdc->CmdOpCode != 0xFFU))
 8003120:	f894 0200 	ldrb.w	r0, [r4, #512]	; 0x200
 8003124:	28ff      	cmp	r0, #255	; 0xff
 8003126:	d007      	beq.n	8003138 <USBD_CDC_EP0_RxReady+0x24>
  {
    ((USBD_CDC_ItfTypeDef *)pdev->pUserData)->Control(hcdc->CmdOpCode,
 8003128:	689b      	ldr	r3, [r3, #8]
 800312a:	4621      	mov	r1, r4
 800312c:	f894 2201 	ldrb.w	r2, [r4, #513]	; 0x201
 8003130:	4798      	blx	r3
                                                      (uint8_t *)(void *)hcdc->data,
                                                      (uint16_t)hcdc->CmdLength);
    hcdc->CmdOpCode = 0xFFU;
 8003132:	23ff      	movs	r3, #255	; 0xff
 8003134:	f884 3200 	strb.w	r3, [r4, #512]	; 0x200

  }
  return USBD_OK;
}
 8003138:	2000      	movs	r0, #0
 800313a:	bd10      	pop	{r4, pc}

0800313c <USBD_CDC_GetFSCfgDesc>:
  * @param  length : pointer data length
  * @retval pointer to descriptor buffer
  */
static uint8_t  *USBD_CDC_GetFSCfgDesc(uint16_t *length)
{
  *length = sizeof(USBD_CDC_CfgFSDesc);
 800313c:	2343      	movs	r3, #67	; 0x43
 800313e:	8003      	strh	r3, [r0, #0]
  return USBD_CDC_CfgFSDesc;
}
 8003140:	4800      	ldr	r0, [pc, #0]	; (8003144 <USBD_CDC_GetFSCfgDesc+0x8>)
 8003142:	4770      	bx	lr
 8003144:	20000044 	.word	0x20000044

08003148 <USBD_CDC_GetHSCfgDesc>:
  * @param  length : pointer data length
  * @retval pointer to descriptor buffer
  */
static uint8_t  *USBD_CDC_GetHSCfgDesc(uint16_t *length)
{
  *length = sizeof(USBD_CDC_CfgHSDesc);
 8003148:	2343      	movs	r3, #67	; 0x43
 800314a:	8003      	strh	r3, [r0, #0]
  return USBD_CDC_CfgHSDesc;
}
 800314c:	4800      	ldr	r0, [pc, #0]	; (8003150 <USBD_CDC_GetHSCfgDesc+0x8>)
 800314e:	4770      	bx	lr
 8003150:	20000088 	.word	0x20000088

08003154 <USBD_CDC_GetOtherSpeedCfgDesc>:
  * @param  length : pointer data length
  * @retval pointer to descriptor buffer
  */
static uint8_t  *USBD_CDC_GetOtherSpeedCfgDesc(uint16_t *length)
{
  *length = sizeof(USBD_CDC_OtherSpeedCfgDesc);
 8003154:	2343      	movs	r3, #67	; 0x43
 8003156:	8003      	strh	r3, [r0, #0]
  return USBD_CDC_OtherSpeedCfgDesc;
}
 8003158:	4800      	ldr	r0, [pc, #0]	; (800315c <USBD_CDC_GetOtherSpeedCfgDesc+0x8>)
 800315a:	4770      	bx	lr
 800315c:	200000d8 	.word	0x200000d8

08003160 <USBD_CDC_GetDeviceQualifierDescriptor>:
* @param  length : pointer data length
* @retval pointer to descriptor buffer
*/
uint8_t  *USBD_CDC_GetDeviceQualifierDescriptor(uint16_t *length)
{
  *length = sizeof(USBD_CDC_DeviceQualifierDesc);
 8003160:	230a      	movs	r3, #10
 8003162:	8003      	strh	r3, [r0, #0]
  return USBD_CDC_DeviceQualifierDesc;
}
 8003164:	4800      	ldr	r0, [pc, #0]	; (8003168 <USBD_CDC_GetDeviceQualifierDescriptor+0x8>)
 8003166:	4770      	bx	lr
 8003168:	200000cc 	.word	0x200000cc

0800316c <USBD_CDC_DataOut>:
{
 800316c:	b538      	push	{r3, r4, r5, lr}
 800316e:	4604      	mov	r4, r0
  USBD_CDC_HandleTypeDef   *hcdc = (USBD_CDC_HandleTypeDef *) pdev->pClassData;
 8003170:	f8d0 52b8 	ldr.w	r5, [r0, #696]	; 0x2b8
  hcdc->RxLength = USBD_LL_GetRxDataSize(pdev, epnum);
 8003174:	f000 fe97 	bl	8003ea6 <USBD_LL_GetRxDataSize>
  if (pdev->pClassData != NULL)
 8003178:	f8d4 32b8 	ldr.w	r3, [r4, #696]	; 0x2b8
  hcdc->RxLength = USBD_LL_GetRxDataSize(pdev, epnum);
 800317c:	f8c5 020c 	str.w	r0, [r5, #524]	; 0x20c
  if (pdev->pClassData != NULL)
 8003180:	b14b      	cbz	r3, 8003196 <USBD_CDC_DataOut+0x2a>
    ((USBD_CDC_ItfTypeDef *)pdev->pUserData)->Receive(hcdc->RxBuffer, &hcdc->RxLength);
 8003182:	f8d4 32bc 	ldr.w	r3, [r4, #700]	; 0x2bc
 8003186:	f8d5 0204 	ldr.w	r0, [r5, #516]	; 0x204
 800318a:	68db      	ldr	r3, [r3, #12]
 800318c:	f505 7103 	add.w	r1, r5, #524	; 0x20c
 8003190:	4798      	blx	r3
    return USBD_OK;
 8003192:	2000      	movs	r0, #0
}
 8003194:	bd38      	pop	{r3, r4, r5, pc}
    return USBD_FAIL;
 8003196:	2002      	movs	r0, #2
 8003198:	e7fc      	b.n	8003194 <USBD_CDC_DataOut+0x28>

0800319a <USBD_CDC_DataIn>:
{
 800319a:	b5f8      	push	{r3, r4, r5, r6, r7, lr}
  USBD_CDC_HandleTypeDef *hcdc = (USBD_CDC_HandleTypeDef *)pdev->pClassData;
 800319c:	f8d0 62b8 	ldr.w	r6, [r0, #696]	; 0x2b8
  if (pdev->pClassData != NULL)
 80031a0:	b1d6      	cbz	r6, 80031d8 <USBD_CDC_DataIn+0x3e>
    if ((pdev->ep_in[epnum].total_length > 0U) && ((pdev->ep_in[epnum].total_length % hpcd->IN_ep[epnum].maxpacket) == 0U))
 80031a2:	2214      	movs	r2, #20
 80031a4:	fb02 0201 	mla	r2, r2, r1, r0
 80031a8:	69d4      	ldr	r4, [r2, #28]
 80031aa:	b18c      	cbz	r4, 80031d0 <USBD_CDC_DataIn+0x36>
 80031ac:	2728      	movs	r7, #40	; 0x28
 80031ae:	f8d0 32c0 	ldr.w	r3, [r0, #704]	; 0x2c0
 80031b2:	fb07 3501 	mla	r5, r7, r1, r3
 80031b6:	6bab      	ldr	r3, [r5, #56]	; 0x38
 80031b8:	fbb4 f5f3 	udiv	r5, r4, r3
 80031bc:	fb03 4415 	mls	r4, r3, r5, r4
 80031c0:	b934      	cbnz	r4, 80031d0 <USBD_CDC_DataIn+0x36>
      pdev->ep_in[epnum].total_length = 0U;
 80031c2:	61d4      	str	r4, [r2, #28]
      USBD_LL_Transmit(pdev, epnum, NULL, 0U);
 80031c4:	4623      	mov	r3, r4
 80031c6:	4622      	mov	r2, r4
 80031c8:	f000 fe5b 	bl	8003e82 <USBD_LL_Transmit>
    return USBD_OK;
 80031cc:	4620      	mov	r0, r4
}
 80031ce:	bdf8      	pop	{r3, r4, r5, r6, r7, pc}
      hcdc->TxState = 0U;
 80031d0:	2000      	movs	r0, #0
 80031d2:	f8c6 0214 	str.w	r0, [r6, #532]	; 0x214
 80031d6:	e7fa      	b.n	80031ce <USBD_CDC_DataIn+0x34>
    return USBD_FAIL;
 80031d8:	2002      	movs	r0, #2
 80031da:	e7f8      	b.n	80031ce <USBD_CDC_DataIn+0x34>

080031dc <USBD_CDC_Setup>:
{
 80031dc:	e92d 43f7 	stmdb	sp!, {r0, r1, r2, r4, r5, r6, r7, r8, r9, lr}
  uint8_t ifalt = 0U;
 80031e0:	f04f 0800 	mov.w	r8, #0
  switch (req->bmRequest & USB_REQ_TYPE_MASK)
 80031e4:	780a      	ldrb	r2, [r1, #0]
{
 80031e6:	4605      	mov	r5, r0
  switch (req->bmRequest & USB_REQ_TYPE_MASK)
 80031e8:	f012 0460 	ands.w	r4, r2, #96	; 0x60
{
 80031ec:	460e      	mov	r6, r1
  USBD_CDC_HandleTypeDef   *hcdc = (USBD_CDC_HandleTypeDef *) pdev->pClassData;
 80031ee:	f8d0 72b8 	ldr.w	r7, [r0, #696]	; 0x2b8
  uint8_t ifalt = 0U;
 80031f2:	f88d 8005 	strb.w	r8, [sp, #5]
  uint16_t status_info = 0U;
 80031f6:	f8ad 8006 	strh.w	r8, [sp, #6]
  switch (req->bmRequest & USB_REQ_TYPE_MASK)
 80031fa:	d028      	beq.n	800324e <USBD_CDC_Setup+0x72>
 80031fc:	2c20      	cmp	r4, #32
 80031fe:	d142      	bne.n	8003286 <USBD_CDC_Setup+0xaa>
      if (req->wLength)
 8003200:	88cc      	ldrh	r4, [r1, #6]
          ((USBD_CDC_ItfTypeDef *)pdev->pUserData)->Control(req->bRequest,
 8003202:	784b      	ldrb	r3, [r1, #1]
      if (req->wLength)
 8003204:	b1e4      	cbz	r4, 8003240 <USBD_CDC_Setup+0x64>
        if (req->bmRequest & 0x80U)
 8003206:	0612      	lsls	r2, r2, #24
 8003208:	d511      	bpl.n	800322e <USBD_CDC_Setup+0x52>
          ((USBD_CDC_ItfTypeDef *)pdev->pUserData)->Control(req->bRequest,
 800320a:	f8d0 22bc 	ldr.w	r2, [r0, #700]	; 0x2bc
 800320e:	4639      	mov	r1, r7
 8003210:	f8d2 9008 	ldr.w	r9, [r2, #8]
 8003214:	4618      	mov	r0, r3
 8003216:	4622      	mov	r2, r4
 8003218:	47c8      	blx	r9
          USBD_CtlSendData(pdev, (uint8_t *)(void *)hcdc->data, req->wLength);
 800321a:	4639      	mov	r1, r7
 800321c:	4628      	mov	r0, r5
 800321e:	88f2      	ldrh	r2, [r6, #6]
 8003220:	f000 fc31 	bl	8003a86 <USBD_CtlSendData>
  uint8_t ret = USBD_OK;
 8003224:	4644      	mov	r4, r8
}
 8003226:	4620      	mov	r0, r4
 8003228:	b003      	add	sp, #12
 800322a:	e8bd 83f0 	ldmia.w	sp!, {r4, r5, r6, r7, r8, r9, pc}
          USBD_CtlPrepareRx(pdev, (uint8_t *)(void *)hcdc->data, req->wLength);
 800322e:	4622      	mov	r2, r4
 8003230:	4639      	mov	r1, r7
          hcdc->CmdOpCode = req->bRequest;
 8003232:	f887 3200 	strb.w	r3, [r7, #512]	; 0x200
          hcdc->CmdLength = (uint8_t)req->wLength;
 8003236:	f887 4201 	strb.w	r4, [r7, #513]	; 0x201
          USBD_CtlPrepareRx(pdev, (uint8_t *)(void *)hcdc->data, req->wLength);
 800323a:	f000 fc39 	bl	8003ab0 <USBD_CtlPrepareRx>
 800323e:	e7f1      	b.n	8003224 <USBD_CDC_Setup+0x48>
        ((USBD_CDC_ItfTypeDef *)pdev->pUserData)->Control(req->bRequest,
 8003240:	f8d0 22bc 	ldr.w	r2, [r0, #700]	; 0x2bc
 8003244:	4618      	mov	r0, r3
 8003246:	6895      	ldr	r5, [r2, #8]
 8003248:	4622      	mov	r2, r4
 800324a:	47a8      	blx	r5
 800324c:	e7eb      	b.n	8003226 <USBD_CDC_Setup+0x4a>
      switch (req->bRequest)
 800324e:	784b      	ldrb	r3, [r1, #1]
 8003250:	2b0a      	cmp	r3, #10
 8003252:	d00c      	beq.n	800326e <USBD_CDC_Setup+0x92>
 8003254:	2b0b      	cmp	r3, #11
 8003256:	d012      	beq.n	800327e <USBD_CDC_Setup+0xa2>
 8003258:	b9ab      	cbnz	r3, 8003286 <USBD_CDC_Setup+0xaa>
          if (pdev->dev_state == USBD_STATE_CONFIGURED)
 800325a:	f890 329c 	ldrb.w	r3, [r0, #668]	; 0x29c
 800325e:	2b03      	cmp	r3, #3
 8003260:	d111      	bne.n	8003286 <USBD_CDC_Setup+0xaa>
            USBD_CtlSendData(pdev, (uint8_t *)(void *)&status_info, 2U);
 8003262:	2202      	movs	r2, #2
 8003264:	f10d 0106 	add.w	r1, sp, #6
            USBD_CtlSendData(pdev, &ifalt, 1U);
 8003268:	f000 fc0d 	bl	8003a86 <USBD_CtlSendData>
 800326c:	e7db      	b.n	8003226 <USBD_CDC_Setup+0x4a>
          if (pdev->dev_state == USBD_STATE_CONFIGURED)
 800326e:	f890 329c 	ldrb.w	r3, [r0, #668]	; 0x29c
 8003272:	2b03      	cmp	r3, #3
 8003274:	d107      	bne.n	8003286 <USBD_CDC_Setup+0xaa>
            USBD_CtlSendData(pdev, &ifalt, 1U);
 8003276:	2201      	movs	r2, #1
 8003278:	f10d 0105 	add.w	r1, sp, #5
 800327c:	e7f4      	b.n	8003268 <USBD_CDC_Setup+0x8c>
          if (pdev->dev_state != USBD_STATE_CONFIGURED)
 800327e:	f890 329c 	ldrb.w	r3, [r0, #668]	; 0x29c
 8003282:	2b03      	cmp	r3, #3
 8003284:	d0cf      	beq.n	8003226 <USBD_CDC_Setup+0x4a>
          USBD_CtlError(pdev, req);
 8003286:	4631      	mov	r1, r6
 8003288:	4628      	mov	r0, r5
 800328a:	f000 fbd5 	bl	8003a38 <USBD_CtlError>
          ret = USBD_FAIL;
 800328e:	2402      	movs	r4, #2
 8003290:	e7c9      	b.n	8003226 <USBD_CDC_Setup+0x4a>

08003292 <USBD_CDC_DeInit>:
{
 8003292:	b538      	push	{r3, r4, r5, lr}
 8003294:	4604      	mov	r4, r0
  pdev->ep_in[CDC_IN_EP & 0xFU].is_used = 0U;
 8003296:	2500      	movs	r5, #0
  USBD_LL_CloseEP(pdev, CDC_IN_EP);
 8003298:	2181      	movs	r1, #129	; 0x81
 800329a:	f000 fdbc 	bl	8003e16 <USBD_LL_CloseEP>
  USBD_LL_CloseEP(pdev, CDC_OUT_EP);
 800329e:	2101      	movs	r1, #1
 80032a0:	4620      	mov	r0, r4
  pdev->ep_in[CDC_IN_EP & 0xFU].is_used = 0U;
 80032a2:	62e5      	str	r5, [r4, #44]	; 0x2c
  USBD_LL_CloseEP(pdev, CDC_OUT_EP);
 80032a4:	f000 fdb7 	bl	8003e16 <USBD_LL_CloseEP>
  USBD_LL_CloseEP(pdev, CDC_CMD_EP);
 80032a8:	2182      	movs	r1, #130	; 0x82
 80032aa:	4620      	mov	r0, r4
  pdev->ep_out[CDC_OUT_EP & 0xFU].is_used = 0U;
 80032ac:	f8c4 516c 	str.w	r5, [r4, #364]	; 0x16c
  USBD_LL_CloseEP(pdev, CDC_CMD_EP);
 80032b0:	f000 fdb1 	bl	8003e16 <USBD_LL_CloseEP>
  if (pdev->pClassData != NULL)
 80032b4:	f8d4 32b8 	ldr.w	r3, [r4, #696]	; 0x2b8
  pdev->ep_in[CDC_CMD_EP & 0xFU].is_used = 0U;
 80032b8:	6425      	str	r5, [r4, #64]	; 0x40
  if (pdev->pClassData != NULL)
 80032ba:	b14b      	cbz	r3, 80032d0 <USBD_CDC_DeInit+0x3e>
    ((USBD_CDC_ItfTypeDef *)pdev->pUserData)->DeInit();
 80032bc:	f8d4 32bc 	ldr.w	r3, [r4, #700]	; 0x2bc
 80032c0:	685b      	ldr	r3, [r3, #4]
 80032c2:	4798      	blx	r3
    USBD_free(pdev->pClassData);
 80032c4:	f8d4 02b8 	ldr.w	r0, [r4, #696]	; 0x2b8
 80032c8:	f000 fdf6 	bl	8003eb8 <USBD_static_free>
    pdev->pClassData = NULL;
 80032cc:	f8c4 52b8 	str.w	r5, [r4, #696]	; 0x2b8
}
 80032d0:	2000      	movs	r0, #0
 80032d2:	bd38      	pop	{r3, r4, r5, pc}

080032d4 <USBD_CDC_Init>:
{
 80032d4:	e92d 41f0 	stmdb	sp!, {r4, r5, r6, r7, r8, lr}
  if (pdev->dev_speed == USBD_SPEED_HIGH)
 80032d8:	7c03      	ldrb	r3, [r0, #16]
{
 80032da:	4604      	mov	r4, r0
  if (pdev->dev_speed == USBD_SPEED_HIGH)
 80032dc:	bbbb      	cbnz	r3, 800334e <USBD_CDC_Init+0x7a>
    USBD_LL_OpenEP(pdev, CDC_IN_EP, USBD_EP_TYPE_BULK,
 80032de:	f44f 7300 	mov.w	r3, #512	; 0x200
 80032e2:	2202      	movs	r2, #2
 80032e4:	2181      	movs	r1, #129	; 0x81
    pdev->ep_in[CDC_IN_EP & 0xFU].is_used = 1U;
 80032e6:	2501      	movs	r5, #1
    USBD_LL_OpenEP(pdev, CDC_IN_EP, USBD_EP_TYPE_BULK,
 80032e8:	f000 fd89 	bl	8003dfe <USBD_LL_OpenEP>
    USBD_LL_OpenEP(pdev, CDC_OUT_EP, USBD_EP_TYPE_BULK,
 80032ec:	f44f 7300 	mov.w	r3, #512	; 0x200
    pdev->ep_in[CDC_IN_EP & 0xFU].is_used = 1U;
 80032f0:	62e5      	str	r5, [r4, #44]	; 0x2c
  pdev->ep_in[CDC_CMD_EP & 0xFU].is_used = 1U;
 80032f2:	2701      	movs	r7, #1
    USBD_LL_OpenEP(pdev, CDC_OUT_EP, USBD_EP_TYPE_BULK,
 80032f4:	4629      	mov	r1, r5
 80032f6:	2202      	movs	r2, #2
 80032f8:	4620      	mov	r0, r4
 80032fa:	f000 fd80 	bl	8003dfe <USBD_LL_OpenEP>
  USBD_LL_OpenEP(pdev, CDC_CMD_EP, USBD_EP_TYPE_INTR, CDC_CMD_PACKET_SIZE);
 80032fe:	2308      	movs	r3, #8
 8003300:	2203      	movs	r2, #3
 8003302:	2182      	movs	r1, #130	; 0x82
    pdev->ep_out[CDC_OUT_EP & 0xFU].is_used = 1U;
 8003304:	f8c4 516c 	str.w	r5, [r4, #364]	; 0x16c
  USBD_LL_OpenEP(pdev, CDC_CMD_EP, USBD_EP_TYPE_INTR, CDC_CMD_PACKET_SIZE);
 8003308:	4620      	mov	r0, r4
 800330a:	f000 fd78 	bl	8003dfe <USBD_LL_OpenEP>
  pdev->pClassData = USBD_malloc(sizeof(USBD_CDC_HandleTypeDef));
 800330e:	f44f 7007 	mov.w	r0, #540	; 0x21c
  pdev->ep_in[CDC_CMD_EP & 0xFU].is_used = 1U;
 8003312:	6427      	str	r7, [r4, #64]	; 0x40
  pdev->pClassData = USBD_malloc(sizeof(USBD_CDC_HandleTypeDef));
 8003314:	f000 fdcc 	bl	8003eb0 <USBD_static_malloc>
 8003318:	4605      	mov	r5, r0
 800331a:	f8c4 02b8 	str.w	r0, [r4, #696]	; 0x2b8
  if (pdev->pClassData == NULL)
 800331e:	b340      	cbz	r0, 8003372 <USBD_CDC_Init+0x9e>
    hcdc->TxState = 0U;
 8003320:	f04f 0800 	mov.w	r8, #0
    ((USBD_CDC_ItfTypeDef *)pdev->pUserData)->Init();
 8003324:	f8d4 32bc 	ldr.w	r3, [r4, #700]	; 0x2bc
 8003328:	681b      	ldr	r3, [r3, #0]
 800332a:	4798      	blx	r3
    hcdc->TxState = 0U;
 800332c:	f8c5 8214 	str.w	r8, [r5, #532]	; 0x214
    hcdc->RxState = 0U;
 8003330:	f8c5 8218 	str.w	r8, [r5, #536]	; 0x218
    if (pdev->dev_speed == USBD_SPEED_HIGH)
 8003334:	7c26      	ldrb	r6, [r4, #16]
 8003336:	b99e      	cbnz	r6, 8003360 <USBD_CDC_Init+0x8c>
      USBD_LL_PrepareReceive(pdev, CDC_OUT_EP, hcdc->RxBuffer,
 8003338:	f44f 7300 	mov.w	r3, #512	; 0x200
 800333c:	4639      	mov	r1, r7
 800333e:	4620      	mov	r0, r4
 8003340:	f8d5 2204 	ldr.w	r2, [r5, #516]	; 0x204
 8003344:	f000 fda6 	bl	8003e94 <USBD_LL_PrepareReceive>
}
 8003348:	4630      	mov	r0, r6
 800334a:	e8bd 81f0 	ldmia.w	sp!, {r4, r5, r6, r7, r8, pc}
    pdev->ep_in[CDC_IN_EP & 0xFU].is_used = 1U;
 800334e:	2501      	movs	r5, #1
    USBD_LL_OpenEP(pdev, CDC_IN_EP, USBD_EP_TYPE_BULK,
 8003350:	2340      	movs	r3, #64	; 0x40
 8003352:	2202      	movs	r2, #2
 8003354:	2181      	movs	r1, #129	; 0x81
 8003356:	f000 fd52 	bl	8003dfe <USBD_LL_OpenEP>
    USBD_LL_OpenEP(pdev, CDC_OUT_EP, USBD_EP_TYPE_BULK,
 800335a:	2340      	movs	r3, #64	; 0x40
    pdev->ep_in[CDC_IN_EP & 0xFU].is_used = 1U;
 800335c:	62e5      	str	r5, [r4, #44]	; 0x2c
    USBD_LL_OpenEP(pdev, CDC_OUT_EP, USBD_EP_TYPE_BULK,
 800335e:	e7c8      	b.n	80032f2 <USBD_CDC_Init+0x1e>
      USBD_LL_PrepareReceive(pdev, CDC_OUT_EP, hcdc->RxBuffer,
 8003360:	2340      	movs	r3, #64	; 0x40
 8003362:	4639      	mov	r1, r7
 8003364:	4620      	mov	r0, r4
 8003366:	f8d5 2204 	ldr.w	r2, [r5, #516]	; 0x204
 800336a:	f000 fd93 	bl	8003e94 <USBD_LL_PrepareReceive>
  uint8_t ret = 0U;
 800336e:	4646      	mov	r6, r8
 8003370:	e7ea      	b.n	8003348 <USBD_CDC_Init+0x74>
    ret = 1U;
 8003372:	463e      	mov	r6, r7
 8003374:	e7e8      	b.n	8003348 <USBD_CDC_Init+0x74>

08003376 <USBD_CDC_RegisterInterface>:
uint8_t  USBD_CDC_RegisterInterface(USBD_HandleTypeDef   *pdev,
                                    USBD_CDC_ItfTypeDef *fops)
{
  uint8_t  ret = USBD_FAIL;

  if (fops != NULL)
 8003376:	b119      	cbz	r1, 8003380 <USBD_CDC_RegisterInterface+0xa>
  {
    pdev->pUserData = fops;
 8003378:	f8c0 12bc 	str.w	r1, [r0, #700]	; 0x2bc
    ret = USBD_OK;
 800337c:	2000      	movs	r0, #0
 800337e:	4770      	bx	lr
  uint8_t  ret = USBD_FAIL;
 8003380:	2002      	movs	r0, #2
  }

  return ret;
}
 8003382:	4770      	bx	lr

08003384 <USBD_CDC_SetTxBuffer>:
  */
uint8_t  USBD_CDC_SetTxBuffer(USBD_HandleTypeDef   *pdev,
                              uint8_t  *pbuff,
                              uint16_t length)
{
  USBD_CDC_HandleTypeDef   *hcdc = (USBD_CDC_HandleTypeDef *) pdev->pClassData;
 8003384:	f8d0 32b8 	ldr.w	r3, [r0, #696]	; 0x2b8

  hcdc->TxBuffer = pbuff;
  hcdc->TxLength = length;

  return USBD_OK;
}
 8003388:	2000      	movs	r0, #0
  hcdc->TxBuffer = pbuff;
 800338a:	f8c3 1208 	str.w	r1, [r3, #520]	; 0x208
  hcdc->TxLength = length;
 800338e:	f8c3 2210 	str.w	r2, [r3, #528]	; 0x210
}
 8003392:	4770      	bx	lr

08003394 <USBD_CDC_SetRxBuffer>:
uint8_t  USBD_CDC_SetRxBuffer(USBD_HandleTypeDef   *pdev,
                              uint8_t  *pbuff)
{
  USBD_CDC_HandleTypeDef   *hcdc = (USBD_CDC_HandleTypeDef *) pdev->pClassData;

  hcdc->RxBuffer = pbuff;
 8003394:	f8d0 32b8 	ldr.w	r3, [r0, #696]	; 0x2b8

  return USBD_OK;
}
 8003398:	2000      	movs	r0, #0
  hcdc->RxBuffer = pbuff;
 800339a:	f8c3 1204 	str.w	r1, [r3, #516]	; 0x204
}
 800339e:	4770      	bx	lr

080033a0 <USBD_CDC_ReceivePacket>:
  * @param  pdev: device instance
  * @retval status
  */
uint8_t  USBD_CDC_ReceivePacket(USBD_HandleTypeDef *pdev)
{
  USBD_CDC_HandleTypeDef   *hcdc = (USBD_CDC_HandleTypeDef *) pdev->pClassData;
 80033a0:	f8d0 22b8 	ldr.w	r2, [r0, #696]	; 0x2b8
{
 80033a4:	b510      	push	{r4, lr}

  /* Suspend or Resume USB Out process */
  if (pdev->pClassData != NULL)
 80033a6:	b182      	cbz	r2, 80033ca <USBD_CDC_ReceivePacket+0x2a>
  {
    if (pdev->dev_speed == USBD_SPEED_HIGH)
 80033a8:	7c04      	ldrb	r4, [r0, #16]
    {
      /* Prepare Out endpoint to receive next packet */
      USBD_LL_PrepareReceive(pdev,
 80033aa:	f8d2 2204 	ldr.w	r2, [r2, #516]	; 0x204
    if (pdev->dev_speed == USBD_SPEED_HIGH)
 80033ae:	b934      	cbnz	r4, 80033be <USBD_CDC_ReceivePacket+0x1e>
      USBD_LL_PrepareReceive(pdev,
 80033b0:	f44f 7300 	mov.w	r3, #512	; 0x200
 80033b4:	2101      	movs	r1, #1
 80033b6:	f000 fd6d 	bl	8003e94 <USBD_LL_PrepareReceive>
  }
  else
  {
    return USBD_FAIL;
  }
}
 80033ba:	4620      	mov	r0, r4
 80033bc:	bd10      	pop	{r4, pc}
      USBD_LL_PrepareReceive(pdev,
 80033be:	2340      	movs	r3, #64	; 0x40
 80033c0:	2101      	movs	r1, #1
 80033c2:	f000 fd67 	bl	8003e94 <USBD_LL_PrepareReceive>
    return USBD_OK;
 80033c6:	2400      	movs	r4, #0
 80033c8:	e7f7      	b.n	80033ba <USBD_CDC_ReceivePacket+0x1a>
    return USBD_FAIL;
 80033ca:	2402      	movs	r4, #2
 80033cc:	e7f5      	b.n	80033ba <USBD_CDC_ReceivePacket+0x1a>

080033ce <USBD_Init>:
* @param  id: Low level core index
* @retval None
*/
USBD_StatusTypeDef USBD_Init(USBD_HandleTypeDef *pdev,
                             USBD_DescriptorsTypeDef *pdesc, uint8_t id)
{
 80033ce:	b508      	push	{r3, lr}
  /* Check whether the USB Host handle is valid */
  if (pdev == NULL)
 80033d0:	b180      	cbz	r0, 80033f4 <USBD_Init+0x26>
#endif
    return USBD_FAIL;
  }

  /* Unlink previous class*/
  if (pdev->pClass != NULL)
 80033d2:	f8d0 32b4 	ldr.w	r3, [r0, #692]	; 0x2b4
 80033d6:	b113      	cbz	r3, 80033de <USBD_Init+0x10>
  {
    pdev->pClass = NULL;
 80033d8:	2300      	movs	r3, #0
 80033da:	f8c0 32b4 	str.w	r3, [r0, #692]	; 0x2b4
  }

  /* Assign USBD Descriptors */
  if (pdesc != NULL)
 80033de:	b109      	cbz	r1, 80033e4 <USBD_Init+0x16>
  {
    pdev->pDesc = pdesc;
 80033e0:	f8c0 12b0 	str.w	r1, [r0, #688]	; 0x2b0
  }

  /* Set Device initial State */
  pdev->dev_state = USBD_STATE_DEFAULT;
 80033e4:	2301      	movs	r3, #1
  pdev->id = id;
 80033e6:	7002      	strb	r2, [r0, #0]
  pdev->dev_state = USBD_STATE_DEFAULT;
 80033e8:	f880 329c 	strb.w	r3, [r0, #668]	; 0x29c
  /* Initialize low level driver */
  USBD_LL_Init(pdev);
 80033ec:	f000 fcbc 	bl	8003d68 <USBD_LL_Init>

  return USBD_OK;
 80033f0:	2000      	movs	r0, #0
}
 80033f2:	bd08      	pop	{r3, pc}
    return USBD_FAIL;
 80033f4:	2002      	movs	r0, #2
 80033f6:	e7fc      	b.n	80033f2 <USBD_Init+0x24>

080033f8 <USBD_RegisterClass>:
  * @retval USBD Status
  */
USBD_StatusTypeDef  USBD_RegisterClass(USBD_HandleTypeDef *pdev, USBD_ClassTypeDef *pclass)
{
  USBD_StatusTypeDef status = USBD_OK;
  if (pclass != NULL)
 80033f8:	b119      	cbz	r1, 8003402 <USBD_RegisterClass+0xa>
  {
    /* link the class to the USB Device handle */
    pdev->pClass = pclass;
 80033fa:	f8c0 12b4 	str.w	r1, [r0, #692]	; 0x2b4
    status = USBD_OK;
 80033fe:	2000      	movs	r0, #0
 8003400:	4770      	bx	lr
  else
  {
#if (USBD_DEBUG_LEVEL > 1U)
    USBD_ErrLog("Invalid Class handle");
#endif
    status = USBD_FAIL;
 8003402:	2002      	movs	r0, #2
  }

  return status;
}
 8003404:	4770      	bx	lr

08003406 <USBD_Start>:
  *         Start the USB Device Core.
  * @param  pdev: Device Handle
  * @retval USBD Status
  */
USBD_StatusTypeDef  USBD_Start(USBD_HandleTypeDef *pdev)
{
 8003406:	b508      	push	{r3, lr}
  /* Start the low level driver  */
  USBD_LL_Start(pdev);
 8003408:	f000 fcf0 	bl	8003dec <USBD_LL_Start>

  return USBD_OK;
}
 800340c:	2000      	movs	r0, #0
 800340e:	bd08      	pop	{r3, pc}

08003410 <USBD_SetClassConfig>:
* @param  cfgidx: configuration index
* @retval status
*/

USBD_StatusTypeDef USBD_SetClassConfig(USBD_HandleTypeDef  *pdev, uint8_t cfgidx)
{
 8003410:	b508      	push	{r3, lr}
  USBD_StatusTypeDef ret = USBD_FAIL;

  if (pdev->pClass != NULL)
 8003412:	f8d0 32b4 	ldr.w	r3, [r0, #692]	; 0x2b4
 8003416:	b90b      	cbnz	r3, 800341c <USBD_SetClassConfig+0xc>
  USBD_StatusTypeDef ret = USBD_FAIL;
 8003418:	2002      	movs	r0, #2
      ret = USBD_OK;
    }
  }

  return ret;
}
 800341a:	bd08      	pop	{r3, pc}
    if (pdev->pClass->Init(pdev, cfgidx) == 0U)
 800341c:	681b      	ldr	r3, [r3, #0]
 800341e:	4798      	blx	r3
 8003420:	2800      	cmp	r0, #0
 8003422:	d0fa      	beq.n	800341a <USBD_SetClassConfig+0xa>
 8003424:	e7f8      	b.n	8003418 <USBD_SetClassConfig+0x8>

08003426 <USBD_ClrClassConfig>:
* @param  pdev: device instance
* @param  cfgidx: configuration index
* @retval status: USBD_StatusTypeDef
*/
USBD_StatusTypeDef USBD_ClrClassConfig(USBD_HandleTypeDef  *pdev, uint8_t cfgidx)
{
 8003426:	b508      	push	{r3, lr}
  /* Clear configuration  and De-initialize the Class process*/
  pdev->pClass->DeInit(pdev, cfgidx);
 8003428:	f8d0 32b4 	ldr.w	r3, [r0, #692]	; 0x2b4
 800342c:	685b      	ldr	r3, [r3, #4]
 800342e:	4798      	blx	r3

  return USBD_OK;
}
 8003430:	2000      	movs	r0, #0
 8003432:	bd08      	pop	{r3, pc}

08003434 <USBD_LL_SetupStage>:
*         Handle the setup stage
* @param  pdev: device instance
* @retval status
*/
USBD_StatusTypeDef USBD_LL_SetupStage(USBD_HandleTypeDef *pdev, uint8_t *psetup)
{
 8003434:	b538      	push	{r3, r4, r5, lr}
  USBD_ParseSetupRequest(&pdev->request, psetup);
 8003436:	f500 752a 	add.w	r5, r0, #680	; 0x2a8
{
 800343a:	4604      	mov	r4, r0
  USBD_ParseSetupRequest(&pdev->request, psetup);
 800343c:	4628      	mov	r0, r5
 800343e:	f000 fae7 	bl	8003a10 <USBD_ParseSetupRequest>

  pdev->ep0_state = USBD_EP0_SETUP;
 8003442:	2301      	movs	r3, #1

  pdev->ep0_data_len = pdev->request.wLength;

  switch (pdev->request.bmRequest & 0x1FU)
 8003444:	f894 12a8 	ldrb.w	r1, [r4, #680]	; 0x2a8
  pdev->ep0_state = USBD_EP0_SETUP;
 8003448:	f8c4 3294 	str.w	r3, [r4, #660]	; 0x294
  pdev->ep0_data_len = pdev->request.wLength;
 800344c:	f8b4 32ae 	ldrh.w	r3, [r4, #686]	; 0x2ae
 8003450:	f8c4 3298 	str.w	r3, [r4, #664]	; 0x298
  switch (pdev->request.bmRequest & 0x1FU)
 8003454:	f001 031f 	and.w	r3, r1, #31
 8003458:	2b01      	cmp	r3, #1
 800345a:	d008      	beq.n	800346e <USBD_LL_SetupStage+0x3a>
 800345c:	2b02      	cmp	r3, #2
 800345e:	d00b      	beq.n	8003478 <USBD_LL_SetupStage+0x44>
 8003460:	b97b      	cbnz	r3, 8003482 <USBD_LL_SetupStage+0x4e>
  {
    case USB_REQ_RECIPIENT_DEVICE:
      USBD_StdDevReq(pdev, &pdev->request);
 8003462:	4629      	mov	r1, r5
 8003464:	4620      	mov	r0, r4
 8003466:	f000 f8fb 	bl	8003660 <USBD_StdDevReq>
      USBD_LL_StallEP(pdev, (pdev->request.bmRequest & 0x80U));
      break;
  }

  return USBD_OK;
}
 800346a:	2000      	movs	r0, #0
 800346c:	bd38      	pop	{r3, r4, r5, pc}
      USBD_StdItfReq(pdev, &pdev->request);
 800346e:	4629      	mov	r1, r5
 8003470:	4620      	mov	r0, r4
 8003472:	f000 fa1f 	bl	80038b4 <USBD_StdItfReq>
      break;
 8003476:	e7f8      	b.n	800346a <USBD_LL_SetupStage+0x36>
      USBD_StdEPReq(pdev, &pdev->request);
 8003478:	4629      	mov	r1, r5
 800347a:	4620      	mov	r0, r4
 800347c:	f000 fa3e 	bl	80038fc <USBD_StdEPReq>
      break;
 8003480:	e7f3      	b.n	800346a <USBD_LL_SetupStage+0x36>
      USBD_LL_StallEP(pdev, (pdev->request.bmRequest & 0x80U));
 8003482:	4620      	mov	r0, r4
 8003484:	f001 0180 	and.w	r1, r1, #128	; 0x80
 8003488:	f000 fcce 	bl	8003e28 <USBD_LL_StallEP>
      break;
 800348c:	e7ed      	b.n	800346a <USBD_LL_SetupStage+0x36>

0800348e <USBD_LL_DataOutStage>:
* @param  epnum: endpoint index
* @retval status
*/
USBD_StatusTypeDef USBD_LL_DataOutStage(USBD_HandleTypeDef *pdev,
                                        uint8_t epnum, uint8_t *pdata)
{
 800348e:	b5f8      	push	{r3, r4, r5, r6, r7, lr}
 8003490:	4604      	mov	r4, r0
 8003492:	4617      	mov	r7, r2
  USBD_EndpointTypeDef *pep;

  if (epnum == 0U)
 8003494:	460d      	mov	r5, r1
 8003496:	bb39      	cbnz	r1, 80034e8 <USBD_LL_DataOutStage+0x5a>
  {
    pep = &pdev->ep_out[0];

    if (pdev->ep0_state == USBD_EP0_DATA_OUT)
 8003498:	f8d0 3294 	ldr.w	r3, [r0, #660]	; 0x294
 800349c:	2b03      	cmp	r3, #3
 800349e:	d11c      	bne.n	80034da <USBD_LL_DataOutStage+0x4c>
    {
      if (pep->rem_length > pep->maxpacket)
 80034a0:	e9d0 6258 	ldrd	r6, r2, [r0, #352]	; 0x160
 80034a4:	4296      	cmp	r6, r2
 80034a6:	d90b      	bls.n	80034c0 <USBD_LL_DataOutStage+0x32>
      {
        pep->rem_length -= pep->maxpacket;
 80034a8:	1ab6      	subs	r6, r6, r2

        USBD_CtlContinueRx(pdev, pdata,
 80034aa:	42b2      	cmp	r2, r6
 80034ac:	4639      	mov	r1, r7
        pep->rem_length -= pep->maxpacket;
 80034ae:	f8c0 6160 	str.w	r6, [r0, #352]	; 0x160
        USBD_CtlContinueRx(pdev, pdata,
 80034b2:	bf8c      	ite	hi
 80034b4:	b2b2      	uxthhi	r2, r6
 80034b6:	b292      	uxthls	r2, r2
 80034b8:	f000 fb07 	bl	8003aca <USBD_CtlContinueRx>
    /* should never be in this condition */
    return USBD_FAIL;
  }

  return USBD_OK;
}
 80034bc:	4628      	mov	r0, r5
 80034be:	bdf8      	pop	{r3, r4, r5, r6, r7, pc}
        if ((pdev->pClass->EP0_RxReady != NULL) &&
 80034c0:	f8d0 32b4 	ldr.w	r3, [r0, #692]	; 0x2b4
 80034c4:	691b      	ldr	r3, [r3, #16]
 80034c6:	b123      	cbz	r3, 80034d2 <USBD_LL_DataOutStage+0x44>
 80034c8:	f890 229c 	ldrb.w	r2, [r0, #668]	; 0x29c
 80034cc:	2a03      	cmp	r2, #3
 80034ce:	d100      	bne.n	80034d2 <USBD_LL_DataOutStage+0x44>
          pdev->pClass->EP0_RxReady(pdev);
 80034d0:	4798      	blx	r3
        USBD_CtlSendStatus(pdev);
 80034d2:	4620      	mov	r0, r4
 80034d4:	f000 fb01 	bl	8003ada <USBD_CtlSendStatus>
 80034d8:	e7f0      	b.n	80034bc <USBD_LL_DataOutStage+0x2e>
      if (pdev->ep0_state == USBD_EP0_STATUS_OUT)
 80034da:	2b05      	cmp	r3, #5
 80034dc:	d1ee      	bne.n	80034bc <USBD_LL_DataOutStage+0x2e>
        pdev->ep0_state = USBD_EP0_IDLE;
 80034de:	f8c4 1294 	str.w	r1, [r4, #660]	; 0x294
        USBD_LL_StallEP(pdev, 0U);
 80034e2:	f000 fca1 	bl	8003e28 <USBD_LL_StallEP>
 80034e6:	e7e9      	b.n	80034bc <USBD_LL_DataOutStage+0x2e>
  else if ((pdev->pClass->DataOut != NULL) &&
 80034e8:	f8d0 32b4 	ldr.w	r3, [r0, #692]	; 0x2b4
 80034ec:	699b      	ldr	r3, [r3, #24]
 80034ee:	b133      	cbz	r3, 80034fe <USBD_LL_DataOutStage+0x70>
 80034f0:	f890 229c 	ldrb.w	r2, [r0, #668]	; 0x29c
 80034f4:	2a03      	cmp	r2, #3
 80034f6:	d102      	bne.n	80034fe <USBD_LL_DataOutStage+0x70>
    pdev->pClass->DataOut(pdev, epnum);
 80034f8:	4798      	blx	r3
  return USBD_OK;
 80034fa:	2500      	movs	r5, #0
    pdev->pClass->DataOut(pdev, epnum);
 80034fc:	e7de      	b.n	80034bc <USBD_LL_DataOutStage+0x2e>
    return USBD_FAIL;
 80034fe:	2502      	movs	r5, #2
 8003500:	e7dc      	b.n	80034bc <USBD_LL_DataOutStage+0x2e>

08003502 <USBD_LL_DataInStage>:
* @param  epnum: endpoint index
* @retval status
*/
USBD_StatusTypeDef USBD_LL_DataInStage(USBD_HandleTypeDef *pdev,
                                       uint8_t epnum, uint8_t *pdata)
{
 8003502:	b5f8      	push	{r3, r4, r5, r6, r7, lr}
 8003504:	4604      	mov	r4, r0
 8003506:	4617      	mov	r7, r2
  USBD_EndpointTypeDef *pep;

  if (epnum == 0U)
 8003508:	460d      	mov	r5, r1
 800350a:	2900      	cmp	r1, #0
 800350c:	d147      	bne.n	800359e <USBD_LL_DataInStage+0x9c>
  {
    pep = &pdev->ep_in[0];

    if (pdev->ep0_state == USBD_EP0_DATA_IN)
 800350e:	f8d0 3294 	ldr.w	r3, [r0, #660]	; 0x294
 8003512:	2b02      	cmp	r3, #2
 8003514:	d13c      	bne.n	8003590 <USBD_LL_DataInStage+0x8e>
    {
      if (pep->rem_length > pep->maxpacket)
 8003516:	e9d0 6308 	ldrd	r6, r3, [r0, #32]
 800351a:	429e      	cmp	r6, r3
 800351c:	d914      	bls.n	8003548 <USBD_LL_DataInStage+0x46>
      {
        pep->rem_length -= pep->maxpacket;
 800351e:	1af3      	subs	r3, r6, r3

        USBD_CtlContinueSendData(pdev, pdata, (uint16_t)pep->rem_length);
 8003520:	4639      	mov	r1, r7
        pep->rem_length -= pep->maxpacket;
 8003522:	6203      	str	r3, [r0, #32]
        USBD_CtlContinueSendData(pdev, pdata, (uint16_t)pep->rem_length);
 8003524:	b29a      	uxth	r2, r3
 8003526:	f000 fabb 	bl	8003aa0 <USBD_CtlContinueSendData>
        {
          USBD_CtlContinueSendData(pdev, NULL, 0U);
          pdev->ep0_data_len = 0U;

          /* Prepare endpoint for premature end of transfer */
          USBD_LL_PrepareReceive(pdev, 0U, NULL, 0U);
 800352a:	462b      	mov	r3, r5
 800352c:	462a      	mov	r2, r5
 800352e:	4629      	mov	r1, r5
 8003530:	4620      	mov	r0, r4
 8003532:	f000 fcaf 	bl	8003e94 <USBD_LL_PrepareReceive>
      {
        USBD_LL_StallEP(pdev, 0x80U);
      }
    }

    if (pdev->dev_test_mode == 1U)
 8003536:	f894 32a0 	ldrb.w	r3, [r4, #672]	; 0x2a0
 800353a:	2b01      	cmp	r3, #1
 800353c:	d102      	bne.n	8003544 <USBD_LL_DataInStage+0x42>
    {
      USBD_RunTestMode(pdev);
      pdev->dev_test_mode = 0U;
 800353e:	2300      	movs	r3, #0
 8003540:	f884 32a0 	strb.w	r3, [r4, #672]	; 0x2a0
    /* should never be in this condition */
    return USBD_FAIL;
  }

  return USBD_OK;
}
 8003544:	4628      	mov	r0, r5
 8003546:	bdf8      	pop	{r3, r4, r5, r6, r7, pc}
        if ((pep->total_length % pep->maxpacket == 0U) &&
 8003548:	69c2      	ldr	r2, [r0, #28]
 800354a:	fbb2 f6f3 	udiv	r6, r2, r3
 800354e:	fb03 2616 	mls	r6, r3, r6, r2
 8003552:	b95e      	cbnz	r6, 800356c <USBD_LL_DataInStage+0x6a>
 8003554:	4293      	cmp	r3, r2
 8003556:	d809      	bhi.n	800356c <USBD_LL_DataInStage+0x6a>
            (pep->total_length >= pep->maxpacket) &&
 8003558:	f8d0 3298 	ldr.w	r3, [r0, #664]	; 0x298
 800355c:	429a      	cmp	r2, r3
 800355e:	d205      	bcs.n	800356c <USBD_LL_DataInStage+0x6a>
          USBD_CtlContinueSendData(pdev, NULL, 0U);
 8003560:	460a      	mov	r2, r1
 8003562:	f000 fa9d 	bl	8003aa0 <USBD_CtlContinueSendData>
          pdev->ep0_data_len = 0U;
 8003566:	f8c4 5298 	str.w	r5, [r4, #664]	; 0x298
 800356a:	e7de      	b.n	800352a <USBD_LL_DataInStage+0x28>
          if ((pdev->pClass->EP0_TxSent != NULL) &&
 800356c:	f8d4 32b4 	ldr.w	r3, [r4, #692]	; 0x2b4
 8003570:	68db      	ldr	r3, [r3, #12]
 8003572:	b12b      	cbz	r3, 8003580 <USBD_LL_DataInStage+0x7e>
 8003574:	f894 229c 	ldrb.w	r2, [r4, #668]	; 0x29c
 8003578:	2a03      	cmp	r2, #3
 800357a:	d101      	bne.n	8003580 <USBD_LL_DataInStage+0x7e>
            pdev->pClass->EP0_TxSent(pdev);
 800357c:	4620      	mov	r0, r4
 800357e:	4798      	blx	r3
          USBD_LL_StallEP(pdev, 0x80U);
 8003580:	2180      	movs	r1, #128	; 0x80
 8003582:	4620      	mov	r0, r4
 8003584:	f000 fc50 	bl	8003e28 <USBD_LL_StallEP>
          USBD_CtlReceiveStatus(pdev);
 8003588:	4620      	mov	r0, r4
 800358a:	f000 fab1 	bl	8003af0 <USBD_CtlReceiveStatus>
 800358e:	e7d2      	b.n	8003536 <USBD_LL_DataInStage+0x34>
      if ((pdev->ep0_state == USBD_EP0_STATUS_IN) ||
 8003590:	f033 0304 	bics.w	r3, r3, #4
 8003594:	d1cf      	bne.n	8003536 <USBD_LL_DataInStage+0x34>
        USBD_LL_StallEP(pdev, 0x80U);
 8003596:	2180      	movs	r1, #128	; 0x80
 8003598:	f000 fc46 	bl	8003e28 <USBD_LL_StallEP>
 800359c:	e7cb      	b.n	8003536 <USBD_LL_DataInStage+0x34>
  else if ((pdev->pClass->DataIn != NULL) &&
 800359e:	f8d0 32b4 	ldr.w	r3, [r0, #692]	; 0x2b4
 80035a2:	695b      	ldr	r3, [r3, #20]
 80035a4:	b133      	cbz	r3, 80035b4 <USBD_LL_DataInStage+0xb2>
 80035a6:	f890 229c 	ldrb.w	r2, [r0, #668]	; 0x29c
 80035aa:	2a03      	cmp	r2, #3
 80035ac:	d102      	bne.n	80035b4 <USBD_LL_DataInStage+0xb2>
    pdev->pClass->DataIn(pdev, epnum);
 80035ae:	4798      	blx	r3
  return USBD_OK;
 80035b0:	2500      	movs	r5, #0
    pdev->pClass->DataIn(pdev, epnum);
 80035b2:	e7c7      	b.n	8003544 <USBD_LL_DataInStage+0x42>
    return USBD_FAIL;
 80035b4:	2502      	movs	r5, #2
 80035b6:	e7c5      	b.n	8003544 <USBD_LL_DataInStage+0x42>

080035b8 <USBD_LL_Reset>:
*/

USBD_StatusTypeDef USBD_LL_Reset(USBD_HandleTypeDef *pdev)
{
  /* Open EP0 OUT */
  USBD_LL_OpenEP(pdev, 0x00U, USBD_EP_TYPE_CTRL, USB_MAX_EP0_SIZE);
 80035b8:	2200      	movs	r2, #0
{
 80035ba:	b570      	push	{r4, r5, r6, lr}
 80035bc:	4604      	mov	r4, r0
  pdev->ep_out[0x00U & 0xFU].is_used = 1U;
 80035be:	2501      	movs	r5, #1

  pdev->ep_out[0].maxpacket = USB_MAX_EP0_SIZE;
 80035c0:	2640      	movs	r6, #64	; 0x40
  USBD_LL_OpenEP(pdev, 0x00U, USBD_EP_TYPE_CTRL, USB_MAX_EP0_SIZE);
 80035c2:	4611      	mov	r1, r2
 80035c4:	2340      	movs	r3, #64	; 0x40
 80035c6:	f000 fc1a 	bl	8003dfe <USBD_LL_OpenEP>

  /* Open EP0 IN */
  USBD_LL_OpenEP(pdev, 0x80U, USBD_EP_TYPE_CTRL, USB_MAX_EP0_SIZE);
 80035ca:	4633      	mov	r3, r6
 80035cc:	2180      	movs	r1, #128	; 0x80
 80035ce:	2200      	movs	r2, #0
 80035d0:	4620      	mov	r0, r4
  pdev->ep_out[0x00U & 0xFU].is_used = 1U;
 80035d2:	f8c4 5158 	str.w	r5, [r4, #344]	; 0x158
  pdev->ep_out[0].maxpacket = USB_MAX_EP0_SIZE;
 80035d6:	f8c4 6164 	str.w	r6, [r4, #356]	; 0x164
  USBD_LL_OpenEP(pdev, 0x80U, USBD_EP_TYPE_CTRL, USB_MAX_EP0_SIZE);
 80035da:	f000 fc10 	bl	8003dfe <USBD_LL_OpenEP>

  pdev->ep_in[0].maxpacket = USB_MAX_EP0_SIZE;

  /* Upon Reset call user call back */
  pdev->dev_state = USBD_STATE_DEFAULT;
  pdev->ep0_state = USBD_EP0_IDLE;
 80035de:	2100      	movs	r1, #0
  pdev->dev_config = 0U;
  pdev->dev_remote_wakeup = 0U;

  if (pdev->pClassData)
 80035e0:	f8d4 32b8 	ldr.w	r3, [r4, #696]	; 0x2b8
  pdev->ep_in[0x80U & 0xFU].is_used = 1U;
 80035e4:	61a5      	str	r5, [r4, #24]
  pdev->ep_in[0].maxpacket = USB_MAX_EP0_SIZE;
 80035e6:	6266      	str	r6, [r4, #36]	; 0x24
  pdev->dev_state = USBD_STATE_DEFAULT;
 80035e8:	f884 529c 	strb.w	r5, [r4, #668]	; 0x29c
  pdev->ep0_state = USBD_EP0_IDLE;
 80035ec:	f8c4 1294 	str.w	r1, [r4, #660]	; 0x294
  pdev->dev_config = 0U;
 80035f0:	6061      	str	r1, [r4, #4]
  pdev->dev_remote_wakeup = 0U;
 80035f2:	f8c4 12a4 	str.w	r1, [r4, #676]	; 0x2a4
  if (pdev->pClassData)
 80035f6:	b123      	cbz	r3, 8003602 <USBD_LL_Reset+0x4a>
  {
    pdev->pClass->DeInit(pdev, (uint8_t)pdev->dev_config);
 80035f8:	f8d4 32b4 	ldr.w	r3, [r4, #692]	; 0x2b4
 80035fc:	4620      	mov	r0, r4
 80035fe:	685b      	ldr	r3, [r3, #4]
 8003600:	4798      	blx	r3
  }

  return USBD_OK;
}
 8003602:	2000      	movs	r0, #0
 8003604:	bd70      	pop	{r4, r5, r6, pc}

08003606 <USBD_LL_SetSpeed>:
* @retval status
*/
USBD_StatusTypeDef USBD_LL_SetSpeed(USBD_HandleTypeDef *pdev,
                                    USBD_SpeedTypeDef speed)
{
  pdev->dev_speed = speed;
 8003606:	7401      	strb	r1, [r0, #16]

  return USBD_OK;
}
 8003608:	2000      	movs	r0, #0
 800360a:	4770      	bx	lr

0800360c <USBD_LL_Suspend>:
* @retval status
*/

USBD_StatusTypeDef USBD_LL_Suspend(USBD_HandleTypeDef *pdev)
{
  pdev->dev_old_state =  pdev->dev_state;
 800360c:	f890 329c 	ldrb.w	r3, [r0, #668]	; 0x29c
 8003610:	f880 329d 	strb.w	r3, [r0, #669]	; 0x29d
  pdev->dev_state  = USBD_STATE_SUSPENDED;
 8003614:	2304      	movs	r3, #4
 8003616:	f880 329c 	strb.w	r3, [r0, #668]	; 0x29c

  return USBD_OK;
}
 800361a:	2000      	movs	r0, #0
 800361c:	4770      	bx	lr

0800361e <USBD_LL_Resume>:
* @retval status
*/

USBD_StatusTypeDef USBD_LL_Resume(USBD_HandleTypeDef *pdev)
{
  if (pdev->dev_state == USBD_STATE_SUSPENDED)
 800361e:	f890 329c 	ldrb.w	r3, [r0, #668]	; 0x29c
 8003622:	2b04      	cmp	r3, #4
  {
    pdev->dev_state = pdev->dev_old_state;
 8003624:	bf04      	itt	eq
 8003626:	f890 329d 	ldrbeq.w	r3, [r0, #669]	; 0x29d
 800362a:	f880 329c 	strbeq.w	r3, [r0, #668]	; 0x29c
  }

  return USBD_OK;
}
 800362e:	2000      	movs	r0, #0
 8003630:	4770      	bx	lr

08003632 <USBD_LL_SOF>:
* @param  pdev: device instance
* @retval status
*/

USBD_StatusTypeDef USBD_LL_SOF(USBD_HandleTypeDef *pdev)
{
 8003632:	b508      	push	{r3, lr}
  if (pdev->dev_state == USBD_STATE_CONFIGURED)
 8003634:	f890 229c 	ldrb.w	r2, [r0, #668]	; 0x29c
 8003638:	2a03      	cmp	r2, #3
 800363a:	d104      	bne.n	8003646 <USBD_LL_SOF+0x14>
  {
    if (pdev->pClass->SOF != NULL)
 800363c:	f8d0 32b4 	ldr.w	r3, [r0, #692]	; 0x2b4
 8003640:	69db      	ldr	r3, [r3, #28]
 8003642:	b103      	cbz	r3, 8003646 <USBD_LL_SOF+0x14>
    {
      pdev->pClass->SOF(pdev);
 8003644:	4798      	blx	r3
    }
  }

  return USBD_OK;
}
 8003646:	2000      	movs	r0, #0
 8003648:	bd08      	pop	{r3, pc}

0800364a <USBD_CtlError.constprop.0>:
* @param  pdev: device instance
* @param  req: usb request
* @retval None
*/

void USBD_CtlError(USBD_HandleTypeDef *pdev,
 800364a:	b510      	push	{r4, lr}
 800364c:	4604      	mov	r4, r0
                   USBD_SetupReqTypedef *req)
{
  USBD_LL_StallEP(pdev, 0x80U);
 800364e:	2180      	movs	r1, #128	; 0x80
 8003650:	f000 fbea 	bl	8003e28 <USBD_LL_StallEP>
  USBD_LL_StallEP(pdev, 0U);
 8003654:	4620      	mov	r0, r4
}
 8003656:	e8bd 4010 	ldmia.w	sp!, {r4, lr}
  USBD_LL_StallEP(pdev, 0U);
 800365a:	2100      	movs	r1, #0
 800365c:	f000 bbe4 	b.w	8003e28 <USBD_LL_StallEP>

08003660 <USBD_StdDevReq>:
{
 8003660:	b537      	push	{r0, r1, r2, r4, r5, lr}
 8003662:	780b      	ldrb	r3, [r1, #0]
 8003664:	4604      	mov	r4, r0
  switch (req->bmRequest & USB_REQ_TYPE_MASK)
 8003666:	f003 0360 	and.w	r3, r3, #96	; 0x60
 800366a:	2b20      	cmp	r3, #32
{
 800366c:	460d      	mov	r5, r1
  switch (req->bmRequest & USB_REQ_TYPE_MASK)
 800366e:	d012      	beq.n	8003696 <USBD_StdDevReq+0x36>
 8003670:	2b40      	cmp	r3, #64	; 0x40
 8003672:	d010      	beq.n	8003696 <USBD_StdDevReq+0x36>
 8003674:	2b00      	cmp	r3, #0
 8003676:	d151      	bne.n	800371c <USBD_StdDevReq+0xbc>
      switch (req->bRequest)
 8003678:	784b      	ldrb	r3, [r1, #1]
 800367a:	2b09      	cmp	r3, #9
 800367c:	d84e      	bhi.n	800371c <USBD_StdDevReq+0xbc>
 800367e:	e8df f013 	tbh	[pc, r3, lsl #1]
 8003682:	00ee      	.short	0x00ee
 8003684:	004d010a 	.word	0x004d010a
 8003688:	004d0103 	.word	0x004d0103
 800368c:	00130087 	.word	0x00130087
 8003690:	00d6004d 	.word	0x00d6004d
 8003694:	00a3      	.short	0x00a3
      pdev->pClass->Setup(pdev, req);
 8003696:	f8d4 32b4 	ldr.w	r3, [r4, #692]	; 0x2b4
 800369a:	4629      	mov	r1, r5
 800369c:	4620      	mov	r0, r4
 800369e:	689b      	ldr	r3, [r3, #8]
 80036a0:	4798      	blx	r3
}
 80036a2:	2000      	movs	r0, #0
 80036a4:	b003      	add	sp, #12
 80036a6:	bd30      	pop	{r4, r5, pc}
  uint16_t len = 0U;
 80036a8:	2300      	movs	r3, #0
 80036aa:	f8ad 3006 	strh.w	r3, [sp, #6]
  switch (req->wValue >> 8)
 80036ae:	884b      	ldrh	r3, [r1, #2]
 80036b0:	0a1a      	lsrs	r2, r3, #8
 80036b2:	3a01      	subs	r2, #1
 80036b4:	2a06      	cmp	r2, #6
 80036b6:	d831      	bhi.n	800371c <USBD_StdDevReq+0xbc>
 80036b8:	e8df f002 	tbb	[pc, r2]
 80036bc:	30231604 	.word	0x30231604
 80036c0:	4830      	.short	0x4830
 80036c2:	52          	.byte	0x52
 80036c3:	00          	.byte	0x00
      pbuf = pdev->pDesc->GetDeviceDescriptor(pdev->dev_speed, &len);
 80036c4:	f8d0 32b0 	ldr.w	r3, [r0, #688]	; 0x2b0
 80036c8:	681b      	ldr	r3, [r3, #0]
            pbuf = pdev->pDesc->GetInterfaceStrDescriptor(pdev->dev_speed, &len);
 80036ca:	7c20      	ldrb	r0, [r4, #16]
 80036cc:	f10d 0106 	add.w	r1, sp, #6
 80036d0:	4798      	blx	r3
    if ((len != 0U) && (req->wLength != 0U))
 80036d2:	f8bd 2006 	ldrh.w	r2, [sp, #6]
 80036d6:	2a00      	cmp	r2, #0
 80036d8:	d056      	beq.n	8003788 <USBD_StdDevReq+0x128>
 80036da:	88eb      	ldrh	r3, [r5, #6]
 80036dc:	2b00      	cmp	r3, #0
 80036de:	d14a      	bne.n	8003776 <USBD_StdDevReq+0x116>
        USBD_CtlSendStatus(pdev);
 80036e0:	4620      	mov	r0, r4
 80036e2:	f000 f9fa 	bl	8003ada <USBD_CtlSendStatus>
 80036e6:	e7dc      	b.n	80036a2 <USBD_StdDevReq+0x42>
      if (pdev->dev_speed == USBD_SPEED_HIGH)
 80036e8:	7c02      	ldrb	r2, [r0, #16]
      pdev->pClass->Setup(pdev, req);
 80036ea:	f8d0 32b4 	ldr.w	r3, [r0, #692]	; 0x2b4
      if (pdev->dev_speed == USBD_SPEED_HIGH)
 80036ee:	b932      	cbnz	r2, 80036fe <USBD_StdDevReq+0x9e>
        pbuf = pdev->pClass->GetHSConfigDescriptor(&len);
 80036f0:	6a9b      	ldr	r3, [r3, #40]	; 0x28
        pbuf = pdev->pClass->GetFSConfigDescriptor(&len);
 80036f2:	f10d 0006 	add.w	r0, sp, #6
 80036f6:	4798      	blx	r3
        pbuf[1] = USB_DESC_TYPE_CONFIGURATION;
 80036f8:	2302      	movs	r3, #2
        pbuf[1] = USB_DESC_TYPE_OTHER_SPEED_CONFIGURATION;
 80036fa:	7043      	strb	r3, [r0, #1]
  if (err != 0U)
 80036fc:	e7e9      	b.n	80036d2 <USBD_StdDevReq+0x72>
        pbuf = pdev->pClass->GetFSConfigDescriptor(&len);
 80036fe:	6adb      	ldr	r3, [r3, #44]	; 0x2c
 8003700:	e7f7      	b.n	80036f2 <USBD_StdDevReq+0x92>
      switch ((uint8_t)(req->wValue))
 8003702:	b2db      	uxtb	r3, r3
 8003704:	2b05      	cmp	r3, #5
 8003706:	d809      	bhi.n	800371c <USBD_StdDevReq+0xbc>
 8003708:	e8df f003 	tbb	[pc, r3]
 800370c:	14100c03 	.word	0x14100c03
 8003710:	1c18      	.short	0x1c18
          if (pdev->pDesc->GetLangIDStrDescriptor != NULL)
 8003712:	f8d0 32b0 	ldr.w	r3, [r0, #688]	; 0x2b0
 8003716:	685b      	ldr	r3, [r3, #4]
          if (pdev->pDesc->GetInterfaceStrDescriptor != NULL)
 8003718:	2b00      	cmp	r3, #0
 800371a:	d1d6      	bne.n	80036ca <USBD_StdDevReq+0x6a>
        USBD_CtlError(pdev, req);
 800371c:	4620      	mov	r0, r4
 800371e:	f7ff ff94 	bl	800364a <USBD_CtlError.constprop.0>
        break;
 8003722:	e7be      	b.n	80036a2 <USBD_StdDevReq+0x42>
          if (pdev->pDesc->GetManufacturerStrDescriptor != NULL)
 8003724:	f8d0 32b0 	ldr.w	r3, [r0, #688]	; 0x2b0
 8003728:	689b      	ldr	r3, [r3, #8]
 800372a:	e7f5      	b.n	8003718 <USBD_StdDevReq+0xb8>
          if (pdev->pDesc->GetProductStrDescriptor != NULL)
 800372c:	f8d0 32b0 	ldr.w	r3, [r0, #688]	; 0x2b0
 8003730:	68db      	ldr	r3, [r3, #12]
 8003732:	e7f1      	b.n	8003718 <USBD_StdDevReq+0xb8>
          if (pdev->pDesc->GetSerialStrDescriptor != NULL)
 8003734:	f8d0 32b0 	ldr.w	r3, [r0, #688]	; 0x2b0
 8003738:	691b      	ldr	r3, [r3, #16]
 800373a:	e7ed      	b.n	8003718 <USBD_StdDevReq+0xb8>
          if (pdev->pDesc->GetConfigurationStrDescriptor != NULL)
 800373c:	f8d0 32b0 	ldr.w	r3, [r0, #688]	; 0x2b0
 8003740:	695b      	ldr	r3, [r3, #20]
 8003742:	e7e9      	b.n	8003718 <USBD_StdDevReq+0xb8>
          if (pdev->pDesc->GetInterfaceStrDescriptor != NULL)
 8003744:	f8d0 32b0 	ldr.w	r3, [r0, #688]	; 0x2b0
 8003748:	699b      	ldr	r3, [r3, #24]
 800374a:	e7e5      	b.n	8003718 <USBD_StdDevReq+0xb8>
      if (pdev->dev_speed == USBD_SPEED_HIGH)
 800374c:	7c03      	ldrb	r3, [r0, #16]
 800374e:	2b00      	cmp	r3, #0
 8003750:	d1e4      	bne.n	800371c <USBD_StdDevReq+0xbc>
        pbuf = pdev->pClass->GetDeviceQualifierDescriptor(&len);
 8003752:	f8d0 32b4 	ldr.w	r3, [r0, #692]	; 0x2b4
 8003756:	f10d 0006 	add.w	r0, sp, #6
 800375a:	6b5b      	ldr	r3, [r3, #52]	; 0x34
 800375c:	4798      	blx	r3
 800375e:	e7b8      	b.n	80036d2 <USBD_StdDevReq+0x72>
      if (pdev->dev_speed == USBD_SPEED_HIGH)
 8003760:	7c03      	ldrb	r3, [r0, #16]
 8003762:	2b00      	cmp	r3, #0
 8003764:	d1da      	bne.n	800371c <USBD_StdDevReq+0xbc>
        pbuf = pdev->pClass->GetOtherSpeedConfigDescriptor(&len);
 8003766:	f8d0 32b4 	ldr.w	r3, [r0, #692]	; 0x2b4
 800376a:	f10d 0006 	add.w	r0, sp, #6
 800376e:	6b1b      	ldr	r3, [r3, #48]	; 0x30
 8003770:	4798      	blx	r3
        pbuf[1] = USB_DESC_TYPE_OTHER_SPEED_CONFIGURATION;
 8003772:	2307      	movs	r3, #7
 8003774:	e7c1      	b.n	80036fa <USBD_StdDevReq+0x9a>
      len = MIN(len, req->wLength);
 8003776:	429a      	cmp	r2, r3
 8003778:	bf28      	it	cs
 800377a:	461a      	movcs	r2, r3
      (void)USBD_CtlSendData(pdev, pbuf, len);
 800377c:	4601      	mov	r1, r0
 800377e:	4620      	mov	r0, r4
      len = MIN(len, req->wLength);
 8003780:	f8ad 2006 	strh.w	r2, [sp, #6]
      (void)USBD_CtlSendData(pdev, pbuf, len);
 8003784:	f000 f97f 	bl	8003a86 <USBD_CtlSendData>
    if (req->wLength == 0U)
 8003788:	88eb      	ldrh	r3, [r5, #6]
 800378a:	2b00      	cmp	r3, #0
 800378c:	d189      	bne.n	80036a2 <USBD_StdDevReq+0x42>
 800378e:	e7a7      	b.n	80036e0 <USBD_StdDevReq+0x80>
  if ((req->wIndex == 0U) && (req->wLength == 0U) && (req->wValue < 128U))
 8003790:	888b      	ldrh	r3, [r1, #4]
 8003792:	2b00      	cmp	r3, #0
 8003794:	d1c2      	bne.n	800371c <USBD_StdDevReq+0xbc>
 8003796:	88cb      	ldrh	r3, [r1, #6]
 8003798:	2b00      	cmp	r3, #0
 800379a:	d1bf      	bne.n	800371c <USBD_StdDevReq+0xbc>
 800379c:	884d      	ldrh	r5, [r1, #2]
 800379e:	2d7f      	cmp	r5, #127	; 0x7f
 80037a0:	d8bc      	bhi.n	800371c <USBD_StdDevReq+0xbc>
    if (pdev->dev_state == USBD_STATE_CONFIGURED)
 80037a2:	f890 329c 	ldrb.w	r3, [r0, #668]	; 0x29c
 80037a6:	2b03      	cmp	r3, #3
 80037a8:	d0b8      	beq.n	800371c <USBD_StdDevReq+0xbc>
    dev_addr = (uint8_t)(req->wValue) & 0x7FU;
 80037aa:	b2e9      	uxtb	r1, r5
      pdev->dev_address = dev_addr;
 80037ac:	f880 129e 	strb.w	r1, [r0, #670]	; 0x29e
      USBD_LL_SetUSBAddress(pdev, dev_addr);
 80037b0:	f000 fb5e 	bl	8003e70 <USBD_LL_SetUSBAddress>
      USBD_CtlSendStatus(pdev);
 80037b4:	4620      	mov	r0, r4
 80037b6:	f000 f990 	bl	8003ada <USBD_CtlSendStatus>
      if (dev_addr != 0U)
 80037ba:	b11d      	cbz	r5, 80037c4 <USBD_StdDevReq+0x164>
        pdev->dev_state = USBD_STATE_ADDRESSED;
 80037bc:	2302      	movs	r3, #2
        pdev->dev_state = USBD_STATE_DEFAULT;
 80037be:	f884 329c 	strb.w	r3, [r4, #668]	; 0x29c
 80037c2:	e76e      	b.n	80036a2 <USBD_StdDevReq+0x42>
 80037c4:	2301      	movs	r3, #1
 80037c6:	e7fa      	b.n	80037be <USBD_StdDevReq+0x15e>
  cfgidx = (uint8_t)(req->wValue);
 80037c8:	7889      	ldrb	r1, [r1, #2]
 80037ca:	4d39      	ldr	r5, [pc, #228]	; (80038b0 <USBD_StdDevReq+0x250>)
  if (cfgidx > USBD_MAX_NUM_CONFIGURATION)
 80037cc:	2901      	cmp	r1, #1
  cfgidx = (uint8_t)(req->wValue);
 80037ce:	7029      	strb	r1, [r5, #0]
  if (cfgidx > USBD_MAX_NUM_CONFIGURATION)
 80037d0:	d8a4      	bhi.n	800371c <USBD_StdDevReq+0xbc>
    switch (pdev->dev_state)
 80037d2:	f890 329c 	ldrb.w	r3, [r0, #668]	; 0x29c
 80037d6:	2b02      	cmp	r3, #2
 80037d8:	d008      	beq.n	80037ec <USBD_StdDevReq+0x18c>
 80037da:	2b03      	cmp	r3, #3
 80037dc:	d015      	beq.n	800380a <USBD_StdDevReq+0x1aa>
        USBD_CtlError(pdev, req);
 80037de:	f7ff ff34 	bl	800364a <USBD_CtlError.constprop.0>
        USBD_ClrClassConfig(pdev, cfgidx);
 80037e2:	4620      	mov	r0, r4
 80037e4:	7829      	ldrb	r1, [r5, #0]
 80037e6:	f7ff fe1e 	bl	8003426 <USBD_ClrClassConfig>
        break;
 80037ea:	e75a      	b.n	80036a2 <USBD_StdDevReq+0x42>
        if (cfgidx)
 80037ec:	2900      	cmp	r1, #0
 80037ee:	f43f af77 	beq.w	80036e0 <USBD_StdDevReq+0x80>
          pdev->dev_config = cfgidx;
 80037f2:	2101      	movs	r1, #1
          pdev->dev_state = USBD_STATE_CONFIGURED;
 80037f4:	2303      	movs	r3, #3
          pdev->dev_config = cfgidx;
 80037f6:	6041      	str	r1, [r0, #4]
          pdev->dev_state = USBD_STATE_CONFIGURED;
 80037f8:	f880 329c 	strb.w	r3, [r0, #668]	; 0x29c
          if (USBD_SetClassConfig(pdev, cfgidx) == USBD_FAIL)
 80037fc:	4620      	mov	r0, r4
 80037fe:	f7ff fe07 	bl	8003410 <USBD_SetClassConfig>
 8003802:	2802      	cmp	r0, #2
 8003804:	f47f af6c 	bne.w	80036e0 <USBD_StdDevReq+0x80>
 8003808:	e788      	b.n	800371c <USBD_StdDevReq+0xbc>
        if (cfgidx == 0U)
 800380a:	b931      	cbnz	r1, 800381a <USBD_StdDevReq+0x1ba>
          pdev->dev_state = USBD_STATE_ADDRESSED;
 800380c:	2302      	movs	r3, #2
          pdev->dev_config = cfgidx;
 800380e:	6041      	str	r1, [r0, #4]
          pdev->dev_state = USBD_STATE_ADDRESSED;
 8003810:	f880 329c 	strb.w	r3, [r0, #668]	; 0x29c
          USBD_ClrClassConfig(pdev, cfgidx);
 8003814:	f7ff fe07 	bl	8003426 <USBD_ClrClassConfig>
          USBD_CtlSendStatus(pdev);
 8003818:	e762      	b.n	80036e0 <USBD_StdDevReq+0x80>
        else if (cfgidx != pdev->dev_config)
 800381a:	6841      	ldr	r1, [r0, #4]
 800381c:	2901      	cmp	r1, #1
 800381e:	f43f af5f 	beq.w	80036e0 <USBD_StdDevReq+0x80>
          USBD_ClrClassConfig(pdev, (uint8_t)pdev->dev_config);
 8003822:	b2c9      	uxtb	r1, r1
 8003824:	f7ff fdff 	bl	8003426 <USBD_ClrClassConfig>
          pdev->dev_config = cfgidx;
 8003828:	7829      	ldrb	r1, [r5, #0]
 800382a:	6061      	str	r1, [r4, #4]
 800382c:	e7e6      	b.n	80037fc <USBD_StdDevReq+0x19c>
  if (req->wLength != 1U)
 800382e:	88ca      	ldrh	r2, [r1, #6]
 8003830:	2a01      	cmp	r2, #1
 8003832:	f47f af73 	bne.w	800371c <USBD_StdDevReq+0xbc>
    switch (pdev->dev_state)
 8003836:	f890 329c 	ldrb.w	r3, [r0, #668]	; 0x29c
 800383a:	2b02      	cmp	r3, #2
 800383c:	d80a      	bhi.n	8003854 <USBD_StdDevReq+0x1f4>
 800383e:	2b00      	cmp	r3, #0
 8003840:	f43f af6c 	beq.w	800371c <USBD_StdDevReq+0xbc>
        pdev->dev_default_config = 0U;
 8003844:	4601      	mov	r1, r0
 8003846:	2300      	movs	r3, #0
 8003848:	f841 3f08 	str.w	r3, [r1, #8]!
      USBD_CtlSendData(pdev, (uint8_t *)(void *)&pdev->dev_config_status, 2U);
 800384c:	4620      	mov	r0, r4
 800384e:	f000 f91a 	bl	8003a86 <USBD_CtlSendData>
      break;
 8003852:	e726      	b.n	80036a2 <USBD_StdDevReq+0x42>
    switch (pdev->dev_state)
 8003854:	2b03      	cmp	r3, #3
 8003856:	f47f af61 	bne.w	800371c <USBD_StdDevReq+0xbc>
        USBD_CtlSendData(pdev, (uint8_t *)(void *)&pdev->dev_config, 1U);
 800385a:	1d01      	adds	r1, r0, #4
 800385c:	e7f6      	b.n	800384c <USBD_StdDevReq+0x1ec>
  switch (pdev->dev_state)
 800385e:	f890 329c 	ldrb.w	r3, [r0, #668]	; 0x29c
 8003862:	3b01      	subs	r3, #1
 8003864:	2b02      	cmp	r3, #2
 8003866:	f63f af59 	bhi.w	800371c <USBD_StdDevReq+0xbc>
      if (req->wLength != 0x2U)
 800386a:	88cb      	ldrh	r3, [r1, #6]
 800386c:	2b02      	cmp	r3, #2
 800386e:	f47f af55 	bne.w	800371c <USBD_StdDevReq+0xbc>
      pdev->dev_config_status = USB_CONFIG_SELF_POWERED;
 8003872:	2301      	movs	r3, #1
 8003874:	60c3      	str	r3, [r0, #12]
      if (pdev->dev_remote_wakeup)
 8003876:	f8d0 32a4 	ldr.w	r3, [r0, #676]	; 0x2a4
 800387a:	b10b      	cbz	r3, 8003880 <USBD_StdDevReq+0x220>
        pdev->dev_config_status |= USB_CONFIG_REMOTE_WAKEUP;
 800387c:	2303      	movs	r3, #3
 800387e:	60c3      	str	r3, [r0, #12]
      USBD_CtlSendData(pdev, (uint8_t *)(void *)&pdev->dev_config_status, 2U);
 8003880:	2202      	movs	r2, #2
 8003882:	f104 010c 	add.w	r1, r4, #12
 8003886:	e7e1      	b.n	800384c <USBD_StdDevReq+0x1ec>
  if (req->wValue == USB_FEATURE_REMOTE_WAKEUP)
 8003888:	884b      	ldrh	r3, [r1, #2]
 800388a:	2b01      	cmp	r3, #1
 800388c:	f47f af09 	bne.w	80036a2 <USBD_StdDevReq+0x42>
        pdev->dev_remote_wakeup = 0U;
 8003890:	f8c4 32a4 	str.w	r3, [r4, #676]	; 0x2a4
 8003894:	e724      	b.n	80036e0 <USBD_StdDevReq+0x80>
  switch (pdev->dev_state)
 8003896:	f890 329c 	ldrb.w	r3, [r0, #668]	; 0x29c
 800389a:	3b01      	subs	r3, #1
 800389c:	2b02      	cmp	r3, #2
 800389e:	f63f af3d 	bhi.w	800371c <USBD_StdDevReq+0xbc>
      if (req->wValue == USB_FEATURE_REMOTE_WAKEUP)
 80038a2:	884b      	ldrh	r3, [r1, #2]
 80038a4:	2b01      	cmp	r3, #1
 80038a6:	f47f aefc 	bne.w	80036a2 <USBD_StdDevReq+0x42>
        pdev->dev_remote_wakeup = 0U;
 80038aa:	2300      	movs	r3, #0
 80038ac:	e7f0      	b.n	8003890 <USBD_StdDevReq+0x230>
 80038ae:	bf00      	nop
 80038b0:	20000200 	.word	0x20000200

080038b4 <USBD_StdItfReq>:
{
 80038b4:	b538      	push	{r3, r4, r5, lr}
  switch (req->bmRequest & USB_REQ_TYPE_MASK)
 80038b6:	780b      	ldrb	r3, [r1, #0]
{
 80038b8:	4604      	mov	r4, r0
  switch (req->bmRequest & USB_REQ_TYPE_MASK)
 80038ba:	f003 0260 	and.w	r2, r3, #96	; 0x60
 80038be:	2a40      	cmp	r2, #64	; 0x40
{
 80038c0:	460d      	mov	r5, r1
  switch (req->bmRequest & USB_REQ_TYPE_MASK)
 80038c2:	d001      	beq.n	80038c8 <USBD_StdItfReq+0x14>
 80038c4:	065b      	lsls	r3, r3, #25
 80038c6:	d415      	bmi.n	80038f4 <USBD_StdItfReq+0x40>
      switch (pdev->dev_state)
 80038c8:	f894 329c 	ldrb.w	r3, [r4, #668]	; 0x29c
 80038cc:	3b01      	subs	r3, #1
 80038ce:	2b02      	cmp	r3, #2
 80038d0:	d810      	bhi.n	80038f4 <USBD_StdItfReq+0x40>
          if (LOBYTE(req->wIndex) <= USBD_MAX_NUM_INTERFACES)
 80038d2:	792b      	ldrb	r3, [r5, #4]
 80038d4:	2b01      	cmp	r3, #1
 80038d6:	d80d      	bhi.n	80038f4 <USBD_StdItfReq+0x40>
            ret = (USBD_StatusTypeDef)pdev->pClass->Setup(pdev, req);
 80038d8:	f8d4 32b4 	ldr.w	r3, [r4, #692]	; 0x2b4
 80038dc:	4629      	mov	r1, r5
 80038de:	689b      	ldr	r3, [r3, #8]
 80038e0:	4620      	mov	r0, r4
 80038e2:	4798      	blx	r3
            if ((req->wLength == 0U) && (ret == USBD_OK))
 80038e4:	88eb      	ldrh	r3, [r5, #6]
 80038e6:	b91b      	cbnz	r3, 80038f0 <USBD_StdItfReq+0x3c>
 80038e8:	b910      	cbnz	r0, 80038f0 <USBD_StdItfReq+0x3c>
              USBD_CtlSendStatus(pdev);
 80038ea:	4620      	mov	r0, r4
 80038ec:	f000 f8f5 	bl	8003ada <USBD_CtlSendStatus>
}
 80038f0:	2000      	movs	r0, #0
 80038f2:	bd38      	pop	{r3, r4, r5, pc}
          USBD_CtlError(pdev, req);
 80038f4:	4620      	mov	r0, r4
 80038f6:	f7ff fea8 	bl	800364a <USBD_CtlError.constprop.0>
          break;
 80038fa:	e7f9      	b.n	80038f0 <USBD_StdItfReq+0x3c>

080038fc <USBD_StdEPReq>:
{
 80038fc:	b538      	push	{r3, r4, r5, lr}
 80038fe:	780a      	ldrb	r2, [r1, #0]
 8003900:	4604      	mov	r4, r0
  switch (req->bmRequest & USB_REQ_TYPE_MASK)
 8003902:	f002 0260 	and.w	r2, r2, #96	; 0x60
 8003906:	2a20      	cmp	r2, #32
{
 8003908:	460b      	mov	r3, r1
  switch (req->bmRequest & USB_REQ_TYPE_MASK)
 800390a:	d027      	beq.n	800395c <USBD_StdEPReq+0x60>
 800390c:	2a40      	cmp	r2, #64	; 0x40
 800390e:	d025      	beq.n	800395c <USBD_StdEPReq+0x60>
 8003910:	bb92      	cbnz	r2, 8003978 <USBD_StdEPReq+0x7c>
      switch (req->bRequest)
 8003912:	785a      	ldrb	r2, [r3, #1]
  ep_addr  = LOBYTE(req->wIndex);
 8003914:	888d      	ldrh	r5, [r1, #4]
 8003916:	2a01      	cmp	r2, #1
 8003918:	7909      	ldrb	r1, [r1, #4]
      switch (req->bRequest)
 800391a:	d03d      	beq.n	8003998 <USBD_StdEPReq+0x9c>
 800391c:	2a03      	cmp	r2, #3
 800391e:	d025      	beq.n	800396c <USBD_StdEPReq+0x70>
 8003920:	bb52      	cbnz	r2, 8003978 <USBD_StdEPReq+0x7c>
          switch (pdev->dev_state)
 8003922:	f890 329c 	ldrb.w	r3, [r0, #668]	; 0x29c
 8003926:	2b02      	cmp	r3, #2
 8003928:	d04d      	beq.n	80039c6 <USBD_StdEPReq+0xca>
 800392a:	2b03      	cmp	r3, #3
 800392c:	d124      	bne.n	8003978 <USBD_StdEPReq+0x7c>
              if ((ep_addr & 0x80U) == 0x80U)
 800392e:	2214      	movs	r2, #20
                if (pdev->ep_in[ep_addr & 0xFU].is_used == 0U)
 8003930:	f001 030f 	and.w	r3, r1, #15
              if ((ep_addr & 0x80U) == 0x80U)
 8003934:	f015 0f80 	tst.w	r5, #128	; 0x80
                if (pdev->ep_in[ep_addr & 0xFU].is_used == 0U)
 8003938:	fb02 0303 	mla	r3, r2, r3, r0
              if ((ep_addr & 0x80U) == 0x80U)
 800393c:	d054      	beq.n	80039e8 <USBD_StdEPReq+0xec>
                if (pdev->ep_in[ep_addr & 0xFU].is_used == 0U)
 800393e:	699b      	ldr	r3, [r3, #24]
 8003940:	b1d3      	cbz	r3, 8003978 <USBD_StdEPReq+0x7c>
              pep = ((ep_addr & 0x80U) == 0x80U) ? &pdev->ep_in[ep_addr & 0x7FU] : \
 8003942:	2314      	movs	r3, #20
 8003944:	f001 057f 	and.w	r5, r1, #127	; 0x7f
 8003948:	fb05 3303 	mla	r3, r5, r3, r3
 800394c:	18c5      	adds	r5, r0, r3
              if ((ep_addr == 0x00U) || (ep_addr == 0x80U))
 800394e:	f011 037f 	ands.w	r3, r1, #127	; 0x7f
 8003952:	d155      	bne.n	8003a00 <USBD_StdEPReq+0x104>
                pep->status = 0x0001U;
 8003954:	602b      	str	r3, [r5, #0]
              USBD_CtlSendData(pdev, (uint8_t *)(void *)&pep->status, 2U);
 8003956:	2202      	movs	r2, #2
 8003958:	4629      	mov	r1, r5
 800395a:	e041      	b.n	80039e0 <USBD_StdEPReq+0xe4>
      pdev->pClass->Setup(pdev, req);
 800395c:	f8d4 22b4 	ldr.w	r2, [r4, #692]	; 0x2b4
 8003960:	4619      	mov	r1, r3
 8003962:	4620      	mov	r0, r4
 8003964:	6892      	ldr	r2, [r2, #8]
 8003966:	4790      	blx	r2
}
 8003968:	2000      	movs	r0, #0
 800396a:	bd38      	pop	{r3, r4, r5, pc}
          switch (pdev->dev_state)
 800396c:	f890 229c 	ldrb.w	r2, [r0, #668]	; 0x29c
 8003970:	2a02      	cmp	r2, #2
 8003972:	d01f      	beq.n	80039b4 <USBD_StdEPReq+0xb8>
 8003974:	2a03      	cmp	r2, #3
 8003976:	d003      	beq.n	8003980 <USBD_StdEPReq+0x84>
              USBD_CtlError(pdev, req);
 8003978:	4620      	mov	r0, r4
 800397a:	f7ff fe66 	bl	800364a <USBD_CtlError.constprop.0>
              break;
 800397e:	e7f3      	b.n	8003968 <USBD_StdEPReq+0x6c>
              if (req->wValue == USB_FEATURE_EP_HALT)
 8003980:	885a      	ldrh	r2, [r3, #2]
 8003982:	b92a      	cbnz	r2, 8003990 <USBD_StdEPReq+0x94>
                if ((ep_addr != 0x00U) &&
 8003984:	064a      	lsls	r2, r1, #25
 8003986:	d003      	beq.n	8003990 <USBD_StdEPReq+0x94>
                    (ep_addr != 0x80U) && (req->wLength == 0x00U))
 8003988:	88db      	ldrh	r3, [r3, #6]
 800398a:	b90b      	cbnz	r3, 8003990 <USBD_StdEPReq+0x94>
                  USBD_LL_StallEP(pdev, ep_addr);
 800398c:	f000 fa4c 	bl	8003e28 <USBD_LL_StallEP>
              USBD_CtlSendStatus(pdev);
 8003990:	4620      	mov	r0, r4
 8003992:	f000 f8a2 	bl	8003ada <USBD_CtlSendStatus>
              break;
 8003996:	e7e7      	b.n	8003968 <USBD_StdEPReq+0x6c>
          switch (pdev->dev_state)
 8003998:	f890 229c 	ldrb.w	r2, [r0, #668]	; 0x29c
 800399c:	2a02      	cmp	r2, #2
 800399e:	d009      	beq.n	80039b4 <USBD_StdEPReq+0xb8>
 80039a0:	2a03      	cmp	r2, #3
 80039a2:	d1e9      	bne.n	8003978 <USBD_StdEPReq+0x7c>
              if (req->wValue == USB_FEATURE_EP_HALT)
 80039a4:	885b      	ldrh	r3, [r3, #2]
 80039a6:	2b00      	cmp	r3, #0
 80039a8:	d1de      	bne.n	8003968 <USBD_StdEPReq+0x6c>
                if ((ep_addr & 0x7FU) != 0x00U)
 80039aa:	064d      	lsls	r5, r1, #25
 80039ac:	d0f0      	beq.n	8003990 <USBD_StdEPReq+0x94>
                  USBD_LL_ClearStallEP(pdev, ep_addr);
 80039ae:	f000 fa44 	bl	8003e3a <USBD_LL_ClearStallEP>
 80039b2:	e7ed      	b.n	8003990 <USBD_StdEPReq+0x94>
              if ((ep_addr != 0x00U) && (ep_addr != 0x80U))
 80039b4:	064b      	lsls	r3, r1, #25
 80039b6:	d0df      	beq.n	8003978 <USBD_StdEPReq+0x7c>
                USBD_LL_StallEP(pdev, ep_addr);
 80039b8:	f000 fa36 	bl	8003e28 <USBD_LL_StallEP>
                USBD_LL_StallEP(pdev, 0x80U);
 80039bc:	2180      	movs	r1, #128	; 0x80
 80039be:	4620      	mov	r0, r4
 80039c0:	f000 fa32 	bl	8003e28 <USBD_LL_StallEP>
 80039c4:	e7d0      	b.n	8003968 <USBD_StdEPReq+0x6c>
              if ((ep_addr != 0x00U) && (ep_addr != 0x80U))
 80039c6:	064a      	lsls	r2, r1, #25
 80039c8:	d1d6      	bne.n	8003978 <USBD_StdEPReq+0x7c>
              pep = ((ep_addr & 0x80U) == 0x80U) ? &pdev->ep_in[ep_addr & 0x7FU] : \
 80039ca:	062b      	lsls	r3, r5, #24
              pep->status = 0x0000U;
 80039cc:	f04f 0300 	mov.w	r3, #0
              USBD_CtlSendData(pdev, (uint8_t *)(void *)&pep->status, 2U);
 80039d0:	f04f 0202 	mov.w	r2, #2
              pep = ((ep_addr & 0x80U) == 0x80U) ? &pdev->ep_in[ep_addr & 0x7FU] : \
 80039d4:	bf4c      	ite	mi
 80039d6:	f100 0114 	addmi.w	r1, r0, #20
 80039da:	f500 71aa 	addpl.w	r1, r0, #340	; 0x154
              pep->status = 0x0000U;
 80039de:	600b      	str	r3, [r1, #0]
              USBD_CtlSendData(pdev, (uint8_t *)(void *)&pep->status, 2U);
 80039e0:	4620      	mov	r0, r4
 80039e2:	f000 f850 	bl	8003a86 <USBD_CtlSendData>
              break;
 80039e6:	e7bf      	b.n	8003968 <USBD_StdEPReq+0x6c>
                if (pdev->ep_out[ep_addr & 0xFU].is_used == 0U)
 80039e8:	f8d3 3158 	ldr.w	r3, [r3, #344]	; 0x158
 80039ec:	2b00      	cmp	r3, #0
 80039ee:	d0c3      	beq.n	8003978 <USBD_StdEPReq+0x7c>
              pep = ((ep_addr & 0x80U) == 0x80U) ? &pdev->ep_in[ep_addr & 0x7FU] : \
 80039f0:	2314      	movs	r3, #20
                    &pdev->ep_out[ep_addr & 0x7FU];
 80039f2:	f001 057f 	and.w	r5, r1, #127	; 0x7f
              pep = ((ep_addr & 0x80U) == 0x80U) ? &pdev->ep_in[ep_addr & 0x7FU] : \
 80039f6:	fb03 0505 	mla	r5, r3, r5, r0
 80039fa:	f505 75aa 	add.w	r5, r5, #340	; 0x154
 80039fe:	e7a6      	b.n	800394e <USBD_StdEPReq+0x52>
              else if (USBD_LL_IsStallEP(pdev, ep_addr))
 8003a00:	4620      	mov	r0, r4
 8003a02:	f000 fa23 	bl	8003e4c <USBD_LL_IsStallEP>
 8003a06:	b108      	cbz	r0, 8003a0c <USBD_StdEPReq+0x110>
                pep->status = 0x0001U;
 8003a08:	2301      	movs	r3, #1
 8003a0a:	e7a3      	b.n	8003954 <USBD_StdEPReq+0x58>
                pep->status = 0x0000U;
 8003a0c:	6028      	str	r0, [r5, #0]
 8003a0e:	e7a2      	b.n	8003956 <USBD_StdEPReq+0x5a>

08003a10 <USBD_ParseSetupRequest>:
  req->bmRequest = *(uint8_t *)(pdata);
 8003a10:	780b      	ldrb	r3, [r1, #0]
 8003a12:	7003      	strb	r3, [r0, #0]
  req->bRequest = *(uint8_t *)(pdata + 1U);
 8003a14:	784b      	ldrb	r3, [r1, #1]
 8003a16:	7043      	strb	r3, [r0, #1]
  req->wValue = SWAPBYTE(pdata + 2U);
 8003a18:	78ca      	ldrb	r2, [r1, #3]
 8003a1a:	788b      	ldrb	r3, [r1, #2]
 8003a1c:	eb03 2302 	add.w	r3, r3, r2, lsl #8
 8003a20:	8043      	strh	r3, [r0, #2]
  req->wIndex = SWAPBYTE(pdata + 4U);
 8003a22:	794a      	ldrb	r2, [r1, #5]
 8003a24:	790b      	ldrb	r3, [r1, #4]
 8003a26:	eb03 2302 	add.w	r3, r3, r2, lsl #8
 8003a2a:	8083      	strh	r3, [r0, #4]
  req->wLength = SWAPBYTE(pdata + 6U);
 8003a2c:	79ca      	ldrb	r2, [r1, #7]
 8003a2e:	798b      	ldrb	r3, [r1, #6]
 8003a30:	eb03 2302 	add.w	r3, r3, r2, lsl #8
 8003a34:	80c3      	strh	r3, [r0, #6]
}
 8003a36:	4770      	bx	lr

08003a38 <USBD_CtlError>:
{
 8003a38:	b510      	push	{r4, lr}
 8003a3a:	4604      	mov	r4, r0
  USBD_LL_StallEP(pdev, 0x80U);
 8003a3c:	2180      	movs	r1, #128	; 0x80
 8003a3e:	f000 f9f3 	bl	8003e28 <USBD_LL_StallEP>
  USBD_LL_StallEP(pdev, 0U);
 8003a42:	4620      	mov	r0, r4
}
 8003a44:	e8bd 4010 	ldmia.w	sp!, {r4, lr}
  USBD_LL_StallEP(pdev, 0U);
 8003a48:	2100      	movs	r1, #0
 8003a4a:	f000 b9ed 	b.w	8003e28 <USBD_LL_StallEP>

08003a4e <USBD_GetString>:
  * @param  unicode : Formatted string buffer (unicode)
  * @param  len : descriptor length
  * @retval None
  */
void USBD_GetString(uint8_t *desc, uint8_t *unicode, uint16_t *len)
{
 8003a4e:	b530      	push	{r4, r5, lr}
  uint8_t idx = 0U;

  if (desc != NULL)
 8003a50:	b188      	cbz	r0, 8003a76 <USBD_GetString+0x28>
 8003a52:	2400      	movs	r4, #0
 8003a54:	3801      	subs	r0, #1
  */
static uint8_t USBD_GetLen(uint8_t *buf)
{
  uint8_t  len = 0U;

  while (*buf != '\0')
 8003a56:	4623      	mov	r3, r4
 8003a58:	3401      	adds	r4, #1
 8003a5a:	5d05      	ldrb	r5, [r0, r4]
 8003a5c:	2d00      	cmp	r5, #0
 8003a5e:	d1fa      	bne.n	8003a56 <USBD_GetString+0x8>
    *len = (uint16_t)USBD_GetLen(desc) * 2U + 2U;
 8003a60:	b2db      	uxtb	r3, r3
 8003a62:	3301      	adds	r3, #1
 8003a64:	005b      	lsls	r3, r3, #1
 8003a66:	8013      	strh	r3, [r2, #0]
    unicode[idx++] = *(uint8_t *)(void *)len;
 8003a68:	700b      	strb	r3, [r1, #0]
    unicode[idx++] = USB_DESC_TYPE_STRING;
 8003a6a:	2303      	movs	r3, #3
 8003a6c:	704b      	strb	r3, [r1, #1]
 8003a6e:	2302      	movs	r3, #2
    while (*desc != '\0')
 8003a70:	f810 4f01 	ldrb.w	r4, [r0, #1]!
 8003a74:	b904      	cbnz	r4, 8003a78 <USBD_GetString+0x2a>
}
 8003a76:	bd30      	pop	{r4, r5, pc}
      unicode[idx++] = *desc++;
 8003a78:	1c5a      	adds	r2, r3, #1
 8003a7a:	54cc      	strb	r4, [r1, r3]
 8003a7c:	b2d2      	uxtb	r2, r2
      unicode[idx++] =  0U;
 8003a7e:	3302      	adds	r3, #2
 8003a80:	b2db      	uxtb	r3, r3
 8003a82:	548d      	strb	r5, [r1, r2]
 8003a84:	e7f4      	b.n	8003a70 <USBD_GetString+0x22>

08003a86 <USBD_CtlSendData>:
* @param  len: length of data to be sent
* @retval status
*/
USBD_StatusTypeDef USBD_CtlSendData(USBD_HandleTypeDef *pdev,
                                    uint8_t *pbuf, uint16_t len)
{
 8003a86:	4613      	mov	r3, r2
  /* Set EP0 State */
  pdev->ep0_state = USBD_EP0_DATA_IN;
 8003a88:	2202      	movs	r2, #2
{
 8003a8a:	b510      	push	{r4, lr}
  pdev->ep_in[0].total_length = len;
  pdev->ep_in[0].rem_length   = len;
 8003a8c:	e9c0 3307 	strd	r3, r3, [r0, #28]
  pdev->ep0_state = USBD_EP0_DATA_IN;
 8003a90:	f8c0 2294 	str.w	r2, [r0, #660]	; 0x294

  /* Start the transfer */
  USBD_LL_Transmit(pdev, 0x00U, pbuf, len);
 8003a94:	460a      	mov	r2, r1
 8003a96:	2100      	movs	r1, #0
 8003a98:	f000 f9f3 	bl	8003e82 <USBD_LL_Transmit>

  return USBD_OK;
}
 8003a9c:	2000      	movs	r0, #0
 8003a9e:	bd10      	pop	{r4, pc}

08003aa0 <USBD_CtlContinueSendData>:
* @param  len: length of data to be sent
* @retval status
*/
USBD_StatusTypeDef USBD_CtlContinueSendData(USBD_HandleTypeDef *pdev,
                                            uint8_t *pbuf, uint16_t len)
{
 8003aa0:	b508      	push	{r3, lr}
 8003aa2:	4613      	mov	r3, r2
  /* Start the next transfer */
  USBD_LL_Transmit(pdev, 0x00U, pbuf, len);
 8003aa4:	460a      	mov	r2, r1
 8003aa6:	2100      	movs	r1, #0
 8003aa8:	f000 f9eb 	bl	8003e82 <USBD_LL_Transmit>

  return USBD_OK;
}
 8003aac:	2000      	movs	r0, #0
 8003aae:	bd08      	pop	{r3, pc}

08003ab0 <USBD_CtlPrepareRx>:
* @param  len: length of data to be received
* @retval status
*/
USBD_StatusTypeDef USBD_CtlPrepareRx(USBD_HandleTypeDef *pdev,
                                     uint8_t *pbuf, uint16_t len)
{
 8003ab0:	4613      	mov	r3, r2
  /* Set EP0 State */
  pdev->ep0_state = USBD_EP0_DATA_OUT;
 8003ab2:	2203      	movs	r2, #3
{
 8003ab4:	b510      	push	{r4, lr}
  pdev->ep_out[0].total_length = len;
  pdev->ep_out[0].rem_length   = len;
 8003ab6:	e9c0 3357 	strd	r3, r3, [r0, #348]	; 0x15c
  pdev->ep0_state = USBD_EP0_DATA_OUT;
 8003aba:	f8c0 2294 	str.w	r2, [r0, #660]	; 0x294

  /* Start the transfer */
  USBD_LL_PrepareReceive(pdev, 0U, pbuf, len);
 8003abe:	460a      	mov	r2, r1
 8003ac0:	2100      	movs	r1, #0
 8003ac2:	f000 f9e7 	bl	8003e94 <USBD_LL_PrepareReceive>

  return USBD_OK;
}
 8003ac6:	2000      	movs	r0, #0
 8003ac8:	bd10      	pop	{r4, pc}

08003aca <USBD_CtlContinueRx>:
* @param  len: length of data to be received
* @retval status
*/
USBD_StatusTypeDef USBD_CtlContinueRx(USBD_HandleTypeDef *pdev,
                                      uint8_t *pbuf, uint16_t len)
{
 8003aca:	b508      	push	{r3, lr}
 8003acc:	4613      	mov	r3, r2
  USBD_LL_PrepareReceive(pdev, 0U, pbuf, len);
 8003ace:	460a      	mov	r2, r1
 8003ad0:	2100      	movs	r1, #0
 8003ad2:	f000 f9df 	bl	8003e94 <USBD_LL_PrepareReceive>

  return USBD_OK;
}
 8003ad6:	2000      	movs	r0, #0
 8003ad8:	bd08      	pop	{r3, pc}

08003ada <USBD_CtlSendStatus>:
*         send zero lzngth packet on the ctl pipe
* @param  pdev: device instance
* @retval status
*/
USBD_StatusTypeDef USBD_CtlSendStatus(USBD_HandleTypeDef *pdev)
{
 8003ada:	b508      	push	{r3, lr}
  /* Set EP0 State */
  pdev->ep0_state = USBD_EP0_STATUS_IN;
 8003adc:	2304      	movs	r3, #4
 8003ade:	f8c0 3294 	str.w	r3, [r0, #660]	; 0x294

  /* Start the transfer */
  USBD_LL_Transmit(pdev, 0x00U, NULL, 0U);
 8003ae2:	2300      	movs	r3, #0
 8003ae4:	461a      	mov	r2, r3
 8003ae6:	4619      	mov	r1, r3
 8003ae8:	f000 f9cb 	bl	8003e82 <USBD_LL_Transmit>

  return USBD_OK;
}
 8003aec:	2000      	movs	r0, #0
 8003aee:	bd08      	pop	{r3, pc}

08003af0 <USBD_CtlReceiveStatus>:
*         receive zero lzngth packet on the ctl pipe
* @param  pdev: device instance
* @retval status
*/
USBD_StatusTypeDef USBD_CtlReceiveStatus(USBD_HandleTypeDef *pdev)
{
 8003af0:	b508      	push	{r3, lr}
  /* Set EP0 State */
  pdev->ep0_state = USBD_EP0_STATUS_OUT;
 8003af2:	2305      	movs	r3, #5
 8003af4:	f8c0 3294 	str.w	r3, [r0, #660]	; 0x294

  /* Start the transfer */
  USBD_LL_PrepareReceive(pdev, 0U, NULL, 0U);
 8003af8:	2300      	movs	r3, #0
 8003afa:	461a      	mov	r2, r3
 8003afc:	4619      	mov	r1, r3
 8003afe:	f000 f9c9 	bl	8003e94 <USBD_LL_PrepareReceive>

  return USBD_OK;
}
 8003b02:	2000      	movs	r0, #0
 8003b04:	bd08      	pop	{r3, pc}
	...

08003b08 <MX_USB_DEVICE_Init>:
/**
  * Init USB device Library, add supported class and start the library
  * @retval None
  */
void MX_USB_DEVICE_Init(void)
{
 8003b08:	b508      	push	{r3, lr}
  /* USER CODE BEGIN USB_DEVICE_Init_PreTreatment */

  /* USER CODE END USB_DEVICE_Init_PreTreatment */

  /* Init Device Library, add supported class and start the library. */
  if (USBD_Init(&hUsbDeviceFS, &FS_Desc, DEVICE_FS) != USBD_OK)
 8003b0a:	2200      	movs	r2, #0
 8003b0c:	490e      	ldr	r1, [pc, #56]	; (8003b48 <MX_USB_DEVICE_Init+0x40>)
 8003b0e:	480f      	ldr	r0, [pc, #60]	; (8003b4c <MX_USB_DEVICE_Init+0x44>)
 8003b10:	f7ff fc5d 	bl	80033ce <USBD_Init>
 8003b14:	b108      	cbz	r0, 8003b1a <MX_USB_DEVICE_Init+0x12>
  {
    Error_Handler();
 8003b16:	f7fd fb3f 	bl	8001198 <Error_Handler>
  }
  if (USBD_RegisterClass(&hUsbDeviceFS, &USBD_CDC) != USBD_OK)
 8003b1a:	490d      	ldr	r1, [pc, #52]	; (8003b50 <MX_USB_DEVICE_Init+0x48>)
 8003b1c:	480b      	ldr	r0, [pc, #44]	; (8003b4c <MX_USB_DEVICE_Init+0x44>)
 8003b1e:	f7ff fc6b 	bl	80033f8 <USBD_RegisterClass>
 8003b22:	b108      	cbz	r0, 8003b28 <MX_USB_DEVICE_Init+0x20>
  {
    Error_Handler();
 8003b24:	f7fd fb38 	bl	8001198 <Error_Handler>
  }
  if (USBD_CDC_RegisterInterface(&hUsbDeviceFS, &USBD_Interface_fops_FS) != USBD_OK)
 8003b28:	490a      	ldr	r1, [pc, #40]	; (8003b54 <MX_USB_DEVICE_Init+0x4c>)
 8003b2a:	4808      	ldr	r0, [pc, #32]	; (8003b4c <MX_USB_DEVICE_Init+0x44>)
 8003b2c:	f7ff fc23 	bl	8003376 <USBD_CDC_RegisterInterface>
 8003b30:	b108      	cbz	r0, 8003b36 <MX_USB_DEVICE_Init+0x2e>
  {
    Error_Handler();
 8003b32:	f7fd fb31 	bl	8001198 <Error_Handler>
  }
  if (USBD_Start(&hUsbDeviceFS) != USBD_OK)
 8003b36:	4805      	ldr	r0, [pc, #20]	; (8003b4c <MX_USB_DEVICE_Init+0x44>)
 8003b38:	f7ff fc65 	bl	8003406 <USBD_Start>
 8003b3c:	b118      	cbz	r0, 8003b46 <MX_USB_DEVICE_Init+0x3e>
  }

  /* USER CODE BEGIN USB_DEVICE_Init_PostTreatment */

  /* USER CODE END USB_DEVICE_Init_PostTreatment */
}
 8003b3e:	e8bd 4008 	ldmia.w	sp!, {r3, lr}
    Error_Handler();
 8003b42:	f7fd bb29 	b.w	8001198 <Error_Handler>
}
 8003b46:	bd08      	pop	{r3, pc}
 8003b48:	2000012c 	.word	0x2000012c
 8003b4c:	20000204 	.word	0x20000204
 8003b50:	2000000c 	.word	0x2000000c
 8003b54:	2000011c 	.word	0x2000011c

08003b58 <CDC_DeInit_FS>:
static int8_t CDC_DeInit_FS(void)
{
  /* USER CODE BEGIN 4 */
  return (USBD_OK);
  /* USER CODE END 4 */
}
 8003b58:	2000      	movs	r0, #0
 8003b5a:	4770      	bx	lr

08003b5c <CDC_Control_FS>:
    break;
  }

  return (USBD_OK);
  /* USER CODE END 5 */
}
 8003b5c:	2000      	movs	r0, #0
 8003b5e:	4770      	bx	lr

08003b60 <CDC_Receive_FS>:
  * @param  Buf: Buffer of data to be received
  * @param  Len: Number of data received (in bytes)
  * @retval Result of the operation: USBD_OK if all operations are OK else USBD_FAIL
  */
static int8_t CDC_Receive_FS(uint8_t* Buf, uint32_t *Len)
{
 8003b60:	b510      	push	{r4, lr}
  /* USER CODE BEGIN 6 */
  USBD_CDC_SetRxBuffer(&hUsbDeviceFS, &Buf[0]);
 8003b62:	4c05      	ldr	r4, [pc, #20]	; (8003b78 <CDC_Receive_FS+0x18>)
{
 8003b64:	4601      	mov	r1, r0
  USBD_CDC_SetRxBuffer(&hUsbDeviceFS, &Buf[0]);
 8003b66:	4620      	mov	r0, r4
 8003b68:	f7ff fc14 	bl	8003394 <USBD_CDC_SetRxBuffer>
  USBD_CDC_ReceivePacket(&hUsbDeviceFS);
 8003b6c:	4620      	mov	r0, r4
 8003b6e:	f7ff fc17 	bl	80033a0 <USBD_CDC_ReceivePacket>
  return (USBD_OK);
  /* USER CODE END 6 */
}
 8003b72:	2000      	movs	r0, #0
 8003b74:	bd10      	pop	{r4, pc}
 8003b76:	bf00      	nop
 8003b78:	20000204 	.word	0x20000204

08003b7c <CDC_Init_FS>:
{
 8003b7c:	b510      	push	{r4, lr}
  USBD_CDC_SetTxBuffer(&hUsbDeviceFS, UserTxBufferFS, 0);
 8003b7e:	4c06      	ldr	r4, [pc, #24]	; (8003b98 <CDC_Init_FS+0x1c>)
 8003b80:	2200      	movs	r2, #0
 8003b82:	4620      	mov	r0, r4
 8003b84:	4905      	ldr	r1, [pc, #20]	; (8003b9c <CDC_Init_FS+0x20>)
 8003b86:	f7ff fbfd 	bl	8003384 <USBD_CDC_SetTxBuffer>
  USBD_CDC_SetRxBuffer(&hUsbDeviceFS, UserRxBufferFS);
 8003b8a:	4620      	mov	r0, r4
 8003b8c:	4904      	ldr	r1, [pc, #16]	; (8003ba0 <CDC_Init_FS+0x24>)
 8003b8e:	f7ff fc01 	bl	8003394 <USBD_CDC_SetRxBuffer>
}
 8003b92:	2000      	movs	r0, #0
 8003b94:	bd10      	pop	{r4, pc}
 8003b96:	bf00      	nop
 8003b98:	20000204 	.word	0x20000204
 8003b9c:	200008c8 	.word	0x200008c8
 8003ba0:	200004c8 	.word	0x200004c8

08003ba4 <USBD_FS_DeviceDescriptor>:
  * @retval Pointer to descriptor buffer
  */
uint8_t * USBD_FS_DeviceDescriptor(USBD_SpeedTypeDef speed, uint16_t *length)
{
  UNUSED(speed);
  *length = sizeof(USBD_FS_DeviceDesc);
 8003ba4:	2312      	movs	r3, #18
  return USBD_FS_DeviceDesc;
}
 8003ba6:	4801      	ldr	r0, [pc, #4]	; (8003bac <USBD_FS_DeviceDescriptor+0x8>)
  *length = sizeof(USBD_FS_DeviceDesc);
 8003ba8:	800b      	strh	r3, [r1, #0]
}
 8003baa:	4770      	bx	lr
 8003bac:	20000148 	.word	0x20000148

08003bb0 <USBD_FS_LangIDStrDescriptor>:
  * @retval Pointer to descriptor buffer
  */
uint8_t * USBD_FS_LangIDStrDescriptor(USBD_SpeedTypeDef speed, uint16_t *length)
{
  UNUSED(speed);
  *length = sizeof(USBD_LangIDDesc);
 8003bb0:	2304      	movs	r3, #4
  return USBD_LangIDDesc;
}
 8003bb2:	4801      	ldr	r0, [pc, #4]	; (8003bb8 <USBD_FS_LangIDStrDescriptor+0x8>)
  *length = sizeof(USBD_LangIDDesc);
 8003bb4:	800b      	strh	r3, [r1, #0]
}
 8003bb6:	4770      	bx	lr
 8003bb8:	2000015c 	.word	0x2000015c

08003bbc <IntToUnicode>:
  * @param  pbuf: pointer to the buffer
  * @param  len: buffer length
  * @retval None
  */
static void IntToUnicode(uint32_t value, uint8_t * pbuf, uint8_t len)
{
 8003bbc:	2300      	movs	r3, #0
 8003bbe:	b570      	push	{r4, r5, r6, lr}
      pbuf[2 * idx] = (value >> 28) + 'A' - 10;
    }

    value = value << 4;

    pbuf[2 * idx + 1] = 0;
 8003bc0:	461e      	mov	r6, r3
 8003bc2:	1c4d      	adds	r5, r1, #1
      pbuf[2 * idx] = (value >> 28) + '0';
 8003bc4:	0f04      	lsrs	r4, r0, #28
    if (((value >> 28)) < 0xA)
 8003bc6:	f1b0 4f20 	cmp.w	r0, #2684354560	; 0xa0000000
      pbuf[2 * idx] = (value >> 28) + '0';
 8003bca:	bf34      	ite	cc
 8003bcc:	3430      	addcc	r4, #48	; 0x30
      pbuf[2 * idx] = (value >> 28) + 'A' - 10;
 8003bce:	3437      	addcs	r4, #55	; 0x37
 8003bd0:	f801 4013 	strb.w	r4, [r1, r3, lsl #1]
    pbuf[2 * idx + 1] = 0;
 8003bd4:	f805 6013 	strb.w	r6, [r5, r3, lsl #1]
  for (idx = 0; idx < len; idx++)
 8003bd8:	3301      	adds	r3, #1
 8003bda:	b2dc      	uxtb	r4, r3
 8003bdc:	42a2      	cmp	r2, r4
    value = value << 4;
 8003bde:	ea4f 1000 	mov.w	r0, r0, lsl #4
  for (idx = 0; idx < len; idx++)
 8003be2:	d8ef      	bhi.n	8003bc4 <IntToUnicode+0x8>
  }
}
 8003be4:	bd70      	pop	{r4, r5, r6, pc}
	...

08003be8 <USBD_FS_SerialStrDescriptor>:
  *length = USB_SIZ_STRING_SERIAL;
 8003be8:	231a      	movs	r3, #26
{
 8003bea:	b510      	push	{r4, lr}
  *length = USB_SIZ_STRING_SERIAL;
 8003bec:	800b      	strh	r3, [r1, #0]
  deviceserial0 = *(uint32_t *) DEVICE_ID1;
 8003bee:	4b0a      	ldr	r3, [pc, #40]	; (8003c18 <USBD_FS_SerialStrDescriptor+0x30>)
 8003bf0:	f8d3 07e8 	ldr.w	r0, [r3, #2024]	; 0x7e8
  deviceserial0 += deviceserial2;
 8003bf4:	f8d3 27f0 	ldr.w	r2, [r3, #2032]	; 0x7f0
  if (deviceserial0 != 0)
 8003bf8:	1880      	adds	r0, r0, r2
 8003bfa:	d00a      	beq.n	8003c12 <USBD_FS_SerialStrDescriptor+0x2a>
  deviceserial1 = *(uint32_t *) DEVICE_ID2;
 8003bfc:	f8d3 47ec 	ldr.w	r4, [r3, #2028]	; 0x7ec
    IntToUnicode(deviceserial0, &USBD_StringSerial[2], 8);
 8003c00:	4906      	ldr	r1, [pc, #24]	; (8003c1c <USBD_FS_SerialStrDescriptor+0x34>)
 8003c02:	2208      	movs	r2, #8
 8003c04:	f7ff ffda 	bl	8003bbc <IntToUnicode>
    IntToUnicode(deviceserial1, &USBD_StringSerial[18], 4);
 8003c08:	2204      	movs	r2, #4
 8003c0a:	4620      	mov	r0, r4
 8003c0c:	3110      	adds	r1, #16
 8003c0e:	f7ff ffd5 	bl	8003bbc <IntToUnicode>
}
 8003c12:	4803      	ldr	r0, [pc, #12]	; (8003c20 <USBD_FS_SerialStrDescriptor+0x38>)
 8003c14:	bd10      	pop	{r4, pc}
 8003c16:	bf00      	nop
 8003c18:	1ffff000 	.word	0x1ffff000
 8003c1c:	20000162 	.word	0x20000162
 8003c20:	20000160 	.word	0x20000160

08003c24 <USBD_FS_ManufacturerStrDescriptor>:
{
 8003c24:	b510      	push	{r4, lr}
  USBD_GetString((uint8_t *)USBD_MANUFACTURER_STRING, USBD_StrDesc, length);
 8003c26:	4c04      	ldr	r4, [pc, #16]	; (8003c38 <USBD_FS_ManufacturerStrDescriptor+0x14>)
{
 8003c28:	460a      	mov	r2, r1
  USBD_GetString((uint8_t *)USBD_MANUFACTURER_STRING, USBD_StrDesc, length);
 8003c2a:	4804      	ldr	r0, [pc, #16]	; (8003c3c <USBD_FS_ManufacturerStrDescriptor+0x18>)
 8003c2c:	4621      	mov	r1, r4
 8003c2e:	f7ff ff0e 	bl	8003a4e <USBD_GetString>
}
 8003c32:	4620      	mov	r0, r4
 8003c34:	bd10      	pop	{r4, pc}
 8003c36:	bf00      	nop
 8003c38:	20000cc8 	.word	0x20000cc8
 8003c3c:	0800400e 	.word	0x0800400e

08003c40 <USBD_FS_ProductStrDescriptor>:
{
 8003c40:	b510      	push	{r4, lr}
    USBD_GetString((uint8_t *)USBD_PRODUCT_STRING_FS, USBD_StrDesc, length);
 8003c42:	4c04      	ldr	r4, [pc, #16]	; (8003c54 <USBD_FS_ProductStrDescriptor+0x14>)
{
 8003c44:	460a      	mov	r2, r1
    USBD_GetString((uint8_t *)USBD_PRODUCT_STRING_FS, USBD_StrDesc, length);
 8003c46:	4804      	ldr	r0, [pc, #16]	; (8003c58 <USBD_FS_ProductStrDescriptor+0x18>)
 8003c48:	4621      	mov	r1, r4
 8003c4a:	f7ff ff00 	bl	8003a4e <USBD_GetString>
}
 8003c4e:	4620      	mov	r0, r4
 8003c50:	bd10      	pop	{r4, pc}
 8003c52:	bf00      	nop
 8003c54:	20000cc8 	.word	0x20000cc8
 8003c58:	08004021 	.word	0x08004021

08003c5c <USBD_FS_ConfigStrDescriptor>:
{
 8003c5c:	b510      	push	{r4, lr}
    USBD_GetString((uint8_t *)USBD_CONFIGURATION_STRING_FS, USBD_StrDesc, length);
 8003c5e:	4c04      	ldr	r4, [pc, #16]	; (8003c70 <USBD_FS_ConfigStrDescriptor+0x14>)
{
 8003c60:	460a      	mov	r2, r1
    USBD_GetString((uint8_t *)USBD_CONFIGURATION_STRING_FS, USBD_StrDesc, length);
 8003c62:	4804      	ldr	r0, [pc, #16]	; (8003c74 <USBD_FS_ConfigStrDescriptor+0x18>)
 8003c64:	4621      	mov	r1, r4
 8003c66:	f7ff fef2 	bl	8003a4e <USBD_GetString>
}
 8003c6a:	4620      	mov	r0, r4
 8003c6c:	bd10      	pop	{r4, pc}
 8003c6e:	bf00      	nop
 8003c70:	20000cc8 	.word	0x20000cc8
 8003c74:	08004037 	.word	0x08004037

08003c78 <USBD_FS_InterfaceStrDescriptor>:
{
 8003c78:	b510      	push	{r4, lr}
    USBD_GetString((uint8_t *)USBD_INTERFACE_STRING_FS, USBD_StrDesc, length);
 8003c7a:	4c04      	ldr	r4, [pc, #16]	; (8003c8c <USBD_FS_InterfaceStrDescriptor+0x14>)
{
 8003c7c:	460a      	mov	r2, r1
    USBD_GetString((uint8_t *)USBD_INTERFACE_STRING_FS, USBD_StrDesc, length);
 8003c7e:	4804      	ldr	r0, [pc, #16]	; (8003c90 <USBD_FS_InterfaceStrDescriptor+0x18>)
 8003c80:	4621      	mov	r1, r4
 8003c82:	f7ff fee4 	bl	8003a4e <USBD_GetString>
}
 8003c86:	4620      	mov	r0, r4
 8003c88:	bd10      	pop	{r4, pc}
 8003c8a:	bf00      	nop
 8003c8c:	20000cc8 	.word	0x20000cc8
 8003c90:	08004042 	.word	0x08004042

08003c94 <USBD_Get_USB_Status>:
  */
USBD_StatusTypeDef USBD_Get_USB_Status(HAL_StatusTypeDef hal_status)
{
  USBD_StatusTypeDef usb_status = USBD_OK;

  switch (hal_status)
 8003c94:	2803      	cmp	r0, #3
 8003c96:	bf9a      	itte	ls
 8003c98:	4b01      	ldrls	r3, [pc, #4]	; (8003ca0 <USBD_Get_USB_Status+0xc>)
 8003c9a:	5c18      	ldrbls	r0, [r3, r0]
{
 8003c9c:	2002      	movhi	r0, #2
    default :
      usb_status = USBD_FAIL;
    break;
  }
  return usb_status;
}
 8003c9e:	4770      	bx	lr
 8003ca0:	08004050 	.word	0x08004050

08003ca4 <HAL_PCD_MspInit>:
{
 8003ca4:	b507      	push	{r0, r1, r2, lr}
  if(pcdHandle->Instance==USB)
 8003ca6:	4b0e      	ldr	r3, [pc, #56]	; (8003ce0 <HAL_PCD_MspInit+0x3c>)
 8003ca8:	6802      	ldr	r2, [r0, #0]
 8003caa:	429a      	cmp	r2, r3
 8003cac:	d115      	bne.n	8003cda <HAL_PCD_MspInit+0x36>
    __HAL_RCC_USB_CLK_ENABLE();
 8003cae:	f503 33da 	add.w	r3, r3, #111616	; 0x1b400
 8003cb2:	69da      	ldr	r2, [r3, #28]
    HAL_NVIC_SetPriority(USB_LP_CAN1_RX0_IRQn, 0, 0);
 8003cb4:	2014      	movs	r0, #20
    __HAL_RCC_USB_CLK_ENABLE();
 8003cb6:	f442 0200 	orr.w	r2, r2, #8388608	; 0x800000
 8003cba:	61da      	str	r2, [r3, #28]
    HAL_NVIC_SetPriority(USB_LP_CAN1_RX0_IRQn, 0, 0);
 8003cbc:	2200      	movs	r2, #0
    __HAL_RCC_USB_CLK_ENABLE();
 8003cbe:	69db      	ldr	r3, [r3, #28]
    HAL_NVIC_SetPriority(USB_LP_CAN1_RX0_IRQn, 0, 0);
 8003cc0:	4611      	mov	r1, r2
    __HAL_RCC_USB_CLK_ENABLE();
 8003cc2:	f403 0300 	and.w	r3, r3, #8388608	; 0x800000
 8003cc6:	9301      	str	r3, [sp, #4]
 8003cc8:	9b01      	ldr	r3, [sp, #4]
    HAL_NVIC_SetPriority(USB_LP_CAN1_RX0_IRQn, 0, 0);
 8003cca:	f7fd fb25 	bl	8001318 <HAL_NVIC_SetPriority>
    HAL_NVIC_EnableIRQ(USB_LP_CAN1_RX0_IRQn);
 8003cce:	2014      	movs	r0, #20
}
 8003cd0:	b003      	add	sp, #12
 8003cd2:	f85d eb04 	ldr.w	lr, [sp], #4
    HAL_NVIC_EnableIRQ(USB_LP_CAN1_RX0_IRQn);
 8003cd6:	f7fd bb51 	b.w	800137c <HAL_NVIC_EnableIRQ>
}
 8003cda:	b003      	add	sp, #12
 8003cdc:	f85d fb04 	ldr.w	pc, [sp], #4
 8003ce0:	40005c00 	.word	0x40005c00

08003ce4 <HAL_PCD_SetupStageCallback>:
  USBD_LL_SetupStage((USBD_HandleTypeDef*)hpcd->pData, (uint8_t *)hpcd->Setup);
 8003ce4:	f500 712c 	add.w	r1, r0, #688	; 0x2b0
 8003ce8:	f8d0 02ec 	ldr.w	r0, [r0, #748]	; 0x2ec
 8003cec:	f7ff bba2 	b.w	8003434 <USBD_LL_SetupStage>

08003cf0 <HAL_PCD_DataOutStageCallback>:
  USBD_LL_DataOutStage((USBD_HandleTypeDef*)hpcd->pData, epnum, hpcd->OUT_ep[epnum].xfer_buff);
 8003cf0:	2328      	movs	r3, #40	; 0x28
 8003cf2:	fb03 0301 	mla	r3, r3, r1, r0
 8003cf6:	f8d0 02ec 	ldr.w	r0, [r0, #748]	; 0x2ec
 8003cfa:	f8d3 217c 	ldr.w	r2, [r3, #380]	; 0x17c
 8003cfe:	f7ff bbc6 	b.w	800348e <USBD_LL_DataOutStage>

08003d02 <HAL_PCD_DataInStageCallback>:
  USBD_LL_DataInStage((USBD_HandleTypeDef*)hpcd->pData, epnum, hpcd->IN_ep[epnum].xfer_buff);
 8003d02:	2328      	movs	r3, #40	; 0x28
 8003d04:	fb03 0301 	mla	r3, r3, r1, r0
 8003d08:	f8d0 02ec 	ldr.w	r0, [r0, #748]	; 0x2ec
 8003d0c:	6bda      	ldr	r2, [r3, #60]	; 0x3c
 8003d0e:	f7ff bbf8 	b.w	8003502 <USBD_LL_DataInStage>

08003d12 <HAL_PCD_SOFCallback>:
  USBD_LL_SOF((USBD_HandleTypeDef*)hpcd->pData);
 8003d12:	f8d0 02ec 	ldr.w	r0, [r0, #748]	; 0x2ec
 8003d16:	f7ff bc8c 	b.w	8003632 <USBD_LL_SOF>

08003d1a <HAL_PCD_ResetCallback>:
  if ( hpcd->Init.speed != PCD_SPEED_FULL)
 8003d1a:	6883      	ldr	r3, [r0, #8]
{
 8003d1c:	b510      	push	{r4, lr}
  if ( hpcd->Init.speed != PCD_SPEED_FULL)
 8003d1e:	2b02      	cmp	r3, #2
{
 8003d20:	4604      	mov	r4, r0
  if ( hpcd->Init.speed != PCD_SPEED_FULL)
 8003d22:	d001      	beq.n	8003d28 <HAL_PCD_ResetCallback+0xe>
    Error_Handler();
 8003d24:	f7fd fa38 	bl	8001198 <Error_Handler>
  USBD_LL_SetSpeed((USBD_HandleTypeDef*)hpcd->pData, speed);
 8003d28:	f8d4 02ec 	ldr.w	r0, [r4, #748]	; 0x2ec
 8003d2c:	2101      	movs	r1, #1
 8003d2e:	f7ff fc6a 	bl	8003606 <USBD_LL_SetSpeed>
  USBD_LL_Reset((USBD_HandleTypeDef*)hpcd->pData);
 8003d32:	f8d4 02ec 	ldr.w	r0, [r4, #748]	; 0x2ec
}
 8003d36:	e8bd 4010 	ldmia.w	sp!, {r4, lr}
  USBD_LL_Reset((USBD_HandleTypeDef*)hpcd->pData);
 8003d3a:	f7ff bc3d 	b.w	80035b8 <USBD_LL_Reset>
	...

08003d40 <HAL_PCD_SuspendCallback>:
{
 8003d40:	b510      	push	{r4, lr}
 8003d42:	4604      	mov	r4, r0
  USBD_LL_Suspend((USBD_HandleTypeDef*)hpcd->pData);
 8003d44:	f8d0 02ec 	ldr.w	r0, [r0, #748]	; 0x2ec
 8003d48:	f7ff fc60 	bl	800360c <USBD_LL_Suspend>
  if (hpcd->Init.low_power_enable)
 8003d4c:	69a3      	ldr	r3, [r4, #24]
 8003d4e:	b123      	cbz	r3, 8003d5a <HAL_PCD_SuspendCallback+0x1a>
    SCB->SCR |= (uint32_t)((uint32_t)(SCB_SCR_SLEEPDEEP_Msk | SCB_SCR_SLEEPONEXIT_Msk));
 8003d50:	4a02      	ldr	r2, [pc, #8]	; (8003d5c <HAL_PCD_SuspendCallback+0x1c>)
 8003d52:	6913      	ldr	r3, [r2, #16]
 8003d54:	f043 0306 	orr.w	r3, r3, #6
 8003d58:	6113      	str	r3, [r2, #16]
}
 8003d5a:	bd10      	pop	{r4, pc}
 8003d5c:	e000ed00 	.word	0xe000ed00

08003d60 <HAL_PCD_ResumeCallback>:
  USBD_LL_Resume((USBD_HandleTypeDef*)hpcd->pData);
 8003d60:	f8d0 02ec 	ldr.w	r0, [r0, #748]	; 0x2ec
 8003d64:	f7ff bc5b 	b.w	800361e <USBD_LL_Resume>

08003d68 <USBD_LL_Init>:
  hpcd_USB_FS.Init.dev_endpoints = 8;
 8003d68:	2308      	movs	r3, #8
{
 8003d6a:	b510      	push	{r4, lr}
  hpcd_USB_FS.Init.dev_endpoints = 8;
 8003d6c:	4a1d      	ldr	r2, [pc, #116]	; (8003de4 <USBD_LL_Init+0x7c>)
{
 8003d6e:	4604      	mov	r4, r0
  hpcd_USB_FS.pData = pdev;
 8003d70:	481d      	ldr	r0, [pc, #116]	; (8003de8 <USBD_LL_Init+0x80>)
  hpcd_USB_FS.Init.dev_endpoints = 8;
 8003d72:	e9c0 2300 	strd	r2, r3, [r0]
  hpcd_USB_FS.Init.speed = PCD_SPEED_FULL;
 8003d76:	2302      	movs	r3, #2
 8003d78:	6083      	str	r3, [r0, #8]
  hpcd_USB_FS.Init.low_power_enable = DISABLE;
 8003d7a:	2300      	movs	r3, #0
  hpcd_USB_FS.pData = pdev;
 8003d7c:	f8c0 42ec 	str.w	r4, [r0, #748]	; 0x2ec
  pdev->pData = &hpcd_USB_FS;
 8003d80:	f8c4 02c0 	str.w	r0, [r4, #704]	; 0x2c0
  hpcd_USB_FS.Init.lpm_enable = DISABLE;
 8003d84:	e9c0 3306 	strd	r3, r3, [r0, #24]
  hpcd_USB_FS.Init.battery_charging_enable = DISABLE;
 8003d88:	6203      	str	r3, [r0, #32]
  if (HAL_PCD_Init(&hpcd_USB_FS) != HAL_OK)
 8003d8a:	f7fd fb19 	bl	80013c0 <HAL_PCD_Init>
 8003d8e:	b108      	cbz	r0, 8003d94 <USBD_LL_Init+0x2c>
    Error_Handler( );
 8003d90:	f7fd fa02 	bl	8001198 <Error_Handler>
  HAL_PCDEx_PMAConfig((PCD_HandleTypeDef*)pdev->pData , 0x00 , PCD_SNG_BUF, 0x18);
 8003d94:	2200      	movs	r2, #0
 8003d96:	2318      	movs	r3, #24
 8003d98:	4611      	mov	r1, r2
 8003d9a:	f8d4 02c0 	ldr.w	r0, [r4, #704]	; 0x2c0
 8003d9e:	f7fe f988 	bl	80020b2 <HAL_PCDEx_PMAConfig>
  HAL_PCDEx_PMAConfig((PCD_HandleTypeDef*)pdev->pData , 0x80 , PCD_SNG_BUF, 0x58);
 8003da2:	2358      	movs	r3, #88	; 0x58
 8003da4:	2200      	movs	r2, #0
 8003da6:	2180      	movs	r1, #128	; 0x80
 8003da8:	f8d4 02c0 	ldr.w	r0, [r4, #704]	; 0x2c0
 8003dac:	f7fe f981 	bl	80020b2 <HAL_PCDEx_PMAConfig>
  HAL_PCDEx_PMAConfig((PCD_HandleTypeDef*)pdev->pData , 0x81 , PCD_SNG_BUF, 0xC0);
 8003db0:	23c0      	movs	r3, #192	; 0xc0
 8003db2:	2200      	movs	r2, #0
 8003db4:	2181      	movs	r1, #129	; 0x81
 8003db6:	f8d4 02c0 	ldr.w	r0, [r4, #704]	; 0x2c0
 8003dba:	f7fe f97a 	bl	80020b2 <HAL_PCDEx_PMAConfig>
  HAL_PCDEx_PMAConfig((PCD_HandleTypeDef*)pdev->pData , 0x01 , PCD_SNG_BUF, 0x110);
 8003dbe:	f44f 7388 	mov.w	r3, #272	; 0x110
 8003dc2:	2200      	movs	r2, #0
 8003dc4:	2101      	movs	r1, #1
 8003dc6:	f8d4 02c0 	ldr.w	r0, [r4, #704]	; 0x2c0
 8003dca:	f7fe f972 	bl	80020b2 <HAL_PCDEx_PMAConfig>
  HAL_PCDEx_PMAConfig((PCD_HandleTypeDef*)pdev->pData , 0x82 , PCD_SNG_BUF, 0x100);
 8003dce:	f44f 7380 	mov.w	r3, #256	; 0x100
 8003dd2:	2200      	movs	r2, #0
 8003dd4:	2182      	movs	r1, #130	; 0x82
 8003dd6:	f8d4 02c0 	ldr.w	r0, [r4, #704]	; 0x2c0
 8003dda:	f7fe f96a 	bl	80020b2 <HAL_PCDEx_PMAConfig>
}
 8003dde:	2000      	movs	r0, #0
 8003de0:	bd10      	pop	{r4, pc}
 8003de2:	bf00      	nop
 8003de4:	40005c00 	.word	0x40005c00
 8003de8:	20000ec8 	.word	0x20000ec8

08003dec <USBD_LL_Start>:
{
 8003dec:	b508      	push	{r3, lr}
  hal_status = HAL_PCD_Start(pdev->pData);
 8003dee:	f8d0 02c0 	ldr.w	r0, [r0, #704]	; 0x2c0
 8003df2:	f7fd fb5d 	bl	80014b0 <HAL_PCD_Start>
}
 8003df6:	e8bd 4008 	ldmia.w	sp!, {r3, lr}
  usb_status =  USBD_Get_USB_Status(hal_status);
 8003dfa:	f7ff bf4b 	b.w	8003c94 <USBD_Get_USB_Status>

08003dfe <USBD_LL_OpenEP>:
{
 8003dfe:	b510      	push	{r4, lr}
 8003e00:	4614      	mov	r4, r2
  hal_status = HAL_PCD_EP_Open(pdev->pData, ep_addr, ep_mps, ep_type);
 8003e02:	f8d0 02c0 	ldr.w	r0, [r0, #704]	; 0x2c0
{
 8003e06:	461a      	mov	r2, r3
  hal_status = HAL_PCD_EP_Open(pdev->pData, ep_addr, ep_mps, ep_type);
 8003e08:	4623      	mov	r3, r4
 8003e0a:	f7fe f85d 	bl	8001ec8 <HAL_PCD_EP_Open>
}
 8003e0e:	e8bd 4010 	ldmia.w	sp!, {r4, lr}
  usb_status =  USBD_Get_USB_Status(hal_status);
 8003e12:	f7ff bf3f 	b.w	8003c94 <USBD_Get_USB_Status>

08003e16 <USBD_LL_CloseEP>:
{
 8003e16:	b508      	push	{r3, lr}
  hal_status = HAL_PCD_EP_Close(pdev->pData, ep_addr);
 8003e18:	f8d0 02c0 	ldr.w	r0, [r0, #704]	; 0x2c0
 8003e1c:	f7fe f883 	bl	8001f26 <HAL_PCD_EP_Close>
}
 8003e20:	e8bd 4008 	ldmia.w	sp!, {r3, lr}
  usb_status =  USBD_Get_USB_Status(hal_status);
 8003e24:	f7ff bf36 	b.w	8003c94 <USBD_Get_USB_Status>

08003e28 <USBD_LL_StallEP>:
{
 8003e28:	b508      	push	{r3, lr}
  hal_status = HAL_PCD_EP_SetStall(pdev->pData, ep_addr);
 8003e2a:	f8d0 02c0 	ldr.w	r0, [r0, #704]	; 0x2c0
 8003e2e:	f7fe f8db 	bl	8001fe8 <HAL_PCD_EP_SetStall>
}
 8003e32:	e8bd 4008 	ldmia.w	sp!, {r3, lr}
  usb_status =  USBD_Get_USB_Status(hal_status);
 8003e36:	f7ff bf2d 	b.w	8003c94 <USBD_Get_USB_Status>

08003e3a <USBD_LL_ClearStallEP>:
{
 8003e3a:	b508      	push	{r3, lr}
  hal_status = HAL_PCD_EP_ClrStall(pdev->pData, ep_addr);
 8003e3c:	f8d0 02c0 	ldr.w	r0, [r0, #704]	; 0x2c0
 8003e40:	f7fe f906 	bl	8002050 <HAL_PCD_EP_ClrStall>
}
 8003e44:	e8bd 4008 	ldmia.w	sp!, {r3, lr}
  usb_status =  USBD_Get_USB_Status(hal_status);
 8003e48:	f7ff bf24 	b.w	8003c94 <USBD_Get_USB_Status>

08003e4c <USBD_LL_IsStallEP>:
  PCD_HandleTypeDef *hpcd = (PCD_HandleTypeDef*) pdev->pData;
 8003e4c:	2228      	movs	r2, #40	; 0x28
  if((ep_addr & 0x80) == 0x80)
 8003e4e:	f011 0f80 	tst.w	r1, #128	; 0x80
  PCD_HandleTypeDef *hpcd = (PCD_HandleTypeDef*) pdev->pData;
 8003e52:	f8d0 32c0 	ldr.w	r3, [r0, #704]	; 0x2c0
    return hpcd->IN_ep[ep_addr & 0x7F].is_stall;
 8003e56:	bf1b      	ittet	ne
 8003e58:	f001 017f 	andne.w	r1, r1, #127	; 0x7f
 8003e5c:	fb01 2102 	mlane	r1, r1, r2, r2
    return hpcd->OUT_ep[ep_addr & 0x7F].is_stall;
 8003e60:	fb02 3101 	mlaeq	r1, r2, r1, r3
    return hpcd->IN_ep[ep_addr & 0x7F].is_stall;
 8003e64:	185b      	addne	r3, r3, r1
 8003e66:	bf14      	ite	ne
 8003e68:	7898      	ldrbne	r0, [r3, #2]
    return hpcd->OUT_ep[ep_addr & 0x7F].is_stall;
 8003e6a:	f891 016a 	ldrbeq.w	r0, [r1, #362]	; 0x16a
}
 8003e6e:	4770      	bx	lr

08003e70 <USBD_LL_SetUSBAddress>:
{
 8003e70:	b508      	push	{r3, lr}
  hal_status = HAL_PCD_SetAddress(pdev->pData, dev_addr);
 8003e72:	f8d0 02c0 	ldr.w	r0, [r0, #704]	; 0x2c0
 8003e76:	f7fd fb34 	bl	80014e2 <HAL_PCD_SetAddress>
}
 8003e7a:	e8bd 4008 	ldmia.w	sp!, {r3, lr}
  usb_status =  USBD_Get_USB_Status(hal_status);
 8003e7e:	f7ff bf09 	b.w	8003c94 <USBD_Get_USB_Status>

08003e82 <USBD_LL_Transmit>:
{
 8003e82:	b508      	push	{r3, lr}
  hal_status = HAL_PCD_EP_Transmit(pdev->pData, ep_addr, pbuf, size);
 8003e84:	f8d0 02c0 	ldr.w	r0, [r0, #704]	; 0x2c0
 8003e88:	f7fe f894 	bl	8001fb4 <HAL_PCD_EP_Transmit>
}
 8003e8c:	e8bd 4008 	ldmia.w	sp!, {r3, lr}
  usb_status =  USBD_Get_USB_Status(hal_status);
 8003e90:	f7ff bf00 	b.w	8003c94 <USBD_Get_USB_Status>

08003e94 <USBD_LL_PrepareReceive>:
{
 8003e94:	b508      	push	{r3, lr}
  hal_status = HAL_PCD_EP_Receive(pdev->pData, ep_addr, pbuf, size);
 8003e96:	f8d0 02c0 	ldr.w	r0, [r0, #704]	; 0x2c0
 8003e9a:	f7fe f86c 	bl	8001f76 <HAL_PCD_EP_Receive>
}
 8003e9e:	e8bd 4008 	ldmia.w	sp!, {r3, lr}
  usb_status =  USBD_Get_USB_Status(hal_status);
 8003ea2:	f7ff bef7 	b.w	8003c94 <USBD_Get_USB_Status>

08003ea6 <USBD_LL_GetRxDataSize>:
  return HAL_PCD_EP_GetRxCount((PCD_HandleTypeDef*) pdev->pData, ep_addr);
 8003ea6:	f8d0 02c0 	ldr.w	r0, [r0, #704]	; 0x2c0
 8003eaa:	f7fe b87b 	b.w	8001fa4 <HAL_PCD_EP_GetRxCount>
	...

08003eb0 <USBD_static_malloc>:
}
 8003eb0:	4800      	ldr	r0, [pc, #0]	; (8003eb4 <USBD_static_malloc+0x4>)
 8003eb2:	4770      	bx	lr
 8003eb4:	200011b8 	.word	0x200011b8

08003eb8 <USBD_static_free>:
}
 8003eb8:	4770      	bx	lr

08003eba <HAL_PCDEx_SetConnectionState>:
}
 8003eba:	4770      	bx	lr

08003ebc <abort>:
 8003ebc:	2006      	movs	r0, #6
 8003ebe:	b508      	push	{r3, lr}
 8003ec0:	f000 f86c 	bl	8003f9c <raise>
 8003ec4:	2001      	movs	r0, #1
 8003ec6:	f7fd f99f 	bl	8001208 <_exit>
	...

08003ecc <__errno>:
 8003ecc:	4b01      	ldr	r3, [pc, #4]	; (8003ed4 <__errno+0x8>)
 8003ece:	6818      	ldr	r0, [r3, #0]
 8003ed0:	4770      	bx	lr
 8003ed2:	bf00      	nop
 8003ed4:	2000017c 	.word	0x2000017c

08003ed8 <__libc_init_array>:
 8003ed8:	b570      	push	{r4, r5, r6, lr}
 8003eda:	2600      	movs	r6, #0
 8003edc:	4d0c      	ldr	r5, [pc, #48]	; (8003f10 <__libc_init_array+0x38>)
 8003ede:	4c0d      	ldr	r4, [pc, #52]	; (8003f14 <__libc_init_array+0x3c>)
 8003ee0:	1b64      	subs	r4, r4, r5
 8003ee2:	10a4      	asrs	r4, r4, #2
 8003ee4:	42a6      	cmp	r6, r4
 8003ee6:	d109      	bne.n	8003efc <__libc_init_array+0x24>
 8003ee8:	f000 f874 	bl	8003fd4 <_init>
 8003eec:	2600      	movs	r6, #0
 8003eee:	4d0a      	ldr	r5, [pc, #40]	; (8003f18 <__libc_init_array+0x40>)
 8003ef0:	4c0a      	ldr	r4, [pc, #40]	; (8003f1c <__libc_init_array+0x44>)
 8003ef2:	1b64      	subs	r4, r4, r5
 8003ef4:	10a4      	asrs	r4, r4, #2
 8003ef6:	42a6      	cmp	r6, r4
 8003ef8:	d105      	bne.n	8003f06 <__libc_init_array+0x2e>
 8003efa:	bd70      	pop	{r4, r5, r6, pc}
 8003efc:	f855 3b04 	ldr.w	r3, [r5], #4
 8003f00:	4798      	blx	r3
 8003f02:	3601      	adds	r6, #1
 8003f04:	e7ee      	b.n	8003ee4 <__libc_init_array+0xc>
 8003f06:	f855 3b04 	ldr.w	r3, [r5], #4
 8003f0a:	4798      	blx	r3
 8003f0c:	3601      	adds	r6, #1
 8003f0e:	e7f2      	b.n	8003ef6 <__libc_init_array+0x1e>
 8003f10:	080044b0 	.word	0x080044b0
 8003f14:	080044b0 	.word	0x080044b0
 8003f18:	080044b0 	.word	0x080044b0
 8003f1c:	080044b4 	.word	0x080044b4

08003f20 <memcpy>:
 8003f20:	440a      	add	r2, r1
 8003f22:	4291      	cmp	r1, r2
 8003f24:	f100 33ff 	add.w	r3, r0, #4294967295
 8003f28:	d100      	bne.n	8003f2c <memcpy+0xc>
 8003f2a:	4770      	bx	lr
 8003f2c:	b510      	push	{r4, lr}
 8003f2e:	f811 4b01 	ldrb.w	r4, [r1], #1
 8003f32:	4291      	cmp	r1, r2
 8003f34:	f803 4f01 	strb.w	r4, [r3, #1]!
 8003f38:	d1f9      	bne.n	8003f2e <memcpy+0xe>
 8003f3a:	bd10      	pop	{r4, pc}

08003f3c <memset>:
 8003f3c:	4603      	mov	r3, r0
 8003f3e:	4402      	add	r2, r0
 8003f40:	4293      	cmp	r3, r2
 8003f42:	d100      	bne.n	8003f46 <memset+0xa>
 8003f44:	4770      	bx	lr
 8003f46:	f803 1b01 	strb.w	r1, [r3], #1
 8003f4a:	e7f9      	b.n	8003f40 <memset+0x4>

08003f4c <_raise_r>:
 8003f4c:	291f      	cmp	r1, #31
 8003f4e:	b538      	push	{r3, r4, r5, lr}
 8003f50:	4604      	mov	r4, r0
 8003f52:	460d      	mov	r5, r1
 8003f54:	d904      	bls.n	8003f60 <_raise_r+0x14>
 8003f56:	2316      	movs	r3, #22
 8003f58:	6003      	str	r3, [r0, #0]
 8003f5a:	f04f 30ff 	mov.w	r0, #4294967295
 8003f5e:	bd38      	pop	{r3, r4, r5, pc}
 8003f60:	6c42      	ldr	r2, [r0, #68]	; 0x44
 8003f62:	b112      	cbz	r2, 8003f6a <_raise_r+0x1e>
 8003f64:	f852 3021 	ldr.w	r3, [r2, r1, lsl #2]
 8003f68:	b94b      	cbnz	r3, 8003f7e <_raise_r+0x32>
 8003f6a:	4620      	mov	r0, r4
 8003f6c:	f000 f830 	bl	8003fd0 <_getpid_r>
 8003f70:	462a      	mov	r2, r5
 8003f72:	4601      	mov	r1, r0
 8003f74:	4620      	mov	r0, r4
 8003f76:	e8bd 4038 	ldmia.w	sp!, {r3, r4, r5, lr}
 8003f7a:	f000 b817 	b.w	8003fac <_kill_r>
 8003f7e:	2b01      	cmp	r3, #1
 8003f80:	d00a      	beq.n	8003f98 <_raise_r+0x4c>
 8003f82:	1c59      	adds	r1, r3, #1
 8003f84:	d103      	bne.n	8003f8e <_raise_r+0x42>
 8003f86:	2316      	movs	r3, #22
 8003f88:	6003      	str	r3, [r0, #0]
 8003f8a:	2001      	movs	r0, #1
 8003f8c:	e7e7      	b.n	8003f5e <_raise_r+0x12>
 8003f8e:	2400      	movs	r4, #0
 8003f90:	4628      	mov	r0, r5
 8003f92:	f842 4025 	str.w	r4, [r2, r5, lsl #2]
 8003f96:	4798      	blx	r3
 8003f98:	2000      	movs	r0, #0
 8003f9a:	e7e0      	b.n	8003f5e <_raise_r+0x12>

08003f9c <raise>:
 8003f9c:	4b02      	ldr	r3, [pc, #8]	; (8003fa8 <raise+0xc>)
 8003f9e:	4601      	mov	r1, r0
 8003fa0:	6818      	ldr	r0, [r3, #0]
 8003fa2:	f7ff bfd3 	b.w	8003f4c <_raise_r>
 8003fa6:	bf00      	nop
 8003fa8:	2000017c 	.word	0x2000017c

08003fac <_kill_r>:
 8003fac:	b538      	push	{r3, r4, r5, lr}
 8003fae:	2300      	movs	r3, #0
 8003fb0:	4d06      	ldr	r5, [pc, #24]	; (8003fcc <_kill_r+0x20>)
 8003fb2:	4604      	mov	r4, r0
 8003fb4:	4608      	mov	r0, r1
 8003fb6:	4611      	mov	r1, r2
 8003fb8:	602b      	str	r3, [r5, #0]
 8003fba:	f7fd f91d 	bl	80011f8 <_kill>
 8003fbe:	1c43      	adds	r3, r0, #1
 8003fc0:	d102      	bne.n	8003fc8 <_kill_r+0x1c>
 8003fc2:	682b      	ldr	r3, [r5, #0]
 8003fc4:	b103      	cbz	r3, 8003fc8 <_kill_r+0x1c>
 8003fc6:	6023      	str	r3, [r4, #0]
 8003fc8:	bd38      	pop	{r3, r4, r5, pc}
 8003fca:	bf00      	nop
 8003fcc:	200013d8 	.word	0x200013d8

08003fd0 <_getpid_r>:
 8003fd0:	f7fd b910 	b.w	80011f4 <_getpid>

08003fd4 <_init>:
 8003fd4:	b5f8      	push	{r3, r4, r5, r6, r7, lr}
 8003fd6:	bf00      	nop
 8003fd8:	bcf8      	pop	{r3, r4, r5, r6, r7}
 8003fda:	bc08      	pop	{r3}
 8003fdc:	469e      	mov	lr, r3
 8003fde:	4770      	bx	lr

08003fe0 <_fini>:
 8003fe0:	b5f8      	push	{r3, r4, r5, r6, r7, lr}
 8003fe2:	bf00      	nop
 8003fe4:	bcf8      	pop	{r3, r4, r5, r6, r7}
 8003fe6:	bc08      	pop	{r3}
 8003fe8:	469e      	mov	lr, r3
 8003fea:	4770      	bx	lr
